   1              	 .syntax unified
   2              	 .cpu cortex-m4
   3              	 .eabi_attribute 27,3
   4              	 .fpu fpv4-sp-d16
   5              	 .eabi_attribute 20,1
   6              	 .eabi_attribute 21,1
   7              	 .eabi_attribute 23,3
   8              	 .eabi_attribute 24,1
   9              	 .eabi_attribute 25,1
  10              	 .eabi_attribute 26,1
  11              	 .eabi_attribute 30,2
  12              	 .eabi_attribute 34,1
  13              	 .eabi_attribute 18,4
  14              	 .thumb
  15              	 .file "optiga_crypt.c"
  16              	 .text
  17              	.Ltext0:
  18              	 .cfi_sections .debug_frame
  19              	 .section .text.optiga_crypt_generic_event_handler,"ax",%progbits
  20              	 .align 2
  21              	 .thumb
  22              	 .thumb_func
  24              	optiga_crypt_generic_event_handler:
  25              	.LFB1:
  26              	 .file 1 "D:/School/diseratie/SEMS/xmc4800_evaluation_kit/optiga-trust-m/optiga/crypt/optiga_crypt.c"
   1:D:/School/diseratie/SEMS/xmc4800_evaluation_kit/optiga-trust-m/optiga/crypt\optiga_crypt.c **** /**
   2:D:/School/diseratie/SEMS/xmc4800_evaluation_kit/optiga-trust-m/optiga/crypt\optiga_crypt.c **** * \copyright
   3:D:/School/diseratie/SEMS/xmc4800_evaluation_kit/optiga-trust-m/optiga/crypt\optiga_crypt.c **** * MIT License
   4:D:/School/diseratie/SEMS/xmc4800_evaluation_kit/optiga-trust-m/optiga/crypt\optiga_crypt.c **** *
   5:D:/School/diseratie/SEMS/xmc4800_evaluation_kit/optiga-trust-m/optiga/crypt\optiga_crypt.c **** * Copyright (c) 2020 Infineon Technologies AG
   6:D:/School/diseratie/SEMS/xmc4800_evaluation_kit/optiga-trust-m/optiga/crypt\optiga_crypt.c **** *
   7:D:/School/diseratie/SEMS/xmc4800_evaluation_kit/optiga-trust-m/optiga/crypt\optiga_crypt.c **** * Permission is hereby granted, free of charge, to any person obtaining a copy
   8:D:/School/diseratie/SEMS/xmc4800_evaluation_kit/optiga-trust-m/optiga/crypt\optiga_crypt.c **** * of this software and associated documentation files (the "Software"), to deal
   9:D:/School/diseratie/SEMS/xmc4800_evaluation_kit/optiga-trust-m/optiga/crypt\optiga_crypt.c **** * in the Software without restriction, including without limitation the rights
  10:D:/School/diseratie/SEMS/xmc4800_evaluation_kit/optiga-trust-m/optiga/crypt\optiga_crypt.c **** * to use, copy, modify, merge, publish, distribute, sublicense, and/or sell
  11:D:/School/diseratie/SEMS/xmc4800_evaluation_kit/optiga-trust-m/optiga/crypt\optiga_crypt.c **** * copies of the Software, and to permit persons to whom the Software is
  12:D:/School/diseratie/SEMS/xmc4800_evaluation_kit/optiga-trust-m/optiga/crypt\optiga_crypt.c **** * furnished to do so, subject to the following conditions:
  13:D:/School/diseratie/SEMS/xmc4800_evaluation_kit/optiga-trust-m/optiga/crypt\optiga_crypt.c **** *
  14:D:/School/diseratie/SEMS/xmc4800_evaluation_kit/optiga-trust-m/optiga/crypt\optiga_crypt.c **** * The above copyright notice and this permission notice shall be included in all
  15:D:/School/diseratie/SEMS/xmc4800_evaluation_kit/optiga-trust-m/optiga/crypt\optiga_crypt.c **** * copies or substantial portions of the Software.
  16:D:/School/diseratie/SEMS/xmc4800_evaluation_kit/optiga-trust-m/optiga/crypt\optiga_crypt.c **** *
  17:D:/School/diseratie/SEMS/xmc4800_evaluation_kit/optiga-trust-m/optiga/crypt\optiga_crypt.c **** * THE SOFTWARE IS PROVIDED "AS IS", WITHOUT WARRANTY OF ANY KIND, EXPRESS OR
  18:D:/School/diseratie/SEMS/xmc4800_evaluation_kit/optiga-trust-m/optiga/crypt\optiga_crypt.c **** * IMPLIED, INCLUDING BUT NOT LIMITED TO THE WARRANTIES OF MERCHANTABILITY,
  19:D:/School/diseratie/SEMS/xmc4800_evaluation_kit/optiga-trust-m/optiga/crypt\optiga_crypt.c **** * FITNESS FOR A PARTICULAR PURPOSE AND NONINFRINGEMENT. IN NO EVENT SHALL THE
  20:D:/School/diseratie/SEMS/xmc4800_evaluation_kit/optiga-trust-m/optiga/crypt\optiga_crypt.c **** * AUTHORS OR COPYRIGHT HOLDERS BE LIABLE FOR ANY CLAIM, DAMAGES OR OTHER
  21:D:/School/diseratie/SEMS/xmc4800_evaluation_kit/optiga-trust-m/optiga/crypt\optiga_crypt.c **** * LIABILITY, WHETHER IN AN ACTION OF CONTRACT, TORT OR OTHERWISE, ARISING FROM,
  22:D:/School/diseratie/SEMS/xmc4800_evaluation_kit/optiga-trust-m/optiga/crypt\optiga_crypt.c **** * OUT OF OR IN CONNECTION WITH THE SOFTWARE OR THE USE OR OTHER DEALINGS IN THE
  23:D:/School/diseratie/SEMS/xmc4800_evaluation_kit/optiga-trust-m/optiga/crypt\optiga_crypt.c **** * SOFTWARE
  24:D:/School/diseratie/SEMS/xmc4800_evaluation_kit/optiga-trust-m/optiga/crypt\optiga_crypt.c **** *
  25:D:/School/diseratie/SEMS/xmc4800_evaluation_kit/optiga-trust-m/optiga/crypt\optiga_crypt.c **** * \endcopyright
  26:D:/School/diseratie/SEMS/xmc4800_evaluation_kit/optiga-trust-m/optiga/crypt\optiga_crypt.c **** *
  27:D:/School/diseratie/SEMS/xmc4800_evaluation_kit/optiga-trust-m/optiga/crypt\optiga_crypt.c **** * \author Infineon Technologies AG
  28:D:/School/diseratie/SEMS/xmc4800_evaluation_kit/optiga-trust-m/optiga/crypt\optiga_crypt.c **** *
  29:D:/School/diseratie/SEMS/xmc4800_evaluation_kit/optiga-trust-m/optiga/crypt\optiga_crypt.c **** * \file optiga_crypt.c
  30:D:/School/diseratie/SEMS/xmc4800_evaluation_kit/optiga-trust-m/optiga/crypt\optiga_crypt.c **** *
  31:D:/School/diseratie/SEMS/xmc4800_evaluation_kit/optiga-trust-m/optiga/crypt\optiga_crypt.c **** * \brief   This file implements the OPTIGA Crypt module.
  32:D:/School/diseratie/SEMS/xmc4800_evaluation_kit/optiga-trust-m/optiga/crypt\optiga_crypt.c **** *
  33:D:/School/diseratie/SEMS/xmc4800_evaluation_kit/optiga-trust-m/optiga/crypt\optiga_crypt.c **** * \ingroup  grOptigaCrypt
  34:D:/School/diseratie/SEMS/xmc4800_evaluation_kit/optiga-trust-m/optiga/crypt\optiga_crypt.c **** *
  35:D:/School/diseratie/SEMS/xmc4800_evaluation_kit/optiga-trust-m/optiga/crypt\optiga_crypt.c **** * @{
  36:D:/School/diseratie/SEMS/xmc4800_evaluation_kit/optiga-trust-m/optiga/crypt\optiga_crypt.c **** */
  37:D:/School/diseratie/SEMS/xmc4800_evaluation_kit/optiga-trust-m/optiga/crypt\optiga_crypt.c **** 
  38:D:/School/diseratie/SEMS/xmc4800_evaluation_kit/optiga-trust-m/optiga/crypt\optiga_crypt.c **** 
  39:D:/School/diseratie/SEMS/xmc4800_evaluation_kit/optiga-trust-m/optiga/crypt\optiga_crypt.c **** #include "optiga/optiga_crypt.h"
  40:D:/School/diseratie/SEMS/xmc4800_evaluation_kit/optiga-trust-m/optiga/crypt\optiga_crypt.c **** #include "optiga/common/optiga_lib_logger.h"
  41:D:/School/diseratie/SEMS/xmc4800_evaluation_kit/optiga-trust-m/optiga/crypt\optiga_crypt.c **** #include "optiga/common/optiga_lib_common_internal.h"
  42:D:/School/diseratie/SEMS/xmc4800_evaluation_kit/optiga-trust-m/optiga/crypt\optiga_crypt.c **** #include "optiga/pal/pal_os_memory.h"
  43:D:/School/diseratie/SEMS/xmc4800_evaluation_kit/optiga-trust-m/optiga/crypt\optiga_crypt.c **** 
  44:D:/School/diseratie/SEMS/xmc4800_evaluation_kit/optiga-trust-m/optiga/crypt\optiga_crypt.c **** /// ECDSA FIPS 186-3 without hash
  45:D:/School/diseratie/SEMS/xmc4800_evaluation_kit/optiga-trust-m/optiga/crypt\optiga_crypt.c **** #define OPTIGA_CRYPT_ECDSA_FIPS_186_3_WITHOUT_HASH                  (0x11)
  46:D:/School/diseratie/SEMS/xmc4800_evaluation_kit/optiga-trust-m/optiga/crypt\optiga_crypt.c **** /// Elliptic Curve Diffie-Hellman key agreement algorithm
  47:D:/School/diseratie/SEMS/xmc4800_evaluation_kit/optiga-trust-m/optiga/crypt\optiga_crypt.c **** #define OPTIGA_CRYPT_ECDH_KEY_AGREEMENT_ALGORITHM                   (0x01)
  48:D:/School/diseratie/SEMS/xmc4800_evaluation_kit/optiga-trust-m/optiga/crypt\optiga_crypt.c **** /// Minimum length of random data
  49:D:/School/diseratie/SEMS/xmc4800_evaluation_kit/optiga-trust-m/optiga/crypt\optiga_crypt.c **** #define OPTIGA_CRYPT_MINIMUM_RANDOM_DATA_LENGTH                     (0x08)
  50:D:/School/diseratie/SEMS/xmc4800_evaluation_kit/optiga-trust-m/optiga/crypt\optiga_crypt.c **** /// Param type for optiga pre-master secret
  51:D:/School/diseratie/SEMS/xmc4800_evaluation_kit/optiga-trust-m/optiga/crypt\optiga_crypt.c **** #define OPTIGA_CRYTP_RANDOM_PARAM_PRE_MASTER_SECRET                 (0x04)
  52:D:/School/diseratie/SEMS/xmc4800_evaluation_kit/optiga-trust-m/optiga/crypt\optiga_crypt.c **** /// Minimum optional data length
  53:D:/School/diseratie/SEMS/xmc4800_evaluation_kit/optiga-trust-m/optiga/crypt\optiga_crypt.c **** #define OPTIGA_CRYPT_MINIMUM_OPTIONAL_DATA_LENGTH                   (0x3A)
  54:D:/School/diseratie/SEMS/xmc4800_evaluation_kit/optiga-trust-m/optiga/crypt\optiga_crypt.c **** #if defined (OPTIGA_CRYPT_SYM_ENCRYPT_ENABLED) && defined (OPTIGA_CRYPT_SYM_DECRYPT_ENABLED)
  55:D:/School/diseratie/SEMS/xmc4800_evaluation_kit/optiga-trust-m/optiga/crypt\optiga_crypt.c **** /// Symmetric Encryption 
  56:D:/School/diseratie/SEMS/xmc4800_evaluation_kit/optiga-trust-m/optiga/crypt\optiga_crypt.c **** #define OPTIGA_CRYPT_SYMMETRIC_ENCRYPTION                           (0x01)
  57:D:/School/diseratie/SEMS/xmc4800_evaluation_kit/optiga-trust-m/optiga/crypt\optiga_crypt.c **** /// Symmetric Decryption 
  58:D:/School/diseratie/SEMS/xmc4800_evaluation_kit/optiga-trust-m/optiga/crypt\optiga_crypt.c **** #define OPTIGA_CRYPT_SYMMETRIC_DECRYPTION                           (0x00)
  59:D:/School/diseratie/SEMS/xmc4800_evaluation_kit/optiga-trust-m/optiga/crypt\optiga_crypt.c **** #endif
  60:D:/School/diseratie/SEMS/xmc4800_evaluation_kit/optiga-trust-m/optiga/crypt\optiga_crypt.c **** #if defined (OPTIGA_CRYPT_SYM_DECRYPT_ENABLED) || defined (OPTIGA_CRYPT_HMAC_VERIFY_ENABLED) ||\
  61:D:/School/diseratie/SEMS/xmc4800_evaluation_kit/optiga-trust-m/optiga/crypt\optiga_crypt.c ****     defined (OPTIGA_CRYPT_CLEAR_AUTO_STATE_ENABLED)
  62:D:/School/diseratie/SEMS/xmc4800_evaluation_kit/optiga-trust-m/optiga/crypt\optiga_crypt.c **** /// MAC generation using HMAC operation
  63:D:/School/diseratie/SEMS/xmc4800_evaluation_kit/optiga-trust-m/optiga/crypt\optiga_crypt.c **** #define OPTIGA_CRYPT_HMAC                                           (0x02)
  64:D:/School/diseratie/SEMS/xmc4800_evaluation_kit/optiga-trust-m/optiga/crypt\optiga_crypt.c **** #endif
  65:D:/School/diseratie/SEMS/xmc4800_evaluation_kit/optiga-trust-m/optiga/crypt\optiga_crypt.c **** #ifdef OPTIGA_CRYPT_CLEAR_AUTO_STATE_ENABLED
  66:D:/School/diseratie/SEMS/xmc4800_evaluation_kit/optiga-trust-m/optiga/crypt\optiga_crypt.c **** /// Clearing AUTOREF state using clear auto ref operation
  67:D:/School/diseratie/SEMS/xmc4800_evaluation_kit/optiga-trust-m/optiga/crypt\optiga_crypt.c **** #define OPTIGA_CRYPT_CLEAR_AUTO_STATE                               (0x03)
  68:D:/School/diseratie/SEMS/xmc4800_evaluation_kit/optiga-trust-m/optiga/crypt\optiga_crypt.c **** #endif
  69:D:/School/diseratie/SEMS/xmc4800_evaluation_kit/optiga-trust-m/optiga/crypt\optiga_crypt.c **** 
  70:D:/School/diseratie/SEMS/xmc4800_evaluation_kit/optiga-trust-m/optiga/crypt\optiga_crypt.c **** #if defined (OPTIGA_LIB_ENABLE_LOGGING) && defined (OPTIGA_LIB_ENABLE_CRYPT_LOGGING)
  71:D:/School/diseratie/SEMS/xmc4800_evaluation_kit/optiga-trust-m/optiga/crypt\optiga_crypt.c **** 
  72:D:/School/diseratie/SEMS/xmc4800_evaluation_kit/optiga-trust-m/optiga/crypt\optiga_crypt.c **** // Logs the message provided from Crypt layer
  73:D:/School/diseratie/SEMS/xmc4800_evaluation_kit/optiga-trust-m/optiga/crypt\optiga_crypt.c **** #define OPTIGA_CRYPT_LOG_MESSAGE(msg) \
  74:D:/School/diseratie/SEMS/xmc4800_evaluation_kit/optiga-trust-m/optiga/crypt\optiga_crypt.c **** {\
  75:D:/School/diseratie/SEMS/xmc4800_evaluation_kit/optiga-trust-m/optiga/crypt\optiga_crypt.c ****     optiga_lib_print_message(msg,OPTIGA_CRYPT_SERVICE,OPTIGA_CRYPT_SERVICE_COLOR);\
  76:D:/School/diseratie/SEMS/xmc4800_evaluation_kit/optiga-trust-m/optiga/crypt\optiga_crypt.c **** }
  77:D:/School/diseratie/SEMS/xmc4800_evaluation_kit/optiga-trust-m/optiga/crypt\optiga_crypt.c **** 
  78:D:/School/diseratie/SEMS/xmc4800_evaluation_kit/optiga-trust-m/optiga/crypt\optiga_crypt.c **** // Logs the byte array buffer provided from Crypt layer in hexadecimal format
  79:D:/School/diseratie/SEMS/xmc4800_evaluation_kit/optiga-trust-m/optiga/crypt\optiga_crypt.c **** //lint --e{750} suppress "The unused OPTIGA_CRYPT_LOG_HEX_DATA macro is kept for future enhancement
  80:D:/School/diseratie/SEMS/xmc4800_evaluation_kit/optiga-trust-m/optiga/crypt\optiga_crypt.c **** #define OPTIGA_CRYPT_LOG_HEX_DATA(array,array_len) \
  81:D:/School/diseratie/SEMS/xmc4800_evaluation_kit/optiga-trust-m/optiga/crypt\optiga_crypt.c **** {\
  82:D:/School/diseratie/SEMS/xmc4800_evaluation_kit/optiga-trust-m/optiga/crypt\optiga_crypt.c ****     optiga_lib_print_array_hex_format(array,array_len,OPTIGA_UNPROTECTED_DATA_COLOR);\
  83:D:/School/diseratie/SEMS/xmc4800_evaluation_kit/optiga-trust-m/optiga/crypt\optiga_crypt.c **** }
  84:D:/School/diseratie/SEMS/xmc4800_evaluation_kit/optiga-trust-m/optiga/crypt\optiga_crypt.c **** 
  85:D:/School/diseratie/SEMS/xmc4800_evaluation_kit/optiga-trust-m/optiga/crypt\optiga_crypt.c **** //Logs the status info provided from Crypt layer
  86:D:/School/diseratie/SEMS/xmc4800_evaluation_kit/optiga-trust-m/optiga/crypt\optiga_crypt.c **** //lint --e{750} suppress "The unused OPTIGA_CRYPT_LOG_STATUS macro is kept for future enhancements"
  87:D:/School/diseratie/SEMS/xmc4800_evaluation_kit/optiga-trust-m/optiga/crypt\optiga_crypt.c **** #define OPTIGA_CRYPT_LOG_STATUS(return_value) \
  88:D:/School/diseratie/SEMS/xmc4800_evaluation_kit/optiga-trust-m/optiga/crypt\optiga_crypt.c **** { \
  89:D:/School/diseratie/SEMS/xmc4800_evaluation_kit/optiga-trust-m/optiga/crypt\optiga_crypt.c ****     if (OPTIGA_LIB_SUCCESS != return_value) \
  90:D:/School/diseratie/SEMS/xmc4800_evaluation_kit/optiga-trust-m/optiga/crypt\optiga_crypt.c ****     { \
  91:D:/School/diseratie/SEMS/xmc4800_evaluation_kit/optiga-trust-m/optiga/crypt\optiga_crypt.c ****         optiga_lib_print_status(OPTIGA_CRYPT_SERVICE,OPTIGA_ERROR_COLOR,return_value); \
  92:D:/School/diseratie/SEMS/xmc4800_evaluation_kit/optiga-trust-m/optiga/crypt\optiga_crypt.c ****     } \
  93:D:/School/diseratie/SEMS/xmc4800_evaluation_kit/optiga-trust-m/optiga/crypt\optiga_crypt.c ****     else\
  94:D:/School/diseratie/SEMS/xmc4800_evaluation_kit/optiga-trust-m/optiga/crypt\optiga_crypt.c ****     { \
  95:D:/School/diseratie/SEMS/xmc4800_evaluation_kit/optiga-trust-m/optiga/crypt\optiga_crypt.c ****         optiga_lib_print_status(OPTIGA_CRYPT_SERVICE,OPTIGA_CRYPT_SERVICE_COLOR,return_value); \
  96:D:/School/diseratie/SEMS/xmc4800_evaluation_kit/optiga-trust-m/optiga/crypt\optiga_crypt.c ****     } \
  97:D:/School/diseratie/SEMS/xmc4800_evaluation_kit/optiga-trust-m/optiga/crypt\optiga_crypt.c **** }
  98:D:/School/diseratie/SEMS/xmc4800_evaluation_kit/optiga-trust-m/optiga/crypt\optiga_crypt.c **** #else
  99:D:/School/diseratie/SEMS/xmc4800_evaluation_kit/optiga-trust-m/optiga/crypt\optiga_crypt.c **** 
 100:D:/School/diseratie/SEMS/xmc4800_evaluation_kit/optiga-trust-m/optiga/crypt\optiga_crypt.c **** #define OPTIGA_CRYPT_LOG_MESSAGE(msg) {}
 101:D:/School/diseratie/SEMS/xmc4800_evaluation_kit/optiga-trust-m/optiga/crypt\optiga_crypt.c **** //lint --e{750} suppress "The unused OPTIGA_CRYPT_LOG_HEX_DATA macro is kept for future enhancement
 102:D:/School/diseratie/SEMS/xmc4800_evaluation_kit/optiga-trust-m/optiga/crypt\optiga_crypt.c **** #define OPTIGA_CRYPT_LOG_HEX_DATA(array, array_len) {}
 103:D:/School/diseratie/SEMS/xmc4800_evaluation_kit/optiga-trust-m/optiga/crypt\optiga_crypt.c **** //lint --e{750} suppress "The unused OPTIGA_CRYPT_LOG_STATUS macro is kept for future enhancements"
 104:D:/School/diseratie/SEMS/xmc4800_evaluation_kit/optiga-trust-m/optiga/crypt\optiga_crypt.c **** #define OPTIGA_CRYPT_LOG_STATUS(return_value) {}
 105:D:/School/diseratie/SEMS/xmc4800_evaluation_kit/optiga-trust-m/optiga/crypt\optiga_crypt.c **** 
 106:D:/School/diseratie/SEMS/xmc4800_evaluation_kit/optiga-trust-m/optiga/crypt\optiga_crypt.c **** #endif
 107:D:/School/diseratie/SEMS/xmc4800_evaluation_kit/optiga-trust-m/optiga/crypt\optiga_crypt.c **** 
 108:D:/School/diseratie/SEMS/xmc4800_evaluation_kit/optiga-trust-m/optiga/crypt\optiga_crypt.c **** _STATIC_H void optiga_crypt_generic_event_handler(void * p_ctx,
 109:D:/School/diseratie/SEMS/xmc4800_evaluation_kit/optiga-trust-m/optiga/crypt\optiga_crypt.c ****                                                   optiga_lib_status_t event)
 110:D:/School/diseratie/SEMS/xmc4800_evaluation_kit/optiga-trust-m/optiga/crypt\optiga_crypt.c **** {
  27              	 .loc 1 110 0
  28              	 .cfi_startproc
  29              	 
  30              	 
  31              	 
  32              	.LVL0:
 111:D:/School/diseratie/SEMS/xmc4800_evaluation_kit/optiga-trust-m/optiga/crypt\optiga_crypt.c ****     optiga_crypt_t * me = (optiga_crypt_t *)p_ctx;
 112:D:/School/diseratie/SEMS/xmc4800_evaluation_kit/optiga-trust-m/optiga/crypt\optiga_crypt.c **** 
 113:D:/School/diseratie/SEMS/xmc4800_evaluation_kit/optiga-trust-m/optiga/crypt\optiga_crypt.c ****     me->instance_state = OPTIGA_LIB_INSTANCE_FREE;
  33              	 .loc 1 113 0
  34 0000 0023     	 movs r3,#0
  35 0002 8385     	 strh r3,[r0,#44]
 114:D:/School/diseratie/SEMS/xmc4800_evaluation_kit/optiga-trust-m/optiga/crypt\optiga_crypt.c ****     me->handler(me->caller_context, event);
  36              	 .loc 1 114 0
  37 0004 836A     	 ldr r3,[r0,#40]
  38 0006 406A     	 ldr r0,[r0,#36]
  39              	.LVL1:
  40 0008 1847     	 bx r3
  41              	.LVL2:
  42              	 .cfi_endproc
  43              	.LFE1:
  45 000a 00BF     	 .section .text.optiga_crypt_set_comms_params,"ax",%progbits
  46              	 .align 2
  47              	 .global optiga_crypt_set_comms_params
  48              	 .thumb
  49              	 .thumb_func
  51              	optiga_crypt_set_comms_params:
  52              	.LFB10:
 115:D:/School/diseratie/SEMS/xmc4800_evaluation_kit/optiga-trust-m/optiga/crypt\optiga_crypt.c **** }
 116:D:/School/diseratie/SEMS/xmc4800_evaluation_kit/optiga-trust-m/optiga/crypt\optiga_crypt.c **** 
 117:D:/School/diseratie/SEMS/xmc4800_evaluation_kit/optiga-trust-m/optiga/crypt\optiga_crypt.c **** _STATIC_H void optiga_crypt_reset_protection_level(optiga_crypt_t * me)
 118:D:/School/diseratie/SEMS/xmc4800_evaluation_kit/optiga-trust-m/optiga/crypt\optiga_crypt.c **** {
 119:D:/School/diseratie/SEMS/xmc4800_evaluation_kit/optiga-trust-m/optiga/crypt\optiga_crypt.c **** #ifdef OPTIGA_LIB_DEBUG_NULL_CHECK
 120:D:/School/diseratie/SEMS/xmc4800_evaluation_kit/optiga-trust-m/optiga/crypt\optiga_crypt.c ****     if (NULL != me)
 121:D:/School/diseratie/SEMS/xmc4800_evaluation_kit/optiga-trust-m/optiga/crypt\optiga_crypt.c **** #endif
 122:D:/School/diseratie/SEMS/xmc4800_evaluation_kit/optiga-trust-m/optiga/crypt\optiga_crypt.c ****     {
 123:D:/School/diseratie/SEMS/xmc4800_evaluation_kit/optiga-trust-m/optiga/crypt\optiga_crypt.c ****         OPTIGA_CRYPT_SET_COMMS_PROTECTION_LEVEL(me, OPTIGA_COMMS_DEFAULT_PROTECTION_LEVEL);
 124:D:/School/diseratie/SEMS/xmc4800_evaluation_kit/optiga-trust-m/optiga/crypt\optiga_crypt.c ****     }
 125:D:/School/diseratie/SEMS/xmc4800_evaluation_kit/optiga-trust-m/optiga/crypt\optiga_crypt.c **** }
 126:D:/School/diseratie/SEMS/xmc4800_evaluation_kit/optiga-trust-m/optiga/crypt\optiga_crypt.c **** 
 127:D:/School/diseratie/SEMS/xmc4800_evaluation_kit/optiga-trust-m/optiga/crypt\optiga_crypt.c **** extern void optiga_cmd_set_shielded_connection_option(optiga_cmd_t * me,
 128:D:/School/diseratie/SEMS/xmc4800_evaluation_kit/optiga-trust-m/optiga/crypt\optiga_crypt.c ****                                                       uint8_t value,
 129:D:/School/diseratie/SEMS/xmc4800_evaluation_kit/optiga-trust-m/optiga/crypt\optiga_crypt.c ****                                                       uint8_t shielded_connection_option);
 130:D:/School/diseratie/SEMS/xmc4800_evaluation_kit/optiga-trust-m/optiga/crypt\optiga_crypt.c **** 
 131:D:/School/diseratie/SEMS/xmc4800_evaluation_kit/optiga-trust-m/optiga/crypt\optiga_crypt.c **** #if defined (OPTIGA_CRYPT_ECC_GENERATE_KEYPAIR_ENABLED) || defined (OPTIGA_CRYPT_RSA_GENERATE_KEYPA
 132:D:/School/diseratie/SEMS/xmc4800_evaluation_kit/optiga-trust-m/optiga/crypt\optiga_crypt.c **** _STATIC_H optiga_lib_status_t optiga_crypt_generate_keypair(optiga_crypt_t * me,
 133:D:/School/diseratie/SEMS/xmc4800_evaluation_kit/optiga-trust-m/optiga/crypt\optiga_crypt.c ****                                                             uint8_t cmd_param,
 134:D:/School/diseratie/SEMS/xmc4800_evaluation_kit/optiga-trust-m/optiga/crypt\optiga_crypt.c ****                                                             uint8_t key_usage,
 135:D:/School/diseratie/SEMS/xmc4800_evaluation_kit/optiga-trust-m/optiga/crypt\optiga_crypt.c ****                                                             bool_t export_private_key,
 136:D:/School/diseratie/SEMS/xmc4800_evaluation_kit/optiga-trust-m/optiga/crypt\optiga_crypt.c ****                                                             void * p_private_key,
 137:D:/School/diseratie/SEMS/xmc4800_evaluation_kit/optiga-trust-m/optiga/crypt\optiga_crypt.c ****                                                             uint8_t * p_public_key,
 138:D:/School/diseratie/SEMS/xmc4800_evaluation_kit/optiga-trust-m/optiga/crypt\optiga_crypt.c ****                                                             uint16_t * p_public_key_length)
 139:D:/School/diseratie/SEMS/xmc4800_evaluation_kit/optiga-trust-m/optiga/crypt\optiga_crypt.c **** {
 140:D:/School/diseratie/SEMS/xmc4800_evaluation_kit/optiga-trust-m/optiga/crypt\optiga_crypt.c ****     optiga_lib_status_t return_value = OPTIGA_CRYPT_ERROR;
 141:D:/School/diseratie/SEMS/xmc4800_evaluation_kit/optiga-trust-m/optiga/crypt\optiga_crypt.c ****     optiga_gen_keypair_params_t * p_params;
 142:D:/School/diseratie/SEMS/xmc4800_evaluation_kit/optiga-trust-m/optiga/crypt\optiga_crypt.c **** 
 143:D:/School/diseratie/SEMS/xmc4800_evaluation_kit/optiga-trust-m/optiga/crypt\optiga_crypt.c ****     do
 144:D:/School/diseratie/SEMS/xmc4800_evaluation_kit/optiga-trust-m/optiga/crypt\optiga_crypt.c ****     {
 145:D:/School/diseratie/SEMS/xmc4800_evaluation_kit/optiga-trust-m/optiga/crypt\optiga_crypt.c **** #ifdef OPTIGA_LIB_DEBUG_NULL_CHECK
 146:D:/School/diseratie/SEMS/xmc4800_evaluation_kit/optiga-trust-m/optiga/crypt\optiga_crypt.c ****         if ((NULL == me) || (NULL == me->my_cmd) ||
 147:D:/School/diseratie/SEMS/xmc4800_evaluation_kit/optiga-trust-m/optiga/crypt\optiga_crypt.c ****             (NULL == p_public_key) || (NULL == p_private_key) || (NULL == p_public_key_length))
 148:D:/School/diseratie/SEMS/xmc4800_evaluation_kit/optiga-trust-m/optiga/crypt\optiga_crypt.c ****         {
 149:D:/School/diseratie/SEMS/xmc4800_evaluation_kit/optiga-trust-m/optiga/crypt\optiga_crypt.c ****             return_value = OPTIGA_CRYPT_ERROR_INVALID_INPUT;
 150:D:/School/diseratie/SEMS/xmc4800_evaluation_kit/optiga-trust-m/optiga/crypt\optiga_crypt.c ****             break;
 151:D:/School/diseratie/SEMS/xmc4800_evaluation_kit/optiga-trust-m/optiga/crypt\optiga_crypt.c ****         }
 152:D:/School/diseratie/SEMS/xmc4800_evaluation_kit/optiga-trust-m/optiga/crypt\optiga_crypt.c **** #endif
 153:D:/School/diseratie/SEMS/xmc4800_evaluation_kit/optiga-trust-m/optiga/crypt\optiga_crypt.c ****         if (OPTIGA_LIB_INSTANCE_BUSY == me->instance_state)
 154:D:/School/diseratie/SEMS/xmc4800_evaluation_kit/optiga-trust-m/optiga/crypt\optiga_crypt.c ****         {
 155:D:/School/diseratie/SEMS/xmc4800_evaluation_kit/optiga-trust-m/optiga/crypt\optiga_crypt.c ****             return_value = OPTIGA_CRYPT_ERROR_INSTANCE_IN_USE;
 156:D:/School/diseratie/SEMS/xmc4800_evaluation_kit/optiga-trust-m/optiga/crypt\optiga_crypt.c ****             break;
 157:D:/School/diseratie/SEMS/xmc4800_evaluation_kit/optiga-trust-m/optiga/crypt\optiga_crypt.c ****         }
 158:D:/School/diseratie/SEMS/xmc4800_evaluation_kit/optiga-trust-m/optiga/crypt\optiga_crypt.c **** 
 159:D:/School/diseratie/SEMS/xmc4800_evaluation_kit/optiga-trust-m/optiga/crypt\optiga_crypt.c ****         me->instance_state = OPTIGA_LIB_INSTANCE_BUSY;
 160:D:/School/diseratie/SEMS/xmc4800_evaluation_kit/optiga-trust-m/optiga/crypt\optiga_crypt.c ****         p_params = (optiga_gen_keypair_params_t *)&(me->params.optiga_gen_keypair_params);
 161:D:/School/diseratie/SEMS/xmc4800_evaluation_kit/optiga-trust-m/optiga/crypt\optiga_crypt.c ****         pal_os_memset(&me->params,0x00,sizeof(optiga_crypt_params_t));
 162:D:/School/diseratie/SEMS/xmc4800_evaluation_kit/optiga-trust-m/optiga/crypt\optiga_crypt.c **** 
 163:D:/School/diseratie/SEMS/xmc4800_evaluation_kit/optiga-trust-m/optiga/crypt\optiga_crypt.c ****         p_params->key_usage = key_usage;
 164:D:/School/diseratie/SEMS/xmc4800_evaluation_kit/optiga-trust-m/optiga/crypt\optiga_crypt.c ****         p_params->export_private_key = export_private_key;
 165:D:/School/diseratie/SEMS/xmc4800_evaluation_kit/optiga-trust-m/optiga/crypt\optiga_crypt.c ****         p_params->public_key_length = p_public_key_length;
 166:D:/School/diseratie/SEMS/xmc4800_evaluation_kit/optiga-trust-m/optiga/crypt\optiga_crypt.c ****         OPTIGA_PROTECTION_ENABLE(me->my_cmd, me);
 167:D:/School/diseratie/SEMS/xmc4800_evaluation_kit/optiga-trust-m/optiga/crypt\optiga_crypt.c ****         OPTIGA_PROTECTION_SET_VERSION(me->my_cmd, me);
 168:D:/School/diseratie/SEMS/xmc4800_evaluation_kit/optiga-trust-m/optiga/crypt\optiga_crypt.c **** 
 169:D:/School/diseratie/SEMS/xmc4800_evaluation_kit/optiga-trust-m/optiga/crypt\optiga_crypt.c ****         if (export_private_key)
 170:D:/School/diseratie/SEMS/xmc4800_evaluation_kit/optiga-trust-m/optiga/crypt\optiga_crypt.c ****         {
 171:D:/School/diseratie/SEMS/xmc4800_evaluation_kit/optiga-trust-m/optiga/crypt\optiga_crypt.c ****             p_params->private_key = (uint8_t *)p_private_key;
 172:D:/School/diseratie/SEMS/xmc4800_evaluation_kit/optiga-trust-m/optiga/crypt\optiga_crypt.c ****         }
 173:D:/School/diseratie/SEMS/xmc4800_evaluation_kit/optiga-trust-m/optiga/crypt\optiga_crypt.c ****         else
 174:D:/School/diseratie/SEMS/xmc4800_evaluation_kit/optiga-trust-m/optiga/crypt\optiga_crypt.c ****         {
 175:D:/School/diseratie/SEMS/xmc4800_evaluation_kit/optiga-trust-m/optiga/crypt\optiga_crypt.c ****             p_params->private_key_oid = (optiga_key_id_t)(* ((uint16_t* )p_private_key));
 176:D:/School/diseratie/SEMS/xmc4800_evaluation_kit/optiga-trust-m/optiga/crypt\optiga_crypt.c ****         }
 177:D:/School/diseratie/SEMS/xmc4800_evaluation_kit/optiga-trust-m/optiga/crypt\optiga_crypt.c **** 
 178:D:/School/diseratie/SEMS/xmc4800_evaluation_kit/optiga-trust-m/optiga/crypt\optiga_crypt.c ****         p_params->public_key = p_public_key;
 179:D:/School/diseratie/SEMS/xmc4800_evaluation_kit/optiga-trust-m/optiga/crypt\optiga_crypt.c ****         p_params->public_key_length = p_public_key_length;
 180:D:/School/diseratie/SEMS/xmc4800_evaluation_kit/optiga-trust-m/optiga/crypt\optiga_crypt.c **** 
 181:D:/School/diseratie/SEMS/xmc4800_evaluation_kit/optiga-trust-m/optiga/crypt\optiga_crypt.c ****         return_value = optiga_cmd_gen_keypair(me->my_cmd,
 182:D:/School/diseratie/SEMS/xmc4800_evaluation_kit/optiga-trust-m/optiga/crypt\optiga_crypt.c ****                                               (uint8_t )cmd_param,
 183:D:/School/diseratie/SEMS/xmc4800_evaluation_kit/optiga-trust-m/optiga/crypt\optiga_crypt.c ****                                               (optiga_gen_keypair_params_t *)p_params);
 184:D:/School/diseratie/SEMS/xmc4800_evaluation_kit/optiga-trust-m/optiga/crypt\optiga_crypt.c ****     } while (FALSE);
 185:D:/School/diseratie/SEMS/xmc4800_evaluation_kit/optiga-trust-m/optiga/crypt\optiga_crypt.c ****     optiga_crypt_reset_protection_level(me);
 186:D:/School/diseratie/SEMS/xmc4800_evaluation_kit/optiga-trust-m/optiga/crypt\optiga_crypt.c **** 
 187:D:/School/diseratie/SEMS/xmc4800_evaluation_kit/optiga-trust-m/optiga/crypt\optiga_crypt.c ****     return (return_value);
 188:D:/School/diseratie/SEMS/xmc4800_evaluation_kit/optiga-trust-m/optiga/crypt\optiga_crypt.c **** }
 189:D:/School/diseratie/SEMS/xmc4800_evaluation_kit/optiga-trust-m/optiga/crypt\optiga_crypt.c **** #endif // (OPTIGA_CRYPT_ECC_GENERATE_KEYPAIR_ENABLED) || (OPTIGA_CRYPT_RSA_GENERATE_KEYPAIR_ENABLED
 190:D:/School/diseratie/SEMS/xmc4800_evaluation_kit/optiga-trust-m/optiga/crypt\optiga_crypt.c **** 
 191:D:/School/diseratie/SEMS/xmc4800_evaluation_kit/optiga-trust-m/optiga/crypt\optiga_crypt.c **** #if defined (OPTIGA_CRYPT_ECDSA_SIGN_ENABLED) || defined (OPTIGA_CRYPT_RSA_SIGN_ENABLED)
 192:D:/School/diseratie/SEMS/xmc4800_evaluation_kit/optiga-trust-m/optiga/crypt\optiga_crypt.c **** //lint --e{715} suppress "The salt_length argument is kept for future use"
 193:D:/School/diseratie/SEMS/xmc4800_evaluation_kit/optiga-trust-m/optiga/crypt\optiga_crypt.c **** _STATIC_H optiga_lib_status_t optiga_crypt_sign(optiga_crypt_t * me,
 194:D:/School/diseratie/SEMS/xmc4800_evaluation_kit/optiga-trust-m/optiga/crypt\optiga_crypt.c ****                                                 uint8_t signature_scheme,
 195:D:/School/diseratie/SEMS/xmc4800_evaluation_kit/optiga-trust-m/optiga/crypt\optiga_crypt.c ****                                                 const uint8_t * p_digest,
 196:D:/School/diseratie/SEMS/xmc4800_evaluation_kit/optiga-trust-m/optiga/crypt\optiga_crypt.c ****                                                 uint8_t digest_length,
 197:D:/School/diseratie/SEMS/xmc4800_evaluation_kit/optiga-trust-m/optiga/crypt\optiga_crypt.c ****                                                 optiga_key_id_t private_key,
 198:D:/School/diseratie/SEMS/xmc4800_evaluation_kit/optiga-trust-m/optiga/crypt\optiga_crypt.c ****                                                 uint8_t * p_signature,
 199:D:/School/diseratie/SEMS/xmc4800_evaluation_kit/optiga-trust-m/optiga/crypt\optiga_crypt.c ****                                                 uint16_t * p_signature_length,
 200:D:/School/diseratie/SEMS/xmc4800_evaluation_kit/optiga-trust-m/optiga/crypt\optiga_crypt.c ****                                                 uint16_t salt_length)
 201:D:/School/diseratie/SEMS/xmc4800_evaluation_kit/optiga-trust-m/optiga/crypt\optiga_crypt.c **** {
 202:D:/School/diseratie/SEMS/xmc4800_evaluation_kit/optiga-trust-m/optiga/crypt\optiga_crypt.c ****     optiga_lib_status_t return_value = OPTIGA_CRYPT_ERROR;
 203:D:/School/diseratie/SEMS/xmc4800_evaluation_kit/optiga-trust-m/optiga/crypt\optiga_crypt.c ****     optiga_calc_sign_params_t * p_params;
 204:D:/School/diseratie/SEMS/xmc4800_evaluation_kit/optiga-trust-m/optiga/crypt\optiga_crypt.c **** 
 205:D:/School/diseratie/SEMS/xmc4800_evaluation_kit/optiga-trust-m/optiga/crypt\optiga_crypt.c ****     do
 206:D:/School/diseratie/SEMS/xmc4800_evaluation_kit/optiga-trust-m/optiga/crypt\optiga_crypt.c ****     {
 207:D:/School/diseratie/SEMS/xmc4800_evaluation_kit/optiga-trust-m/optiga/crypt\optiga_crypt.c **** #ifdef OPTIGA_LIB_DEBUG_NULL_CHECK
 208:D:/School/diseratie/SEMS/xmc4800_evaluation_kit/optiga-trust-m/optiga/crypt\optiga_crypt.c ****         if ((NULL == me) || (NULL == me->my_cmd) || (NULL == p_digest) ||
 209:D:/School/diseratie/SEMS/xmc4800_evaluation_kit/optiga-trust-m/optiga/crypt\optiga_crypt.c ****             (NULL == p_signature) || (NULL == p_signature_length))
 210:D:/School/diseratie/SEMS/xmc4800_evaluation_kit/optiga-trust-m/optiga/crypt\optiga_crypt.c ****         {
 211:D:/School/diseratie/SEMS/xmc4800_evaluation_kit/optiga-trust-m/optiga/crypt\optiga_crypt.c ****             return_value = OPTIGA_CRYPT_ERROR_INVALID_INPUT;
 212:D:/School/diseratie/SEMS/xmc4800_evaluation_kit/optiga-trust-m/optiga/crypt\optiga_crypt.c ****             break;
 213:D:/School/diseratie/SEMS/xmc4800_evaluation_kit/optiga-trust-m/optiga/crypt\optiga_crypt.c ****         }
 214:D:/School/diseratie/SEMS/xmc4800_evaluation_kit/optiga-trust-m/optiga/crypt\optiga_crypt.c **** #endif
 215:D:/School/diseratie/SEMS/xmc4800_evaluation_kit/optiga-trust-m/optiga/crypt\optiga_crypt.c **** 
 216:D:/School/diseratie/SEMS/xmc4800_evaluation_kit/optiga-trust-m/optiga/crypt\optiga_crypt.c ****         if (OPTIGA_LIB_INSTANCE_BUSY == me->instance_state)
 217:D:/School/diseratie/SEMS/xmc4800_evaluation_kit/optiga-trust-m/optiga/crypt\optiga_crypt.c ****         {
 218:D:/School/diseratie/SEMS/xmc4800_evaluation_kit/optiga-trust-m/optiga/crypt\optiga_crypt.c ****             return_value = OPTIGA_CRYPT_ERROR_INSTANCE_IN_USE;
 219:D:/School/diseratie/SEMS/xmc4800_evaluation_kit/optiga-trust-m/optiga/crypt\optiga_crypt.c ****             break;
 220:D:/School/diseratie/SEMS/xmc4800_evaluation_kit/optiga-trust-m/optiga/crypt\optiga_crypt.c ****         }
 221:D:/School/diseratie/SEMS/xmc4800_evaluation_kit/optiga-trust-m/optiga/crypt\optiga_crypt.c **** 
 222:D:/School/diseratie/SEMS/xmc4800_evaluation_kit/optiga-trust-m/optiga/crypt\optiga_crypt.c ****         me->instance_state = OPTIGA_LIB_INSTANCE_BUSY;
 223:D:/School/diseratie/SEMS/xmc4800_evaluation_kit/optiga-trust-m/optiga/crypt\optiga_crypt.c **** 
 224:D:/School/diseratie/SEMS/xmc4800_evaluation_kit/optiga-trust-m/optiga/crypt\optiga_crypt.c ****         p_params = (optiga_calc_sign_params_t *)&(me->params.optiga_calc_sign_params);
 225:D:/School/diseratie/SEMS/xmc4800_evaluation_kit/optiga-trust-m/optiga/crypt\optiga_crypt.c ****         pal_os_memset(&me->params,0x00,sizeof(optiga_crypt_params_t));
 226:D:/School/diseratie/SEMS/xmc4800_evaluation_kit/optiga-trust-m/optiga/crypt\optiga_crypt.c **** 
 227:D:/School/diseratie/SEMS/xmc4800_evaluation_kit/optiga-trust-m/optiga/crypt\optiga_crypt.c ****         p_params->p_digest = p_digest;
 228:D:/School/diseratie/SEMS/xmc4800_evaluation_kit/optiga-trust-m/optiga/crypt\optiga_crypt.c ****         p_params->digest_length = digest_length;
 229:D:/School/diseratie/SEMS/xmc4800_evaluation_kit/optiga-trust-m/optiga/crypt\optiga_crypt.c ****         p_params->private_key_oid = private_key;
 230:D:/School/diseratie/SEMS/xmc4800_evaluation_kit/optiga-trust-m/optiga/crypt\optiga_crypt.c ****         p_params->p_signature = p_signature;
 231:D:/School/diseratie/SEMS/xmc4800_evaluation_kit/optiga-trust-m/optiga/crypt\optiga_crypt.c ****         p_params->p_signature_length = p_signature_length;
 232:D:/School/diseratie/SEMS/xmc4800_evaluation_kit/optiga-trust-m/optiga/crypt\optiga_crypt.c ****         OPTIGA_PROTECTION_ENABLE(me->my_cmd, me);
 233:D:/School/diseratie/SEMS/xmc4800_evaluation_kit/optiga-trust-m/optiga/crypt\optiga_crypt.c ****         OPTIGA_PROTECTION_SET_VERSION(me->my_cmd, me);
 234:D:/School/diseratie/SEMS/xmc4800_evaluation_kit/optiga-trust-m/optiga/crypt\optiga_crypt.c **** 
 235:D:/School/diseratie/SEMS/xmc4800_evaluation_kit/optiga-trust-m/optiga/crypt\optiga_crypt.c ****         return_value = optiga_cmd_calc_sign(me->my_cmd,
 236:D:/School/diseratie/SEMS/xmc4800_evaluation_kit/optiga-trust-m/optiga/crypt\optiga_crypt.c ****                                             signature_scheme,
 237:D:/School/diseratie/SEMS/xmc4800_evaluation_kit/optiga-trust-m/optiga/crypt\optiga_crypt.c ****                                             (optiga_calc_sign_params_t *)p_params);
 238:D:/School/diseratie/SEMS/xmc4800_evaluation_kit/optiga-trust-m/optiga/crypt\optiga_crypt.c ****         if (OPTIGA_LIB_SUCCESS != return_value)
 239:D:/School/diseratie/SEMS/xmc4800_evaluation_kit/optiga-trust-m/optiga/crypt\optiga_crypt.c ****         {
 240:D:/School/diseratie/SEMS/xmc4800_evaluation_kit/optiga-trust-m/optiga/crypt\optiga_crypt.c ****             me->instance_state = OPTIGA_LIB_INSTANCE_FREE;
 241:D:/School/diseratie/SEMS/xmc4800_evaluation_kit/optiga-trust-m/optiga/crypt\optiga_crypt.c ****         }
 242:D:/School/diseratie/SEMS/xmc4800_evaluation_kit/optiga-trust-m/optiga/crypt\optiga_crypt.c ****     } while (FALSE);
 243:D:/School/diseratie/SEMS/xmc4800_evaluation_kit/optiga-trust-m/optiga/crypt\optiga_crypt.c ****     optiga_crypt_reset_protection_level(me);
 244:D:/School/diseratie/SEMS/xmc4800_evaluation_kit/optiga-trust-m/optiga/crypt\optiga_crypt.c **** 
 245:D:/School/diseratie/SEMS/xmc4800_evaluation_kit/optiga-trust-m/optiga/crypt\optiga_crypt.c ****     return (return_value);
 246:D:/School/diseratie/SEMS/xmc4800_evaluation_kit/optiga-trust-m/optiga/crypt\optiga_crypt.c **** }
 247:D:/School/diseratie/SEMS/xmc4800_evaluation_kit/optiga-trust-m/optiga/crypt\optiga_crypt.c **** #endif // (OPTIGA_CRYPT_ECDSA_SIGN_ENABLED) || (OPTIGA_CRYPT_RSA_SIGN_ENABLED)
 248:D:/School/diseratie/SEMS/xmc4800_evaluation_kit/optiga-trust-m/optiga/crypt\optiga_crypt.c **** 
 249:D:/School/diseratie/SEMS/xmc4800_evaluation_kit/optiga-trust-m/optiga/crypt\optiga_crypt.c **** #if defined (OPTIGA_CRYPT_ECDSA_VERIFY_ENABLED) || defined (OPTIGA_CRYPT_RSA_VERIFY_ENABLED)
 250:D:/School/diseratie/SEMS/xmc4800_evaluation_kit/optiga-trust-m/optiga/crypt\optiga_crypt.c **** //lint --e{715} suppress "The salt_length argument is kept for future use"
 251:D:/School/diseratie/SEMS/xmc4800_evaluation_kit/optiga-trust-m/optiga/crypt\optiga_crypt.c **** _STATIC_H optiga_lib_status_t optiga_crypt_verify(optiga_crypt_t * me,
 252:D:/School/diseratie/SEMS/xmc4800_evaluation_kit/optiga-trust-m/optiga/crypt\optiga_crypt.c ****                                                   uint8_t cmd_param,
 253:D:/School/diseratie/SEMS/xmc4800_evaluation_kit/optiga-trust-m/optiga/crypt\optiga_crypt.c ****                                                   const uint8_t * p_digest,
 254:D:/School/diseratie/SEMS/xmc4800_evaluation_kit/optiga-trust-m/optiga/crypt\optiga_crypt.c ****                                                   uint8_t digest_length,
 255:D:/School/diseratie/SEMS/xmc4800_evaluation_kit/optiga-trust-m/optiga/crypt\optiga_crypt.c ****                                                   const uint8_t * p_signature,
 256:D:/School/diseratie/SEMS/xmc4800_evaluation_kit/optiga-trust-m/optiga/crypt\optiga_crypt.c ****                                                   uint16_t signature_length,
 257:D:/School/diseratie/SEMS/xmc4800_evaluation_kit/optiga-trust-m/optiga/crypt\optiga_crypt.c ****                                                   uint8_t public_key_source_type,
 258:D:/School/diseratie/SEMS/xmc4800_evaluation_kit/optiga-trust-m/optiga/crypt\optiga_crypt.c ****                                                   const void * p_public_key,
 259:D:/School/diseratie/SEMS/xmc4800_evaluation_kit/optiga-trust-m/optiga/crypt\optiga_crypt.c ****                                                   uint16_t salt_length)
 260:D:/School/diseratie/SEMS/xmc4800_evaluation_kit/optiga-trust-m/optiga/crypt\optiga_crypt.c **** {
 261:D:/School/diseratie/SEMS/xmc4800_evaluation_kit/optiga-trust-m/optiga/crypt\optiga_crypt.c ****     optiga_verify_sign_params_t * p_params;
 262:D:/School/diseratie/SEMS/xmc4800_evaluation_kit/optiga-trust-m/optiga/crypt\optiga_crypt.c ****     optiga_lib_status_t return_value = OPTIGA_CRYPT_ERROR;
 263:D:/School/diseratie/SEMS/xmc4800_evaluation_kit/optiga-trust-m/optiga/crypt\optiga_crypt.c **** 
 264:D:/School/diseratie/SEMS/xmc4800_evaluation_kit/optiga-trust-m/optiga/crypt\optiga_crypt.c ****     do
 265:D:/School/diseratie/SEMS/xmc4800_evaluation_kit/optiga-trust-m/optiga/crypt\optiga_crypt.c ****     {
 266:D:/School/diseratie/SEMS/xmc4800_evaluation_kit/optiga-trust-m/optiga/crypt\optiga_crypt.c **** #ifdef OPTIGA_LIB_DEBUG_NULL_CHECK
 267:D:/School/diseratie/SEMS/xmc4800_evaluation_kit/optiga-trust-m/optiga/crypt\optiga_crypt.c ****         if ((NULL == me) || (NULL == me->my_cmd) ||
 268:D:/School/diseratie/SEMS/xmc4800_evaluation_kit/optiga-trust-m/optiga/crypt\optiga_crypt.c ****             (NULL == p_digest) || (NULL == p_signature) || (NULL == p_public_key))
 269:D:/School/diseratie/SEMS/xmc4800_evaluation_kit/optiga-trust-m/optiga/crypt\optiga_crypt.c ****         {
 270:D:/School/diseratie/SEMS/xmc4800_evaluation_kit/optiga-trust-m/optiga/crypt\optiga_crypt.c ****             return_value = OPTIGA_CRYPT_ERROR_INVALID_INPUT;
 271:D:/School/diseratie/SEMS/xmc4800_evaluation_kit/optiga-trust-m/optiga/crypt\optiga_crypt.c ****             break;
 272:D:/School/diseratie/SEMS/xmc4800_evaluation_kit/optiga-trust-m/optiga/crypt\optiga_crypt.c ****         }
 273:D:/School/diseratie/SEMS/xmc4800_evaluation_kit/optiga-trust-m/optiga/crypt\optiga_crypt.c **** #endif
 274:D:/School/diseratie/SEMS/xmc4800_evaluation_kit/optiga-trust-m/optiga/crypt\optiga_crypt.c **** 
 275:D:/School/diseratie/SEMS/xmc4800_evaluation_kit/optiga-trust-m/optiga/crypt\optiga_crypt.c ****         if (OPTIGA_LIB_INSTANCE_BUSY == me->instance_state)
 276:D:/School/diseratie/SEMS/xmc4800_evaluation_kit/optiga-trust-m/optiga/crypt\optiga_crypt.c ****         {
 277:D:/School/diseratie/SEMS/xmc4800_evaluation_kit/optiga-trust-m/optiga/crypt\optiga_crypt.c ****             return_value = OPTIGA_CRYPT_ERROR_INSTANCE_IN_USE;
 278:D:/School/diseratie/SEMS/xmc4800_evaluation_kit/optiga-trust-m/optiga/crypt\optiga_crypt.c ****             break;
 279:D:/School/diseratie/SEMS/xmc4800_evaluation_kit/optiga-trust-m/optiga/crypt\optiga_crypt.c ****         }
 280:D:/School/diseratie/SEMS/xmc4800_evaluation_kit/optiga-trust-m/optiga/crypt\optiga_crypt.c **** 
 281:D:/School/diseratie/SEMS/xmc4800_evaluation_kit/optiga-trust-m/optiga/crypt\optiga_crypt.c ****         me->instance_state = OPTIGA_LIB_INSTANCE_BUSY;
 282:D:/School/diseratie/SEMS/xmc4800_evaluation_kit/optiga-trust-m/optiga/crypt\optiga_crypt.c ****         p_params = (optiga_verify_sign_params_t *)&(me->params.optiga_verify_sign_params);
 283:D:/School/diseratie/SEMS/xmc4800_evaluation_kit/optiga-trust-m/optiga/crypt\optiga_crypt.c ****         pal_os_memset(&me->params,0x00,sizeof(optiga_crypt_params_t));
 284:D:/School/diseratie/SEMS/xmc4800_evaluation_kit/optiga-trust-m/optiga/crypt\optiga_crypt.c **** 
 285:D:/School/diseratie/SEMS/xmc4800_evaluation_kit/optiga-trust-m/optiga/crypt\optiga_crypt.c ****         OPTIGA_PROTECTION_ENABLE(me->my_cmd, me);
 286:D:/School/diseratie/SEMS/xmc4800_evaluation_kit/optiga-trust-m/optiga/crypt\optiga_crypt.c ****         OPTIGA_PROTECTION_SET_VERSION(me->my_cmd, me);
 287:D:/School/diseratie/SEMS/xmc4800_evaluation_kit/optiga-trust-m/optiga/crypt\optiga_crypt.c ****         p_params->p_digest = p_digest;
 288:D:/School/diseratie/SEMS/xmc4800_evaluation_kit/optiga-trust-m/optiga/crypt\optiga_crypt.c ****         p_params->digest_length = digest_length;
 289:D:/School/diseratie/SEMS/xmc4800_evaluation_kit/optiga-trust-m/optiga/crypt\optiga_crypt.c ****         p_params->p_signature = p_signature;
 290:D:/School/diseratie/SEMS/xmc4800_evaluation_kit/optiga-trust-m/optiga/crypt\optiga_crypt.c ****         p_params->signature_length = signature_length;
 291:D:/School/diseratie/SEMS/xmc4800_evaluation_kit/optiga-trust-m/optiga/crypt\optiga_crypt.c ****         p_params->public_key_source_type = public_key_source_type;
 292:D:/School/diseratie/SEMS/xmc4800_evaluation_kit/optiga-trust-m/optiga/crypt\optiga_crypt.c **** 
 293:D:/School/diseratie/SEMS/xmc4800_evaluation_kit/optiga-trust-m/optiga/crypt\optiga_crypt.c ****         if (OPTIGA_CRYPT_OID_DATA == public_key_source_type)
 294:D:/School/diseratie/SEMS/xmc4800_evaluation_kit/optiga-trust-m/optiga/crypt\optiga_crypt.c ****         {
 295:D:/School/diseratie/SEMS/xmc4800_evaluation_kit/optiga-trust-m/optiga/crypt\optiga_crypt.c ****             p_params->certificate_oid = *((uint16_t *)p_public_key);
 296:D:/School/diseratie/SEMS/xmc4800_evaluation_kit/optiga-trust-m/optiga/crypt\optiga_crypt.c ****         }
 297:D:/School/diseratie/SEMS/xmc4800_evaluation_kit/optiga-trust-m/optiga/crypt\optiga_crypt.c ****         else
 298:D:/School/diseratie/SEMS/xmc4800_evaluation_kit/optiga-trust-m/optiga/crypt\optiga_crypt.c ****         {
 299:D:/School/diseratie/SEMS/xmc4800_evaluation_kit/optiga-trust-m/optiga/crypt\optiga_crypt.c ****             p_params->public_key = (public_key_from_host_t *)p_public_key;
 300:D:/School/diseratie/SEMS/xmc4800_evaluation_kit/optiga-trust-m/optiga/crypt\optiga_crypt.c ****         }
 301:D:/School/diseratie/SEMS/xmc4800_evaluation_kit/optiga-trust-m/optiga/crypt\optiga_crypt.c **** 
 302:D:/School/diseratie/SEMS/xmc4800_evaluation_kit/optiga-trust-m/optiga/crypt\optiga_crypt.c ****         return_value = optiga_cmd_verify_sign(me->my_cmd,
 303:D:/School/diseratie/SEMS/xmc4800_evaluation_kit/optiga-trust-m/optiga/crypt\optiga_crypt.c ****                                              (uint8_t)cmd_param,
 304:D:/School/diseratie/SEMS/xmc4800_evaluation_kit/optiga-trust-m/optiga/crypt\optiga_crypt.c ****                                              (optiga_verify_sign_params_t *)p_params);
 305:D:/School/diseratie/SEMS/xmc4800_evaluation_kit/optiga-trust-m/optiga/crypt\optiga_crypt.c ****         if (OPTIGA_LIB_SUCCESS != return_value)
 306:D:/School/diseratie/SEMS/xmc4800_evaluation_kit/optiga-trust-m/optiga/crypt\optiga_crypt.c ****         {
 307:D:/School/diseratie/SEMS/xmc4800_evaluation_kit/optiga-trust-m/optiga/crypt\optiga_crypt.c ****             me->instance_state = OPTIGA_LIB_INSTANCE_FREE;
 308:D:/School/diseratie/SEMS/xmc4800_evaluation_kit/optiga-trust-m/optiga/crypt\optiga_crypt.c ****         }
 309:D:/School/diseratie/SEMS/xmc4800_evaluation_kit/optiga-trust-m/optiga/crypt\optiga_crypt.c ****     } while (FALSE);
 310:D:/School/diseratie/SEMS/xmc4800_evaluation_kit/optiga-trust-m/optiga/crypt\optiga_crypt.c ****     optiga_crypt_reset_protection_level(me);
 311:D:/School/diseratie/SEMS/xmc4800_evaluation_kit/optiga-trust-m/optiga/crypt\optiga_crypt.c **** 
 312:D:/School/diseratie/SEMS/xmc4800_evaluation_kit/optiga-trust-m/optiga/crypt\optiga_crypt.c ****     return (return_value);
 313:D:/School/diseratie/SEMS/xmc4800_evaluation_kit/optiga-trust-m/optiga/crypt\optiga_crypt.c **** }
 314:D:/School/diseratie/SEMS/xmc4800_evaluation_kit/optiga-trust-m/optiga/crypt\optiga_crypt.c **** #endif //(OPTIGA_CRYPT_ECDSA_VERIFY_ENABLED) || (OPTIGA_CRYPT_RSA_VERIFY_ENABLED)
 315:D:/School/diseratie/SEMS/xmc4800_evaluation_kit/optiga-trust-m/optiga/crypt\optiga_crypt.c **** 
 316:D:/School/diseratie/SEMS/xmc4800_evaluation_kit/optiga-trust-m/optiga/crypt\optiga_crypt.c **** #if defined (OPTIGA_CRYPT_RSA_DECRYPT_ENABLED) || defined (OPTIGA_CRYPT_RSA_ENCRYPT_ENABLED)
 317:D:/School/diseratie/SEMS/xmc4800_evaluation_kit/optiga-trust-m/optiga/crypt\optiga_crypt.c **** //lint --e{715} suppress "label and label_length is RFU hence not used"
 318:D:/School/diseratie/SEMS/xmc4800_evaluation_kit/optiga-trust-m/optiga/crypt\optiga_crypt.c **** _STATIC_H optiga_lib_status_t optiga_crypt_rsa_enc_dec(optiga_crypt_t * me,
 319:D:/School/diseratie/SEMS/xmc4800_evaluation_kit/optiga-trust-m/optiga/crypt\optiga_crypt.c ****                                                        optiga_rsa_encryption_scheme_t encryption_sc
 320:D:/School/diseratie/SEMS/xmc4800_evaluation_kit/optiga-trust-m/optiga/crypt\optiga_crypt.c ****                                                        const uint8_t * p_message,
 321:D:/School/diseratie/SEMS/xmc4800_evaluation_kit/optiga-trust-m/optiga/crypt\optiga_crypt.c ****                                                        uint16_t message_length,
 322:D:/School/diseratie/SEMS/xmc4800_evaluation_kit/optiga-trust-m/optiga/crypt\optiga_crypt.c ****                                                        const uint8_t * p_label,
 323:D:/School/diseratie/SEMS/xmc4800_evaluation_kit/optiga-trust-m/optiga/crypt\optiga_crypt.c ****                                                        uint16_t label_length,
 324:D:/School/diseratie/SEMS/xmc4800_evaluation_kit/optiga-trust-m/optiga/crypt\optiga_crypt.c ****                                                        uint8_t public_key_source_type,
 325:D:/School/diseratie/SEMS/xmc4800_evaluation_kit/optiga-trust-m/optiga/crypt\optiga_crypt.c ****                                                        const void * p_key,
 326:D:/School/diseratie/SEMS/xmc4800_evaluation_kit/optiga-trust-m/optiga/crypt\optiga_crypt.c ****                                                        uint8_t * p_processed_message,
 327:D:/School/diseratie/SEMS/xmc4800_evaluation_kit/optiga-trust-m/optiga/crypt\optiga_crypt.c ****                                                        uint16_t * p_processed_message_length,
 328:D:/School/diseratie/SEMS/xmc4800_evaluation_kit/optiga-trust-m/optiga/crypt\optiga_crypt.c ****                                                        bool_t is_enc)
 329:D:/School/diseratie/SEMS/xmc4800_evaluation_kit/optiga-trust-m/optiga/crypt\optiga_crypt.c **** {
 330:D:/School/diseratie/SEMS/xmc4800_evaluation_kit/optiga-trust-m/optiga/crypt\optiga_crypt.c ****     optiga_lib_status_t return_value = OPTIGA_CRYPT_ERROR;
 331:D:/School/diseratie/SEMS/xmc4800_evaluation_kit/optiga-trust-m/optiga/crypt\optiga_crypt.c ****     optiga_encrypt_asym_params_t * p_params;
 332:D:/School/diseratie/SEMS/xmc4800_evaluation_kit/optiga-trust-m/optiga/crypt\optiga_crypt.c **** 
 333:D:/School/diseratie/SEMS/xmc4800_evaluation_kit/optiga-trust-m/optiga/crypt\optiga_crypt.c ****     do
 334:D:/School/diseratie/SEMS/xmc4800_evaluation_kit/optiga-trust-m/optiga/crypt\optiga_crypt.c ****     {
 335:D:/School/diseratie/SEMS/xmc4800_evaluation_kit/optiga-trust-m/optiga/crypt\optiga_crypt.c ****         if (OPTIGA_LIB_INSTANCE_BUSY == me->instance_state)
 336:D:/School/diseratie/SEMS/xmc4800_evaluation_kit/optiga-trust-m/optiga/crypt\optiga_crypt.c ****         {
 337:D:/School/diseratie/SEMS/xmc4800_evaluation_kit/optiga-trust-m/optiga/crypt\optiga_crypt.c ****             return_value = OPTIGA_CRYPT_ERROR_INSTANCE_IN_USE;
 338:D:/School/diseratie/SEMS/xmc4800_evaluation_kit/optiga-trust-m/optiga/crypt\optiga_crypt.c ****             break;
 339:D:/School/diseratie/SEMS/xmc4800_evaluation_kit/optiga-trust-m/optiga/crypt\optiga_crypt.c ****         }
 340:D:/School/diseratie/SEMS/xmc4800_evaluation_kit/optiga-trust-m/optiga/crypt\optiga_crypt.c ****         me->instance_state = OPTIGA_LIB_INSTANCE_BUSY;;
 341:D:/School/diseratie/SEMS/xmc4800_evaluation_kit/optiga-trust-m/optiga/crypt\optiga_crypt.c **** 
 342:D:/School/diseratie/SEMS/xmc4800_evaluation_kit/optiga-trust-m/optiga/crypt\optiga_crypt.c ****         p_params = (optiga_encrypt_asym_params_t *)&(me->params.optiga_encrypt_asym_params);
 343:D:/School/diseratie/SEMS/xmc4800_evaluation_kit/optiga-trust-m/optiga/crypt\optiga_crypt.c ****         pal_os_memset(&me->params,0x00,sizeof(optiga_crypt_params_t));
 344:D:/School/diseratie/SEMS/xmc4800_evaluation_kit/optiga-trust-m/optiga/crypt\optiga_crypt.c **** 
 345:D:/School/diseratie/SEMS/xmc4800_evaluation_kit/optiga-trust-m/optiga/crypt\optiga_crypt.c ****         p_params->message = p_message;
 346:D:/School/diseratie/SEMS/xmc4800_evaluation_kit/optiga-trust-m/optiga/crypt\optiga_crypt.c ****         p_params->message_length = message_length;
 347:D:/School/diseratie/SEMS/xmc4800_evaluation_kit/optiga-trust-m/optiga/crypt\optiga_crypt.c ****         p_params->processed_message = p_processed_message;
 348:D:/School/diseratie/SEMS/xmc4800_evaluation_kit/optiga-trust-m/optiga/crypt\optiga_crypt.c ****         p_params->processed_message_length = p_processed_message_length;
 349:D:/School/diseratie/SEMS/xmc4800_evaluation_kit/optiga-trust-m/optiga/crypt\optiga_crypt.c **** 
 350:D:/School/diseratie/SEMS/xmc4800_evaluation_kit/optiga-trust-m/optiga/crypt\optiga_crypt.c ****         OPTIGA_PROTECTION_ENABLE(me->my_cmd, me);
 351:D:/School/diseratie/SEMS/xmc4800_evaluation_kit/optiga-trust-m/optiga/crypt\optiga_crypt.c ****         OPTIGA_PROTECTION_SET_VERSION(me->my_cmd, me);
 352:D:/School/diseratie/SEMS/xmc4800_evaluation_kit/optiga-trust-m/optiga/crypt\optiga_crypt.c **** 
 353:D:/School/diseratie/SEMS/xmc4800_evaluation_kit/optiga-trust-m/optiga/crypt\optiga_crypt.c **** 
 354:D:/School/diseratie/SEMS/xmc4800_evaluation_kit/optiga-trust-m/optiga/crypt\optiga_crypt.c ****         if (is_enc)
 355:D:/School/diseratie/SEMS/xmc4800_evaluation_kit/optiga-trust-m/optiga/crypt\optiga_crypt.c ****         {
 356:D:/School/diseratie/SEMS/xmc4800_evaluation_kit/optiga-trust-m/optiga/crypt\optiga_crypt.c ****             p_params->key = p_key;
 357:D:/School/diseratie/SEMS/xmc4800_evaluation_kit/optiga-trust-m/optiga/crypt\optiga_crypt.c ****             p_params->public_key_source_type = public_key_source_type;
 358:D:/School/diseratie/SEMS/xmc4800_evaluation_kit/optiga-trust-m/optiga/crypt\optiga_crypt.c **** #ifdef OPTIGA_CRYPT_RSA_ENCRYPT_ENABLED
 359:D:/School/diseratie/SEMS/xmc4800_evaluation_kit/optiga-trust-m/optiga/crypt\optiga_crypt.c ****             return_value = optiga_cmd_encrypt_asym(me->my_cmd, (uint8_t)encryption_scheme,
 360:D:/School/diseratie/SEMS/xmc4800_evaluation_kit/optiga-trust-m/optiga/crypt\optiga_crypt.c ****                                                    (optiga_encrypt_asym_params_t *)p_params);
 361:D:/School/diseratie/SEMS/xmc4800_evaluation_kit/optiga-trust-m/optiga/crypt\optiga_crypt.c **** #endif
 362:D:/School/diseratie/SEMS/xmc4800_evaluation_kit/optiga-trust-m/optiga/crypt\optiga_crypt.c ****         }
 363:D:/School/diseratie/SEMS/xmc4800_evaluation_kit/optiga-trust-m/optiga/crypt\optiga_crypt.c ****         else
 364:D:/School/diseratie/SEMS/xmc4800_evaluation_kit/optiga-trust-m/optiga/crypt\optiga_crypt.c ****         {
 365:D:/School/diseratie/SEMS/xmc4800_evaluation_kit/optiga-trust-m/optiga/crypt\optiga_crypt.c ****             p_params->private_key_id = (optiga_key_id_t)*(optiga_key_id_t *)p_key;
 366:D:/School/diseratie/SEMS/xmc4800_evaluation_kit/optiga-trust-m/optiga/crypt\optiga_crypt.c ****             p_params->key = &p_params->private_key_id;
 367:D:/School/diseratie/SEMS/xmc4800_evaluation_kit/optiga-trust-m/optiga/crypt\optiga_crypt.c ****             p_params->public_key_source_type = 0;
 368:D:/School/diseratie/SEMS/xmc4800_evaluation_kit/optiga-trust-m/optiga/crypt\optiga_crypt.c **** #ifdef OPTIGA_CRYPT_RSA_DECRYPT_ENABLED
 369:D:/School/diseratie/SEMS/xmc4800_evaluation_kit/optiga-trust-m/optiga/crypt\optiga_crypt.c ****             return_value = optiga_cmd_decrypt_asym(me->my_cmd, (uint8_t)encryption_scheme,
 370:D:/School/diseratie/SEMS/xmc4800_evaluation_kit/optiga-trust-m/optiga/crypt\optiga_crypt.c ****                                                    (optiga_encrypt_asym_params_t *)p_params);
 371:D:/School/diseratie/SEMS/xmc4800_evaluation_kit/optiga-trust-m/optiga/crypt\optiga_crypt.c **** #endif
 372:D:/School/diseratie/SEMS/xmc4800_evaluation_kit/optiga-trust-m/optiga/crypt\optiga_crypt.c ****         }
 373:D:/School/diseratie/SEMS/xmc4800_evaluation_kit/optiga-trust-m/optiga/crypt\optiga_crypt.c ****         if (OPTIGA_LIB_SUCCESS != return_value)
 374:D:/School/diseratie/SEMS/xmc4800_evaluation_kit/optiga-trust-m/optiga/crypt\optiga_crypt.c ****         {
 375:D:/School/diseratie/SEMS/xmc4800_evaluation_kit/optiga-trust-m/optiga/crypt\optiga_crypt.c ****             me->instance_state = OPTIGA_LIB_INSTANCE_FREE;
 376:D:/School/diseratie/SEMS/xmc4800_evaluation_kit/optiga-trust-m/optiga/crypt\optiga_crypt.c ****         }
 377:D:/School/diseratie/SEMS/xmc4800_evaluation_kit/optiga-trust-m/optiga/crypt\optiga_crypt.c ****     } while (FALSE);
 378:D:/School/diseratie/SEMS/xmc4800_evaluation_kit/optiga-trust-m/optiga/crypt\optiga_crypt.c ****     optiga_crypt_reset_protection_level(me);
 379:D:/School/diseratie/SEMS/xmc4800_evaluation_kit/optiga-trust-m/optiga/crypt\optiga_crypt.c **** 
 380:D:/School/diseratie/SEMS/xmc4800_evaluation_kit/optiga-trust-m/optiga/crypt\optiga_crypt.c ****     return (return_value);
 381:D:/School/diseratie/SEMS/xmc4800_evaluation_kit/optiga-trust-m/optiga/crypt\optiga_crypt.c **** }
 382:D:/School/diseratie/SEMS/xmc4800_evaluation_kit/optiga-trust-m/optiga/crypt\optiga_crypt.c **** #endif //(OPTIGA_CRYPT_RSA_DECRYPT_ENABLED) || (OPTIGA_CRYPT_RSA_ENCRYPT_ENABLED)
 383:D:/School/diseratie/SEMS/xmc4800_evaluation_kit/optiga-trust-m/optiga/crypt\optiga_crypt.c **** #if defined (OPTIGA_CRYPT_RANDOM_ENABLED) || defined (OPTIGA_CRYPT_RSA_PRE_MASTER_SECRET_ENABLED) |
 384:D:/School/diseratie/SEMS/xmc4800_evaluation_kit/optiga-trust-m/optiga/crypt\optiga_crypt.c **** _STATIC_H optiga_lib_status_t optiga_crypt_get_random(optiga_crypt_t * me,
 385:D:/School/diseratie/SEMS/xmc4800_evaluation_kit/optiga-trust-m/optiga/crypt\optiga_crypt.c ****                                                       uint8_t cmd_param,
 386:D:/School/diseratie/SEMS/xmc4800_evaluation_kit/optiga-trust-m/optiga/crypt\optiga_crypt.c ****                                                       uint8_t * p_random_data,
 387:D:/School/diseratie/SEMS/xmc4800_evaluation_kit/optiga-trust-m/optiga/crypt\optiga_crypt.c ****                                                       uint16_t random_data_length,
 388:D:/School/diseratie/SEMS/xmc4800_evaluation_kit/optiga-trust-m/optiga/crypt\optiga_crypt.c ****                                                       const uint8_t * p_optional_data,
 389:D:/School/diseratie/SEMS/xmc4800_evaluation_kit/optiga-trust-m/optiga/crypt\optiga_crypt.c ****                                                       uint16_t optional_data_length,
 390:D:/School/diseratie/SEMS/xmc4800_evaluation_kit/optiga-trust-m/optiga/crypt\optiga_crypt.c ****                                                       bool_t store_in_session)
 391:D:/School/diseratie/SEMS/xmc4800_evaluation_kit/optiga-trust-m/optiga/crypt\optiga_crypt.c **** {
 392:D:/School/diseratie/SEMS/xmc4800_evaluation_kit/optiga-trust-m/optiga/crypt\optiga_crypt.c ****     optiga_lib_status_t return_value = OPTIGA_CRYPT_ERROR;
 393:D:/School/diseratie/SEMS/xmc4800_evaluation_kit/optiga-trust-m/optiga/crypt\optiga_crypt.c ****     optiga_get_random_params_t * p_params;
 394:D:/School/diseratie/SEMS/xmc4800_evaluation_kit/optiga-trust-m/optiga/crypt\optiga_crypt.c ****     do
 395:D:/School/diseratie/SEMS/xmc4800_evaluation_kit/optiga-trust-m/optiga/crypt\optiga_crypt.c ****     {
 396:D:/School/diseratie/SEMS/xmc4800_evaluation_kit/optiga-trust-m/optiga/crypt\optiga_crypt.c ****         if (OPTIGA_LIB_INSTANCE_BUSY == me->instance_state)
 397:D:/School/diseratie/SEMS/xmc4800_evaluation_kit/optiga-trust-m/optiga/crypt\optiga_crypt.c ****         {
 398:D:/School/diseratie/SEMS/xmc4800_evaluation_kit/optiga-trust-m/optiga/crypt\optiga_crypt.c ****             return_value = OPTIGA_CRYPT_ERROR_INSTANCE_IN_USE;
 399:D:/School/diseratie/SEMS/xmc4800_evaluation_kit/optiga-trust-m/optiga/crypt\optiga_crypt.c ****             break;
 400:D:/School/diseratie/SEMS/xmc4800_evaluation_kit/optiga-trust-m/optiga/crypt\optiga_crypt.c ****         }
 401:D:/School/diseratie/SEMS/xmc4800_evaluation_kit/optiga-trust-m/optiga/crypt\optiga_crypt.c **** 
 402:D:/School/diseratie/SEMS/xmc4800_evaluation_kit/optiga-trust-m/optiga/crypt\optiga_crypt.c ****         me->instance_state = OPTIGA_LIB_INSTANCE_BUSY;
 403:D:/School/diseratie/SEMS/xmc4800_evaluation_kit/optiga-trust-m/optiga/crypt\optiga_crypt.c ****         p_params = (optiga_get_random_params_t *)&(me->params.optiga_get_random_params);
 404:D:/School/diseratie/SEMS/xmc4800_evaluation_kit/optiga-trust-m/optiga/crypt\optiga_crypt.c ****         pal_os_memset(&me->params,0x00,sizeof(optiga_crypt_params_t));
 405:D:/School/diseratie/SEMS/xmc4800_evaluation_kit/optiga-trust-m/optiga/crypt\optiga_crypt.c **** 
 406:D:/School/diseratie/SEMS/xmc4800_evaluation_kit/optiga-trust-m/optiga/crypt\optiga_crypt.c ****         p_params->optional_data = p_optional_data;
 407:D:/School/diseratie/SEMS/xmc4800_evaluation_kit/optiga-trust-m/optiga/crypt\optiga_crypt.c ****         p_params->optional_data_length = optional_data_length;
 408:D:/School/diseratie/SEMS/xmc4800_evaluation_kit/optiga-trust-m/optiga/crypt\optiga_crypt.c ****         p_params->random_data = p_random_data;
 409:D:/School/diseratie/SEMS/xmc4800_evaluation_kit/optiga-trust-m/optiga/crypt\optiga_crypt.c ****         p_params->random_data_length = random_data_length;
 410:D:/School/diseratie/SEMS/xmc4800_evaluation_kit/optiga-trust-m/optiga/crypt\optiga_crypt.c ****         p_params->store_in_session = store_in_session;
 411:D:/School/diseratie/SEMS/xmc4800_evaluation_kit/optiga-trust-m/optiga/crypt\optiga_crypt.c ****         OPTIGA_PROTECTION_ENABLE(me->my_cmd, me);
 412:D:/School/diseratie/SEMS/xmc4800_evaluation_kit/optiga-trust-m/optiga/crypt\optiga_crypt.c ****         OPTIGA_PROTECTION_SET_VERSION(me->my_cmd, me);
 413:D:/School/diseratie/SEMS/xmc4800_evaluation_kit/optiga-trust-m/optiga/crypt\optiga_crypt.c **** 
 414:D:/School/diseratie/SEMS/xmc4800_evaluation_kit/optiga-trust-m/optiga/crypt\optiga_crypt.c ****         return_value = optiga_cmd_get_random(me->my_cmd,
 415:D:/School/diseratie/SEMS/xmc4800_evaluation_kit/optiga-trust-m/optiga/crypt\optiga_crypt.c ****                                              cmd_param,
 416:D:/School/diseratie/SEMS/xmc4800_evaluation_kit/optiga-trust-m/optiga/crypt\optiga_crypt.c ****                                              (optiga_get_random_params_t *)p_params);
 417:D:/School/diseratie/SEMS/xmc4800_evaluation_kit/optiga-trust-m/optiga/crypt\optiga_crypt.c ****         if (OPTIGA_LIB_SUCCESS != return_value)
 418:D:/School/diseratie/SEMS/xmc4800_evaluation_kit/optiga-trust-m/optiga/crypt\optiga_crypt.c ****         {
 419:D:/School/diseratie/SEMS/xmc4800_evaluation_kit/optiga-trust-m/optiga/crypt\optiga_crypt.c ****             me->instance_state = OPTIGA_LIB_INSTANCE_FREE;
 420:D:/School/diseratie/SEMS/xmc4800_evaluation_kit/optiga-trust-m/optiga/crypt\optiga_crypt.c ****         }
 421:D:/School/diseratie/SEMS/xmc4800_evaluation_kit/optiga-trust-m/optiga/crypt\optiga_crypt.c ****     } while (FALSE);
 422:D:/School/diseratie/SEMS/xmc4800_evaluation_kit/optiga-trust-m/optiga/crypt\optiga_crypt.c ****     optiga_crypt_reset_protection_level(me);
 423:D:/School/diseratie/SEMS/xmc4800_evaluation_kit/optiga-trust-m/optiga/crypt\optiga_crypt.c **** 
 424:D:/School/diseratie/SEMS/xmc4800_evaluation_kit/optiga-trust-m/optiga/crypt\optiga_crypt.c ****     return (return_value);
 425:D:/School/diseratie/SEMS/xmc4800_evaluation_kit/optiga-trust-m/optiga/crypt\optiga_crypt.c **** }
 426:D:/School/diseratie/SEMS/xmc4800_evaluation_kit/optiga-trust-m/optiga/crypt\optiga_crypt.c **** #endif //(OPTIGA_CRYPT_RANDOM_ENABLED) || (OPTIGA_CRYPT_RSA_PRE_MASTER_SECRET_ENABLED)
 427:D:/School/diseratie/SEMS/xmc4800_evaluation_kit/optiga-trust-m/optiga/crypt\optiga_crypt.c **** 
 428:D:/School/diseratie/SEMS/xmc4800_evaluation_kit/optiga-trust-m/optiga/crypt\optiga_crypt.c **** #if defined (OPTIGA_CRYPT_SYM_ENCRYPT_ENABLED) || defined (OPTIGA_CRYPT_SYM_DECRYPT_ENABLED) || def
 429:D:/School/diseratie/SEMS/xmc4800_evaluation_kit/optiga-trust-m/optiga/crypt\optiga_crypt.c ****     defined (OPTIGA_CRYPT_HMAC_VERIFY_ENABLED) || defined (OPTIGA_CRYPT_CLEAR_AUTO_STATE_ENABLED)
 430:D:/School/diseratie/SEMS/xmc4800_evaluation_kit/optiga-trust-m/optiga/crypt\optiga_crypt.c **** _STATIC_H optiga_lib_status_t optiga_crypt_symmetric_mode_generic(optiga_crypt_t * me,
 431:D:/School/diseratie/SEMS/xmc4800_evaluation_kit/optiga-trust-m/optiga/crypt\optiga_crypt.c ****                                                                   uint8_t mode,
 432:D:/School/diseratie/SEMS/xmc4800_evaluation_kit/optiga-trust-m/optiga/crypt\optiga_crypt.c ****                                                                   uint16_t symmetric_key_oid,
 433:D:/School/diseratie/SEMS/xmc4800_evaluation_kit/optiga-trust-m/optiga/crypt\optiga_crypt.c ****                                                                   const uint8_t * in_data,
 434:D:/School/diseratie/SEMS/xmc4800_evaluation_kit/optiga-trust-m/optiga/crypt\optiga_crypt.c ****                                                                   uint32_t in_data_length,
 435:D:/School/diseratie/SEMS/xmc4800_evaluation_kit/optiga-trust-m/optiga/crypt\optiga_crypt.c ****                                                                   const uint8_t * iv,
 436:D:/School/diseratie/SEMS/xmc4800_evaluation_kit/optiga-trust-m/optiga/crypt\optiga_crypt.c ****                                                                   uint16_t iv_length,
 437:D:/School/diseratie/SEMS/xmc4800_evaluation_kit/optiga-trust-m/optiga/crypt\optiga_crypt.c ****                                                                   const uint8_t * associated_data,
 438:D:/School/diseratie/SEMS/xmc4800_evaluation_kit/optiga-trust-m/optiga/crypt\optiga_crypt.c ****                                                                   uint16_t associated_data_length,
 439:D:/School/diseratie/SEMS/xmc4800_evaluation_kit/optiga-trust-m/optiga/crypt\optiga_crypt.c ****                                                                   uint16_t total_plain_data_length,
 440:D:/School/diseratie/SEMS/xmc4800_evaluation_kit/optiga-trust-m/optiga/crypt\optiga_crypt.c ****                                                                   uint8_t * out_data,
 441:D:/School/diseratie/SEMS/xmc4800_evaluation_kit/optiga-trust-m/optiga/crypt\optiga_crypt.c ****                                                                   uint32_t * out_data_length,
 442:D:/School/diseratie/SEMS/xmc4800_evaluation_kit/optiga-trust-m/optiga/crypt\optiga_crypt.c ****                                                                   const uint8_t * out_data_verify,
 443:D:/School/diseratie/SEMS/xmc4800_evaluation_kit/optiga-trust-m/optiga/crypt\optiga_crypt.c ****                                                                   uint32_t out_data_verify_length,
 444:D:/School/diseratie/SEMS/xmc4800_evaluation_kit/optiga-trust-m/optiga/crypt\optiga_crypt.c ****                                                                   uint8_t enc_dec_sequence,
 445:D:/School/diseratie/SEMS/xmc4800_evaluation_kit/optiga-trust-m/optiga/crypt\optiga_crypt.c ****                                                                   uint8_t enc_dec_type,
 446:D:/School/diseratie/SEMS/xmc4800_evaluation_kit/optiga-trust-m/optiga/crypt\optiga_crypt.c ****                                                                   uint8_t operation_mode)
 447:D:/School/diseratie/SEMS/xmc4800_evaluation_kit/optiga-trust-m/optiga/crypt\optiga_crypt.c **** {
 448:D:/School/diseratie/SEMS/xmc4800_evaluation_kit/optiga-trust-m/optiga/crypt\optiga_crypt.c ****     optiga_lib_status_t return_value = OPTIGA_CRYPT_ERROR_INVALID_INPUT;
 449:D:/School/diseratie/SEMS/xmc4800_evaluation_kit/optiga-trust-m/optiga/crypt\optiga_crypt.c ****     optiga_encrypt_sym_params_t * p_params;
 450:D:/School/diseratie/SEMS/xmc4800_evaluation_kit/optiga-trust-m/optiga/crypt\optiga_crypt.c **** 
 451:D:/School/diseratie/SEMS/xmc4800_evaluation_kit/optiga-trust-m/optiga/crypt\optiga_crypt.c ****     do
 452:D:/School/diseratie/SEMS/xmc4800_evaluation_kit/optiga-trust-m/optiga/crypt\optiga_crypt.c ****     {
 453:D:/School/diseratie/SEMS/xmc4800_evaluation_kit/optiga-trust-m/optiga/crypt\optiga_crypt.c ****         // Check if instance is in use
 454:D:/School/diseratie/SEMS/xmc4800_evaluation_kit/optiga-trust-m/optiga/crypt\optiga_crypt.c ****         if (OPTIGA_LIB_INSTANCE_BUSY == me->instance_state)
 455:D:/School/diseratie/SEMS/xmc4800_evaluation_kit/optiga-trust-m/optiga/crypt\optiga_crypt.c ****         {
 456:D:/School/diseratie/SEMS/xmc4800_evaluation_kit/optiga-trust-m/optiga/crypt\optiga_crypt.c ****             return_value = OPTIGA_CRYPT_ERROR_INSTANCE_IN_USE;
 457:D:/School/diseratie/SEMS/xmc4800_evaluation_kit/optiga-trust-m/optiga/crypt\optiga_crypt.c ****             break;
 458:D:/School/diseratie/SEMS/xmc4800_evaluation_kit/optiga-trust-m/optiga/crypt\optiga_crypt.c ****         }
 459:D:/School/diseratie/SEMS/xmc4800_evaluation_kit/optiga-trust-m/optiga/crypt\optiga_crypt.c ****         me->instance_state = OPTIGA_LIB_INSTANCE_BUSY;
 460:D:/School/diseratie/SEMS/xmc4800_evaluation_kit/optiga-trust-m/optiga/crypt\optiga_crypt.c **** 
 461:D:/School/diseratie/SEMS/xmc4800_evaluation_kit/optiga-trust-m/optiga/crypt\optiga_crypt.c ****         p_params = (optiga_encrypt_sym_params_t *)&(me->params.optiga_symmetric_enc_dec_params);
 462:D:/School/diseratie/SEMS/xmc4800_evaluation_kit/optiga-trust-m/optiga/crypt\optiga_crypt.c ****         if ((OPTIGA_CRYPT_SYM_START_FINAL == enc_dec_sequence) || \
 463:D:/School/diseratie/SEMS/xmc4800_evaluation_kit/optiga-trust-m/optiga/crypt\optiga_crypt.c ****             (OPTIGA_CRYPT_SYM_START == enc_dec_sequence))
 464:D:/School/diseratie/SEMS/xmc4800_evaluation_kit/optiga-trust-m/optiga/crypt\optiga_crypt.c ****         {
 465:D:/School/diseratie/SEMS/xmc4800_evaluation_kit/optiga-trust-m/optiga/crypt\optiga_crypt.c ****             pal_os_memset(&me->params,0x00,sizeof(optiga_crypt_params_t));
 466:D:/School/diseratie/SEMS/xmc4800_evaluation_kit/optiga-trust-m/optiga/crypt\optiga_crypt.c **** 
 467:D:/School/diseratie/SEMS/xmc4800_evaluation_kit/optiga-trust-m/optiga/crypt\optiga_crypt.c ****             p_params->mode = mode;
 468:D:/School/diseratie/SEMS/xmc4800_evaluation_kit/optiga-trust-m/optiga/crypt\optiga_crypt.c ****             p_params->symmetric_key_oid = symmetric_key_oid;
 469:D:/School/diseratie/SEMS/xmc4800_evaluation_kit/optiga-trust-m/optiga/crypt\optiga_crypt.c ****         }
 470:D:/School/diseratie/SEMS/xmc4800_evaluation_kit/optiga-trust-m/optiga/crypt\optiga_crypt.c **** 
 471:D:/School/diseratie/SEMS/xmc4800_evaluation_kit/optiga-trust-m/optiga/crypt\optiga_crypt.c ****         p_params->in_data = in_data;
 472:D:/School/diseratie/SEMS/xmc4800_evaluation_kit/optiga-trust-m/optiga/crypt\optiga_crypt.c ****         p_params->in_data_length = in_data_length;
 473:D:/School/diseratie/SEMS/xmc4800_evaluation_kit/optiga-trust-m/optiga/crypt\optiga_crypt.c ****         p_params->iv = iv;
 474:D:/School/diseratie/SEMS/xmc4800_evaluation_kit/optiga-trust-m/optiga/crypt\optiga_crypt.c ****         p_params->iv_length = iv_length;
 475:D:/School/diseratie/SEMS/xmc4800_evaluation_kit/optiga-trust-m/optiga/crypt\optiga_crypt.c ****         p_params->associated_data = associated_data;
 476:D:/School/diseratie/SEMS/xmc4800_evaluation_kit/optiga-trust-m/optiga/crypt\optiga_crypt.c ****         p_params->associated_data_length = associated_data_length;
 477:D:/School/diseratie/SEMS/xmc4800_evaluation_kit/optiga-trust-m/optiga/crypt\optiga_crypt.c ****         p_params->total_input_data_length = total_plain_data_length;
 478:D:/School/diseratie/SEMS/xmc4800_evaluation_kit/optiga-trust-m/optiga/crypt\optiga_crypt.c ****         p_params->out_data = out_data;
 479:D:/School/diseratie/SEMS/xmc4800_evaluation_kit/optiga-trust-m/optiga/crypt\optiga_crypt.c ****         p_params->out_data_length = out_data_length;
 480:D:/School/diseratie/SEMS/xmc4800_evaluation_kit/optiga-trust-m/optiga/crypt\optiga_crypt.c ****         p_params->generated_hmac = out_data_verify;
 481:D:/School/diseratie/SEMS/xmc4800_evaluation_kit/optiga-trust-m/optiga/crypt\optiga_crypt.c ****         p_params->generated_hmac_length = out_data_verify_length;        
 482:D:/School/diseratie/SEMS/xmc4800_evaluation_kit/optiga-trust-m/optiga/crypt\optiga_crypt.c ****         p_params->original_sequence = enc_dec_sequence;
 483:D:/School/diseratie/SEMS/xmc4800_evaluation_kit/optiga-trust-m/optiga/crypt\optiga_crypt.c ****         p_params->operation_mode = operation_mode;
 484:D:/School/diseratie/SEMS/xmc4800_evaluation_kit/optiga-trust-m/optiga/crypt\optiga_crypt.c **** 
 485:D:/School/diseratie/SEMS/xmc4800_evaluation_kit/optiga-trust-m/optiga/crypt\optiga_crypt.c **** 
 486:D:/School/diseratie/SEMS/xmc4800_evaluation_kit/optiga-trust-m/optiga/crypt\optiga_crypt.c ****         switch(enc_dec_type)
 487:D:/School/diseratie/SEMS/xmc4800_evaluation_kit/optiga-trust-m/optiga/crypt\optiga_crypt.c ****         {
 488:D:/School/diseratie/SEMS/xmc4800_evaluation_kit/optiga-trust-m/optiga/crypt\optiga_crypt.c **** 
 489:D:/School/diseratie/SEMS/xmc4800_evaluation_kit/optiga-trust-m/optiga/crypt\optiga_crypt.c **** #ifdef OPTIGA_CRYPT_SYM_ENCRYPT_ENABLED
 490:D:/School/diseratie/SEMS/xmc4800_evaluation_kit/optiga-trust-m/optiga/crypt\optiga_crypt.c ****             case OPTIGA_CRYPT_SYMMETRIC_ENCRYPTION:
 491:D:/School/diseratie/SEMS/xmc4800_evaluation_kit/optiga-trust-m/optiga/crypt\optiga_crypt.c ****             {
 492:D:/School/diseratie/SEMS/xmc4800_evaluation_kit/optiga-trust-m/optiga/crypt\optiga_crypt.c ****     #ifdef OPTIGA_COMMS_SHIELDED_CONNECTION
 493:D:/School/diseratie/SEMS/xmc4800_evaluation_kit/optiga-trust-m/optiga/crypt\optiga_crypt.c ****                 me->protection_level |= OPTIGA_COMMS_COMMAND_PROTECTION;
 494:D:/School/diseratie/SEMS/xmc4800_evaluation_kit/optiga-trust-m/optiga/crypt\optiga_crypt.c ****     #endif //OPTIGA_COMMS_SHIELDED_CONNECTION
 495:D:/School/diseratie/SEMS/xmc4800_evaluation_kit/optiga-trust-m/optiga/crypt\optiga_crypt.c ****                 if ((OPTIGA_CRYPT_SYM_START_FINAL == enc_dec_sequence) || \
 496:D:/School/diseratie/SEMS/xmc4800_evaluation_kit/optiga-trust-m/optiga/crypt\optiga_crypt.c ****                     (OPTIGA_CRYPT_SYM_START == enc_dec_sequence))
 497:D:/School/diseratie/SEMS/xmc4800_evaluation_kit/optiga-trust-m/optiga/crypt\optiga_crypt.c ****                 {
 498:D:/School/diseratie/SEMS/xmc4800_evaluation_kit/optiga-trust-m/optiga/crypt\optiga_crypt.c ****                     OPTIGA_PROTECTION_ENABLE(me->my_cmd, me);
 499:D:/School/diseratie/SEMS/xmc4800_evaluation_kit/optiga-trust-m/optiga/crypt\optiga_crypt.c ****                     OPTIGA_PROTECTION_SET_VERSION(me->my_cmd, me);
 500:D:/School/diseratie/SEMS/xmc4800_evaluation_kit/optiga-trust-m/optiga/crypt\optiga_crypt.c ****                 }
 501:D:/School/diseratie/SEMS/xmc4800_evaluation_kit/optiga-trust-m/optiga/crypt\optiga_crypt.c ****                 return_value = optiga_cmd_encrypt_sym(me->my_cmd,
 502:D:/School/diseratie/SEMS/xmc4800_evaluation_kit/optiga-trust-m/optiga/crypt\optiga_crypt.c ****                                                      (uint8_t)p_params->mode,
 503:D:/School/diseratie/SEMS/xmc4800_evaluation_kit/optiga-trust-m/optiga/crypt\optiga_crypt.c ****                                                      (optiga_encrypt_sym_params_t *)p_params);
 504:D:/School/diseratie/SEMS/xmc4800_evaluation_kit/optiga-trust-m/optiga/crypt\optiga_crypt.c ****             }
 505:D:/School/diseratie/SEMS/xmc4800_evaluation_kit/optiga-trust-m/optiga/crypt\optiga_crypt.c ****             break;
 506:D:/School/diseratie/SEMS/xmc4800_evaluation_kit/optiga-trust-m/optiga/crypt\optiga_crypt.c **** #endif //OPTIGA_CRYPT_SYM_ENCRYPT_ENABLED
 507:D:/School/diseratie/SEMS/xmc4800_evaluation_kit/optiga-trust-m/optiga/crypt\optiga_crypt.c **** 
 508:D:/School/diseratie/SEMS/xmc4800_evaluation_kit/optiga-trust-m/optiga/crypt\optiga_crypt.c **** 
 509:D:/School/diseratie/SEMS/xmc4800_evaluation_kit/optiga-trust-m/optiga/crypt\optiga_crypt.c **** #ifdef OPTIGA_CRYPT_SYM_DECRYPT_ENABLED
 510:D:/School/diseratie/SEMS/xmc4800_evaluation_kit/optiga-trust-m/optiga/crypt\optiga_crypt.c ****             case OPTIGA_CRYPT_SYMMETRIC_DECRYPTION:
 511:D:/School/diseratie/SEMS/xmc4800_evaluation_kit/optiga-trust-m/optiga/crypt\optiga_crypt.c ****             {
 512:D:/School/diseratie/SEMS/xmc4800_evaluation_kit/optiga-trust-m/optiga/crypt\optiga_crypt.c ****     #ifdef OPTIGA_COMMS_SHIELDED_CONNECTION
 513:D:/School/diseratie/SEMS/xmc4800_evaluation_kit/optiga-trust-m/optiga/crypt\optiga_crypt.c ****                 me->protection_level |= OPTIGA_COMMS_RESPONSE_PROTECTION;
 514:D:/School/diseratie/SEMS/xmc4800_evaluation_kit/optiga-trust-m/optiga/crypt\optiga_crypt.c **** 
 515:D:/School/diseratie/SEMS/xmc4800_evaluation_kit/optiga-trust-m/optiga/crypt\optiga_crypt.c ****     #endif //OPTIGA_COMMS_SHIELDED_CONNECTION
 516:D:/School/diseratie/SEMS/xmc4800_evaluation_kit/optiga-trust-m/optiga/crypt\optiga_crypt.c **** 
 517:D:/School/diseratie/SEMS/xmc4800_evaluation_kit/optiga-trust-m/optiga/crypt\optiga_crypt.c ****                 if ((OPTIGA_CRYPT_SYM_START_FINAL == enc_dec_sequence) || \
 518:D:/School/diseratie/SEMS/xmc4800_evaluation_kit/optiga-trust-m/optiga/crypt\optiga_crypt.c ****                     (OPTIGA_CRYPT_SYM_START == enc_dec_sequence))
 519:D:/School/diseratie/SEMS/xmc4800_evaluation_kit/optiga-trust-m/optiga/crypt\optiga_crypt.c ****                 {
 520:D:/School/diseratie/SEMS/xmc4800_evaluation_kit/optiga-trust-m/optiga/crypt\optiga_crypt.c ****                     OPTIGA_PROTECTION_ENABLE(me->my_cmd, me);
 521:D:/School/diseratie/SEMS/xmc4800_evaluation_kit/optiga-trust-m/optiga/crypt\optiga_crypt.c ****                     OPTIGA_PROTECTION_SET_VERSION(me->my_cmd, me);
 522:D:/School/diseratie/SEMS/xmc4800_evaluation_kit/optiga-trust-m/optiga/crypt\optiga_crypt.c ****                 }
 523:D:/School/diseratie/SEMS/xmc4800_evaluation_kit/optiga-trust-m/optiga/crypt\optiga_crypt.c ****                 return_value = optiga_cmd_decrypt_sym(me->my_cmd,
 524:D:/School/diseratie/SEMS/xmc4800_evaluation_kit/optiga-trust-m/optiga/crypt\optiga_crypt.c ****                                                      (uint8_t)p_params->mode,
 525:D:/School/diseratie/SEMS/xmc4800_evaluation_kit/optiga-trust-m/optiga/crypt\optiga_crypt.c ****                                                      (optiga_decrypt_sym_params_t *)p_params);
 526:D:/School/diseratie/SEMS/xmc4800_evaluation_kit/optiga-trust-m/optiga/crypt\optiga_crypt.c ****             }
 527:D:/School/diseratie/SEMS/xmc4800_evaluation_kit/optiga-trust-m/optiga/crypt\optiga_crypt.c ****             break;
 528:D:/School/diseratie/SEMS/xmc4800_evaluation_kit/optiga-trust-m/optiga/crypt\optiga_crypt.c **** #endif //OPTIGA_CRYPT_SYM_DECRYPT_ENABLED
 529:D:/School/diseratie/SEMS/xmc4800_evaluation_kit/optiga-trust-m/optiga/crypt\optiga_crypt.c **** 
 530:D:/School/diseratie/SEMS/xmc4800_evaluation_kit/optiga-trust-m/optiga/crypt\optiga_crypt.c ****             default:
 531:D:/School/diseratie/SEMS/xmc4800_evaluation_kit/optiga-trust-m/optiga/crypt\optiga_crypt.c ****             	break;
 532:D:/School/diseratie/SEMS/xmc4800_evaluation_kit/optiga-trust-m/optiga/crypt\optiga_crypt.c ****         }
 533:D:/School/diseratie/SEMS/xmc4800_evaluation_kit/optiga-trust-m/optiga/crypt\optiga_crypt.c **** 
 534:D:/School/diseratie/SEMS/xmc4800_evaluation_kit/optiga-trust-m/optiga/crypt\optiga_crypt.c ****         if (OPTIGA_LIB_SUCCESS != return_value)
 535:D:/School/diseratie/SEMS/xmc4800_evaluation_kit/optiga-trust-m/optiga/crypt\optiga_crypt.c ****         {
 536:D:/School/diseratie/SEMS/xmc4800_evaluation_kit/optiga-trust-m/optiga/crypt\optiga_crypt.c ****             me->instance_state = OPTIGA_LIB_INSTANCE_FREE;
 537:D:/School/diseratie/SEMS/xmc4800_evaluation_kit/optiga-trust-m/optiga/crypt\optiga_crypt.c ****         }
 538:D:/School/diseratie/SEMS/xmc4800_evaluation_kit/optiga-trust-m/optiga/crypt\optiga_crypt.c ****     } while (FALSE);
 539:D:/School/diseratie/SEMS/xmc4800_evaluation_kit/optiga-trust-m/optiga/crypt\optiga_crypt.c **** 
 540:D:/School/diseratie/SEMS/xmc4800_evaluation_kit/optiga-trust-m/optiga/crypt\optiga_crypt.c ****     return (return_value);
 541:D:/School/diseratie/SEMS/xmc4800_evaluation_kit/optiga-trust-m/optiga/crypt\optiga_crypt.c **** }
 542:D:/School/diseratie/SEMS/xmc4800_evaluation_kit/optiga-trust-m/optiga/crypt\optiga_crypt.c **** 
 543:D:/School/diseratie/SEMS/xmc4800_evaluation_kit/optiga-trust-m/optiga/crypt\optiga_crypt.c **** #endif //(OPTIGA_CRYPT_SYM_ENCRYPT_ENABLED) || (OPTIGA_CRYPT_SYM_DECRYPT_ENABLED) || (OPTIGA_CRYPT_
 544:D:/School/diseratie/SEMS/xmc4800_evaluation_kit/optiga-trust-m/optiga/crypt\optiga_crypt.c **** 
 545:D:/School/diseratie/SEMS/xmc4800_evaluation_kit/optiga-trust-m/optiga/crypt\optiga_crypt.c **** #if defined (OPTIGA_CRYPT_TLS_PRF_SHA256_ENABLED) || defined (OPTIGA_CRYPT_TLS_PRF_SHA384_ENABLED) 
 546:D:/School/diseratie/SEMS/xmc4800_evaluation_kit/optiga-trust-m/optiga/crypt\optiga_crypt.c **** _STATIC_H optiga_lib_status_t optiga_crypt_derive_key_generic(optiga_crypt_t * me,
 547:D:/School/diseratie/SEMS/xmc4800_evaluation_kit/optiga-trust-m/optiga/crypt\optiga_crypt.c ****                                                               uint8_t type,
 548:D:/School/diseratie/SEMS/xmc4800_evaluation_kit/optiga-trust-m/optiga/crypt\optiga_crypt.c ****                                                               uint16_t secret,
 549:D:/School/diseratie/SEMS/xmc4800_evaluation_kit/optiga-trust-m/optiga/crypt\optiga_crypt.c ****                                                               const uint8_t * random_data,
 550:D:/School/diseratie/SEMS/xmc4800_evaluation_kit/optiga-trust-m/optiga/crypt\optiga_crypt.c ****                                                               uint16_t random_data_length,
 551:D:/School/diseratie/SEMS/xmc4800_evaluation_kit/optiga-trust-m/optiga/crypt\optiga_crypt.c ****                                                               const uint8_t * label,
 552:D:/School/diseratie/SEMS/xmc4800_evaluation_kit/optiga-trust-m/optiga/crypt\optiga_crypt.c ****                                                               uint16_t label_length,
 553:D:/School/diseratie/SEMS/xmc4800_evaluation_kit/optiga-trust-m/optiga/crypt\optiga_crypt.c ****                                                               const uint8_t * info,
 554:D:/School/diseratie/SEMS/xmc4800_evaluation_kit/optiga-trust-m/optiga/crypt\optiga_crypt.c ****                                                               uint16_t info_length,
 555:D:/School/diseratie/SEMS/xmc4800_evaluation_kit/optiga-trust-m/optiga/crypt\optiga_crypt.c ****                                                               uint16_t derived_key_length,
 556:D:/School/diseratie/SEMS/xmc4800_evaluation_kit/optiga-trust-m/optiga/crypt\optiga_crypt.c ****                                                               bool_t export_to_host,
 557:D:/School/diseratie/SEMS/xmc4800_evaluation_kit/optiga-trust-m/optiga/crypt\optiga_crypt.c ****                                                               uint8_t * derived_key)
 558:D:/School/diseratie/SEMS/xmc4800_evaluation_kit/optiga-trust-m/optiga/crypt\optiga_crypt.c **** {
 559:D:/School/diseratie/SEMS/xmc4800_evaluation_kit/optiga-trust-m/optiga/crypt\optiga_crypt.c ****     optiga_lib_status_t return_value = OPTIGA_CRYPT_ERROR;
 560:D:/School/diseratie/SEMS/xmc4800_evaluation_kit/optiga-trust-m/optiga/crypt\optiga_crypt.c ****     optiga_derive_key_params_t * p_params;
 561:D:/School/diseratie/SEMS/xmc4800_evaluation_kit/optiga-trust-m/optiga/crypt\optiga_crypt.c **** 
 562:D:/School/diseratie/SEMS/xmc4800_evaluation_kit/optiga-trust-m/optiga/crypt\optiga_crypt.c ****     do
 563:D:/School/diseratie/SEMS/xmc4800_evaluation_kit/optiga-trust-m/optiga/crypt\optiga_crypt.c ****     {
 564:D:/School/diseratie/SEMS/xmc4800_evaluation_kit/optiga-trust-m/optiga/crypt\optiga_crypt.c ****         if (OPTIGA_LIB_INSTANCE_BUSY == me->instance_state)
 565:D:/School/diseratie/SEMS/xmc4800_evaluation_kit/optiga-trust-m/optiga/crypt\optiga_crypt.c ****         {
 566:D:/School/diseratie/SEMS/xmc4800_evaluation_kit/optiga-trust-m/optiga/crypt\optiga_crypt.c ****             return_value = OPTIGA_CRYPT_ERROR_INSTANCE_IN_USE;
 567:D:/School/diseratie/SEMS/xmc4800_evaluation_kit/optiga-trust-m/optiga/crypt\optiga_crypt.c ****             break;
 568:D:/School/diseratie/SEMS/xmc4800_evaluation_kit/optiga-trust-m/optiga/crypt\optiga_crypt.c ****         }
 569:D:/School/diseratie/SEMS/xmc4800_evaluation_kit/optiga-trust-m/optiga/crypt\optiga_crypt.c **** 
 570:D:/School/diseratie/SEMS/xmc4800_evaluation_kit/optiga-trust-m/optiga/crypt\optiga_crypt.c ****         me->instance_state = OPTIGA_LIB_INSTANCE_BUSY;
 571:D:/School/diseratie/SEMS/xmc4800_evaluation_kit/optiga-trust-m/optiga/crypt\optiga_crypt.c **** 
 572:D:/School/diseratie/SEMS/xmc4800_evaluation_kit/optiga-trust-m/optiga/crypt\optiga_crypt.c ****         p_params = (optiga_derive_key_params_t *)&(me->params.optiga_derive_key_params);
 573:D:/School/diseratie/SEMS/xmc4800_evaluation_kit/optiga-trust-m/optiga/crypt\optiga_crypt.c ****         pal_os_memset(&me->params,0x00,sizeof(optiga_crypt_params_t));
 574:D:/School/diseratie/SEMS/xmc4800_evaluation_kit/optiga-trust-m/optiga/crypt\optiga_crypt.c ****         
 575:D:/School/diseratie/SEMS/xmc4800_evaluation_kit/optiga-trust-m/optiga/crypt\optiga_crypt.c ****         p_params->input_shared_secret_oid = secret;
 576:D:/School/diseratie/SEMS/xmc4800_evaluation_kit/optiga-trust-m/optiga/crypt\optiga_crypt.c ****         p_params->random_data = random_data;
 577:D:/School/diseratie/SEMS/xmc4800_evaluation_kit/optiga-trust-m/optiga/crypt\optiga_crypt.c ****         p_params->random_data_length = random_data_length;
 578:D:/School/diseratie/SEMS/xmc4800_evaluation_kit/optiga-trust-m/optiga/crypt\optiga_crypt.c ****         p_params->label = label;
 579:D:/School/diseratie/SEMS/xmc4800_evaluation_kit/optiga-trust-m/optiga/crypt\optiga_crypt.c ****         p_params->label_length = label_length;
 580:D:/School/diseratie/SEMS/xmc4800_evaluation_kit/optiga-trust-m/optiga/crypt\optiga_crypt.c ****         p_params->info = info;
 581:D:/School/diseratie/SEMS/xmc4800_evaluation_kit/optiga-trust-m/optiga/crypt\optiga_crypt.c ****         p_params->info_length = info_length;
 582:D:/School/diseratie/SEMS/xmc4800_evaluation_kit/optiga-trust-m/optiga/crypt\optiga_crypt.c ****         p_params->derived_key_length = derived_key_length;
 583:D:/School/diseratie/SEMS/xmc4800_evaluation_kit/optiga-trust-m/optiga/crypt\optiga_crypt.c **** 
 584:D:/School/diseratie/SEMS/xmc4800_evaluation_kit/optiga-trust-m/optiga/crypt\optiga_crypt.c ****         if (TRUE == export_to_host)
 585:D:/School/diseratie/SEMS/xmc4800_evaluation_kit/optiga-trust-m/optiga/crypt\optiga_crypt.c ****         {
 586:D:/School/diseratie/SEMS/xmc4800_evaluation_kit/optiga-trust-m/optiga/crypt\optiga_crypt.c ****             p_params->derived_key = (uint8_t *)derived_key;
 587:D:/School/diseratie/SEMS/xmc4800_evaluation_kit/optiga-trust-m/optiga/crypt\optiga_crypt.c ****         }
 588:D:/School/diseratie/SEMS/xmc4800_evaluation_kit/optiga-trust-m/optiga/crypt\optiga_crypt.c **** 
 589:D:/School/diseratie/SEMS/xmc4800_evaluation_kit/optiga-trust-m/optiga/crypt\optiga_crypt.c **** #ifdef OPTIGA_COMMS_SHIELDED_CONNECTION
 590:D:/School/diseratie/SEMS/xmc4800_evaluation_kit/optiga-trust-m/optiga/crypt\optiga_crypt.c ****         if (OPTIGA_KEY_ID_SESSION_BASED == (optiga_key_id_t)secret)
 591:D:/School/diseratie/SEMS/xmc4800_evaluation_kit/optiga-trust-m/optiga/crypt\optiga_crypt.c ****         {
 592:D:/School/diseratie/SEMS/xmc4800_evaluation_kit/optiga-trust-m/optiga/crypt\optiga_crypt.c ****             me->protection_level |= OPTIGA_COMMS_COMMAND_PROTECTION;
 593:D:/School/diseratie/SEMS/xmc4800_evaluation_kit/optiga-trust-m/optiga/crypt\optiga_crypt.c ****         }
 594:D:/School/diseratie/SEMS/xmc4800_evaluation_kit/optiga-trust-m/optiga/crypt\optiga_crypt.c **** #endif //OPTIGA_COMMS_SHIELDED_CONNECTION
 595:D:/School/diseratie/SEMS/xmc4800_evaluation_kit/optiga-trust-m/optiga/crypt\optiga_crypt.c ****         OPTIGA_PROTECTION_ENABLE(me->my_cmd, me);
 596:D:/School/diseratie/SEMS/xmc4800_evaluation_kit/optiga-trust-m/optiga/crypt\optiga_crypt.c ****         OPTIGA_PROTECTION_SET_VERSION(me->my_cmd, me);
 597:D:/School/diseratie/SEMS/xmc4800_evaluation_kit/optiga-trust-m/optiga/crypt\optiga_crypt.c ****         
 598:D:/School/diseratie/SEMS/xmc4800_evaluation_kit/optiga-trust-m/optiga/crypt\optiga_crypt.c ****         return_value = optiga_cmd_derive_key(me->my_cmd,
 599:D:/School/diseratie/SEMS/xmc4800_evaluation_kit/optiga-trust-m/optiga/crypt\optiga_crypt.c ****                                              type,
 600:D:/School/diseratie/SEMS/xmc4800_evaluation_kit/optiga-trust-m/optiga/crypt\optiga_crypt.c ****                                              p_params);
 601:D:/School/diseratie/SEMS/xmc4800_evaluation_kit/optiga-trust-m/optiga/crypt\optiga_crypt.c ****         if (OPTIGA_LIB_SUCCESS != return_value)
 602:D:/School/diseratie/SEMS/xmc4800_evaluation_kit/optiga-trust-m/optiga/crypt\optiga_crypt.c ****         {
 603:D:/School/diseratie/SEMS/xmc4800_evaluation_kit/optiga-trust-m/optiga/crypt\optiga_crypt.c ****             me->instance_state = OPTIGA_LIB_INSTANCE_FREE;
 604:D:/School/diseratie/SEMS/xmc4800_evaluation_kit/optiga-trust-m/optiga/crypt\optiga_crypt.c ****         }
 605:D:/School/diseratie/SEMS/xmc4800_evaluation_kit/optiga-trust-m/optiga/crypt\optiga_crypt.c ****     } while (FALSE);
 606:D:/School/diseratie/SEMS/xmc4800_evaluation_kit/optiga-trust-m/optiga/crypt\optiga_crypt.c ****     optiga_crypt_reset_protection_level(me);
 607:D:/School/diseratie/SEMS/xmc4800_evaluation_kit/optiga-trust-m/optiga/crypt\optiga_crypt.c **** 
 608:D:/School/diseratie/SEMS/xmc4800_evaluation_kit/optiga-trust-m/optiga/crypt\optiga_crypt.c ****     return (return_value);
 609:D:/School/diseratie/SEMS/xmc4800_evaluation_kit/optiga-trust-m/optiga/crypt\optiga_crypt.c **** }
 610:D:/School/diseratie/SEMS/xmc4800_evaluation_kit/optiga-trust-m/optiga/crypt\optiga_crypt.c **** #endif //(OPTIGA_CRYPT_TLS_PRF_SHA256_ENABLED || OPTIGA_CRYPT_TLS_PRF_SHA384_ENABLED || OPTIGA_CRYP
 611:D:/School/diseratie/SEMS/xmc4800_evaluation_kit/optiga-trust-m/optiga/crypt\optiga_crypt.c **** 
 612:D:/School/diseratie/SEMS/xmc4800_evaluation_kit/optiga-trust-m/optiga/crypt\optiga_crypt.c **** #ifdef OPTIGA_CRYPT_HASH_ENABLED
 613:D:/School/diseratie/SEMS/xmc4800_evaluation_kit/optiga-trust-m/optiga/crypt\optiga_crypt.c **** _STATIC_H optiga_lib_status_t optiga_crypt_hash_generic(optiga_crypt_t * me,
 614:D:/School/diseratie/SEMS/xmc4800_evaluation_kit/optiga-trust-m/optiga/crypt\optiga_crypt.c ****                                                         uint8_t hash_algorithm,
 615:D:/School/diseratie/SEMS/xmc4800_evaluation_kit/optiga-trust-m/optiga/crypt\optiga_crypt.c ****                                                         uint8_t hash_sequence,
 616:D:/School/diseratie/SEMS/xmc4800_evaluation_kit/optiga-trust-m/optiga/crypt\optiga_crypt.c ****                                                         uint8_t source_of_data_to_hash,
 617:D:/School/diseratie/SEMS/xmc4800_evaluation_kit/optiga-trust-m/optiga/crypt\optiga_crypt.c ****                                                         optiga_hash_context_t * hash_ctx,
 618:D:/School/diseratie/SEMS/xmc4800_evaluation_kit/optiga-trust-m/optiga/crypt\optiga_crypt.c ****                                                         uint32_t context_length,                   
 619:D:/School/diseratie/SEMS/xmc4800_evaluation_kit/optiga-trust-m/optiga/crypt\optiga_crypt.c ****                                                         const void * data_to_hash,
 620:D:/School/diseratie/SEMS/xmc4800_evaluation_kit/optiga-trust-m/optiga/crypt\optiga_crypt.c ****                                                         bool_t export_intermediate_ctx,
 621:D:/School/diseratie/SEMS/xmc4800_evaluation_kit/optiga-trust-m/optiga/crypt\optiga_crypt.c ****                                                         uint8_t * hash_output)
 622:D:/School/diseratie/SEMS/xmc4800_evaluation_kit/optiga-trust-m/optiga/crypt\optiga_crypt.c **** {
 623:D:/School/diseratie/SEMS/xmc4800_evaluation_kit/optiga-trust-m/optiga/crypt\optiga_crypt.c ****     optiga_lib_status_t return_value = OPTIGA_CRYPT_ERROR;
 624:D:/School/diseratie/SEMS/xmc4800_evaluation_kit/optiga-trust-m/optiga/crypt\optiga_crypt.c ****     optiga_calc_hash_params_t * p_params;
 625:D:/School/diseratie/SEMS/xmc4800_evaluation_kit/optiga-trust-m/optiga/crypt\optiga_crypt.c ****     do
 626:D:/School/diseratie/SEMS/xmc4800_evaluation_kit/optiga-trust-m/optiga/crypt\optiga_crypt.c ****     {
 627:D:/School/diseratie/SEMS/xmc4800_evaluation_kit/optiga-trust-m/optiga/crypt\optiga_crypt.c ****         if (OPTIGA_LIB_INSTANCE_BUSY == me->instance_state)
 628:D:/School/diseratie/SEMS/xmc4800_evaluation_kit/optiga-trust-m/optiga/crypt\optiga_crypt.c ****         {
 629:D:/School/diseratie/SEMS/xmc4800_evaluation_kit/optiga-trust-m/optiga/crypt\optiga_crypt.c ****             return_value = OPTIGA_CRYPT_ERROR_INSTANCE_IN_USE;
 630:D:/School/diseratie/SEMS/xmc4800_evaluation_kit/optiga-trust-m/optiga/crypt\optiga_crypt.c ****             break;
 631:D:/School/diseratie/SEMS/xmc4800_evaluation_kit/optiga-trust-m/optiga/crypt\optiga_crypt.c ****         }
 632:D:/School/diseratie/SEMS/xmc4800_evaluation_kit/optiga-trust-m/optiga/crypt\optiga_crypt.c **** 
 633:D:/School/diseratie/SEMS/xmc4800_evaluation_kit/optiga-trust-m/optiga/crypt\optiga_crypt.c ****         me->instance_state = OPTIGA_LIB_INSTANCE_BUSY;
 634:D:/School/diseratie/SEMS/xmc4800_evaluation_kit/optiga-trust-m/optiga/crypt\optiga_crypt.c ****         p_params = (optiga_calc_hash_params_t *)&(me->params.optiga_calc_hash_params);
 635:D:/School/diseratie/SEMS/xmc4800_evaluation_kit/optiga-trust-m/optiga/crypt\optiga_crypt.c ****         pal_os_memset(&me->params,0x00,sizeof(optiga_crypt_params_t));
 636:D:/School/diseratie/SEMS/xmc4800_evaluation_kit/optiga-trust-m/optiga/crypt\optiga_crypt.c **** 
 637:D:/School/diseratie/SEMS/xmc4800_evaluation_kit/optiga-trust-m/optiga/crypt\optiga_crypt.c ****         OPTIGA_PROTECTION_ENABLE(me->my_cmd, me);
 638:D:/School/diseratie/SEMS/xmc4800_evaluation_kit/optiga-trust-m/optiga/crypt\optiga_crypt.c ****         OPTIGA_PROTECTION_SET_VERSION(me->my_cmd, me);
 639:D:/School/diseratie/SEMS/xmc4800_evaluation_kit/optiga-trust-m/optiga/crypt\optiga_crypt.c ****         p_params->hash_sequence = hash_sequence;
 640:D:/School/diseratie/SEMS/xmc4800_evaluation_kit/optiga-trust-m/optiga/crypt\optiga_crypt.c ****         p_params->p_hash_context = hash_ctx;
 641:D:/School/diseratie/SEMS/xmc4800_evaluation_kit/optiga-trust-m/optiga/crypt\optiga_crypt.c ****         p_params->apparent_context_size = context_length;
 642:D:/School/diseratie/SEMS/xmc4800_evaluation_kit/optiga-trust-m/optiga/crypt\optiga_crypt.c ****         p_params->p_hash_data = NULL;
 643:D:/School/diseratie/SEMS/xmc4800_evaluation_kit/optiga-trust-m/optiga/crypt\optiga_crypt.c ****         p_params->p_hash_oid = NULL;
 644:D:/School/diseratie/SEMS/xmc4800_evaluation_kit/optiga-trust-m/optiga/crypt\optiga_crypt.c ****         p_params->p_out_digest = hash_output;
 645:D:/School/diseratie/SEMS/xmc4800_evaluation_kit/optiga-trust-m/optiga/crypt\optiga_crypt.c ****         p_params->export_hash_ctx = export_intermediate_ctx;
 646:D:/School/diseratie/SEMS/xmc4800_evaluation_kit/optiga-trust-m/optiga/crypt\optiga_crypt.c ****         
 647:D:/School/diseratie/SEMS/xmc4800_evaluation_kit/optiga-trust-m/optiga/crypt\optiga_crypt.c ****         if ((OPTIGA_CRYPT_HASH_CONTINUE == hash_sequence) || (OPTIGA_CRYPT_HASH_START_FINAL == hash
 648:D:/School/diseratie/SEMS/xmc4800_evaluation_kit/optiga-trust-m/optiga/crypt\optiga_crypt.c ****         {
 649:D:/School/diseratie/SEMS/xmc4800_evaluation_kit/optiga-trust-m/optiga/crypt\optiga_crypt.c ****             if (source_of_data_to_hash)
 650:D:/School/diseratie/SEMS/xmc4800_evaluation_kit/optiga-trust-m/optiga/crypt\optiga_crypt.c ****             {
 651:D:/School/diseratie/SEMS/xmc4800_evaluation_kit/optiga-trust-m/optiga/crypt\optiga_crypt.c ****                 p_params->p_hash_data = (hash_data_from_host_t *)data_to_hash;
 652:D:/School/diseratie/SEMS/xmc4800_evaluation_kit/optiga-trust-m/optiga/crypt\optiga_crypt.c ****             }
 653:D:/School/diseratie/SEMS/xmc4800_evaluation_kit/optiga-trust-m/optiga/crypt\optiga_crypt.c ****             else
 654:D:/School/diseratie/SEMS/xmc4800_evaluation_kit/optiga-trust-m/optiga/crypt\optiga_crypt.c ****             {
 655:D:/School/diseratie/SEMS/xmc4800_evaluation_kit/optiga-trust-m/optiga/crypt\optiga_crypt.c ****                 p_params->hash_sequence |= OPTIGA_CRYPT_HASH_FOR_OID;
 656:D:/School/diseratie/SEMS/xmc4800_evaluation_kit/optiga-trust-m/optiga/crypt\optiga_crypt.c ****                 p_params->p_hash_oid = (hash_data_in_optiga_t *)data_to_hash;
 657:D:/School/diseratie/SEMS/xmc4800_evaluation_kit/optiga-trust-m/optiga/crypt\optiga_crypt.c ****             }
 658:D:/School/diseratie/SEMS/xmc4800_evaluation_kit/optiga-trust-m/optiga/crypt\optiga_crypt.c ****         }
 659:D:/School/diseratie/SEMS/xmc4800_evaluation_kit/optiga-trust-m/optiga/crypt\optiga_crypt.c **** 
 660:D:/School/diseratie/SEMS/xmc4800_evaluation_kit/optiga-trust-m/optiga/crypt\optiga_crypt.c ****         return_value = optiga_cmd_calc_hash(me->my_cmd,
 661:D:/School/diseratie/SEMS/xmc4800_evaluation_kit/optiga-trust-m/optiga/crypt\optiga_crypt.c ****                                             hash_algorithm,
 662:D:/School/diseratie/SEMS/xmc4800_evaluation_kit/optiga-trust-m/optiga/crypt\optiga_crypt.c ****                                             (optiga_calc_hash_params_t *)p_params);
 663:D:/School/diseratie/SEMS/xmc4800_evaluation_kit/optiga-trust-m/optiga/crypt\optiga_crypt.c ****         if (OPTIGA_LIB_SUCCESS != return_value)
 664:D:/School/diseratie/SEMS/xmc4800_evaluation_kit/optiga-trust-m/optiga/crypt\optiga_crypt.c ****         {
 665:D:/School/diseratie/SEMS/xmc4800_evaluation_kit/optiga-trust-m/optiga/crypt\optiga_crypt.c ****             me->instance_state = OPTIGA_LIB_INSTANCE_FREE;
 666:D:/School/diseratie/SEMS/xmc4800_evaluation_kit/optiga-trust-m/optiga/crypt\optiga_crypt.c ****         }
 667:D:/School/diseratie/SEMS/xmc4800_evaluation_kit/optiga-trust-m/optiga/crypt\optiga_crypt.c ****     } while (FALSE);
 668:D:/School/diseratie/SEMS/xmc4800_evaluation_kit/optiga-trust-m/optiga/crypt\optiga_crypt.c ****     optiga_crypt_reset_protection_level(me);
 669:D:/School/diseratie/SEMS/xmc4800_evaluation_kit/optiga-trust-m/optiga/crypt\optiga_crypt.c **** 
 670:D:/School/diseratie/SEMS/xmc4800_evaluation_kit/optiga-trust-m/optiga/crypt\optiga_crypt.c ****     return (return_value);
 671:D:/School/diseratie/SEMS/xmc4800_evaluation_kit/optiga-trust-m/optiga/crypt\optiga_crypt.c **** }
 672:D:/School/diseratie/SEMS/xmc4800_evaluation_kit/optiga-trust-m/optiga/crypt\optiga_crypt.c **** #endif //(OPTIGA_CRYPT_HASH_ENABLED)
 673:D:/School/diseratie/SEMS/xmc4800_evaluation_kit/optiga-trust-m/optiga/crypt\optiga_crypt.c **** 
 674:D:/School/diseratie/SEMS/xmc4800_evaluation_kit/optiga-trust-m/optiga/crypt\optiga_crypt.c **** #ifdef OPTIGA_COMMS_SHIELDED_CONNECTION
 675:D:/School/diseratie/SEMS/xmc4800_evaluation_kit/optiga-trust-m/optiga/crypt\optiga_crypt.c **** void optiga_crypt_set_comms_params(optiga_crypt_t * me,
 676:D:/School/diseratie/SEMS/xmc4800_evaluation_kit/optiga-trust-m/optiga/crypt\optiga_crypt.c ****                                    uint8_t parameter_type,
 677:D:/School/diseratie/SEMS/xmc4800_evaluation_kit/optiga-trust-m/optiga/crypt\optiga_crypt.c ****                                    uint8_t value)
 678:D:/School/diseratie/SEMS/xmc4800_evaluation_kit/optiga-trust-m/optiga/crypt\optiga_crypt.c **** {
  53              	 .loc 1 678 0
  54              	 .cfi_startproc
  55              	 
  56              	 
  57              	 
  58              	.LVL3:
 679:D:/School/diseratie/SEMS/xmc4800_evaluation_kit/optiga-trust-m/optiga/crypt\optiga_crypt.c ****     switch (parameter_type)
  59              	 .loc 1 679 0
  60 0000 0129     	 cmp r1,#1
  61 0002 05D0     	 beq .L4
  62 0004 0229     	 cmp r1,#2
  63 0006 02D1     	 bne .L7
 680:D:/School/diseratie/SEMS/xmc4800_evaluation_kit/optiga-trust-m/optiga/crypt\optiga_crypt.c ****     {
 681:D:/School/diseratie/SEMS/xmc4800_evaluation_kit/optiga-trust-m/optiga/crypt\optiga_crypt.c ****         case OPTIGA_COMMS_PROTECTION_LEVEL:
 682:D:/School/diseratie/SEMS/xmc4800_evaluation_kit/optiga-trust-m/optiga/crypt\optiga_crypt.c ****         {
 683:D:/School/diseratie/SEMS/xmc4800_evaluation_kit/optiga-trust-m/optiga/crypt\optiga_crypt.c ****             me->protection_level = value;
 684:D:/School/diseratie/SEMS/xmc4800_evaluation_kit/optiga-trust-m/optiga/crypt\optiga_crypt.c ****             break;
 685:D:/School/diseratie/SEMS/xmc4800_evaluation_kit/optiga-trust-m/optiga/crypt\optiga_crypt.c ****         }
 686:D:/School/diseratie/SEMS/xmc4800_evaluation_kit/optiga-trust-m/optiga/crypt\optiga_crypt.c ****         case OPTIGA_COMMS_PROTOCOL_VERSION:
 687:D:/School/diseratie/SEMS/xmc4800_evaluation_kit/optiga-trust-m/optiga/crypt\optiga_crypt.c ****         {
 688:D:/School/diseratie/SEMS/xmc4800_evaluation_kit/optiga-trust-m/optiga/crypt\optiga_crypt.c ****             me->protocol_version = value;
  64              	 .loc 1 688 0
  65 0008 80F82F20 	 strb r2,[r0,#47]
  66 000c 7047     	 bx lr
  67              	.L7:
  68 000e 7047     	 bx lr
  69              	.L4:
 683:D:/School/diseratie/SEMS/xmc4800_evaluation_kit/optiga-trust-m/optiga/crypt\optiga_crypt.c ****             break;
  70              	 .loc 1 683 0
  71 0010 80F82E20 	 strb r2,[r0,#46]
 684:D:/School/diseratie/SEMS/xmc4800_evaluation_kit/optiga-trust-m/optiga/crypt\optiga_crypt.c ****         }
  72              	 .loc 1 684 0
  73 0014 7047     	 bx lr
  74              	 .cfi_endproc
  75              	.LFE10:
  77 0016 00BF     	 .section .text.optiga_crypt_create,"ax",%progbits
  78              	 .align 2
  79              	 .global optiga_crypt_create
  80              	 .thumb
  81              	 .thumb_func
  83              	optiga_crypt_create:
  84              	.LFB11:
 689:D:/School/diseratie/SEMS/xmc4800_evaluation_kit/optiga-trust-m/optiga/crypt\optiga_crypt.c ****             break;
 690:D:/School/diseratie/SEMS/xmc4800_evaluation_kit/optiga-trust-m/optiga/crypt\optiga_crypt.c ****         }
 691:D:/School/diseratie/SEMS/xmc4800_evaluation_kit/optiga-trust-m/optiga/crypt\optiga_crypt.c ****         default:
 692:D:/School/diseratie/SEMS/xmc4800_evaluation_kit/optiga-trust-m/optiga/crypt\optiga_crypt.c ****         {
 693:D:/School/diseratie/SEMS/xmc4800_evaluation_kit/optiga-trust-m/optiga/crypt\optiga_crypt.c ****             break;
 694:D:/School/diseratie/SEMS/xmc4800_evaluation_kit/optiga-trust-m/optiga/crypt\optiga_crypt.c ****         }
 695:D:/School/diseratie/SEMS/xmc4800_evaluation_kit/optiga-trust-m/optiga/crypt\optiga_crypt.c ****     }
 696:D:/School/diseratie/SEMS/xmc4800_evaluation_kit/optiga-trust-m/optiga/crypt\optiga_crypt.c **** }
 697:D:/School/diseratie/SEMS/xmc4800_evaluation_kit/optiga-trust-m/optiga/crypt\optiga_crypt.c **** #endif
 698:D:/School/diseratie/SEMS/xmc4800_evaluation_kit/optiga-trust-m/optiga/crypt\optiga_crypt.c **** 
 699:D:/School/diseratie/SEMS/xmc4800_evaluation_kit/optiga-trust-m/optiga/crypt\optiga_crypt.c **** optiga_crypt_t * optiga_crypt_create(uint8_t optiga_instance_id,
 700:D:/School/diseratie/SEMS/xmc4800_evaluation_kit/optiga-trust-m/optiga/crypt\optiga_crypt.c ****                                      callback_handler_t handler,
 701:D:/School/diseratie/SEMS/xmc4800_evaluation_kit/optiga-trust-m/optiga/crypt\optiga_crypt.c ****                                      void * caller_context)
 702:D:/School/diseratie/SEMS/xmc4800_evaluation_kit/optiga-trust-m/optiga/crypt\optiga_crypt.c **** {
  85              	 .loc 1 702 0
  86              	 .cfi_startproc
  87              	 
  88              	 
  89              	.LVL4:
  90 0000 F8B5     	 push {r3,r4,r5,r6,r7,lr}
  91              	.LCFI0:
  92              	 .cfi_def_cfa_offset 24
  93              	 .cfi_offset 3,-24
  94              	 .cfi_offset 4,-20
  95              	 .cfi_offset 5,-16
  96              	 .cfi_offset 6,-12
  97              	 .cfi_offset 7,-8
  98              	 .cfi_offset 14,-4
 703:D:/School/diseratie/SEMS/xmc4800_evaluation_kit/optiga-trust-m/optiga/crypt\optiga_crypt.c ****     optiga_crypt_t * me = NULL;
 704:D:/School/diseratie/SEMS/xmc4800_evaluation_kit/optiga-trust-m/optiga/crypt\optiga_crypt.c **** 
 705:D:/School/diseratie/SEMS/xmc4800_evaluation_kit/optiga-trust-m/optiga/crypt\optiga_crypt.c ****     do
 706:D:/School/diseratie/SEMS/xmc4800_evaluation_kit/optiga-trust-m/optiga/crypt\optiga_crypt.c ****     {
 707:D:/School/diseratie/SEMS/xmc4800_evaluation_kit/optiga-trust-m/optiga/crypt\optiga_crypt.c **** #ifdef OPTIGA_LIB_DEBUG_NULL_CHECK
 708:D:/School/diseratie/SEMS/xmc4800_evaluation_kit/optiga-trust-m/optiga/crypt\optiga_crypt.c ****         if (NULL == handler)
  99              	 .loc 1 708 0
 100 0002 D9B1     	 cbz r1,.L11
 101 0004 0D46     	 mov r5,r1
 102 0006 0646     	 mov r6,r0
 709:D:/School/diseratie/SEMS/xmc4800_evaluation_kit/optiga-trust-m/optiga/crypt\optiga_crypt.c ****         {
 710:D:/School/diseratie/SEMS/xmc4800_evaluation_kit/optiga-trust-m/optiga/crypt\optiga_crypt.c ****             break;
 711:D:/School/diseratie/SEMS/xmc4800_evaluation_kit/optiga-trust-m/optiga/crypt\optiga_crypt.c ****         }
 712:D:/School/diseratie/SEMS/xmc4800_evaluation_kit/optiga-trust-m/optiga/crypt\optiga_crypt.c **** #endif
 713:D:/School/diseratie/SEMS/xmc4800_evaluation_kit/optiga-trust-m/optiga/crypt\optiga_crypt.c ****         me = (optiga_crypt_t *)pal_os_calloc(1, sizeof(optiga_crypt_t));
 103              	 .loc 1 713 0
 104 0008 3021     	 movs r1,#48
 105              	.LVL5:
 106 000a 0120     	 movs r0,#1
 107              	.LVL6:
 108 000c 1746     	 mov r7,r2
 109 000e FFF7FEFF 	 bl pal_os_calloc
 110              	.LVL7:
 714:D:/School/diseratie/SEMS/xmc4800_evaluation_kit/optiga-trust-m/optiga/crypt\optiga_crypt.c ****         if (NULL == me)
 111              	 .loc 1 714 0
 112 0012 0446     	 mov r4,r0
 113 0014 90B1     	 cbz r0,.L11
 715:D:/School/diseratie/SEMS/xmc4800_evaluation_kit/optiga-trust-m/optiga/crypt\optiga_crypt.c ****         {
 716:D:/School/diseratie/SEMS/xmc4800_evaluation_kit/optiga-trust-m/optiga/crypt\optiga_crypt.c ****             break;
 717:D:/School/diseratie/SEMS/xmc4800_evaluation_kit/optiga-trust-m/optiga/crypt\optiga_crypt.c ****         }
 718:D:/School/diseratie/SEMS/xmc4800_evaluation_kit/optiga-trust-m/optiga/crypt\optiga_crypt.c **** 
 719:D:/School/diseratie/SEMS/xmc4800_evaluation_kit/optiga-trust-m/optiga/crypt\optiga_crypt.c ****         me->handler = handler;
 720:D:/School/diseratie/SEMS/xmc4800_evaluation_kit/optiga-trust-m/optiga/crypt\optiga_crypt.c ****         me->caller_context = caller_context;
 721:D:/School/diseratie/SEMS/xmc4800_evaluation_kit/optiga-trust-m/optiga/crypt\optiga_crypt.c ****         me->instance_state = OPTIGA_LIB_SUCCESS;
 114              	 .loc 1 721 0
 115 0016 0023     	 movs r3,#0
 722:D:/School/diseratie/SEMS/xmc4800_evaluation_kit/optiga-trust-m/optiga/crypt\optiga_crypt.c **** #ifdef OPTIGA_COMMS_SHIELDED_CONNECTION
 723:D:/School/diseratie/SEMS/xmc4800_evaluation_kit/optiga-trust-m/optiga/crypt\optiga_crypt.c ****         me->protocol_version = OPTIGA_COMMS_PROTOCOL_VERSION_PRE_SHARED_SECRET;
 116              	 .loc 1 723 0
 117 0018 0122     	 movs r2,#1
 719:D:/School/diseratie/SEMS/xmc4800_evaluation_kit/optiga-trust-m/optiga/crypt\optiga_crypt.c ****         me->caller_context = caller_context;
 118              	 .loc 1 719 0
 119 001a 8562     	 str r5,[r0,#40]
 720:D:/School/diseratie/SEMS/xmc4800_evaluation_kit/optiga-trust-m/optiga/crypt\optiga_crypt.c ****         me->instance_state = OPTIGA_LIB_SUCCESS;
 120              	 .loc 1 720 0
 121 001c 4762     	 str r7,[r0,#36]
 724:D:/School/diseratie/SEMS/xmc4800_evaluation_kit/optiga-trust-m/optiga/crypt\optiga_crypt.c ****         me->protection_level = OPTIGA_COMMS_DEFAULT_PROTECTION_LEVEL;
 725:D:/School/diseratie/SEMS/xmc4800_evaluation_kit/optiga-trust-m/optiga/crypt\optiga_crypt.c **** #endif
 726:D:/School/diseratie/SEMS/xmc4800_evaluation_kit/optiga-trust-m/optiga/crypt\optiga_crypt.c ****         me->my_cmd = optiga_cmd_create(optiga_instance_id,
 122              	 .loc 1 726 0
 123 001e 0B49     	 ldr r1,.L17
 723:D:/School/diseratie/SEMS/xmc4800_evaluation_kit/optiga-trust-m/optiga/crypt\optiga_crypt.c ****         me->protection_level = OPTIGA_COMMS_DEFAULT_PROTECTION_LEVEL;
 124              	 .loc 1 723 0
 125 0020 84F82F20 	 strb r2,[r4,#47]
 126              	 .loc 1 726 0
 127 0024 3046     	 mov r0,r6
 128              	.LVL8:
 721:D:/School/diseratie/SEMS/xmc4800_evaluation_kit/optiga-trust-m/optiga/crypt\optiga_crypt.c **** #ifdef OPTIGA_COMMS_SHIELDED_CONNECTION
 129              	 .loc 1 721 0
 130 0026 A385     	 strh r3,[r4,#44]
 724:D:/School/diseratie/SEMS/xmc4800_evaluation_kit/optiga-trust-m/optiga/crypt\optiga_crypt.c ****         me->protection_level = OPTIGA_COMMS_DEFAULT_PROTECTION_LEVEL;
 131              	 .loc 1 724 0
 132 0028 84F82E30 	 strb r3,[r4,#46]
 133              	 .loc 1 726 0
 134 002c 2246     	 mov r2,r4
 135 002e FFF7FEFF 	 bl optiga_cmd_create
 136              	.LVL9:
 137 0032 0546     	 mov r5,r0
 138              	.LVL10:
 139 0034 2062     	 str r0,[r4,#32]
 727:D:/School/diseratie/SEMS/xmc4800_evaluation_kit/optiga-trust-m/optiga/crypt\optiga_crypt.c ****                                        optiga_crypt_generic_event_handler,
 728:D:/School/diseratie/SEMS/xmc4800_evaluation_kit/optiga-trust-m/optiga/crypt\optiga_crypt.c ****                                        me);
 729:D:/School/diseratie/SEMS/xmc4800_evaluation_kit/optiga-trust-m/optiga/crypt\optiga_crypt.c ****         if (NULL == me->my_cmd)
 140              	 .loc 1 729 0
 141 0036 20B1     	 cbz r0,.L16
 142              	.LVL11:
 143              	.L10:
 730:D:/School/diseratie/SEMS/xmc4800_evaluation_kit/optiga-trust-m/optiga/crypt\optiga_crypt.c ****         {
 731:D:/School/diseratie/SEMS/xmc4800_evaluation_kit/optiga-trust-m/optiga/crypt\optiga_crypt.c ****             pal_os_free(me);
 732:D:/School/diseratie/SEMS/xmc4800_evaluation_kit/optiga-trust-m/optiga/crypt\optiga_crypt.c ****             me = NULL;
 733:D:/School/diseratie/SEMS/xmc4800_evaluation_kit/optiga-trust-m/optiga/crypt\optiga_crypt.c ****         }
 734:D:/School/diseratie/SEMS/xmc4800_evaluation_kit/optiga-trust-m/optiga/crypt\optiga_crypt.c **** 
 735:D:/School/diseratie/SEMS/xmc4800_evaluation_kit/optiga-trust-m/optiga/crypt\optiga_crypt.c ****     } while (FALSE);
 736:D:/School/diseratie/SEMS/xmc4800_evaluation_kit/optiga-trust-m/optiga/crypt\optiga_crypt.c **** 
 737:D:/School/diseratie/SEMS/xmc4800_evaluation_kit/optiga-trust-m/optiga/crypt\optiga_crypt.c ****     return (me);
 738:D:/School/diseratie/SEMS/xmc4800_evaluation_kit/optiga-trust-m/optiga/crypt\optiga_crypt.c **** }
 144              	 .loc 1 738 0
 145 0038 2046     	 mov r0,r4
 146 003a F8BD     	 pop {r3,r4,r5,r6,r7,pc}
 147              	.LVL12:
 148              	.L11:
 703:D:/School/diseratie/SEMS/xmc4800_evaluation_kit/optiga-trust-m/optiga/crypt\optiga_crypt.c **** 
 149              	 .loc 1 703 0
 150 003c 0024     	 movs r4,#0
 151              	.LVL13:
 152              	 .loc 1 738 0
 153 003e 2046     	 mov r0,r4
 154 0040 F8BD     	 pop {r3,r4,r5,r6,r7,pc}
 155              	.LVL14:
 156              	.L16:
 731:D:/School/diseratie/SEMS/xmc4800_evaluation_kit/optiga-trust-m/optiga/crypt\optiga_crypt.c ****             me = NULL;
 157              	 .loc 1 731 0
 158 0042 2046     	 mov r0,r4
 159 0044 FFF7FEFF 	 bl pal_os_free
 160              	.LVL15:
 732:D:/School/diseratie/SEMS/xmc4800_evaluation_kit/optiga-trust-m/optiga/crypt\optiga_crypt.c ****         }
 161              	 .loc 1 732 0
 162 0048 2C46     	 mov r4,r5
 163 004a F5E7     	 b .L10
 164              	.L18:
 165              	 .align 2
 166              	.L17:
 167 004c 00000000 	 .word optiga_crypt_generic_event_handler
 168              	 .cfi_endproc
 169              	.LFE11:
 171              	 .section .text.optiga_crypt_destroy,"ax",%progbits
 172              	 .align 2
 173              	 .global optiga_crypt_destroy
 174              	 .thumb
 175              	 .thumb_func
 177              	optiga_crypt_destroy:
 178              	.LFB12:
 739:D:/School/diseratie/SEMS/xmc4800_evaluation_kit/optiga-trust-m/optiga/crypt\optiga_crypt.c **** 
 740:D:/School/diseratie/SEMS/xmc4800_evaluation_kit/optiga-trust-m/optiga/crypt\optiga_crypt.c **** optiga_lib_status_t optiga_crypt_destroy(optiga_crypt_t * me)
 741:D:/School/diseratie/SEMS/xmc4800_evaluation_kit/optiga-trust-m/optiga/crypt\optiga_crypt.c **** {
 179              	 .loc 1 741 0
 180              	 .cfi_startproc
 181              	 
 182              	 
 183              	.LVL16:
 184 0000 38B5     	 push {r3,r4,r5,lr}
 185              	.LCFI1:
 186              	 .cfi_def_cfa_offset 16
 187              	 .cfi_offset 3,-16
 188              	 .cfi_offset 4,-12
 189              	 .cfi_offset 5,-8
 190              	 .cfi_offset 14,-4
 742:D:/School/diseratie/SEMS/xmc4800_evaluation_kit/optiga-trust-m/optiga/crypt\optiga_crypt.c ****     optiga_lib_status_t return_value;
 743:D:/School/diseratie/SEMS/xmc4800_evaluation_kit/optiga-trust-m/optiga/crypt\optiga_crypt.c **** 
 744:D:/School/diseratie/SEMS/xmc4800_evaluation_kit/optiga-trust-m/optiga/crypt\optiga_crypt.c ****     do
 745:D:/School/diseratie/SEMS/xmc4800_evaluation_kit/optiga-trust-m/optiga/crypt\optiga_crypt.c ****     {
 746:D:/School/diseratie/SEMS/xmc4800_evaluation_kit/optiga-trust-m/optiga/crypt\optiga_crypt.c **** #ifdef OPTIGA_LIB_DEBUG_NULL_CHECK
 747:D:/School/diseratie/SEMS/xmc4800_evaluation_kit/optiga-trust-m/optiga/crypt\optiga_crypt.c ****         if (NULL == me)
 191              	 .loc 1 747 0
 192 0002 80B1     	 cbz r0,.L21
 748:D:/School/diseratie/SEMS/xmc4800_evaluation_kit/optiga-trust-m/optiga/crypt\optiga_crypt.c ****         {
 749:D:/School/diseratie/SEMS/xmc4800_evaluation_kit/optiga-trust-m/optiga/crypt\optiga_crypt.c ****             return_value = OPTIGA_CRYPT_ERROR_INVALID_INPUT;
 750:D:/School/diseratie/SEMS/xmc4800_evaluation_kit/optiga-trust-m/optiga/crypt\optiga_crypt.c ****             break;
 751:D:/School/diseratie/SEMS/xmc4800_evaluation_kit/optiga-trust-m/optiga/crypt\optiga_crypt.c ****         }
 752:D:/School/diseratie/SEMS/xmc4800_evaluation_kit/optiga-trust-m/optiga/crypt\optiga_crypt.c **** #endif
 753:D:/School/diseratie/SEMS/xmc4800_evaluation_kit/optiga-trust-m/optiga/crypt\optiga_crypt.c ****         if (OPTIGA_LIB_INSTANCE_BUSY == me->instance_state)
 193              	 .loc 1 753 0
 194 0004 838D     	 ldrh r3,[r0,#44]
 195 0006 012B     	 cmp r3,#1
 196 0008 03D1     	 bne .L24
 754:D:/School/diseratie/SEMS/xmc4800_evaluation_kit/optiga-trust-m/optiga/crypt\optiga_crypt.c ****         {
 755:D:/School/diseratie/SEMS/xmc4800_evaluation_kit/optiga-trust-m/optiga/crypt\optiga_crypt.c ****             return_value = OPTIGA_CRYPT_ERROR_INSTANCE_IN_USE;
 197              	 .loc 1 755 0
 198 000a 40F20545 	 movw r5,#1029
 199              	.LVL17:
 756:D:/School/diseratie/SEMS/xmc4800_evaluation_kit/optiga-trust-m/optiga/crypt\optiga_crypt.c ****             break;
 757:D:/School/diseratie/SEMS/xmc4800_evaluation_kit/optiga-trust-m/optiga/crypt\optiga_crypt.c ****         }
 758:D:/School/diseratie/SEMS/xmc4800_evaluation_kit/optiga-trust-m/optiga/crypt\optiga_crypt.c ****         return_value = optiga_cmd_destroy(me->my_cmd);
 759:D:/School/diseratie/SEMS/xmc4800_evaluation_kit/optiga-trust-m/optiga/crypt\optiga_crypt.c ****         pal_os_free(me);
 760:D:/School/diseratie/SEMS/xmc4800_evaluation_kit/optiga-trust-m/optiga/crypt\optiga_crypt.c **** 
 761:D:/School/diseratie/SEMS/xmc4800_evaluation_kit/optiga-trust-m/optiga/crypt\optiga_crypt.c ****     } while (FALSE);
 762:D:/School/diseratie/SEMS/xmc4800_evaluation_kit/optiga-trust-m/optiga/crypt\optiga_crypt.c ****     return (return_value);
 763:D:/School/diseratie/SEMS/xmc4800_evaluation_kit/optiga-trust-m/optiga/crypt\optiga_crypt.c **** }
 200              	 .loc 1 763 0
 201 000e 2846     	 mov r0,r5
 202              	.LVL18:
 203 0010 38BD     	 pop {r3,r4,r5,pc}
 204              	.LVL19:
 205              	.L24:
 206 0012 0446     	 mov r4,r0
 758:D:/School/diseratie/SEMS/xmc4800_evaluation_kit/optiga-trust-m/optiga/crypt\optiga_crypt.c ****         pal_os_free(me);
 207              	 .loc 1 758 0
 208 0014 006A     	 ldr r0,[r0,#32]
 209              	.LVL20:
 210 0016 FFF7FEFF 	 bl optiga_cmd_destroy
 211              	.LVL21:
 212 001a 0546     	 mov r5,r0
 213              	.LVL22:
 759:D:/School/diseratie/SEMS/xmc4800_evaluation_kit/optiga-trust-m/optiga/crypt\optiga_crypt.c **** 
 214              	 .loc 1 759 0
 215 001c 2046     	 mov r0,r4
 216 001e FFF7FEFF 	 bl pal_os_free
 217              	.LVL23:
 218              	 .loc 1 763 0
 219 0022 2846     	 mov r0,r5
 220 0024 38BD     	 pop {r3,r4,r5,pc}
 221              	.LVL24:
 222              	.L21:
 749:D:/School/diseratie/SEMS/xmc4800_evaluation_kit/optiga-trust-m/optiga/crypt\optiga_crypt.c ****             break;
 223              	 .loc 1 749 0
 224 0026 40F20345 	 movw r5,#1027
 225              	.LVL25:
 226              	 .loc 1 763 0
 227 002a 2846     	 mov r0,r5
 228              	.LVL26:
 229 002c 38BD     	 pop {r3,r4,r5,pc}
 230              	 .cfi_endproc
 231              	.LFE12:
 233 002e 00BF     	 .section .text.optiga_crypt_random,"ax",%progbits
 234              	 .align 2
 235              	 .global optiga_crypt_random
 236              	 .thumb
 237              	 .thumb_func
 239              	optiga_crypt_random:
 240              	.LFB13:
 764:D:/School/diseratie/SEMS/xmc4800_evaluation_kit/optiga-trust-m/optiga/crypt\optiga_crypt.c **** 
 765:D:/School/diseratie/SEMS/xmc4800_evaluation_kit/optiga-trust-m/optiga/crypt\optiga_crypt.c **** #ifdef OPTIGA_CRYPT_RANDOM_ENABLED
 766:D:/School/diseratie/SEMS/xmc4800_evaluation_kit/optiga-trust-m/optiga/crypt\optiga_crypt.c **** optiga_lib_status_t optiga_crypt_random(optiga_crypt_t * me,
 767:D:/School/diseratie/SEMS/xmc4800_evaluation_kit/optiga-trust-m/optiga/crypt\optiga_crypt.c ****                                         optiga_rng_type_t rng_type,
 768:D:/School/diseratie/SEMS/xmc4800_evaluation_kit/optiga-trust-m/optiga/crypt\optiga_crypt.c ****                                         uint8_t * random_data,
 769:D:/School/diseratie/SEMS/xmc4800_evaluation_kit/optiga-trust-m/optiga/crypt\optiga_crypt.c ****                                         uint16_t random_data_length)
 770:D:/School/diseratie/SEMS/xmc4800_evaluation_kit/optiga-trust-m/optiga/crypt\optiga_crypt.c **** {
 241              	 .loc 1 770 0
 242              	 .cfi_startproc
 243              	 
 244              	 
 245              	.LVL27:
 771:D:/School/diseratie/SEMS/xmc4800_evaluation_kit/optiga-trust-m/optiga/crypt\optiga_crypt.c ****     optiga_lib_status_t return_value = OPTIGA_CRYPT_ERROR;
 772:D:/School/diseratie/SEMS/xmc4800_evaluation_kit/optiga-trust-m/optiga/crypt\optiga_crypt.c ****     OPTIGA_CRYPT_LOG_MESSAGE(__FUNCTION__);
 773:D:/School/diseratie/SEMS/xmc4800_evaluation_kit/optiga-trust-m/optiga/crypt\optiga_crypt.c ****     do
 774:D:/School/diseratie/SEMS/xmc4800_evaluation_kit/optiga-trust-m/optiga/crypt\optiga_crypt.c ****     {
 775:D:/School/diseratie/SEMS/xmc4800_evaluation_kit/optiga-trust-m/optiga/crypt\optiga_crypt.c **** #ifdef OPTIGA_LIB_DEBUG_NULL_CHECK
 776:D:/School/diseratie/SEMS/xmc4800_evaluation_kit/optiga-trust-m/optiga/crypt\optiga_crypt.c ****         if ((NULL == me) || (NULL == me->my_cmd) || (NULL == random_data))
 246              	 .loc 1 776 0
 247 0000 B8B1     	 cbz r0,.L28
 770:D:/School/diseratie/SEMS/xmc4800_evaluation_kit/optiga-trust-m/optiga/crypt\optiga_crypt.c ****     optiga_lib_status_t return_value = OPTIGA_CRYPT_ERROR;
 248              	 .loc 1 770 0 discriminator 1
 249 0002 2DE9F041 	 push {r4,r5,r6,r7,r8,lr}
 250              	.LCFI2:
 251              	 .cfi_def_cfa_offset 24
 252              	 .cfi_offset 4,-24
 253              	 .cfi_offset 5,-20
 254              	 .cfi_offset 6,-16
 255              	 .cfi_offset 7,-12
 256              	 .cfi_offset 8,-8
 257              	 .cfi_offset 14,-4
 258 0006 1546     	 mov r5,r2
 259              	 .loc 1 776 0 discriminator 1
 260 0008 026A     	 ldr r2,[r0,#32]
 261              	.LVL28:
 770:D:/School/diseratie/SEMS/xmc4800_evaluation_kit/optiga-trust-m/optiga/crypt\optiga_crypt.c ****     optiga_lib_status_t return_value = OPTIGA_CRYPT_ERROR;
 262              	 .loc 1 770 0 discriminator 1
 263 000a 82B0     	 sub sp,sp,#8
 264              	.LCFI3:
 265              	 .cfi_def_cfa_offset 32
 266 000c 0446     	 mov r4,r0
 267              	 .loc 1 776 0 discriminator 1
 268 000e 5AB1     	 cbz r2,.L30
 269              	 .loc 1 776 0 is_stmt 0 discriminator 2
 270 0010 55B1     	 cbz r5,.L30
 271              	.LVL29:
 272              	.LBB58:
 273              	.LBB59:
 396:D:/School/diseratie/SEMS/xmc4800_evaluation_kit/optiga-trust-m/optiga/crypt\optiga_crypt.c ****         {
 274              	 .loc 1 396 0 is_stmt 1
 275 0012 828D     	 ldrh r2,[r0,#44]
 276 0014 012A     	 cmp r2,#1
 277 0016 0FD1     	 bne .L36
 398:D:/School/diseratie/SEMS/xmc4800_evaluation_kit/optiga-trust-m/optiga/crypt\optiga_crypt.c ****             break;
 278              	 .loc 1 398 0
 279 0018 40F20540 	 movw r0,#1029
 280              	.LVL30:
 281              	.L27:
 282              	.LBB60:
 283              	.LBB61:
 284              	.LBB62:
 683:D:/School/diseratie/SEMS/xmc4800_evaluation_kit/optiga-trust-m/optiga/crypt\optiga_crypt.c ****             break;
 285              	 .loc 1 683 0
 286 001c 0023     	 movs r3,#0
 287 001e 84F82E30 	 strb r3,[r4,#46]
 288              	.LVL31:
 289              	.LBE62:
 290              	.LBE61:
 291              	.LBE60:
 292              	.LBE59:
 293              	.LBE58:
 777:D:/School/diseratie/SEMS/xmc4800_evaluation_kit/optiga-trust-m/optiga/crypt\optiga_crypt.c ****         {
 778:D:/School/diseratie/SEMS/xmc4800_evaluation_kit/optiga-trust-m/optiga/crypt\optiga_crypt.c ****             return_value = OPTIGA_CRYPT_ERROR_INVALID_INPUT;
 779:D:/School/diseratie/SEMS/xmc4800_evaluation_kit/optiga-trust-m/optiga/crypt\optiga_crypt.c ****             break;
 780:D:/School/diseratie/SEMS/xmc4800_evaluation_kit/optiga-trust-m/optiga/crypt\optiga_crypt.c ****         }
 781:D:/School/diseratie/SEMS/xmc4800_evaluation_kit/optiga-trust-m/optiga/crypt\optiga_crypt.c **** #endif
 782:D:/School/diseratie/SEMS/xmc4800_evaluation_kit/optiga-trust-m/optiga/crypt\optiga_crypt.c ****         return_value = optiga_crypt_get_random(me,
 783:D:/School/diseratie/SEMS/xmc4800_evaluation_kit/optiga-trust-m/optiga/crypt\optiga_crypt.c ****                                                (uint8_t)rng_type,
 784:D:/School/diseratie/SEMS/xmc4800_evaluation_kit/optiga-trust-m/optiga/crypt\optiga_crypt.c ****                                                random_data,
 785:D:/School/diseratie/SEMS/xmc4800_evaluation_kit/optiga-trust-m/optiga/crypt\optiga_crypt.c ****                                                random_data_length,
 786:D:/School/diseratie/SEMS/xmc4800_evaluation_kit/optiga-trust-m/optiga/crypt\optiga_crypt.c ****                                                NULL,
 787:D:/School/diseratie/SEMS/xmc4800_evaluation_kit/optiga-trust-m/optiga/crypt\optiga_crypt.c ****                                                0x00,
 788:D:/School/diseratie/SEMS/xmc4800_evaluation_kit/optiga-trust-m/optiga/crypt\optiga_crypt.c ****                                                FALSE);
 789:D:/School/diseratie/SEMS/xmc4800_evaluation_kit/optiga-trust-m/optiga/crypt\optiga_crypt.c ****     } while (FALSE);
 790:D:/School/diseratie/SEMS/xmc4800_evaluation_kit/optiga-trust-m/optiga/crypt\optiga_crypt.c **** 
 791:D:/School/diseratie/SEMS/xmc4800_evaluation_kit/optiga-trust-m/optiga/crypt\optiga_crypt.c ****     return (return_value);
 792:D:/School/diseratie/SEMS/xmc4800_evaluation_kit/optiga-trust-m/optiga/crypt\optiga_crypt.c **** }
 294              	 .loc 1 792 0
 295 0022 02B0     	 add sp,sp,#8
 296              	.LCFI4:
 297              	 .cfi_remember_state
 298              	 .cfi_def_cfa_offset 24
 299              	 
 300 0024 BDE8F081 	 pop {r4,r5,r6,r7,r8,pc}
 301              	.LVL32:
 302              	.L30:
 303              	.LCFI5:
 304              	 .cfi_restore_state
 778:D:/School/diseratie/SEMS/xmc4800_evaluation_kit/optiga-trust-m/optiga/crypt\optiga_crypt.c ****             break;
 305              	 .loc 1 778 0
 306 0028 40F20340 	 movw r0,#1027
 307              	.LVL33:
 308              	 .loc 1 792 0
 309 002c 02B0     	 add sp,sp,#8
 310              	.LCFI6:
 311              	 .cfi_def_cfa_offset 24
 312              	 
 313 002e BDE8F081 	 pop {r4,r5,r6,r7,r8,pc}
 314              	.LVL34:
 315              	.L28:
 316              	.LCFI7:
 317              	 .cfi_def_cfa_offset 0
 318              	 .cfi_restore 4
 319              	 .cfi_restore 5
 320              	 .cfi_restore 6
 321              	 .cfi_restore 7
 322              	 .cfi_restore 8
 323              	 .cfi_restore 14
 778:D:/School/diseratie/SEMS/xmc4800_evaluation_kit/optiga-trust-m/optiga/crypt\optiga_crypt.c ****             break;
 324              	 .loc 1 778 0
 325 0032 40F20340 	 movw r0,#1027
 326              	.LVL35:
 327              	 .loc 1 792 0
 328 0036 7047     	 bx lr
 329              	.LVL36:
 330              	.L36:
 331              	.LCFI8:
 332              	 .cfi_def_cfa_offset 32
 333              	 .cfi_offset 4,-24
 334              	 .cfi_offset 5,-20
 335              	 .cfi_offset 6,-16
 336              	 .cfi_offset 7,-12
 337              	 .cfi_offset 8,-8
 338              	 .cfi_offset 14,-4
 339              	.LBB64:
 340              	.LBB63:
 402:D:/School/diseratie/SEMS/xmc4800_evaluation_kit/optiga-trust-m/optiga/crypt\optiga_crypt.c ****         p_params = (optiga_get_random_params_t *)&(me->params.optiga_get_random_params);
 341              	 .loc 1 402 0
 342 0038 4FF00108 	 mov r8,#1
 343 003c 0E46     	 mov r6,r1
 344 003e A0F82C80 	 strh r8,[r0,#44]
 345              	.LVL37:
 404:D:/School/diseratie/SEMS/xmc4800_evaluation_kit/optiga-trust-m/optiga/crypt\optiga_crypt.c **** 
 346              	 .loc 1 404 0
 347 0042 0021     	 movs r1,#0
 348              	.LVL38:
 349 0044 2022     	 movs r2,#32
 406:D:/School/diseratie/SEMS/xmc4800_evaluation_kit/optiga-trust-m/optiga/crypt\optiga_crypt.c ****         p_params->optional_data_length = optional_data_length;
 350              	 .loc 1 406 0
 351 0046 0F46     	 mov r7,r1
 352 0048 0193     	 str r3,[sp,#4]
 404:D:/School/diseratie/SEMS/xmc4800_evaluation_kit/optiga-trust-m/optiga/crypt\optiga_crypt.c **** 
 353              	 .loc 1 404 0
 354 004a FFF7FEFF 	 bl pal_os_memset
 355              	.LVL39:
 409:D:/School/diseratie/SEMS/xmc4800_evaluation_kit/optiga-trust-m/optiga/crypt\optiga_crypt.c ****         p_params->store_in_session = store_in_session;
 356              	 .loc 1 409 0
 357 004e 019B     	 ldr r3,[sp,#4]
 358 0050 2380     	 strh r3,[r4]
 411:D:/School/diseratie/SEMS/xmc4800_evaluation_kit/optiga-trust-m/optiga/crypt\optiga_crypt.c ****         OPTIGA_PROTECTION_SET_VERSION(me->my_cmd, me);
 359              	 .loc 1 411 0
 360 0052 3A46     	 mov r2,r7
 361 0054 206A     	 ldr r0,[r4,#32]
 362 0056 94F82E10 	 ldrb r1,[r4,#46]
 408:D:/School/diseratie/SEMS/xmc4800_evaluation_kit/optiga-trust-m/optiga/crypt\optiga_crypt.c ****         p_params->random_data_length = random_data_length;
 363              	 .loc 1 408 0
 364 005a 6560     	 str r5,[r4,#4]
 406:D:/School/diseratie/SEMS/xmc4800_evaluation_kit/optiga-trust-m/optiga/crypt\optiga_crypt.c ****         p_params->optional_data_length = optional_data_length;
 365              	 .loc 1 406 0
 366 005c A760     	 str r7,[r4,#8]
 407:D:/School/diseratie/SEMS/xmc4800_evaluation_kit/optiga-trust-m/optiga/crypt\optiga_crypt.c ****         p_params->random_data = p_random_data;
 367              	 .loc 1 407 0
 368 005e 6780     	 strh r7,[r4,#2]
 410:D:/School/diseratie/SEMS/xmc4800_evaluation_kit/optiga-trust-m/optiga/crypt\optiga_crypt.c ****         OPTIGA_PROTECTION_ENABLE(me->my_cmd, me);
 369              	 .loc 1 410 0
 370 0060 2773     	 strb r7,[r4,#12]
 411:D:/School/diseratie/SEMS/xmc4800_evaluation_kit/optiga-trust-m/optiga/crypt\optiga_crypt.c ****         OPTIGA_PROTECTION_SET_VERSION(me->my_cmd, me);
 371              	 .loc 1 411 0
 372 0062 FFF7FEFF 	 bl optiga_cmd_set_shielded_connection_option
 373              	.LVL40:
 412:D:/School/diseratie/SEMS/xmc4800_evaluation_kit/optiga-trust-m/optiga/crypt\optiga_crypt.c **** 
 374              	 .loc 1 412 0
 375 0066 4246     	 mov r2,r8
 376 0068 206A     	 ldr r0,[r4,#32]
 377 006a 94F82F10 	 ldrb r1,[r4,#47]
 378 006e FFF7FEFF 	 bl optiga_cmd_set_shielded_connection_option
 379              	.LVL41:
 414:D:/School/diseratie/SEMS/xmc4800_evaluation_kit/optiga-trust-m/optiga/crypt\optiga_crypt.c ****                                              cmd_param,
 380              	 .loc 1 414 0
 381 0072 3146     	 mov r1,r6
 382 0074 206A     	 ldr r0,[r4,#32]
 383 0076 2246     	 mov r2,r4
 384 0078 FFF7FEFF 	 bl optiga_cmd_get_random
 385              	.LVL42:
 417:D:/School/diseratie/SEMS/xmc4800_evaluation_kit/optiga-trust-m/optiga/crypt\optiga_crypt.c ****         {
 386              	 .loc 1 417 0
 387 007c 0028     	 cmp r0,#0
 388 007e CDD0     	 beq .L27
 419:D:/School/diseratie/SEMS/xmc4800_evaluation_kit/optiga-trust-m/optiga/crypt\optiga_crypt.c ****         }
 389              	 .loc 1 419 0
 390 0080 A785     	 strh r7,[r4,#44]
 391 0082 CBE7     	 b .L27
 392              	.LBE63:
 393              	.LBE64:
 394              	 .cfi_endproc
 395              	.LFE13:
 397              	 .section .text.optiga_crypt_hash_start,"ax",%progbits
 398              	 .align 2
 399              	 .global optiga_crypt_hash_start
 400              	 .thumb
 401              	 .thumb_func
 403              	optiga_crypt_hash_start:
 404              	.LFB14:
 793:D:/School/diseratie/SEMS/xmc4800_evaluation_kit/optiga-trust-m/optiga/crypt\optiga_crypt.c **** #endif //OPTIGA_CRYPT_RANDOM_ENABLED
 794:D:/School/diseratie/SEMS/xmc4800_evaluation_kit/optiga-trust-m/optiga/crypt\optiga_crypt.c **** 
 795:D:/School/diseratie/SEMS/xmc4800_evaluation_kit/optiga-trust-m/optiga/crypt\optiga_crypt.c **** #ifdef OPTIGA_CRYPT_HASH_ENABLED
 796:D:/School/diseratie/SEMS/xmc4800_evaluation_kit/optiga-trust-m/optiga/crypt\optiga_crypt.c **** optiga_lib_status_t optiga_crypt_hash_start(optiga_crypt_t * me,
 797:D:/School/diseratie/SEMS/xmc4800_evaluation_kit/optiga-trust-m/optiga/crypt\optiga_crypt.c ****                                             optiga_hash_context_t * hash_ctx)
 798:D:/School/diseratie/SEMS/xmc4800_evaluation_kit/optiga-trust-m/optiga/crypt\optiga_crypt.c **** {
 405              	 .loc 1 798 0
 406              	 .cfi_startproc
 407              	 
 408              	 
 409              	.LVL43:
 799:D:/School/diseratie/SEMS/xmc4800_evaluation_kit/optiga-trust-m/optiga/crypt\optiga_crypt.c ****     optiga_lib_status_t return_value = OPTIGA_CRYPT_ERROR;
 800:D:/School/diseratie/SEMS/xmc4800_evaluation_kit/optiga-trust-m/optiga/crypt\optiga_crypt.c ****     OPTIGA_CRYPT_LOG_MESSAGE(__FUNCTION__);
 801:D:/School/diseratie/SEMS/xmc4800_evaluation_kit/optiga-trust-m/optiga/crypt\optiga_crypt.c ****     do  
 802:D:/School/diseratie/SEMS/xmc4800_evaluation_kit/optiga-trust-m/optiga/crypt\optiga_crypt.c ****     {
 803:D:/School/diseratie/SEMS/xmc4800_evaluation_kit/optiga-trust-m/optiga/crypt\optiga_crypt.c **** #ifdef OPTIGA_LIB_DEBUG_NULL_CHECK
 804:D:/School/diseratie/SEMS/xmc4800_evaluation_kit/optiga-trust-m/optiga/crypt\optiga_crypt.c ****         if ((NULL == me) || (NULL == me->my_cmd) || (NULL == hash_ctx))
 410              	 .loc 1 804 0
 411 0000 B0B1     	 cbz r0,.L40
 412              	 .loc 1 804 0 is_stmt 0 discriminator 1
 413 0002 036A     	 ldr r3,[r0,#32]
 798:D:/School/diseratie/SEMS/xmc4800_evaluation_kit/optiga-trust-m/optiga/crypt\optiga_crypt.c ****     optiga_lib_status_t return_value = OPTIGA_CRYPT_ERROR;
 414              	 .loc 1 798 0 is_stmt 1 discriminator 1
 415 0004 2DE9F041 	 push {r4,r5,r6,r7,r8,lr}
 416              	.LCFI9:
 417              	 .cfi_def_cfa_offset 24
 418              	 .cfi_offset 4,-24
 419              	 .cfi_offset 5,-20
 420              	 .cfi_offset 6,-16
 421              	 .cfi_offset 7,-12
 422              	 .cfi_offset 8,-8
 423              	 .cfi_offset 14,-4
 424 0008 0446     	 mov r4,r0
 425              	 .loc 1 804 0 discriminator 1
 426 000a 6BB1     	 cbz r3,.L42
 427              	 .loc 1 804 0 is_stmt 0 discriminator 2
 428 000c 61B1     	 cbz r1,.L42
 429              	.LBB71:
 430              	.LBB72:
 627:D:/School/diseratie/SEMS/xmc4800_evaluation_kit/optiga-trust-m/optiga/crypt\optiga_crypt.c ****         {
 431              	 .loc 1 627 0 is_stmt 1
 432 000e 838D     	 ldrh r3,[r0,#44]
 433              	.LBE72:
 434              	.LBE71:
 805:D:/School/diseratie/SEMS/xmc4800_evaluation_kit/optiga-trust-m/optiga/crypt\optiga_crypt.c ****         {
 806:D:/School/diseratie/SEMS/xmc4800_evaluation_kit/optiga-trust-m/optiga/crypt\optiga_crypt.c ****             return_value = OPTIGA_CRYPT_ERROR_INVALID_INPUT;
 807:D:/School/diseratie/SEMS/xmc4800_evaluation_kit/optiga-trust-m/optiga/crypt\optiga_crypt.c ****             break;
 808:D:/School/diseratie/SEMS/xmc4800_evaluation_kit/optiga-trust-m/optiga/crypt\optiga_crypt.c ****         }
 809:D:/School/diseratie/SEMS/xmc4800_evaluation_kit/optiga-trust-m/optiga/crypt\optiga_crypt.c **** #endif
 810:D:/School/diseratie/SEMS/xmc4800_evaluation_kit/optiga-trust-m/optiga/crypt\optiga_crypt.c ****         return_value = optiga_crypt_hash_generic(me,
 435              	 .loc 1 810 0
 436 0010 91F80680 	 ldrb r8,[r1,#6]
 437              	.LVL44:
 438              	.LBB78:
 439              	.LBB76:
 627:D:/School/diseratie/SEMS/xmc4800_evaluation_kit/optiga-trust-m/optiga/crypt\optiga_crypt.c ****         {
 440              	 .loc 1 627 0
 441 0014 012B     	 cmp r3,#1
 442 0016 0D46     	 mov r5,r1
 443              	.LVL45:
 444 0018 0DD1     	 bne .L48
 629:D:/School/diseratie/SEMS/xmc4800_evaluation_kit/optiga-trust-m/optiga/crypt\optiga_crypt.c ****             break;
 445              	 .loc 1 629 0
 446 001a 40F20540 	 movw r0,#1029
 447              	.LVL46:
 448              	.L39:
 449              	.LBB73:
 450              	.LBB74:
 451              	.LBB75:
 683:D:/School/diseratie/SEMS/xmc4800_evaluation_kit/optiga-trust-m/optiga/crypt\optiga_crypt.c ****             break;
 452              	 .loc 1 683 0
 453 001e 0023     	 movs r3,#0
 454 0020 84F82E30 	 strb r3,[r4,#46]
 455 0024 BDE8F081 	 pop {r4,r5,r6,r7,r8,pc}
 456              	.LVL47:
 457              	.L42:
 458              	.LBE75:
 459              	.LBE74:
 460              	.LBE73:
 461              	.LBE76:
 462              	.LBE78:
 806:D:/School/diseratie/SEMS/xmc4800_evaluation_kit/optiga-trust-m/optiga/crypt\optiga_crypt.c ****             break;
 463              	 .loc 1 806 0
 464 0028 40F20340 	 movw r0,#1027
 465              	.LVL48:
 811:D:/School/diseratie/SEMS/xmc4800_evaluation_kit/optiga-trust-m/optiga/crypt\optiga_crypt.c ****                                                  hash_ctx->hash_algo,
 812:D:/School/diseratie/SEMS/xmc4800_evaluation_kit/optiga-trust-m/optiga/crypt\optiga_crypt.c ****                                                  OPTIGA_CRYPT_HASH_START,
 813:D:/School/diseratie/SEMS/xmc4800_evaluation_kit/optiga-trust-m/optiga/crypt\optiga_crypt.c ****                                                  0,
 814:D:/School/diseratie/SEMS/xmc4800_evaluation_kit/optiga-trust-m/optiga/crypt\optiga_crypt.c ****                                                  hash_ctx,
 815:D:/School/diseratie/SEMS/xmc4800_evaluation_kit/optiga-trust-m/optiga/crypt\optiga_crypt.c ****                                                  0,
 816:D:/School/diseratie/SEMS/xmc4800_evaluation_kit/optiga-trust-m/optiga/crypt\optiga_crypt.c ****                                                  NULL,
 817:D:/School/diseratie/SEMS/xmc4800_evaluation_kit/optiga-trust-m/optiga/crypt\optiga_crypt.c ****                                                  TRUE,
 818:D:/School/diseratie/SEMS/xmc4800_evaluation_kit/optiga-trust-m/optiga/crypt\optiga_crypt.c ****                                                  NULL);
 819:D:/School/diseratie/SEMS/xmc4800_evaluation_kit/optiga-trust-m/optiga/crypt\optiga_crypt.c ****     } while (FALSE);
 820:D:/School/diseratie/SEMS/xmc4800_evaluation_kit/optiga-trust-m/optiga/crypt\optiga_crypt.c **** 
 821:D:/School/diseratie/SEMS/xmc4800_evaluation_kit/optiga-trust-m/optiga/crypt\optiga_crypt.c ****     return (return_value);
 822:D:/School/diseratie/SEMS/xmc4800_evaluation_kit/optiga-trust-m/optiga/crypt\optiga_crypt.c **** }
 466              	 .loc 1 822 0
 467 002c BDE8F081 	 pop {r4,r5,r6,r7,r8,pc}
 468              	.LVL49:
 469              	.L40:
 470              	.LCFI10:
 471              	 .cfi_def_cfa_offset 0
 472              	 .cfi_restore 4
 473              	 .cfi_restore 5
 474              	 .cfi_restore 6
 475              	 .cfi_restore 7
 476              	 .cfi_restore 8
 477              	 .cfi_restore 14
 806:D:/School/diseratie/SEMS/xmc4800_evaluation_kit/optiga-trust-m/optiga/crypt\optiga_crypt.c ****             break;
 478              	 .loc 1 806 0
 479 0030 40F20340 	 movw r0,#1027
 480              	.LVL50:
 481              	 .loc 1 822 0
 482 0034 7047     	 bx lr
 483              	.LVL51:
 484              	.L48:
 485              	.LCFI11:
 486              	 .cfi_def_cfa_offset 24
 487              	 .cfi_offset 4,-24
 488              	 .cfi_offset 5,-20
 489              	 .cfi_offset 6,-16
 490              	 .cfi_offset 7,-12
 491              	 .cfi_offset 8,-8
 492              	 .cfi_offset 14,-4
 493              	.LBB79:
 494              	.LBB77:
 633:D:/School/diseratie/SEMS/xmc4800_evaluation_kit/optiga-trust-m/optiga/crypt\optiga_crypt.c ****         p_params = (optiga_calc_hash_params_t *)&(me->params.optiga_calc_hash_params);
 495              	 .loc 1 633 0
 496 0036 0127     	 movs r7,#1
 497 0038 8785     	 strh r7,[r0,#44]
 498              	.LVL52:
 635:D:/School/diseratie/SEMS/xmc4800_evaluation_kit/optiga-trust-m/optiga/crypt\optiga_crypt.c **** 
 499              	 .loc 1 635 0
 500 003a 0021     	 movs r1,#0
 501              	.LVL53:
 502 003c 2022     	 movs r2,#32
 503 003e FFF7FEFF 	 bl pal_os_memset
 504              	.LVL54:
 637:D:/School/diseratie/SEMS/xmc4800_evaluation_kit/optiga-trust-m/optiga/crypt\optiga_crypt.c ****         OPTIGA_PROTECTION_SET_VERSION(me->my_cmd, me);
 505              	 .loc 1 637 0
 506 0042 206A     	 ldr r0,[r4,#32]
 507 0044 94F82E10 	 ldrb r1,[r4,#46]
 508 0048 0022     	 movs r2,#0
 639:D:/School/diseratie/SEMS/xmc4800_evaluation_kit/optiga-trust-m/optiga/crypt\optiga_crypt.c ****         p_params->p_hash_context = hash_ctx;
 509              	 .loc 1 639 0
 510 004a 0026     	 movs r6,#0
 637:D:/School/diseratie/SEMS/xmc4800_evaluation_kit/optiga-trust-m/optiga/crypt\optiga_crypt.c ****         OPTIGA_PROTECTION_SET_VERSION(me->my_cmd, me);
 511              	 .loc 1 637 0
 512 004c FFF7FEFF 	 bl optiga_cmd_set_shielded_connection_option
 513              	.LVL55:
 638:D:/School/diseratie/SEMS/xmc4800_evaluation_kit/optiga-trust-m/optiga/crypt\optiga_crypt.c ****         p_params->hash_sequence = hash_sequence;
 514              	 .loc 1 638 0
 515 0050 3A46     	 mov r2,r7
 516 0052 206A     	 ldr r0,[r4,#32]
 517 0054 94F82F10 	 ldrb r1,[r4,#47]
 518 0058 FFF7FEFF 	 bl optiga_cmd_set_shielded_connection_option
 519              	.LVL56:
 645:D:/School/diseratie/SEMS/xmc4800_evaluation_kit/optiga-trust-m/optiga/crypt\optiga_crypt.c ****         
 520              	 .loc 1 645 0
 521 005c 2776     	 strb r7,[r4,#24]
 640:D:/School/diseratie/SEMS/xmc4800_evaluation_kit/optiga-trust-m/optiga/crypt\optiga_crypt.c ****         p_params->apparent_context_size = context_length;
 522              	 .loc 1 640 0
 523 005e A560     	 str r5,[r4,#8]
 660:D:/School/diseratie/SEMS/xmc4800_evaluation_kit/optiga-trust-m/optiga/crypt\optiga_crypt.c ****                                             hash_algorithm,
 524              	 .loc 1 660 0
 525 0060 4146     	 mov r1,r8
 639:D:/School/diseratie/SEMS/xmc4800_evaluation_kit/optiga-trust-m/optiga/crypt\optiga_crypt.c ****         p_params->p_hash_context = hash_ctx;
 526              	 .loc 1 639 0
 527 0062 2673     	 strb r6,[r4,#12]
 641:D:/School/diseratie/SEMS/xmc4800_evaluation_kit/optiga-trust-m/optiga/crypt\optiga_crypt.c ****         p_params->p_hash_data = NULL;
 528              	 .loc 1 641 0
 529 0064 E661     	 str r6,[r4,#28]
 642:D:/School/diseratie/SEMS/xmc4800_evaluation_kit/optiga-trust-m/optiga/crypt\optiga_crypt.c ****         p_params->p_hash_oid = NULL;
 530              	 .loc 1 642 0
 531 0066 6660     	 str r6,[r4,#4]
 643:D:/School/diseratie/SEMS/xmc4800_evaluation_kit/optiga-trust-m/optiga/crypt\optiga_crypt.c ****         p_params->p_out_digest = hash_output;
 532              	 .loc 1 643 0
 533 0068 2660     	 str r6,[r4]
 644:D:/School/diseratie/SEMS/xmc4800_evaluation_kit/optiga-trust-m/optiga/crypt\optiga_crypt.c ****         p_params->export_hash_ctx = export_intermediate_ctx;
 534              	 .loc 1 644 0
 535 006a 6661     	 str r6,[r4,#20]
 660:D:/School/diseratie/SEMS/xmc4800_evaluation_kit/optiga-trust-m/optiga/crypt\optiga_crypt.c ****                                             hash_algorithm,
 536              	 .loc 1 660 0
 537 006c 206A     	 ldr r0,[r4,#32]
 538 006e 2246     	 mov r2,r4
 539 0070 FFF7FEFF 	 bl optiga_cmd_calc_hash
 540              	.LVL57:
 663:D:/School/diseratie/SEMS/xmc4800_evaluation_kit/optiga-trust-m/optiga/crypt\optiga_crypt.c ****         {
 541              	 .loc 1 663 0
 542 0074 0028     	 cmp r0,#0
 543 0076 D2D0     	 beq .L39
 665:D:/School/diseratie/SEMS/xmc4800_evaluation_kit/optiga-trust-m/optiga/crypt\optiga_crypt.c ****         }
 544              	 .loc 1 665 0
 545 0078 A685     	 strh r6,[r4,#44]
 546 007a D0E7     	 b .L39
 547              	.LBE77:
 548              	.LBE79:
 549              	 .cfi_endproc
 550              	.LFE14:
 552              	 .section .text.optiga_crypt_hash_update,"ax",%progbits
 553              	 .align 2
 554              	 .global optiga_crypt_hash_update
 555              	 .thumb
 556              	 .thumb_func
 558              	optiga_crypt_hash_update:
 559              	.LFB15:
 823:D:/School/diseratie/SEMS/xmc4800_evaluation_kit/optiga-trust-m/optiga/crypt\optiga_crypt.c **** 
 824:D:/School/diseratie/SEMS/xmc4800_evaluation_kit/optiga-trust-m/optiga/crypt\optiga_crypt.c **** optiga_lib_status_t optiga_crypt_hash_update(optiga_crypt_t * me,
 825:D:/School/diseratie/SEMS/xmc4800_evaluation_kit/optiga-trust-m/optiga/crypt\optiga_crypt.c ****                                              optiga_hash_context_t * hash_ctx,
 826:D:/School/diseratie/SEMS/xmc4800_evaluation_kit/optiga-trust-m/optiga/crypt\optiga_crypt.c ****                                              uint8_t source_of_data_to_hash,
 827:D:/School/diseratie/SEMS/xmc4800_evaluation_kit/optiga-trust-m/optiga/crypt\optiga_crypt.c ****                                              const void * data_to_hash)
 828:D:/School/diseratie/SEMS/xmc4800_evaluation_kit/optiga-trust-m/optiga/crypt\optiga_crypt.c **** {
 560              	 .loc 1 828 0
 561              	 .cfi_startproc
 562              	 
 563              	 
 564              	.LVL58:
 829:D:/School/diseratie/SEMS/xmc4800_evaluation_kit/optiga-trust-m/optiga/crypt\optiga_crypt.c ****     optiga_lib_status_t return_value = OPTIGA_CRYPT_ERROR;
 830:D:/School/diseratie/SEMS/xmc4800_evaluation_kit/optiga-trust-m/optiga/crypt\optiga_crypt.c ****     OPTIGA_CRYPT_LOG_MESSAGE(__FUNCTION__);
 831:D:/School/diseratie/SEMS/xmc4800_evaluation_kit/optiga-trust-m/optiga/crypt\optiga_crypt.c ****     do
 832:D:/School/diseratie/SEMS/xmc4800_evaluation_kit/optiga-trust-m/optiga/crypt\optiga_crypt.c ****     {
 833:D:/School/diseratie/SEMS/xmc4800_evaluation_kit/optiga-trust-m/optiga/crypt\optiga_crypt.c **** #ifdef OPTIGA_LIB_DEBUG_NULL_CHECK
 834:D:/School/diseratie/SEMS/xmc4800_evaluation_kit/optiga-trust-m/optiga/crypt\optiga_crypt.c ****         if ((NULL == me) || (NULL == me->my_cmd) ||
 565              	 .loc 1 834 0
 566 0000 D8B1     	 cbz r0,.L54
 828:D:/School/diseratie/SEMS/xmc4800_evaluation_kit/optiga-trust-m/optiga/crypt\optiga_crypt.c ****     optiga_lib_status_t return_value = OPTIGA_CRYPT_ERROR;
 567              	 .loc 1 828 0 discriminator 1
 568 0002 2DE9F047 	 push {r4,r5,r6,r7,r8,r9,r10,lr}
 569              	.LCFI12:
 570              	 .cfi_def_cfa_offset 32
 571              	 .cfi_offset 4,-32
 572              	 .cfi_offset 5,-28
 573              	 .cfi_offset 6,-24
 574              	 .cfi_offset 7,-20
 575              	 .cfi_offset 8,-16
 576              	 .cfi_offset 9,-12
 577              	 .cfi_offset 10,-8
 578              	 .cfi_offset 14,-4
 579              	 .loc 1 834 0 discriminator 1
 580 0006 056A     	 ldr r5,[r0,#32]
 581 0008 9DB1     	 cbz r5,.L57
 582              	 .loc 1 834 0 is_stmt 0 discriminator 2
 583 000a 91B1     	 cbz r1,.L57
 835:D:/School/diseratie/SEMS/xmc4800_evaluation_kit/optiga-trust-m/optiga/crypt\optiga_crypt.c ****             (NULL == hash_ctx) || (NULL == data_to_hash))
 584              	 .loc 1 835 0 is_stmt 1
 585 000c 8BB1     	 cbz r3,.L57
 586 000e 1E46     	 mov r6,r3
 587              	.LBB86:
 588              	.LBB87:
 627:D:/School/diseratie/SEMS/xmc4800_evaluation_kit/optiga-trust-m/optiga/crypt\optiga_crypt.c ****         {
 589              	 .loc 1 627 0
 590 0010 838D     	 ldrh r3,[r0,#44]
 591              	.LVL59:
 592              	.LBE87:
 593              	.LBE86:
 836:D:/School/diseratie/SEMS/xmc4800_evaluation_kit/optiga-trust-m/optiga/crypt\optiga_crypt.c ****         {
 837:D:/School/diseratie/SEMS/xmc4800_evaluation_kit/optiga-trust-m/optiga/crypt\optiga_crypt.c ****             return_value = OPTIGA_CRYPT_ERROR_INVALID_INPUT;
 838:D:/School/diseratie/SEMS/xmc4800_evaluation_kit/optiga-trust-m/optiga/crypt\optiga_crypt.c ****             break;
 839:D:/School/diseratie/SEMS/xmc4800_evaluation_kit/optiga-trust-m/optiga/crypt\optiga_crypt.c ****         }
 840:D:/School/diseratie/SEMS/xmc4800_evaluation_kit/optiga-trust-m/optiga/crypt\optiga_crypt.c **** #endif
 841:D:/School/diseratie/SEMS/xmc4800_evaluation_kit/optiga-trust-m/optiga/crypt\optiga_crypt.c ****         return_value = optiga_crypt_hash_generic(me,
 594              	 .loc 1 841 0
 595 0012 91F80690 	 ldrb r9,[r1,#6]
 842:D:/School/diseratie/SEMS/xmc4800_evaluation_kit/optiga-trust-m/optiga/crypt\optiga_crypt.c ****                                                  hash_ctx->hash_algo,
 843:D:/School/diseratie/SEMS/xmc4800_evaluation_kit/optiga-trust-m/optiga/crypt\optiga_crypt.c ****                                                  OPTIGA_CRYPT_HASH_CONTINUE,
 844:D:/School/diseratie/SEMS/xmc4800_evaluation_kit/optiga-trust-m/optiga/crypt\optiga_crypt.c ****                                                  source_of_data_to_hash,
 845:D:/School/diseratie/SEMS/xmc4800_evaluation_kit/optiga-trust-m/optiga/crypt\optiga_crypt.c ****                                                  hash_ctx,
 846:D:/School/diseratie/SEMS/xmc4800_evaluation_kit/optiga-trust-m/optiga/crypt\optiga_crypt.c ****                                                  hash_ctx->context_buffer_length,
 596              	 .loc 1 846 0
 597 0016 B1F804A0 	 ldrh r10,[r1,#4]
 598              	.LVL60:
 599              	.LBB94:
 600              	.LBB91:
 627:D:/School/diseratie/SEMS/xmc4800_evaluation_kit/optiga-trust-m/optiga/crypt\optiga_crypt.c ****         {
 601              	 .loc 1 627 0
 602 001a 012B     	 cmp r3,#1
 603 001c 0546     	 mov r5,r0
 604 001e 1746     	 mov r7,r2
 605              	.LVL61:
 606 0020 0C46     	 mov r4,r1
 607              	.LVL62:
 608 0022 0DD1     	 bne .L63
 629:D:/School/diseratie/SEMS/xmc4800_evaluation_kit/optiga-trust-m/optiga/crypt\optiga_crypt.c ****             break;
 609              	 .loc 1 629 0
 610 0024 40F20540 	 movw r0,#1029
 611              	.LVL63:
 612              	.L51:
 613              	.LBB88:
 614              	.LBB89:
 615              	.LBB90:
 683:D:/School/diseratie/SEMS/xmc4800_evaluation_kit/optiga-trust-m/optiga/crypt\optiga_crypt.c ****             break;
 616              	 .loc 1 683 0
 617 0028 0023     	 movs r3,#0
 618 002a 85F82E30 	 strb r3,[r5,#46]
 619 002e BDE8F087 	 pop {r4,r5,r6,r7,r8,r9,r10,pc}
 620              	.LVL64:
 621              	.L57:
 622              	.LBE90:
 623              	.LBE89:
 624              	.LBE88:
 625              	.LBE91:
 626              	.LBE94:
 837:D:/School/diseratie/SEMS/xmc4800_evaluation_kit/optiga-trust-m/optiga/crypt\optiga_crypt.c ****             break;
 627              	 .loc 1 837 0
 628 0032 40F20340 	 movw r0,#1027
 629              	.LVL65:
 847:D:/School/diseratie/SEMS/xmc4800_evaluation_kit/optiga-trust-m/optiga/crypt\optiga_crypt.c ****                                                  data_to_hash,
 848:D:/School/diseratie/SEMS/xmc4800_evaluation_kit/optiga-trust-m/optiga/crypt\optiga_crypt.c ****                                                  TRUE,
 849:D:/School/diseratie/SEMS/xmc4800_evaluation_kit/optiga-trust-m/optiga/crypt\optiga_crypt.c ****                                                  NULL);
 850:D:/School/diseratie/SEMS/xmc4800_evaluation_kit/optiga-trust-m/optiga/crypt\optiga_crypt.c ****     } while (FALSE);
 851:D:/School/diseratie/SEMS/xmc4800_evaluation_kit/optiga-trust-m/optiga/crypt\optiga_crypt.c **** 
 852:D:/School/diseratie/SEMS/xmc4800_evaluation_kit/optiga-trust-m/optiga/crypt\optiga_crypt.c ****     return (return_value);
 853:D:/School/diseratie/SEMS/xmc4800_evaluation_kit/optiga-trust-m/optiga/crypt\optiga_crypt.c **** }
 630              	 .loc 1 853 0
 631 0036 BDE8F087 	 pop {r4,r5,r6,r7,r8,r9,r10,pc}
 632              	.LVL66:
 633              	.L54:
 634              	.LCFI13:
 635              	 .cfi_def_cfa_offset 0
 636              	 .cfi_restore 4
 637              	 .cfi_restore 5
 638              	 .cfi_restore 6
 639              	 .cfi_restore 7
 640              	 .cfi_restore 8
 641              	 .cfi_restore 9
 642              	 .cfi_restore 10
 643              	 .cfi_restore 14
 837:D:/School/diseratie/SEMS/xmc4800_evaluation_kit/optiga-trust-m/optiga/crypt\optiga_crypt.c ****             break;
 644              	 .loc 1 837 0
 645 003a 40F20340 	 movw r0,#1027
 646              	.LVL67:
 647              	 .loc 1 853 0
 648 003e 7047     	 bx lr
 649              	.LVL68:
 650              	.L63:
 651              	.LCFI14:
 652              	 .cfi_def_cfa_offset 32
 653              	 .cfi_offset 4,-32
 654              	 .cfi_offset 5,-28
 655              	 .cfi_offset 6,-24
 656              	 .cfi_offset 7,-20
 657              	 .cfi_offset 8,-16
 658              	 .cfi_offset 9,-12
 659              	 .cfi_offset 10,-8
 660              	 .cfi_offset 14,-4
 661              	.LBB95:
 662              	.LBB92:
 633:D:/School/diseratie/SEMS/xmc4800_evaluation_kit/optiga-trust-m/optiga/crypt\optiga_crypt.c ****         p_params = (optiga_calc_hash_params_t *)&(me->params.optiga_calc_hash_params);
 663              	 .loc 1 633 0
 664 0040 4FF00108 	 mov r8,#1
 665 0044 A0F82C80 	 strh r8,[r0,#44]
 666              	.LVL69:
 635:D:/School/diseratie/SEMS/xmc4800_evaluation_kit/optiga-trust-m/optiga/crypt\optiga_crypt.c **** 
 667              	 .loc 1 635 0
 668 0048 0021     	 movs r1,#0
 669              	.LVL70:
 670 004a 2022     	 movs r2,#32
 671              	.LVL71:
 672 004c FFF7FEFF 	 bl pal_os_memset
 673              	.LVL72:
 637:D:/School/diseratie/SEMS/xmc4800_evaluation_kit/optiga-trust-m/optiga/crypt\optiga_crypt.c ****         OPTIGA_PROTECTION_SET_VERSION(me->my_cmd, me);
 674              	 .loc 1 637 0
 675 0050 286A     	 ldr r0,[r5,#32]
 676 0052 95F82E10 	 ldrb r1,[r5,#46]
 677 0056 0022     	 movs r2,#0
 678 0058 FFF7FEFF 	 bl optiga_cmd_set_shielded_connection_option
 679              	.LVL73:
 638:D:/School/diseratie/SEMS/xmc4800_evaluation_kit/optiga-trust-m/optiga/crypt\optiga_crypt.c ****         p_params->hash_sequence = hash_sequence;
 680              	 .loc 1 638 0
 681 005c 4246     	 mov r2,r8
 682 005e 286A     	 ldr r0,[r5,#32]
 683 0060 95F82F10 	 ldrb r1,[r5,#47]
 684 0064 FFF7FEFF 	 bl optiga_cmd_set_shielded_connection_option
 685              	.LVL74:
 642:D:/School/diseratie/SEMS/xmc4800_evaluation_kit/optiga-trust-m/optiga/crypt\optiga_crypt.c ****         p_params->p_hash_oid = NULL;
 686              	 .loc 1 642 0
 687 0068 0023     	 movs r3,#0
 639:D:/School/diseratie/SEMS/xmc4800_evaluation_kit/optiga-trust-m/optiga/crypt\optiga_crypt.c ****         p_params->p_hash_context = hash_ctx;
 688              	 .loc 1 639 0
 689 006a 0222     	 movs r2,#2
 645:D:/School/diseratie/SEMS/xmc4800_evaluation_kit/optiga-trust-m/optiga/crypt\optiga_crypt.c ****         
 690              	 .loc 1 645 0
 691 006c 85F81880 	 strb r8,[r5,#24]
 640:D:/School/diseratie/SEMS/xmc4800_evaluation_kit/optiga-trust-m/optiga/crypt\optiga_crypt.c ****         p_params->apparent_context_size = context_length;
 692              	 .loc 1 640 0
 693 0070 AC60     	 str r4,[r5,#8]
 694              	.LBE92:
 695              	.LBE95:
 841:D:/School/diseratie/SEMS/xmc4800_evaluation_kit/optiga-trust-m/optiga/crypt\optiga_crypt.c ****                                                  hash_ctx->hash_algo,
 696              	 .loc 1 841 0
 697 0072 C5F81CA0 	 str r10,[r5,#28]
 698              	.LBB96:
 699              	.LBB93:
 639:D:/School/diseratie/SEMS/xmc4800_evaluation_kit/optiga-trust-m/optiga/crypt\optiga_crypt.c ****         p_params->p_hash_context = hash_ctx;
 700              	 .loc 1 639 0
 701 0076 2A73     	 strb r2,[r5,#12]
 642:D:/School/diseratie/SEMS/xmc4800_evaluation_kit/optiga-trust-m/optiga/crypt\optiga_crypt.c ****         p_params->p_hash_oid = NULL;
 702              	 .loc 1 642 0
 703 0078 6B60     	 str r3,[r5,#4]
 643:D:/School/diseratie/SEMS/xmc4800_evaluation_kit/optiga-trust-m/optiga/crypt\optiga_crypt.c ****         p_params->p_out_digest = hash_output;
 704              	 .loc 1 643 0
 705 007a 2B60     	 str r3,[r5]
 644:D:/School/diseratie/SEMS/xmc4800_evaluation_kit/optiga-trust-m/optiga/crypt\optiga_crypt.c ****         p_params->export_hash_ctx = export_intermediate_ctx;
 706              	 .loc 1 644 0
 707 007c 6B61     	 str r3,[r5,#20]
 649:D:/School/diseratie/SEMS/xmc4800_evaluation_kit/optiga-trust-m/optiga/crypt\optiga_crypt.c ****             {
 708              	 .loc 1 649 0
 709 007e 67B9     	 cbnz r7,.L64
 655:D:/School/diseratie/SEMS/xmc4800_evaluation_kit/optiga-trust-m/optiga/crypt\optiga_crypt.c ****                 p_params->p_hash_oid = (hash_data_in_optiga_t *)data_to_hash;
 710              	 .loc 1 655 0
 711 0080 1223     	 movs r3,#18
 656:D:/School/diseratie/SEMS/xmc4800_evaluation_kit/optiga-trust-m/optiga/crypt\optiga_crypt.c ****             }
 712              	 .loc 1 656 0
 713 0082 2E60     	 str r6,[r5]
 655:D:/School/diseratie/SEMS/xmc4800_evaluation_kit/optiga-trust-m/optiga/crypt\optiga_crypt.c ****                 p_params->p_hash_oid = (hash_data_in_optiga_t *)data_to_hash;
 714              	 .loc 1 655 0
 715 0084 2B73     	 strb r3,[r5,#12]
 716              	.L53:
 660:D:/School/diseratie/SEMS/xmc4800_evaluation_kit/optiga-trust-m/optiga/crypt\optiga_crypt.c ****                                             hash_algorithm,
 717              	 .loc 1 660 0
 718 0086 4946     	 mov r1,r9
 719 0088 286A     	 ldr r0,[r5,#32]
 720 008a 2A46     	 mov r2,r5
 721 008c FFF7FEFF 	 bl optiga_cmd_calc_hash
 722              	.LVL75:
 663:D:/School/diseratie/SEMS/xmc4800_evaluation_kit/optiga-trust-m/optiga/crypt\optiga_crypt.c ****         {
 723              	 .loc 1 663 0
 724 0090 0028     	 cmp r0,#0
 725 0092 C9D0     	 beq .L51
 665:D:/School/diseratie/SEMS/xmc4800_evaluation_kit/optiga-trust-m/optiga/crypt\optiga_crypt.c ****         }
 726              	 .loc 1 665 0
 727 0094 0023     	 movs r3,#0
 728 0096 AB85     	 strh r3,[r5,#44]
 729 0098 C6E7     	 b .L51
 730              	.LVL76:
 731              	.L64:
 651:D:/School/diseratie/SEMS/xmc4800_evaluation_kit/optiga-trust-m/optiga/crypt\optiga_crypt.c ****             }
 732              	 .loc 1 651 0
 733 009a 6E60     	 str r6,[r5,#4]
 734 009c F3E7     	 b .L53
 735              	.LBE93:
 736              	.LBE96:
 737              	 .cfi_endproc
 738              	.LFE15:
 740 009e 00BF     	 .section .text.optiga_crypt_hash_finalize,"ax",%progbits
 741              	 .align 2
 742              	 .global optiga_crypt_hash_finalize
 743              	 .thumb
 744              	 .thumb_func
 746              	optiga_crypt_hash_finalize:
 747              	.LFB16:
 854:D:/School/diseratie/SEMS/xmc4800_evaluation_kit/optiga-trust-m/optiga/crypt\optiga_crypt.c **** 
 855:D:/School/diseratie/SEMS/xmc4800_evaluation_kit/optiga-trust-m/optiga/crypt\optiga_crypt.c **** optiga_lib_status_t optiga_crypt_hash_finalize(optiga_crypt_t * me,
 856:D:/School/diseratie/SEMS/xmc4800_evaluation_kit/optiga-trust-m/optiga/crypt\optiga_crypt.c ****                                                optiga_hash_context_t * hash_ctx,
 857:D:/School/diseratie/SEMS/xmc4800_evaluation_kit/optiga-trust-m/optiga/crypt\optiga_crypt.c ****                                                uint8_t * hash_output)
 858:D:/School/diseratie/SEMS/xmc4800_evaluation_kit/optiga-trust-m/optiga/crypt\optiga_crypt.c **** {
 748              	 .loc 1 858 0
 749              	 .cfi_startproc
 750              	 
 751              	 
 752              	.LVL77:
 859:D:/School/diseratie/SEMS/xmc4800_evaluation_kit/optiga-trust-m/optiga/crypt\optiga_crypt.c ****     optiga_lib_status_t return_value = OPTIGA_CRYPT_ERROR;
 860:D:/School/diseratie/SEMS/xmc4800_evaluation_kit/optiga-trust-m/optiga/crypt\optiga_crypt.c ****     OPTIGA_CRYPT_LOG_MESSAGE(__FUNCTION__);
 861:D:/School/diseratie/SEMS/xmc4800_evaluation_kit/optiga-trust-m/optiga/crypt\optiga_crypt.c ****     do
 862:D:/School/diseratie/SEMS/xmc4800_evaluation_kit/optiga-trust-m/optiga/crypt\optiga_crypt.c ****     {
 863:D:/School/diseratie/SEMS/xmc4800_evaluation_kit/optiga-trust-m/optiga/crypt\optiga_crypt.c **** #ifdef OPTIGA_LIB_DEBUG_NULL_CHECK
 864:D:/School/diseratie/SEMS/xmc4800_evaluation_kit/optiga-trust-m/optiga/crypt\optiga_crypt.c ****         if ((NULL == me) || (NULL == me->my_cmd) ||
 753              	 .loc 1 864 0
 754 0000 D0B1     	 cbz r0,.L68
 858:D:/School/diseratie/SEMS/xmc4800_evaluation_kit/optiga-trust-m/optiga/crypt\optiga_crypt.c ****     optiga_lib_status_t return_value = OPTIGA_CRYPT_ERROR;
 755              	 .loc 1 858 0 discriminator 1
 756 0002 2DE9F843 	 push {r3,r4,r5,r6,r7,r8,r9,lr}
 757              	.LCFI15:
 758              	 .cfi_def_cfa_offset 32
 759              	 .cfi_offset 3,-32
 760              	 .cfi_offset 4,-28
 761              	 .cfi_offset 5,-24
 762              	 .cfi_offset 6,-20
 763              	 .cfi_offset 7,-16
 764              	 .cfi_offset 8,-12
 765              	 .cfi_offset 9,-8
 766              	 .cfi_offset 14,-4
 767              	 .loc 1 864 0 discriminator 1
 768 0006 046A     	 ldr r4,[r0,#32]
 769 0008 94B1     	 cbz r4,.L71
 770              	 .loc 1 864 0 is_stmt 0 discriminator 2
 771 000a 89B1     	 cbz r1,.L71
 865:D:/School/diseratie/SEMS/xmc4800_evaluation_kit/optiga-trust-m/optiga/crypt\optiga_crypt.c ****             (NULL == hash_ctx) || (NULL == hash_output))
 772              	 .loc 1 865 0 is_stmt 1
 773 000c 82B1     	 cbz r2,.L71
 774              	.LBB103:
 775              	.LBB104:
 627:D:/School/diseratie/SEMS/xmc4800_evaluation_kit/optiga-trust-m/optiga/crypt\optiga_crypt.c ****         {
 776              	 .loc 1 627 0
 777 000e 838D     	 ldrh r3,[r0,#44]
 778              	.LBE104:
 779              	.LBE103:
 866:D:/School/diseratie/SEMS/xmc4800_evaluation_kit/optiga-trust-m/optiga/crypt\optiga_crypt.c ****         {
 867:D:/School/diseratie/SEMS/xmc4800_evaluation_kit/optiga-trust-m/optiga/crypt\optiga_crypt.c ****             return_value = OPTIGA_CRYPT_ERROR_INVALID_INPUT;
 868:D:/School/diseratie/SEMS/xmc4800_evaluation_kit/optiga-trust-m/optiga/crypt\optiga_crypt.c ****             break;
 869:D:/School/diseratie/SEMS/xmc4800_evaluation_kit/optiga-trust-m/optiga/crypt\optiga_crypt.c ****         }
 870:D:/School/diseratie/SEMS/xmc4800_evaluation_kit/optiga-trust-m/optiga/crypt\optiga_crypt.c **** #endif
 871:D:/School/diseratie/SEMS/xmc4800_evaluation_kit/optiga-trust-m/optiga/crypt\optiga_crypt.c ****         return_value = optiga_crypt_hash_generic(me,
 780              	 .loc 1 871 0
 781 0010 91F80680 	 ldrb r8,[r1,#6]
 872:D:/School/diseratie/SEMS/xmc4800_evaluation_kit/optiga-trust-m/optiga/crypt\optiga_crypt.c ****                                                  hash_ctx->hash_algo,
 873:D:/School/diseratie/SEMS/xmc4800_evaluation_kit/optiga-trust-m/optiga/crypt\optiga_crypt.c ****                                                  OPTIGA_CRYPT_HASH_FINAL,
 874:D:/School/diseratie/SEMS/xmc4800_evaluation_kit/optiga-trust-m/optiga/crypt\optiga_crypt.c ****                                                  0,
 875:D:/School/diseratie/SEMS/xmc4800_evaluation_kit/optiga-trust-m/optiga/crypt\optiga_crypt.c ****                                                  hash_ctx,
 876:D:/School/diseratie/SEMS/xmc4800_evaluation_kit/optiga-trust-m/optiga/crypt\optiga_crypt.c ****                                                  hash_ctx->context_buffer_length,
 782              	 .loc 1 876 0
 783 0014 B1F80490 	 ldrh r9,[r1,#4]
 784              	.LVL78:
 785              	.LBB111:
 786              	.LBB108:
 627:D:/School/diseratie/SEMS/xmc4800_evaluation_kit/optiga-trust-m/optiga/crypt\optiga_crypt.c ****         {
 787              	 .loc 1 627 0
 788 0018 012B     	 cmp r3,#1
 789 001a 0546     	 mov r5,r0
 790 001c 1646     	 mov r6,r2
 791 001e 0C46     	 mov r4,r1
 792              	.LVL79:
 793 0020 0DD1     	 bne .L77
 629:D:/School/diseratie/SEMS/xmc4800_evaluation_kit/optiga-trust-m/optiga/crypt\optiga_crypt.c ****             break;
 794              	 .loc 1 629 0
 795 0022 40F20540 	 movw r0,#1029
 796              	.LVL80:
 797              	.L67:
 798              	.LBB105:
 799              	.LBB106:
 800              	.LBB107:
 683:D:/School/diseratie/SEMS/xmc4800_evaluation_kit/optiga-trust-m/optiga/crypt\optiga_crypt.c ****             break;
 801              	 .loc 1 683 0
 802 0026 0023     	 movs r3,#0
 803 0028 85F82E30 	 strb r3,[r5,#46]
 804 002c BDE8F883 	 pop {r3,r4,r5,r6,r7,r8,r9,pc}
 805              	.LVL81:
 806              	.L71:
 807              	.LBE107:
 808              	.LBE106:
 809              	.LBE105:
 810              	.LBE108:
 811              	.LBE111:
 867:D:/School/diseratie/SEMS/xmc4800_evaluation_kit/optiga-trust-m/optiga/crypt\optiga_crypt.c ****             break;
 812              	 .loc 1 867 0
 813 0030 40F20340 	 movw r0,#1027
 814              	.LVL82:
 877:D:/School/diseratie/SEMS/xmc4800_evaluation_kit/optiga-trust-m/optiga/crypt\optiga_crypt.c ****                                                  NULL,
 878:D:/School/diseratie/SEMS/xmc4800_evaluation_kit/optiga-trust-m/optiga/crypt\optiga_crypt.c ****                                                  FALSE,
 879:D:/School/diseratie/SEMS/xmc4800_evaluation_kit/optiga-trust-m/optiga/crypt\optiga_crypt.c ****                                                  hash_output);
 880:D:/School/diseratie/SEMS/xmc4800_evaluation_kit/optiga-trust-m/optiga/crypt\optiga_crypt.c ****     } while (FALSE);
 881:D:/School/diseratie/SEMS/xmc4800_evaluation_kit/optiga-trust-m/optiga/crypt\optiga_crypt.c **** 
 882:D:/School/diseratie/SEMS/xmc4800_evaluation_kit/optiga-trust-m/optiga/crypt\optiga_crypt.c ****     return (return_value);
 883:D:/School/diseratie/SEMS/xmc4800_evaluation_kit/optiga-trust-m/optiga/crypt\optiga_crypt.c **** }
 815              	 .loc 1 883 0
 816 0034 BDE8F883 	 pop {r3,r4,r5,r6,r7,r8,r9,pc}
 817              	.LVL83:
 818              	.L68:
 819              	.LCFI16:
 820              	 .cfi_def_cfa_offset 0
 821              	 .cfi_restore 3
 822              	 .cfi_restore 4
 823              	 .cfi_restore 5
 824              	 .cfi_restore 6
 825              	 .cfi_restore 7
 826              	 .cfi_restore 8
 827              	 .cfi_restore 9
 828              	 .cfi_restore 14
 867:D:/School/diseratie/SEMS/xmc4800_evaluation_kit/optiga-trust-m/optiga/crypt\optiga_crypt.c ****             break;
 829              	 .loc 1 867 0
 830 0038 40F20340 	 movw r0,#1027
 831              	.LVL84:
 832              	 .loc 1 883 0
 833 003c 7047     	 bx lr
 834              	.LVL85:
 835              	.L77:
 836              	.LCFI17:
 837              	 .cfi_def_cfa_offset 32
 838              	 .cfi_offset 3,-32
 839              	 .cfi_offset 4,-28
 840              	 .cfi_offset 5,-24
 841              	 .cfi_offset 6,-20
 842              	 .cfi_offset 7,-16
 843              	 .cfi_offset 8,-12
 844              	 .cfi_offset 9,-8
 845              	 .cfi_offset 14,-4
 846              	.LBB112:
 847              	.LBB109:
 633:D:/School/diseratie/SEMS/xmc4800_evaluation_kit/optiga-trust-m/optiga/crypt\optiga_crypt.c ****         p_params = (optiga_calc_hash_params_t *)&(me->params.optiga_calc_hash_params);
 848              	 .loc 1 633 0
 849 003e 0127     	 movs r7,#1
 850 0040 8785     	 strh r7,[r0,#44]
 851              	.LVL86:
 635:D:/School/diseratie/SEMS/xmc4800_evaluation_kit/optiga-trust-m/optiga/crypt\optiga_crypt.c **** 
 852              	 .loc 1 635 0
 853 0042 0021     	 movs r1,#0
 854              	.LVL87:
 855 0044 2022     	 movs r2,#32
 856              	.LVL88:
 857 0046 FFF7FEFF 	 bl pal_os_memset
 858              	.LVL89:
 637:D:/School/diseratie/SEMS/xmc4800_evaluation_kit/optiga-trust-m/optiga/crypt\optiga_crypt.c ****         OPTIGA_PROTECTION_SET_VERSION(me->my_cmd, me);
 859              	 .loc 1 637 0
 860 004a 286A     	 ldr r0,[r5,#32]
 861 004c 95F82E10 	 ldrb r1,[r5,#46]
 862 0050 0022     	 movs r2,#0
 863 0052 FFF7FEFF 	 bl optiga_cmd_set_shielded_connection_option
 864              	.LVL90:
 638:D:/School/diseratie/SEMS/xmc4800_evaluation_kit/optiga-trust-m/optiga/crypt\optiga_crypt.c ****         p_params->hash_sequence = hash_sequence;
 865              	 .loc 1 638 0
 866 0056 3A46     	 mov r2,r7
 867 0058 286A     	 ldr r0,[r5,#32]
 868 005a 95F82F10 	 ldrb r1,[r5,#47]
 869 005e FFF7FEFF 	 bl optiga_cmd_set_shielded_connection_option
 870              	.LVL91:
 642:D:/School/diseratie/SEMS/xmc4800_evaluation_kit/optiga-trust-m/optiga/crypt\optiga_crypt.c ****         p_params->p_hash_oid = NULL;
 871              	 .loc 1 642 0
 872 0062 0027     	 movs r7,#0
 639:D:/School/diseratie/SEMS/xmc4800_evaluation_kit/optiga-trust-m/optiga/crypt\optiga_crypt.c ****         p_params->p_hash_context = hash_ctx;
 873              	 .loc 1 639 0
 874 0064 0323     	 movs r3,#3
 640:D:/School/diseratie/SEMS/xmc4800_evaluation_kit/optiga-trust-m/optiga/crypt\optiga_crypt.c ****         p_params->apparent_context_size = context_length;
 875              	 .loc 1 640 0
 876 0066 AC60     	 str r4,[r5,#8]
 877              	.LBE109:
 878              	.LBE112:
 871:D:/School/diseratie/SEMS/xmc4800_evaluation_kit/optiga-trust-m/optiga/crypt\optiga_crypt.c ****                                                  hash_ctx->hash_algo,
 879              	 .loc 1 871 0
 880 0068 C5F81C90 	 str r9,[r5,#28]
 881              	.LBB113:
 882              	.LBB110:
 644:D:/School/diseratie/SEMS/xmc4800_evaluation_kit/optiga-trust-m/optiga/crypt\optiga_crypt.c ****         p_params->export_hash_ctx = export_intermediate_ctx;
 883              	 .loc 1 644 0
 884 006c 6E61     	 str r6,[r5,#20]
 660:D:/School/diseratie/SEMS/xmc4800_evaluation_kit/optiga-trust-m/optiga/crypt\optiga_crypt.c ****                                             hash_algorithm,
 885              	 .loc 1 660 0
 886 006e 4146     	 mov r1,r8
 639:D:/School/diseratie/SEMS/xmc4800_evaluation_kit/optiga-trust-m/optiga/crypt\optiga_crypt.c ****         p_params->p_hash_context = hash_ctx;
 887              	 .loc 1 639 0
 888 0070 2B73     	 strb r3,[r5,#12]
 642:D:/School/diseratie/SEMS/xmc4800_evaluation_kit/optiga-trust-m/optiga/crypt\optiga_crypt.c ****         p_params->p_hash_oid = NULL;
 889              	 .loc 1 642 0
 890 0072 6F60     	 str r7,[r5,#4]
 643:D:/School/diseratie/SEMS/xmc4800_evaluation_kit/optiga-trust-m/optiga/crypt\optiga_crypt.c ****         p_params->p_out_digest = hash_output;
 891              	 .loc 1 643 0
 892 0074 2F60     	 str r7,[r5]
 645:D:/School/diseratie/SEMS/xmc4800_evaluation_kit/optiga-trust-m/optiga/crypt\optiga_crypt.c ****         
 893              	 .loc 1 645 0
 894 0076 2F76     	 strb r7,[r5,#24]
 660:D:/School/diseratie/SEMS/xmc4800_evaluation_kit/optiga-trust-m/optiga/crypt\optiga_crypt.c ****                                             hash_algorithm,
 895              	 .loc 1 660 0
 896 0078 286A     	 ldr r0,[r5,#32]
 897 007a 2A46     	 mov r2,r5
 898 007c FFF7FEFF 	 bl optiga_cmd_calc_hash
 899              	.LVL92:
 663:D:/School/diseratie/SEMS/xmc4800_evaluation_kit/optiga-trust-m/optiga/crypt\optiga_crypt.c ****         {
 900              	 .loc 1 663 0
 901 0080 0028     	 cmp r0,#0
 902 0082 D0D0     	 beq .L67
 665:D:/School/diseratie/SEMS/xmc4800_evaluation_kit/optiga-trust-m/optiga/crypt\optiga_crypt.c ****         }
 903              	 .loc 1 665 0
 904 0084 AF85     	 strh r7,[r5,#44]
 905 0086 CEE7     	 b .L67
 906              	.LBE110:
 907              	.LBE113:
 908              	 .cfi_endproc
 909              	.LFE16:
 911              	 .section .text.optiga_crypt_hash,"ax",%progbits
 912              	 .align 2
 913              	 .global optiga_crypt_hash
 914              	 .thumb
 915              	 .thumb_func
 917              	optiga_crypt_hash:
 918              	.LFB17:
 884:D:/School/diseratie/SEMS/xmc4800_evaluation_kit/optiga-trust-m/optiga/crypt\optiga_crypt.c **** 
 885:D:/School/diseratie/SEMS/xmc4800_evaluation_kit/optiga-trust-m/optiga/crypt\optiga_crypt.c **** optiga_lib_status_t optiga_crypt_hash(optiga_crypt_t * me,
 886:D:/School/diseratie/SEMS/xmc4800_evaluation_kit/optiga-trust-m/optiga/crypt\optiga_crypt.c ****                                       optiga_hash_type_t hash_algorithm,
 887:D:/School/diseratie/SEMS/xmc4800_evaluation_kit/optiga-trust-m/optiga/crypt\optiga_crypt.c ****                                       uint8_t source_of_data_to_hash,
 888:D:/School/diseratie/SEMS/xmc4800_evaluation_kit/optiga-trust-m/optiga/crypt\optiga_crypt.c ****                                       const void * data_to_hash, 
 889:D:/School/diseratie/SEMS/xmc4800_evaluation_kit/optiga-trust-m/optiga/crypt\optiga_crypt.c ****                                       uint8_t * hash_output)
 890:D:/School/diseratie/SEMS/xmc4800_evaluation_kit/optiga-trust-m/optiga/crypt\optiga_crypt.c **** {
 919              	 .loc 1 890 0
 920              	 .cfi_startproc
 921              	 
 922              	 
 923              	.LVL93:
 891:D:/School/diseratie/SEMS/xmc4800_evaluation_kit/optiga-trust-m/optiga/crypt\optiga_crypt.c ****     optiga_lib_status_t return_value = OPTIGA_CRYPT_ERROR;
 892:D:/School/diseratie/SEMS/xmc4800_evaluation_kit/optiga-trust-m/optiga/crypt\optiga_crypt.c ****     OPTIGA_CRYPT_LOG_MESSAGE(__FUNCTION__);
 893:D:/School/diseratie/SEMS/xmc4800_evaluation_kit/optiga-trust-m/optiga/crypt\optiga_crypt.c ****     do
 894:D:/School/diseratie/SEMS/xmc4800_evaluation_kit/optiga-trust-m/optiga/crypt\optiga_crypt.c ****     {
 895:D:/School/diseratie/SEMS/xmc4800_evaluation_kit/optiga-trust-m/optiga/crypt\optiga_crypt.c **** #ifdef OPTIGA_LIB_DEBUG_NULL_CHECK
 896:D:/School/diseratie/SEMS/xmc4800_evaluation_kit/optiga-trust-m/optiga/crypt\optiga_crypt.c ****         if ((NULL == me) || (NULL == me->my_cmd) || (NULL == data_to_hash) || (NULL == hash_output)
 924              	 .loc 1 896 0
 925 0000 C0B1     	 cbz r0,.L83
 890:D:/School/diseratie/SEMS/xmc4800_evaluation_kit/optiga-trust-m/optiga/crypt\optiga_crypt.c ****     optiga_lib_status_t return_value = OPTIGA_CRYPT_ERROR;
 926              	 .loc 1 890 0 discriminator 1
 927 0002 2DE9F041 	 push {r4,r5,r6,r7,r8,lr}
 928              	.LCFI18:
 929              	 .cfi_def_cfa_offset 24
 930              	 .cfi_offset 4,-24
 931              	 .cfi_offset 5,-20
 932              	 .cfi_offset 6,-16
 933              	 .cfi_offset 7,-12
 934              	 .cfi_offset 8,-8
 935              	 .cfi_offset 14,-4
 936              	 .loc 1 896 0 discriminator 1
 937 0006 056A     	 ldr r5,[r0,#32]
 938 0008 85B1     	 cbz r5,.L86
 939              	 .loc 1 896 0 is_stmt 0 discriminator 2
 940 000a 7BB1     	 cbz r3,.L86
 941              	 .loc 1 896 0 discriminator 3
 942 000c 069D     	 ldr r5,[sp,#24]
 943 000e 6DB1     	 cbz r5,.L86
 944 0010 1C46     	 mov r4,r3
 945              	.LBB120:
 946              	.LBB121:
 627:D:/School/diseratie/SEMS/xmc4800_evaluation_kit/optiga-trust-m/optiga/crypt\optiga_crypt.c ****         {
 947              	 .loc 1 627 0 is_stmt 1
 948 0012 838D     	 ldrh r3,[r0,#44]
 949              	.LVL94:
 950 0014 012B     	 cmp r3,#1
 951 0016 0546     	 mov r5,r0
 952 0018 1746     	 mov r7,r2
 953 001a 0E46     	 mov r6,r1
 954              	.LVL95:
 955 001c 0DD1     	 bne .L92
 629:D:/School/diseratie/SEMS/xmc4800_evaluation_kit/optiga-trust-m/optiga/crypt\optiga_crypt.c ****             break;
 956              	 .loc 1 629 0
 957 001e 40F20540 	 movw r0,#1029
 958              	.LVL96:
 959              	.L80:
 960              	.LBB122:
 961              	.LBB123:
 962              	.LBB124:
 683:D:/School/diseratie/SEMS/xmc4800_evaluation_kit/optiga-trust-m/optiga/crypt\optiga_crypt.c ****             break;
 963              	 .loc 1 683 0
 964 0022 0023     	 movs r3,#0
 965 0024 85F82E30 	 strb r3,[r5,#46]
 966 0028 BDE8F081 	 pop {r4,r5,r6,r7,r8,pc}
 967              	.LVL97:
 968              	.L86:
 969              	.LBE124:
 970              	.LBE123:
 971              	.LBE122:
 972              	.LBE121:
 973              	.LBE120:
 897:D:/School/diseratie/SEMS/xmc4800_evaluation_kit/optiga-trust-m/optiga/crypt\optiga_crypt.c ****         {
 898:D:/School/diseratie/SEMS/xmc4800_evaluation_kit/optiga-trust-m/optiga/crypt\optiga_crypt.c ****             return_value = OPTIGA_CRYPT_ERROR_INVALID_INPUT;
 974              	 .loc 1 898 0
 975 002c 40F20340 	 movw r0,#1027
 976              	.LVL98:
 899:D:/School/diseratie/SEMS/xmc4800_evaluation_kit/optiga-trust-m/optiga/crypt\optiga_crypt.c ****             break;
 900:D:/School/diseratie/SEMS/xmc4800_evaluation_kit/optiga-trust-m/optiga/crypt\optiga_crypt.c ****         }
 901:D:/School/diseratie/SEMS/xmc4800_evaluation_kit/optiga-trust-m/optiga/crypt\optiga_crypt.c **** #endif
 902:D:/School/diseratie/SEMS/xmc4800_evaluation_kit/optiga-trust-m/optiga/crypt\optiga_crypt.c ****         return_value = optiga_crypt_hash_generic(me,
 903:D:/School/diseratie/SEMS/xmc4800_evaluation_kit/optiga-trust-m/optiga/crypt\optiga_crypt.c ****                                                  (uint8_t)hash_algorithm,
 904:D:/School/diseratie/SEMS/xmc4800_evaluation_kit/optiga-trust-m/optiga/crypt\optiga_crypt.c ****                                                  OPTIGA_CRYPT_HASH_START_FINAL,
 905:D:/School/diseratie/SEMS/xmc4800_evaluation_kit/optiga-trust-m/optiga/crypt\optiga_crypt.c ****                                                  source_of_data_to_hash,
 906:D:/School/diseratie/SEMS/xmc4800_evaluation_kit/optiga-trust-m/optiga/crypt\optiga_crypt.c ****                                                  NULL,
 907:D:/School/diseratie/SEMS/xmc4800_evaluation_kit/optiga-trust-m/optiga/crypt\optiga_crypt.c ****                                                  0,
 908:D:/School/diseratie/SEMS/xmc4800_evaluation_kit/optiga-trust-m/optiga/crypt\optiga_crypt.c ****                                                  data_to_hash,
 909:D:/School/diseratie/SEMS/xmc4800_evaluation_kit/optiga-trust-m/optiga/crypt\optiga_crypt.c ****                                                  FALSE,
 910:D:/School/diseratie/SEMS/xmc4800_evaluation_kit/optiga-trust-m/optiga/crypt\optiga_crypt.c ****                                                  hash_output);
 911:D:/School/diseratie/SEMS/xmc4800_evaluation_kit/optiga-trust-m/optiga/crypt\optiga_crypt.c ****     } while (FALSE);
 912:D:/School/diseratie/SEMS/xmc4800_evaluation_kit/optiga-trust-m/optiga/crypt\optiga_crypt.c **** 
 913:D:/School/diseratie/SEMS/xmc4800_evaluation_kit/optiga-trust-m/optiga/crypt\optiga_crypt.c ****     return (return_value);
 914:D:/School/diseratie/SEMS/xmc4800_evaluation_kit/optiga-trust-m/optiga/crypt\optiga_crypt.c **** }
 977              	 .loc 1 914 0
 978 0030 BDE8F081 	 pop {r4,r5,r6,r7,r8,pc}
 979              	.LVL99:
 980              	.L83:
 981              	.LCFI19:
 982              	 .cfi_def_cfa_offset 0
 983              	 .cfi_restore 4
 984              	 .cfi_restore 5
 985              	 .cfi_restore 6
 986              	 .cfi_restore 7
 987              	 .cfi_restore 8
 988              	 .cfi_restore 14
 898:D:/School/diseratie/SEMS/xmc4800_evaluation_kit/optiga-trust-m/optiga/crypt\optiga_crypt.c ****             break;
 989              	 .loc 1 898 0
 990 0034 40F20340 	 movw r0,#1027
 991              	.LVL100:
 992              	 .loc 1 914 0
 993 0038 7047     	 bx lr
 994              	.LVL101:
 995              	.L92:
 996              	.LCFI20:
 997              	 .cfi_def_cfa_offset 24
 998              	 .cfi_offset 4,-24
 999              	 .cfi_offset 5,-20
 1000              	 .cfi_offset 6,-16
 1001              	 .cfi_offset 7,-12
 1002              	 .cfi_offset 8,-8
 1003              	 .cfi_offset 14,-4
 1004              	.LBB126:
 1005              	.LBB125:
 633:D:/School/diseratie/SEMS/xmc4800_evaluation_kit/optiga-trust-m/optiga/crypt\optiga_crypt.c ****         p_params = (optiga_calc_hash_params_t *)&(me->params.optiga_calc_hash_params);
 1006              	 .loc 1 633 0
 1007 003a 4FF00108 	 mov r8,#1
 1008 003e A0F82C80 	 strh r8,[r0,#44]
 1009              	.LVL102:
 635:D:/School/diseratie/SEMS/xmc4800_evaluation_kit/optiga-trust-m/optiga/crypt\optiga_crypt.c **** 
 1010              	 .loc 1 635 0
 1011 0042 0021     	 movs r1,#0
 1012              	.LVL103:
 1013 0044 2022     	 movs r2,#32
 1014              	.LVL104:
 1015 0046 FFF7FEFF 	 bl pal_os_memset
 1016              	.LVL105:
 637:D:/School/diseratie/SEMS/xmc4800_evaluation_kit/optiga-trust-m/optiga/crypt\optiga_crypt.c ****         OPTIGA_PROTECTION_SET_VERSION(me->my_cmd, me);
 1017              	 .loc 1 637 0
 1018 004a 286A     	 ldr r0,[r5,#32]
 1019 004c 95F82E10 	 ldrb r1,[r5,#46]
 1020 0050 0022     	 movs r2,#0
 1021 0052 FFF7FEFF 	 bl optiga_cmd_set_shielded_connection_option
 1022              	.LVL106:
 638:D:/School/diseratie/SEMS/xmc4800_evaluation_kit/optiga-trust-m/optiga/crypt\optiga_crypt.c ****         p_params->hash_sequence = hash_sequence;
 1023              	 .loc 1 638 0
 1024 0056 4246     	 mov r2,r8
 1025 0058 286A     	 ldr r0,[r5,#32]
 1026 005a 95F82F10 	 ldrb r1,[r5,#47]
 1027 005e FFF7FEFF 	 bl optiga_cmd_set_shielded_connection_option
 1028              	.LVL107:
 640:D:/School/diseratie/SEMS/xmc4800_evaluation_kit/optiga-trust-m/optiga/crypt\optiga_crypt.c ****         p_params->apparent_context_size = context_length;
 1029              	 .loc 1 640 0
 1030 0062 0023     	 movs r3,#0
 644:D:/School/diseratie/SEMS/xmc4800_evaluation_kit/optiga-trust-m/optiga/crypt\optiga_crypt.c ****         p_params->export_hash_ctx = export_intermediate_ctx;
 1031              	 .loc 1 644 0
 1032 0064 069A     	 ldr r2,[sp,#24]
 639:D:/School/diseratie/SEMS/xmc4800_evaluation_kit/optiga-trust-m/optiga/crypt\optiga_crypt.c ****         p_params->p_hash_context = hash_ctx;
 1033              	 .loc 1 639 0
 1034 0066 85F80C80 	 strb r8,[r5,#12]
 644:D:/School/diseratie/SEMS/xmc4800_evaluation_kit/optiga-trust-m/optiga/crypt\optiga_crypt.c ****         p_params->export_hash_ctx = export_intermediate_ctx;
 1035              	 .loc 1 644 0
 1036 006a 6A61     	 str r2,[r5,#20]
 640:D:/School/diseratie/SEMS/xmc4800_evaluation_kit/optiga-trust-m/optiga/crypt\optiga_crypt.c ****         p_params->apparent_context_size = context_length;
 1037              	 .loc 1 640 0
 1038 006c AB60     	 str r3,[r5,#8]
 641:D:/School/diseratie/SEMS/xmc4800_evaluation_kit/optiga-trust-m/optiga/crypt\optiga_crypt.c ****         p_params->p_hash_data = NULL;
 1039              	 .loc 1 641 0
 1040 006e EB61     	 str r3,[r5,#28]
 642:D:/School/diseratie/SEMS/xmc4800_evaluation_kit/optiga-trust-m/optiga/crypt\optiga_crypt.c ****         p_params->p_hash_oid = NULL;
 1041              	 .loc 1 642 0
 1042 0070 6B60     	 str r3,[r5,#4]
 643:D:/School/diseratie/SEMS/xmc4800_evaluation_kit/optiga-trust-m/optiga/crypt\optiga_crypt.c ****         p_params->p_out_digest = hash_output;
 1043              	 .loc 1 643 0
 1044 0072 2B60     	 str r3,[r5]
 645:D:/School/diseratie/SEMS/xmc4800_evaluation_kit/optiga-trust-m/optiga/crypt\optiga_crypt.c ****         
 1045              	 .loc 1 645 0
 1046 0074 2B76     	 strb r3,[r5,#24]
 649:D:/School/diseratie/SEMS/xmc4800_evaluation_kit/optiga-trust-m/optiga/crypt\optiga_crypt.c ****             {
 1047              	 .loc 1 649 0
 1048 0076 67B9     	 cbnz r7,.L93
 655:D:/School/diseratie/SEMS/xmc4800_evaluation_kit/optiga-trust-m/optiga/crypt\optiga_crypt.c ****                 p_params->p_hash_oid = (hash_data_in_optiga_t *)data_to_hash;
 1049              	 .loc 1 655 0
 1050 0078 1123     	 movs r3,#17
 656:D:/School/diseratie/SEMS/xmc4800_evaluation_kit/optiga-trust-m/optiga/crypt\optiga_crypt.c ****             }
 1051              	 .loc 1 656 0
 1052 007a 2C60     	 str r4,[r5]
 655:D:/School/diseratie/SEMS/xmc4800_evaluation_kit/optiga-trust-m/optiga/crypt\optiga_crypt.c ****                 p_params->p_hash_oid = (hash_data_in_optiga_t *)data_to_hash;
 1053              	 .loc 1 655 0
 1054 007c 2B73     	 strb r3,[r5,#12]
 1055              	.L82:
 660:D:/School/diseratie/SEMS/xmc4800_evaluation_kit/optiga-trust-m/optiga/crypt\optiga_crypt.c ****                                             hash_algorithm,
 1056              	 .loc 1 660 0
 1057 007e 3146     	 mov r1,r6
 1058 0080 286A     	 ldr r0,[r5,#32]
 1059 0082 2A46     	 mov r2,r5
 1060 0084 FFF7FEFF 	 bl optiga_cmd_calc_hash
 1061              	.LVL108:
 663:D:/School/diseratie/SEMS/xmc4800_evaluation_kit/optiga-trust-m/optiga/crypt\optiga_crypt.c ****         {
 1062              	 .loc 1 663 0
 1063 0088 0028     	 cmp r0,#0
 1064 008a CAD0     	 beq .L80
 665:D:/School/diseratie/SEMS/xmc4800_evaluation_kit/optiga-trust-m/optiga/crypt\optiga_crypt.c ****         }
 1065              	 .loc 1 665 0
 1066 008c 0023     	 movs r3,#0
 1067 008e AB85     	 strh r3,[r5,#44]
 1068 0090 C7E7     	 b .L80
 1069              	.LVL109:
 1070              	.L93:
 651:D:/School/diseratie/SEMS/xmc4800_evaluation_kit/optiga-trust-m/optiga/crypt\optiga_crypt.c ****             }
 1071              	 .loc 1 651 0
 1072 0092 6C60     	 str r4,[r5,#4]
 1073 0094 F3E7     	 b .L82
 1074              	.LBE125:
 1075              	.LBE126:
 1076              	 .cfi_endproc
 1077              	.LFE17:
 1079 0096 00BF     	 .section .text.optiga_crypt_ecc_generate_keypair,"ax",%progbits
 1080              	 .align 2
 1081              	 .global optiga_crypt_ecc_generate_keypair
 1082              	 .thumb
 1083              	 .thumb_func
 1085              	optiga_crypt_ecc_generate_keypair:
 1086              	.LFB18:
 915:D:/School/diseratie/SEMS/xmc4800_evaluation_kit/optiga-trust-m/optiga/crypt\optiga_crypt.c **** #endif //OPTIGA_CRYPT_HASH_ENABLED
 916:D:/School/diseratie/SEMS/xmc4800_evaluation_kit/optiga-trust-m/optiga/crypt\optiga_crypt.c **** 
 917:D:/School/diseratie/SEMS/xmc4800_evaluation_kit/optiga-trust-m/optiga/crypt\optiga_crypt.c **** #ifdef OPTIGA_CRYPT_ECC_GENERATE_KEYPAIR_ENABLED
 918:D:/School/diseratie/SEMS/xmc4800_evaluation_kit/optiga-trust-m/optiga/crypt\optiga_crypt.c **** optiga_lib_status_t optiga_crypt_ecc_generate_keypair(optiga_crypt_t * me,
 919:D:/School/diseratie/SEMS/xmc4800_evaluation_kit/optiga-trust-m/optiga/crypt\optiga_crypt.c ****                                                       optiga_ecc_curve_t curve_id,
 920:D:/School/diseratie/SEMS/xmc4800_evaluation_kit/optiga-trust-m/optiga/crypt\optiga_crypt.c ****                                                       uint8_t key_usage,
 921:D:/School/diseratie/SEMS/xmc4800_evaluation_kit/optiga-trust-m/optiga/crypt\optiga_crypt.c ****                                                       bool_t export_private_key,
 922:D:/School/diseratie/SEMS/xmc4800_evaluation_kit/optiga-trust-m/optiga/crypt\optiga_crypt.c ****                                                       void * private_key,
 923:D:/School/diseratie/SEMS/xmc4800_evaluation_kit/optiga-trust-m/optiga/crypt\optiga_crypt.c ****                                                       uint8_t * public_key,
 924:D:/School/diseratie/SEMS/xmc4800_evaluation_kit/optiga-trust-m/optiga/crypt\optiga_crypt.c ****                                                       uint16_t * public_key_length)
 925:D:/School/diseratie/SEMS/xmc4800_evaluation_kit/optiga-trust-m/optiga/crypt\optiga_crypt.c **** {
 1087              	 .loc 1 925 0
 1088              	 .cfi_startproc
 1089              	 
 1090              	 
 1091              	.LVL110:
 1092              	.LBB133:
 1093              	.LBB134:
 146:D:/School/diseratie/SEMS/xmc4800_evaluation_kit/optiga-trust-m/optiga/crypt\optiga_crypt.c ****             (NULL == p_public_key) || (NULL == p_private_key) || (NULL == p_public_key_length))
 1094              	 .loc 1 146 0
 1095 0000 E0B1     	 cbz r0,.L99
 1096              	.LBE134:
 1097              	.LBE133:
 1098              	 .loc 1 925 0
 1099 0002 F0B5     	 push {r4,r5,r6,r7,lr}
 1100              	.LCFI21:
 1101              	 .cfi_def_cfa_offset 20
 1102              	 .cfi_offset 4,-20
 1103              	 .cfi_offset 5,-16
 1104              	 .cfi_offset 6,-12
 1105              	 .cfi_offset 7,-8
 1106              	 .cfi_offset 14,-4
 1107 0004 1646     	 mov r6,r2
 1108              	.LVL111:
 1109              	.LBB146:
 1110              	.LBB141:
 146:D:/School/diseratie/SEMS/xmc4800_evaluation_kit/optiga-trust-m/optiga/crypt\optiga_crypt.c ****             (NULL == p_public_key) || (NULL == p_private_key) || (NULL == p_public_key_length))
 1111              	 .loc 1 146 0
 1112 0006 026A     	 ldr r2,[r0,#32]
 1113              	.LVL112:
 1114              	.LBE141:
 1115              	.LBE146:
 1116              	 .loc 1 925 0
 1117 0008 83B0     	 sub sp,sp,#12
 1118              	.LCFI22:
 1119              	 .cfi_def_cfa_offset 32
 1120 000a 0446     	 mov r4,r0
 1121              	.LBB147:
 1122              	.LBB142:
 146:D:/School/diseratie/SEMS/xmc4800_evaluation_kit/optiga-trust-m/optiga/crypt\optiga_crypt.c ****             (NULL == p_public_key) || (NULL == p_private_key) || (NULL == p_public_key_length))
 1123              	 .loc 1 146 0
 1124 000c 7AB1     	 cbz r2,.L103
 1125 000e 099A     	 ldr r2,[sp,#36]
 1126 0010 6AB1     	 cbz r2,.L103
 147:D:/School/diseratie/SEMS/xmc4800_evaluation_kit/optiga-trust-m/optiga/crypt\optiga_crypt.c ****         {
 1127              	 .loc 1 147 0
 1128 0012 089A     	 ldr r2,[sp,#32]
 1129 0014 5AB1     	 cbz r2,.L103
 1130 0016 0A9A     	 ldr r2,[sp,#40]
 1131 0018 4AB1     	 cbz r2,.L103
 153:D:/School/diseratie/SEMS/xmc4800_evaluation_kit/optiga-trust-m/optiga/crypt\optiga_crypt.c ****         {
 1132              	 .loc 1 153 0
 1133 001a 828D     	 ldrh r2,[r0,#44]
 1134 001c 012A     	 cmp r2,#1
 1135 001e 10D1     	 bne .L107
 155:D:/School/diseratie/SEMS/xmc4800_evaluation_kit/optiga-trust-m/optiga/crypt\optiga_crypt.c ****             break;
 1136              	 .loc 1 155 0
 1137 0020 40F20540 	 movw r0,#1029
 1138              	.LVL113:
 1139              	.LBB135:
 1140              	.LBB136:
 1141              	.LBB137:
 683:D:/School/diseratie/SEMS/xmc4800_evaluation_kit/optiga-trust-m/optiga/crypt\optiga_crypt.c ****             break;
 1142              	 .loc 1 683 0
 1143 0024 0023     	 movs r3,#0
 1144              	.LVL114:
 1145 0026 84F82E30 	 strb r3,[r4,#46]
 1146              	.LBE137:
 1147              	.LBE136:
 1148              	.LBE135:
 1149              	.LBE142:
 1150              	.LBE147:
 926:D:/School/diseratie/SEMS/xmc4800_evaluation_kit/optiga-trust-m/optiga/crypt\optiga_crypt.c ****     OPTIGA_CRYPT_LOG_MESSAGE(__FUNCTION__);
 927:D:/School/diseratie/SEMS/xmc4800_evaluation_kit/optiga-trust-m/optiga/crypt\optiga_crypt.c ****     return (optiga_crypt_generate_keypair(me,
 928:D:/School/diseratie/SEMS/xmc4800_evaluation_kit/optiga-trust-m/optiga/crypt\optiga_crypt.c ****                                          (uint8_t)curve_id,
 929:D:/School/diseratie/SEMS/xmc4800_evaluation_kit/optiga-trust-m/optiga/crypt\optiga_crypt.c ****                                          key_usage,
 930:D:/School/diseratie/SEMS/xmc4800_evaluation_kit/optiga-trust-m/optiga/crypt\optiga_crypt.c ****                                          export_private_key,
 931:D:/School/diseratie/SEMS/xmc4800_evaluation_kit/optiga-trust-m/optiga/crypt\optiga_crypt.c ****                                          private_key,
 932:D:/School/diseratie/SEMS/xmc4800_evaluation_kit/optiga-trust-m/optiga/crypt\optiga_crypt.c ****                                          public_key,
 933:D:/School/diseratie/SEMS/xmc4800_evaluation_kit/optiga-trust-m/optiga/crypt\optiga_crypt.c ****                                          public_key_length));
 934:D:/School/diseratie/SEMS/xmc4800_evaluation_kit/optiga-trust-m/optiga/crypt\optiga_crypt.c **** }
 1151              	 .loc 1 934 0
 1152 002a 03B0     	 add sp,sp,#12
 1153              	.LCFI23:
 1154              	 .cfi_remember_state
 1155              	 .cfi_def_cfa_offset 20
 1156              	 
 1157 002c F0BD     	 pop {r4,r5,r6,r7,pc}
 1158              	.LVL115:
 1159              	.L103:
 1160              	.LCFI24:
 1161              	 .cfi_restore_state
 1162              	.LBB148:
 1163              	.LBB143:
 149:D:/School/diseratie/SEMS/xmc4800_evaluation_kit/optiga-trust-m/optiga/crypt\optiga_crypt.c ****             break;
 1164              	 .loc 1 149 0
 1165 002e 40F20340 	 movw r0,#1027
 1166              	.LVL116:
 1167              	.L96:
 1168              	.LBB140:
 1169              	.LBB139:
 1170              	.LBB138:
 683:D:/School/diseratie/SEMS/xmc4800_evaluation_kit/optiga-trust-m/optiga/crypt\optiga_crypt.c ****             break;
 1171              	 .loc 1 683 0
 1172 0032 0023     	 movs r3,#0
 1173 0034 84F82E30 	 strb r3,[r4,#46]
 1174              	.LBE138:
 1175              	.LBE139:
 1176              	.LBE140:
 1177              	.LBE143:
 1178              	.LBE148:
 1179              	 .loc 1 934 0
 1180 0038 03B0     	 add sp,sp,#12
 1181              	.LCFI25:
 1182              	 .cfi_def_cfa_offset 20
 1183              	 
 1184 003a F0BD     	 pop {r4,r5,r6,r7,pc}
 1185              	.LVL117:
 1186              	.L99:
 1187              	.LCFI26:
 1188              	 .cfi_def_cfa_offset 0
 1189              	 .cfi_restore 4
 1190              	 .cfi_restore 5
 1191              	 .cfi_restore 6
 1192              	 .cfi_restore 7
 1193              	 .cfi_restore 14
 1194              	.LBB149:
 1195              	.LBB144:
 149:D:/School/diseratie/SEMS/xmc4800_evaluation_kit/optiga-trust-m/optiga/crypt\optiga_crypt.c ****             break;
 1196              	 .loc 1 149 0
 1197 003c 40F20340 	 movw r0,#1027
 1198              	.LVL118:
 1199              	.LBE144:
 1200              	.LBE149:
 1201              	 .loc 1 934 0
 1202 0040 7047     	 bx lr
 1203              	.LVL119:
 1204              	.L107:
 1205              	.LCFI27:
 1206              	 .cfi_def_cfa_offset 32
 1207              	 .cfi_offset 4,-20
 1208              	 .cfi_offset 5,-16
 1209              	 .cfi_offset 6,-12
 1210              	 .cfi_offset 7,-8
 1211              	 .cfi_offset 14,-4
 1212              	.LBB150:
 1213              	.LBB145:
 159:D:/School/diseratie/SEMS/xmc4800_evaluation_kit/optiga-trust-m/optiga/crypt\optiga_crypt.c ****         p_params = (optiga_gen_keypair_params_t *)&(me->params.optiga_gen_keypair_params);
 1214              	 .loc 1 159 0
 1215 0042 0127     	 movs r7,#1
 1216 0044 8785     	 strh r7,[r0,#44]
 1217              	.LVL120:
 161:D:/School/diseratie/SEMS/xmc4800_evaluation_kit/optiga-trust-m/optiga/crypt\optiga_crypt.c **** 
 1218              	 .loc 1 161 0
 1219 0046 2022     	 movs r2,#32
 1220 0048 0D46     	 mov r5,r1
 1221              	.LVL121:
 1222 004a 0021     	 movs r1,#0
 1223              	.LVL122:
 1224 004c 0193     	 str r3,[sp,#4]
 1225 004e FFF7FEFF 	 bl pal_os_memset
 1226              	.LVL123:
 164:D:/School/diseratie/SEMS/xmc4800_evaluation_kit/optiga-trust-m/optiga/crypt\optiga_crypt.c ****         p_params->public_key_length = p_public_key_length;
 1227              	 .loc 1 164 0
 1228 0052 019B     	 ldr r3,[sp,#4]
 1229 0054 6370     	 strb r3,[r4,#1]
 165:D:/School/diseratie/SEMS/xmc4800_evaluation_kit/optiga-trust-m/optiga/crypt\optiga_crypt.c ****         OPTIGA_PROTECTION_ENABLE(me->my_cmd, me);
 1230              	 .loc 1 165 0
 1231 0056 0A9B     	 ldr r3,[sp,#40]
 1232 0058 2361     	 str r3,[r4,#16]
 166:D:/School/diseratie/SEMS/xmc4800_evaluation_kit/optiga-trust-m/optiga/crypt\optiga_crypt.c ****         OPTIGA_PROTECTION_SET_VERSION(me->my_cmd, me);
 1233              	 .loc 1 166 0
 1234 005a 206A     	 ldr r0,[r4,#32]
 1235 005c 94F82E10 	 ldrb r1,[r4,#46]
 163:D:/School/diseratie/SEMS/xmc4800_evaluation_kit/optiga-trust-m/optiga/crypt\optiga_crypt.c ****         p_params->export_private_key = export_private_key;
 1236              	 .loc 1 163 0
 1237 0060 2670     	 strb r6,[r4]
 166:D:/School/diseratie/SEMS/xmc4800_evaluation_kit/optiga-trust-m/optiga/crypt\optiga_crypt.c ****         OPTIGA_PROTECTION_SET_VERSION(me->my_cmd, me);
 1238              	 .loc 1 166 0
 1239 0062 0022     	 movs r2,#0
 1240 0064 FFF7FEFF 	 bl optiga_cmd_set_shielded_connection_option
 1241              	.LVL124:
 167:D:/School/diseratie/SEMS/xmc4800_evaluation_kit/optiga-trust-m/optiga/crypt\optiga_crypt.c **** 
 1242              	 .loc 1 167 0
 1243 0068 3A46     	 mov r2,r7
 1244 006a 206A     	 ldr r0,[r4,#32]
 1245 006c 94F82F10 	 ldrb r1,[r4,#47]
 1246 0070 FFF7FEFF 	 bl optiga_cmd_set_shielded_connection_option
 1247              	.LVL125:
 169:D:/School/diseratie/SEMS/xmc4800_evaluation_kit/optiga-trust-m/optiga/crypt\optiga_crypt.c ****         {
 1248              	 .loc 1 169 0
 1249 0074 019B     	 ldr r3,[sp,#4]
 1250 0076 63B9     	 cbnz r3,.L108
 175:D:/School/diseratie/SEMS/xmc4800_evaluation_kit/optiga-trust-m/optiga/crypt\optiga_crypt.c ****         }
 1251              	 .loc 1 175 0
 1252 0078 089B     	 ldr r3,[sp,#32]
 1253 007a 1B88     	 ldrh r3,[r3]
 1254 007c 6380     	 strh r3,[r4,#2]
 1255              	.L98:
 178:D:/School/diseratie/SEMS/xmc4800_evaluation_kit/optiga-trust-m/optiga/crypt\optiga_crypt.c ****         p_params->public_key_length = p_public_key_length;
 1256              	 .loc 1 178 0
 1257 007e 099B     	 ldr r3,[sp,#36]
 1258 0080 E360     	 str r3,[r4,#12]
 179:D:/School/diseratie/SEMS/xmc4800_evaluation_kit/optiga-trust-m/optiga/crypt\optiga_crypt.c **** 
 1259              	 .loc 1 179 0
 1260 0082 0A9B     	 ldr r3,[sp,#40]
 1261 0084 2361     	 str r3,[r4,#16]
 181:D:/School/diseratie/SEMS/xmc4800_evaluation_kit/optiga-trust-m/optiga/crypt\optiga_crypt.c ****                                               (uint8_t )cmd_param,
 1262              	 .loc 1 181 0
 1263 0086 2946     	 mov r1,r5
 1264 0088 206A     	 ldr r0,[r4,#32]
 1265 008a 2246     	 mov r2,r4
 1266 008c FFF7FEFF 	 bl optiga_cmd_gen_keypair
 1267              	.LVL126:
 1268 0090 CFE7     	 b .L96
 1269              	.LVL127:
 1270              	.L108:
 171:D:/School/diseratie/SEMS/xmc4800_evaluation_kit/optiga-trust-m/optiga/crypt\optiga_crypt.c ****         }
 1271              	 .loc 1 171 0
 1272 0092 089B     	 ldr r3,[sp,#32]
 1273 0094 6360     	 str r3,[r4,#4]
 1274 0096 F2E7     	 b .L98
 1275              	.LBE145:
 1276              	.LBE150:
 1277              	 .cfi_endproc
 1278              	.LFE18:
 1280              	 .section .text.optiga_crypt_ecdsa_sign,"ax",%progbits
 1281              	 .align 2
 1282              	 .global optiga_crypt_ecdsa_sign
 1283              	 .thumb
 1284              	 .thumb_func
 1286              	optiga_crypt_ecdsa_sign:
 1287              	.LFB19:
 935:D:/School/diseratie/SEMS/xmc4800_evaluation_kit/optiga-trust-m/optiga/crypt\optiga_crypt.c **** #endif //OPTIGA_CRYPT_ECC_GENERATE_KEYPAIR_ENABLED
 936:D:/School/diseratie/SEMS/xmc4800_evaluation_kit/optiga-trust-m/optiga/crypt\optiga_crypt.c **** 
 937:D:/School/diseratie/SEMS/xmc4800_evaluation_kit/optiga-trust-m/optiga/crypt\optiga_crypt.c **** #ifdef OPTIGA_CRYPT_ECDSA_SIGN_ENABLED
 938:D:/School/diseratie/SEMS/xmc4800_evaluation_kit/optiga-trust-m/optiga/crypt\optiga_crypt.c **** optiga_lib_status_t optiga_crypt_ecdsa_sign(optiga_crypt_t * me,
 939:D:/School/diseratie/SEMS/xmc4800_evaluation_kit/optiga-trust-m/optiga/crypt\optiga_crypt.c ****                                             const uint8_t * digest,
 940:D:/School/diseratie/SEMS/xmc4800_evaluation_kit/optiga-trust-m/optiga/crypt\optiga_crypt.c ****                                             uint8_t digest_length,
 941:D:/School/diseratie/SEMS/xmc4800_evaluation_kit/optiga-trust-m/optiga/crypt\optiga_crypt.c ****                                             optiga_key_id_t private_key,
 942:D:/School/diseratie/SEMS/xmc4800_evaluation_kit/optiga-trust-m/optiga/crypt\optiga_crypt.c ****                                             uint8_t * signature,
 943:D:/School/diseratie/SEMS/xmc4800_evaluation_kit/optiga-trust-m/optiga/crypt\optiga_crypt.c ****                                             uint16_t * signature_length)
 944:D:/School/diseratie/SEMS/xmc4800_evaluation_kit/optiga-trust-m/optiga/crypt\optiga_crypt.c **** {
 1288              	 .loc 1 944 0
 1289              	 .cfi_startproc
 1290              	 
 1291              	 
 1292              	.LVL128:
 1293              	.LBB157:
 1294              	.LBB158:
 208:D:/School/diseratie/SEMS/xmc4800_evaluation_kit/optiga-trust-m/optiga/crypt\optiga_crypt.c ****             (NULL == p_signature) || (NULL == p_signature_length))
 1295              	 .loc 1 208 0
 1296 0000 E0B1     	 cbz r0,.L112
 1297              	.LBE158:
 1298              	.LBE157:
 1299              	 .loc 1 944 0
 1300 0002 F0B5     	 push {r4,r5,r6,r7,lr}
 1301              	.LCFI28:
 1302              	 .cfi_def_cfa_offset 20
 1303              	 .cfi_offset 4,-20
 1304              	 .cfi_offset 5,-16
 1305              	 .cfi_offset 6,-12
 1306              	 .cfi_offset 7,-8
 1307              	 .cfi_offset 14,-4
 1308 0004 1646     	 mov r6,r2
 1309              	.LVL129:
 1310              	.LBB170:
 1311              	.LBB165:
 208:D:/School/diseratie/SEMS/xmc4800_evaluation_kit/optiga-trust-m/optiga/crypt\optiga_crypt.c ****             (NULL == p_signature) || (NULL == p_signature_length))
 1312              	 .loc 1 208 0
 1313 0006 026A     	 ldr r2,[r0,#32]
 1314              	.LVL130:
 1315              	.LBE165:
 1316              	.LBE170:
 1317              	 .loc 1 944 0
 1318 0008 83B0     	 sub sp,sp,#12
 1319              	.LCFI29:
 1320              	 .cfi_def_cfa_offset 32
 1321 000a 0446     	 mov r4,r0
 1322              	.LBB171:
 1323              	.LBB166:
 208:D:/School/diseratie/SEMS/xmc4800_evaluation_kit/optiga-trust-m/optiga/crypt\optiga_crypt.c ****             (NULL == p_signature) || (NULL == p_signature_length))
 1324              	 .loc 1 208 0
 1325 000c 7AB1     	 cbz r2,.L116
 1326 000e 0D46     	 mov r5,r1
 1327              	.LVL131:
 1328 0010 69B1     	 cbz r1,.L116
 1329 0012 089A     	 ldr r2,[sp,#32]
 1330 0014 5AB1     	 cbz r2,.L116
 209:D:/School/diseratie/SEMS/xmc4800_evaluation_kit/optiga-trust-m/optiga/crypt\optiga_crypt.c ****         {
 1331              	 .loc 1 209 0
 1332 0016 099A     	 ldr r2,[sp,#36]
 1333 0018 4AB1     	 cbz r2,.L116
 216:D:/School/diseratie/SEMS/xmc4800_evaluation_kit/optiga-trust-m/optiga/crypt\optiga_crypt.c ****         {
 1334              	 .loc 1 216 0
 1335 001a 828D     	 ldrh r2,[r0,#44]
 1336 001c 012A     	 cmp r2,#1
 1337 001e 10D1     	 bne .L123
 218:D:/School/diseratie/SEMS/xmc4800_evaluation_kit/optiga-trust-m/optiga/crypt\optiga_crypt.c ****             break;
 1338              	 .loc 1 218 0
 1339 0020 40F20540 	 movw r0,#1029
 1340              	.LVL132:
 1341              	.LBB159:
 1342              	.LBB160:
 1343              	.LBB161:
 683:D:/School/diseratie/SEMS/xmc4800_evaluation_kit/optiga-trust-m/optiga/crypt\optiga_crypt.c ****             break;
 1344              	 .loc 1 683 0
 1345 0024 0023     	 movs r3,#0
 1346              	.LVL133:
 1347 0026 84F82E30 	 strb r3,[r4,#46]
 1348              	.LBE161:
 1349              	.LBE160:
 1350              	.LBE159:
 1351              	.LBE166:
 1352              	.LBE171:
 945:D:/School/diseratie/SEMS/xmc4800_evaluation_kit/optiga-trust-m/optiga/crypt\optiga_crypt.c ****     OPTIGA_CRYPT_LOG_MESSAGE(__FUNCTION__);
 946:D:/School/diseratie/SEMS/xmc4800_evaluation_kit/optiga-trust-m/optiga/crypt\optiga_crypt.c ****     return (optiga_crypt_sign(me,
 947:D:/School/diseratie/SEMS/xmc4800_evaluation_kit/optiga-trust-m/optiga/crypt\optiga_crypt.c ****                               OPTIGA_CRYPT_ECDSA_FIPS_186_3_WITHOUT_HASH,
 948:D:/School/diseratie/SEMS/xmc4800_evaluation_kit/optiga-trust-m/optiga/crypt\optiga_crypt.c ****                               digest,
 949:D:/School/diseratie/SEMS/xmc4800_evaluation_kit/optiga-trust-m/optiga/crypt\optiga_crypt.c ****                               digest_length,
 950:D:/School/diseratie/SEMS/xmc4800_evaluation_kit/optiga-trust-m/optiga/crypt\optiga_crypt.c ****                               private_key,
 951:D:/School/diseratie/SEMS/xmc4800_evaluation_kit/optiga-trust-m/optiga/crypt\optiga_crypt.c ****                               signature,
 952:D:/School/diseratie/SEMS/xmc4800_evaluation_kit/optiga-trust-m/optiga/crypt\optiga_crypt.c ****                               signature_length,
 953:D:/School/diseratie/SEMS/xmc4800_evaluation_kit/optiga-trust-m/optiga/crypt\optiga_crypt.c ****                               0x0000));
 954:D:/School/diseratie/SEMS/xmc4800_evaluation_kit/optiga-trust-m/optiga/crypt\optiga_crypt.c **** }
 1353              	 .loc 1 954 0
 1354 002a 03B0     	 add sp,sp,#12
 1355              	.LCFI30:
 1356              	 .cfi_remember_state
 1357              	 .cfi_def_cfa_offset 20
 1358              	 
 1359 002c F0BD     	 pop {r4,r5,r6,r7,pc}
 1360              	.LVL134:
 1361              	.L116:
 1362              	.LCFI31:
 1363              	 .cfi_restore_state
 1364              	.LBB172:
 1365              	.LBB167:
 211:D:/School/diseratie/SEMS/xmc4800_evaluation_kit/optiga-trust-m/optiga/crypt\optiga_crypt.c ****             break;
 1366              	 .loc 1 211 0
 1367 002e 40F20340 	 movw r0,#1027
 1368              	.LVL135:
 1369              	.L111:
 1370              	.LBB164:
 1371              	.LBB163:
 1372              	.LBB162:
 683:D:/School/diseratie/SEMS/xmc4800_evaluation_kit/optiga-trust-m/optiga/crypt\optiga_crypt.c ****             break;
 1373              	 .loc 1 683 0
 1374 0032 0023     	 movs r3,#0
 1375 0034 84F82E30 	 strb r3,[r4,#46]
 1376              	.LBE162:
 1377              	.LBE163:
 1378              	.LBE164:
 1379              	.LBE167:
 1380              	.LBE172:
 1381              	 .loc 1 954 0
 1382 0038 03B0     	 add sp,sp,#12
 1383              	.LCFI32:
 1384              	 .cfi_def_cfa_offset 20
 1385              	 
 1386 003a F0BD     	 pop {r4,r5,r6,r7,pc}
 1387              	.LVL136:
 1388              	.L112:
 1389              	.LCFI33:
 1390              	 .cfi_def_cfa_offset 0
 1391              	 .cfi_restore 4
 1392              	 .cfi_restore 5
 1393              	 .cfi_restore 6
 1394              	 .cfi_restore 7
 1395              	 .cfi_restore 14
 1396              	.LBB173:
 1397              	.LBB168:
 211:D:/School/diseratie/SEMS/xmc4800_evaluation_kit/optiga-trust-m/optiga/crypt\optiga_crypt.c ****             break;
 1398              	 .loc 1 211 0
 1399 003c 40F20340 	 movw r0,#1027
 1400              	.LVL137:
 1401              	.LBE168:
 1402              	.LBE173:
 1403              	 .loc 1 954 0
 1404 0040 7047     	 bx lr
 1405              	.LVL138:
 1406              	.L123:
 1407              	.LCFI34:
 1408              	 .cfi_def_cfa_offset 32
 1409              	 .cfi_offset 4,-20
 1410              	 .cfi_offset 5,-16
 1411              	 .cfi_offset 6,-12
 1412              	 .cfi_offset 7,-8
 1413              	 .cfi_offset 14,-4
 1414              	.LBB174:
 1415              	.LBB169:
 222:D:/School/diseratie/SEMS/xmc4800_evaluation_kit/optiga-trust-m/optiga/crypt\optiga_crypt.c **** 
 1416              	 .loc 1 222 0
 1417 0042 0127     	 movs r7,#1
 1418 0044 8785     	 strh r7,[r0,#44]
 1419              	.LVL139:
 225:D:/School/diseratie/SEMS/xmc4800_evaluation_kit/optiga-trust-m/optiga/crypt\optiga_crypt.c **** 
 1420              	 .loc 1 225 0
 1421 0046 0021     	 movs r1,#0
 1422              	.LVL140:
 1423 0048 2022     	 movs r2,#32
 1424 004a 0193     	 str r3,[sp,#4]
 1425 004c FFF7FEFF 	 bl pal_os_memset
 1426              	.LVL141:
 229:D:/School/diseratie/SEMS/xmc4800_evaluation_kit/optiga-trust-m/optiga/crypt\optiga_crypt.c ****         p_params->p_signature = p_signature;
 1427              	 .loc 1 229 0
 1428 0050 019B     	 ldr r3,[sp,#4]
 1429 0052 A381     	 strh r3,[r4,#12]
 230:D:/School/diseratie/SEMS/xmc4800_evaluation_kit/optiga-trust-m/optiga/crypt\optiga_crypt.c ****         p_params->p_signature_length = p_signature_length;
 1430              	 .loc 1 230 0
 1431 0054 089B     	 ldr r3,[sp,#32]
 1432 0056 6360     	 str r3,[r4,#4]
 231:D:/School/diseratie/SEMS/xmc4800_evaluation_kit/optiga-trust-m/optiga/crypt\optiga_crypt.c ****         OPTIGA_PROTECTION_ENABLE(me->my_cmd, me);
 1433              	 .loc 1 231 0
 1434 0058 099B     	 ldr r3,[sp,#36]
 1435 005a A360     	 str r3,[r4,#8]
 232:D:/School/diseratie/SEMS/xmc4800_evaluation_kit/optiga-trust-m/optiga/crypt\optiga_crypt.c ****         OPTIGA_PROTECTION_SET_VERSION(me->my_cmd, me);
 1436              	 .loc 1 232 0
 1437 005c 206A     	 ldr r0,[r4,#32]
 1438 005e 94F82E10 	 ldrb r1,[r4,#46]
 227:D:/School/diseratie/SEMS/xmc4800_evaluation_kit/optiga-trust-m/optiga/crypt\optiga_crypt.c ****         p_params->digest_length = digest_length;
 1439              	 .loc 1 227 0
 1440 0062 2560     	 str r5,[r4]
 232:D:/School/diseratie/SEMS/xmc4800_evaluation_kit/optiga-trust-m/optiga/crypt\optiga_crypt.c ****         OPTIGA_PROTECTION_SET_VERSION(me->my_cmd, me);
 1441              	 .loc 1 232 0
 1442 0064 0022     	 movs r2,#0
 228:D:/School/diseratie/SEMS/xmc4800_evaluation_kit/optiga-trust-m/optiga/crypt\optiga_crypt.c ****         p_params->private_key_oid = private_key;
 1443              	 .loc 1 228 0
 1444 0066 A673     	 strb r6,[r4,#14]
 232:D:/School/diseratie/SEMS/xmc4800_evaluation_kit/optiga-trust-m/optiga/crypt\optiga_crypt.c ****         OPTIGA_PROTECTION_SET_VERSION(me->my_cmd, me);
 1445              	 .loc 1 232 0
 1446 0068 FFF7FEFF 	 bl optiga_cmd_set_shielded_connection_option
 1447              	.LVL142:
 233:D:/School/diseratie/SEMS/xmc4800_evaluation_kit/optiga-trust-m/optiga/crypt\optiga_crypt.c **** 
 1448              	 .loc 1 233 0
 1449 006c 3A46     	 mov r2,r7
 1450 006e 206A     	 ldr r0,[r4,#32]
 1451 0070 94F82F10 	 ldrb r1,[r4,#47]
 1452 0074 FFF7FEFF 	 bl optiga_cmd_set_shielded_connection_option
 1453              	.LVL143:
 235:D:/School/diseratie/SEMS/xmc4800_evaluation_kit/optiga-trust-m/optiga/crypt\optiga_crypt.c ****                                             signature_scheme,
 1454              	 .loc 1 235 0
 1455 0078 206A     	 ldr r0,[r4,#32]
 1456 007a 1121     	 movs r1,#17
 1457 007c 2246     	 mov r2,r4
 1458 007e FFF7FEFF 	 bl optiga_cmd_calc_sign
 1459              	.LVL144:
 238:D:/School/diseratie/SEMS/xmc4800_evaluation_kit/optiga-trust-m/optiga/crypt\optiga_crypt.c ****         {
 1460              	 .loc 1 238 0
 1461 0082 0028     	 cmp r0,#0
 1462 0084 D5D0     	 beq .L111
 240:D:/School/diseratie/SEMS/xmc4800_evaluation_kit/optiga-trust-m/optiga/crypt\optiga_crypt.c ****         }
 1463              	 .loc 1 240 0
 1464 0086 0023     	 movs r3,#0
 1465 0088 A385     	 strh r3,[r4,#44]
 1466 008a D2E7     	 b .L111
 1467              	.LBE169:
 1468              	.LBE174:
 1469              	 .cfi_endproc
 1470              	.LFE19:
 1472              	 .section .text.optiga_crypt_ecdsa_verify,"ax",%progbits
 1473              	 .align 2
 1474              	 .global optiga_crypt_ecdsa_verify
 1475              	 .thumb
 1476              	 .thumb_func
 1478              	optiga_crypt_ecdsa_verify:
 1479              	.LFB20:
 955:D:/School/diseratie/SEMS/xmc4800_evaluation_kit/optiga-trust-m/optiga/crypt\optiga_crypt.c **** #endif //OPTIGA_CRYPT_ECDSA_SIGN_ENABLED
 956:D:/School/diseratie/SEMS/xmc4800_evaluation_kit/optiga-trust-m/optiga/crypt\optiga_crypt.c **** 
 957:D:/School/diseratie/SEMS/xmc4800_evaluation_kit/optiga-trust-m/optiga/crypt\optiga_crypt.c **** #ifdef OPTIGA_CRYPT_ECDSA_VERIFY_ENABLED
 958:D:/School/diseratie/SEMS/xmc4800_evaluation_kit/optiga-trust-m/optiga/crypt\optiga_crypt.c **** optiga_lib_status_t optiga_crypt_ecdsa_verify(optiga_crypt_t * me,
 959:D:/School/diseratie/SEMS/xmc4800_evaluation_kit/optiga-trust-m/optiga/crypt\optiga_crypt.c ****                                               const uint8_t * digest,
 960:D:/School/diseratie/SEMS/xmc4800_evaluation_kit/optiga-trust-m/optiga/crypt\optiga_crypt.c ****                                               uint8_t digest_length,
 961:D:/School/diseratie/SEMS/xmc4800_evaluation_kit/optiga-trust-m/optiga/crypt\optiga_crypt.c ****                                               const uint8_t * signature,
 962:D:/School/diseratie/SEMS/xmc4800_evaluation_kit/optiga-trust-m/optiga/crypt\optiga_crypt.c ****                                               uint16_t signature_length,
 963:D:/School/diseratie/SEMS/xmc4800_evaluation_kit/optiga-trust-m/optiga/crypt\optiga_crypt.c ****                                               uint8_t public_key_source_type,
 964:D:/School/diseratie/SEMS/xmc4800_evaluation_kit/optiga-trust-m/optiga/crypt\optiga_crypt.c ****                                               const void * public_key)
 965:D:/School/diseratie/SEMS/xmc4800_evaluation_kit/optiga-trust-m/optiga/crypt\optiga_crypt.c **** {
 1480              	 .loc 1 965 0
 1481              	 .cfi_startproc
 1482              	 
 1483              	 
 1484              	.LVL145:
 1485 0000 2DE9F043 	 push {r4,r5,r6,r7,r8,r9,lr}
 1486              	.LCFI35:
 1487              	 .cfi_def_cfa_offset 28
 1488              	 .cfi_offset 4,-28
 1489              	 .cfi_offset 5,-24
 1490              	 .cfi_offset 6,-20
 1491              	 .cfi_offset 7,-16
 1492              	 .cfi_offset 8,-12
 1493              	 .cfi_offset 9,-8
 1494              	 .cfi_offset 14,-4
 1495 0004 83B0     	 sub sp,sp,#12
 1496              	.LCFI36:
 1497              	 .cfi_def_cfa_offset 40
 1498              	 .loc 1 965 0
 1499 0006 BDF82870 	 ldrh r7,[sp,#40]
 1500              	.LVL146:
 1501 000a 9DF82C60 	 ldrb r6,[sp,#44]
 1502              	.LVL147:
 1503              	.LBB181:
 1504              	.LBB182:
 267:D:/School/diseratie/SEMS/xmc4800_evaluation_kit/optiga-trust-m/optiga/crypt\optiga_crypt.c ****             (NULL == p_digest) || (NULL == p_signature) || (NULL == p_public_key))
 1505              	 .loc 1 267 0
 1506 000e B0B1     	 cbz r0,.L129
 1507 0010 9046     	 mov r8,r2
 1508              	.LVL148:
 1509 0012 026A     	 ldr r2,[r0,#32]
 1510              	.LVL149:
 1511 0014 0446     	 mov r4,r0
 1512 0016 52B1     	 cbz r2,.L133
 1513 0018 0D46     	 mov r5,r1
 1514              	.LVL150:
 1515 001a 41B1     	 cbz r1,.L133
 268:D:/School/diseratie/SEMS/xmc4800_evaluation_kit/optiga-trust-m/optiga/crypt\optiga_crypt.c ****         {
 1516              	 .loc 1 268 0
 1517 001c 3BB1     	 cbz r3,.L133
 1518 001e 0C9A     	 ldr r2,[sp,#48]
 1519 0020 2AB1     	 cbz r2,.L133
 275:D:/School/diseratie/SEMS/xmc4800_evaluation_kit/optiga-trust-m/optiga/crypt\optiga_crypt.c ****         {
 1520              	 .loc 1 275 0
 1521 0022 828D     	 ldrh r2,[r0,#44]
 1522 0024 012A     	 cmp r2,#1
 1523 0026 0FD1     	 bne .L140
 277:D:/School/diseratie/SEMS/xmc4800_evaluation_kit/optiga-trust-m/optiga/crypt\optiga_crypt.c ****             break;
 1524              	 .loc 1 277 0
 1525 0028 40F20540 	 movw r0,#1029
 1526              	.LVL151:
 1527 002c 01E0     	 b .L126
 1528              	.LVL152:
 1529              	.L133:
 270:D:/School/diseratie/SEMS/xmc4800_evaluation_kit/optiga-trust-m/optiga/crypt\optiga_crypt.c ****             break;
 1530              	 .loc 1 270 0
 1531 002e 40F20340 	 movw r0,#1027
 1532              	.LVL153:
 1533              	.L126:
 1534              	.LBB183:
 1535              	.LBB184:
 1536              	.LBB185:
 683:D:/School/diseratie/SEMS/xmc4800_evaluation_kit/optiga-trust-m/optiga/crypt\optiga_crypt.c ****             break;
 1537              	 .loc 1 683 0
 1538 0032 0023     	 movs r3,#0
 1539 0034 84F82E30 	 strb r3,[r4,#46]
 1540              	.LBE185:
 1541              	.LBE184:
 1542              	.LBE183:
 1543              	.LBE182:
 1544              	.LBE181:
 966:D:/School/diseratie/SEMS/xmc4800_evaluation_kit/optiga-trust-m/optiga/crypt\optiga_crypt.c ****     OPTIGA_CRYPT_LOG_MESSAGE(__FUNCTION__);
 967:D:/School/diseratie/SEMS/xmc4800_evaluation_kit/optiga-trust-m/optiga/crypt\optiga_crypt.c ****     return (optiga_crypt_verify(me,
 968:D:/School/diseratie/SEMS/xmc4800_evaluation_kit/optiga-trust-m/optiga/crypt\optiga_crypt.c ****                                 OPTIGA_CRYPT_ECDSA_FIPS_186_3_WITHOUT_HASH,
 969:D:/School/diseratie/SEMS/xmc4800_evaluation_kit/optiga-trust-m/optiga/crypt\optiga_crypt.c ****                                 digest,
 970:D:/School/diseratie/SEMS/xmc4800_evaluation_kit/optiga-trust-m/optiga/crypt\optiga_crypt.c ****                                 digest_length,
 971:D:/School/diseratie/SEMS/xmc4800_evaluation_kit/optiga-trust-m/optiga/crypt\optiga_crypt.c ****                                 signature,
 972:D:/School/diseratie/SEMS/xmc4800_evaluation_kit/optiga-trust-m/optiga/crypt\optiga_crypt.c ****                                 signature_length,
 973:D:/School/diseratie/SEMS/xmc4800_evaluation_kit/optiga-trust-m/optiga/crypt\optiga_crypt.c ****                                 public_key_source_type,
 974:D:/School/diseratie/SEMS/xmc4800_evaluation_kit/optiga-trust-m/optiga/crypt\optiga_crypt.c ****                                 public_key,
 975:D:/School/diseratie/SEMS/xmc4800_evaluation_kit/optiga-trust-m/optiga/crypt\optiga_crypt.c ****                                 0x0000));
 976:D:/School/diseratie/SEMS/xmc4800_evaluation_kit/optiga-trust-m/optiga/crypt\optiga_crypt.c **** }
 1545              	 .loc 1 976 0
 1546 0038 03B0     	 add sp,sp,#12
 1547              	.LCFI37:
 1548              	 .cfi_remember_state
 1549              	 .cfi_def_cfa_offset 28
 1550              	 
 1551 003a BDE8F083 	 pop {r4,r5,r6,r7,r8,r9,pc}
 1552              	.LVL154:
 1553              	.L129:
 1554              	.LCFI38:
 1555              	 .cfi_restore_state
 1556              	.LBB188:
 1557              	.LBB186:
 270:D:/School/diseratie/SEMS/xmc4800_evaluation_kit/optiga-trust-m/optiga/crypt\optiga_crypt.c ****             break;
 1558              	 .loc 1 270 0
 1559 003e 40F20340 	 movw r0,#1027
 1560              	.LVL155:
 1561              	.LBE186:
 1562              	.LBE188:
 1563              	 .loc 1 976 0
 1564 0042 03B0     	 add sp,sp,#12
 1565              	.LCFI39:
 1566              	 .cfi_remember_state
 1567              	 .cfi_def_cfa_offset 28
 1568              	 
 1569 0044 BDE8F083 	 pop {r4,r5,r6,r7,r8,r9,pc}
 1570              	.LVL156:
 1571              	.L140:
 1572              	.LCFI40:
 1573              	 .cfi_restore_state
 1574              	.LBB189:
 1575              	.LBB187:
 281:D:/School/diseratie/SEMS/xmc4800_evaluation_kit/optiga-trust-m/optiga/crypt\optiga_crypt.c ****         p_params = (optiga_verify_sign_params_t *)&(me->params.optiga_verify_sign_params);
 1576              	 .loc 1 281 0
 1577 0048 4FF00109 	 mov r9,#1
 1578 004c A0F82C90 	 strh r9,[r0,#44]
 1579              	.LVL157:
 283:D:/School/diseratie/SEMS/xmc4800_evaluation_kit/optiga-trust-m/optiga/crypt\optiga_crypt.c **** 
 1580              	 .loc 1 283 0
 1581 0050 0021     	 movs r1,#0
 1582              	.LVL158:
 1583 0052 2022     	 movs r2,#32
 1584 0054 0193     	 str r3,[sp,#4]
 1585 0056 FFF7FEFF 	 bl pal_os_memset
 1586              	.LVL159:
 285:D:/School/diseratie/SEMS/xmc4800_evaluation_kit/optiga-trust-m/optiga/crypt\optiga_crypt.c ****         OPTIGA_PROTECTION_SET_VERSION(me->my_cmd, me);
 1587              	 .loc 1 285 0
 1588 005a 206A     	 ldr r0,[r4,#32]
 1589 005c 94F82E10 	 ldrb r1,[r4,#46]
 1590 0060 0022     	 movs r2,#0
 1591 0062 FFF7FEFF 	 bl optiga_cmd_set_shielded_connection_option
 1592              	.LVL160:
 286:D:/School/diseratie/SEMS/xmc4800_evaluation_kit/optiga-trust-m/optiga/crypt\optiga_crypt.c ****         p_params->p_digest = p_digest;
 1593              	 .loc 1 286 0
 1594 0066 4A46     	 mov r2,r9
 1595 0068 206A     	 ldr r0,[r4,#32]
 1596 006a 94F82F10 	 ldrb r1,[r4,#47]
 1597 006e FFF7FEFF 	 bl optiga_cmd_set_shielded_connection_option
 1598              	.LVL161:
 289:D:/School/diseratie/SEMS/xmc4800_evaluation_kit/optiga-trust-m/optiga/crypt\optiga_crypt.c ****         p_params->signature_length = signature_length;
 1599              	 .loc 1 289 0
 1600 0072 019B     	 ldr r3,[sp,#4]
 1601 0074 A360     	 str r3,[r4,#8]
 287:D:/School/diseratie/SEMS/xmc4800_evaluation_kit/optiga-trust-m/optiga/crypt\optiga_crypt.c ****         p_params->digest_length = digest_length;
 1602              	 .loc 1 287 0
 1603 0076 2560     	 str r5,[r4]
 288:D:/School/diseratie/SEMS/xmc4800_evaluation_kit/optiga-trust-m/optiga/crypt\optiga_crypt.c ****         p_params->p_signature = p_signature;
 1604              	 .loc 1 288 0
 1605 0078 84F80480 	 strb r8,[r4,#4]
 290:D:/School/diseratie/SEMS/xmc4800_evaluation_kit/optiga-trust-m/optiga/crypt\optiga_crypt.c ****         p_params->public_key_source_type = public_key_source_type;
 1606              	 .loc 1 290 0
 1607 007c A781     	 strh r7,[r4,#12]
 291:D:/School/diseratie/SEMS/xmc4800_evaluation_kit/optiga-trust-m/optiga/crypt\optiga_crypt.c **** 
 1608              	 .loc 1 291 0
 1609 007e A673     	 strb r6,[r4,#14]
 295:D:/School/diseratie/SEMS/xmc4800_evaluation_kit/optiga-trust-m/optiga/crypt\optiga_crypt.c ****         }
 1610              	 .loc 1 295 0
 1611 0080 0C9B     	 ldr r3,[sp,#48]
 293:D:/School/diseratie/SEMS/xmc4800_evaluation_kit/optiga-trust-m/optiga/crypt\optiga_crypt.c ****         {
 1612              	 .loc 1 293 0
 1613 0082 56B1     	 cbz r6,.L141
 299:D:/School/diseratie/SEMS/xmc4800_evaluation_kit/optiga-trust-m/optiga/crypt\optiga_crypt.c ****         }
 1614              	 .loc 1 299 0
 1615 0084 2361     	 str r3,[r4,#16]
 1616              	.L128:
 302:D:/School/diseratie/SEMS/xmc4800_evaluation_kit/optiga-trust-m/optiga/crypt\optiga_crypt.c ****                                              (uint8_t)cmd_param,
 1617              	 .loc 1 302 0
 1618 0086 206A     	 ldr r0,[r4,#32]
 1619 0088 1121     	 movs r1,#17
 1620 008a 2246     	 mov r2,r4
 1621 008c FFF7FEFF 	 bl optiga_cmd_verify_sign
 1622              	.LVL162:
 305:D:/School/diseratie/SEMS/xmc4800_evaluation_kit/optiga-trust-m/optiga/crypt\optiga_crypt.c ****         {
 1623              	 .loc 1 305 0
 1624 0090 0028     	 cmp r0,#0
 1625 0092 CED0     	 beq .L126
 307:D:/School/diseratie/SEMS/xmc4800_evaluation_kit/optiga-trust-m/optiga/crypt\optiga_crypt.c ****         }
 1626              	 .loc 1 307 0
 1627 0094 0023     	 movs r3,#0
 1628 0096 A385     	 strh r3,[r4,#44]
 1629 0098 CBE7     	 b .L126
 1630              	.LVL163:
 1631              	.L141:
 295:D:/School/diseratie/SEMS/xmc4800_evaluation_kit/optiga-trust-m/optiga/crypt\optiga_crypt.c ****         }
 1632              	 .loc 1 295 0
 1633 009a 1B88     	 ldrh r3,[r3]
 1634 009c A382     	 strh r3,[r4,#20]
 1635 009e F2E7     	 b .L128
 1636              	.LBE187:
 1637              	.LBE189:
 1638              	 .cfi_endproc
 1639              	.LFE20:
 1641              	 .section .text.optiga_crypt_ecdh,"ax",%progbits
 1642              	 .align 2
 1643              	 .global optiga_crypt_ecdh
 1644              	 .thumb
 1645              	 .thumb_func
 1647              	optiga_crypt_ecdh:
 1648              	.LFB21:
 977:D:/School/diseratie/SEMS/xmc4800_evaluation_kit/optiga-trust-m/optiga/crypt\optiga_crypt.c **** #endif //OPTIGA_CRYPT_ECDSA_VERIFY_ENABLED
 978:D:/School/diseratie/SEMS/xmc4800_evaluation_kit/optiga-trust-m/optiga/crypt\optiga_crypt.c **** 
 979:D:/School/diseratie/SEMS/xmc4800_evaluation_kit/optiga-trust-m/optiga/crypt\optiga_crypt.c **** 
 980:D:/School/diseratie/SEMS/xmc4800_evaluation_kit/optiga-trust-m/optiga/crypt\optiga_crypt.c **** #ifdef OPTIGA_CRYPT_ECDH_ENABLED
 981:D:/School/diseratie/SEMS/xmc4800_evaluation_kit/optiga-trust-m/optiga/crypt\optiga_crypt.c **** optiga_lib_status_t optiga_crypt_ecdh(optiga_crypt_t * me,
 982:D:/School/diseratie/SEMS/xmc4800_evaluation_kit/optiga-trust-m/optiga/crypt\optiga_crypt.c ****                                       optiga_key_id_t private_key,
 983:D:/School/diseratie/SEMS/xmc4800_evaluation_kit/optiga-trust-m/optiga/crypt\optiga_crypt.c ****                                       public_key_from_host_t * public_key,
 984:D:/School/diseratie/SEMS/xmc4800_evaluation_kit/optiga-trust-m/optiga/crypt\optiga_crypt.c ****                                       bool_t export_to_host,
 985:D:/School/diseratie/SEMS/xmc4800_evaluation_kit/optiga-trust-m/optiga/crypt\optiga_crypt.c ****                                       uint8_t * shared_secret)
 986:D:/School/diseratie/SEMS/xmc4800_evaluation_kit/optiga-trust-m/optiga/crypt\optiga_crypt.c **** {
 1649              	 .loc 1 986 0
 1650              	 .cfi_startproc
 1651              	 
 1652              	 
 1653              	.LVL164:
 1654 0000 F0B5     	 push {r4,r5,r6,r7,lr}
 1655              	.LCFI41:
 1656              	 .cfi_def_cfa_offset 20
 1657              	 .cfi_offset 4,-20
 1658              	 .cfi_offset 5,-16
 1659              	 .cfi_offset 6,-12
 1660              	 .cfi_offset 7,-8
 1661              	 .cfi_offset 14,-4
 987:D:/School/diseratie/SEMS/xmc4800_evaluation_kit/optiga-trust-m/optiga/crypt\optiga_crypt.c ****     optiga_lib_status_t return_value = OPTIGA_CRYPT_ERROR;
 988:D:/School/diseratie/SEMS/xmc4800_evaluation_kit/optiga-trust-m/optiga/crypt\optiga_crypt.c ****     optiga_calc_ssec_params_t * p_params;
 989:D:/School/diseratie/SEMS/xmc4800_evaluation_kit/optiga-trust-m/optiga/crypt\optiga_crypt.c ****     OPTIGA_CRYPT_LOG_MESSAGE(__FUNCTION__);
 990:D:/School/diseratie/SEMS/xmc4800_evaluation_kit/optiga-trust-m/optiga/crypt\optiga_crypt.c **** 
 991:D:/School/diseratie/SEMS/xmc4800_evaluation_kit/optiga-trust-m/optiga/crypt\optiga_crypt.c ****     do
 992:D:/School/diseratie/SEMS/xmc4800_evaluation_kit/optiga-trust-m/optiga/crypt\optiga_crypt.c ****     {
 993:D:/School/diseratie/SEMS/xmc4800_evaluation_kit/optiga-trust-m/optiga/crypt\optiga_crypt.c **** 
 994:D:/School/diseratie/SEMS/xmc4800_evaluation_kit/optiga-trust-m/optiga/crypt\optiga_crypt.c **** #ifdef OPTIGA_LIB_DEBUG_NULL_CHECK
 995:D:/School/diseratie/SEMS/xmc4800_evaluation_kit/optiga-trust-m/optiga/crypt\optiga_crypt.c ****         if ((NULL == me) || (NULL == me->my_cmd) || (NULL == public_key) ||
 1662              	 .loc 1 995 0
 1663 0002 0446     	 mov r4,r0
 986:D:/School/diseratie/SEMS/xmc4800_evaluation_kit/optiga-trust-m/optiga/crypt\optiga_crypt.c ****     optiga_lib_status_t return_value = OPTIGA_CRYPT_ERROR;
 1664              	 .loc 1 986 0
 1665 0004 83B0     	 sub sp,sp,#12
 1666              	.LCFI42:
 1667              	 .cfi_def_cfa_offset 32
 1668              	 .loc 1 995 0
 1669 0006 C0B1     	 cbz r0,.L146
 1670 0008 1546     	 mov r5,r2
 1671              	 .loc 1 995 0 is_stmt 0 discriminator 1
 1672 000a 026A     	 ldr r2,[r0,#32]
 1673              	.LVL165:
 1674 000c 72B1     	 cbz r2,.L150
 1675              	 .loc 1 995 0 discriminator 2
 1676 000e 6DB1     	 cbz r5,.L150
 1677              	 .loc 1 995 0 discriminator 3
 1678 0010 2A68     	 ldr r2,[r5]
 1679 0012 5AB1     	 cbz r2,.L150
 996:D:/School/diseratie/SEMS/xmc4800_evaluation_kit/optiga-trust-m/optiga/crypt\optiga_crypt.c ****             (NULL == public_key->public_key) ||
 1680              	 .loc 1 996 0 is_stmt 1
 1681 0014 012B     	 cmp r3,#1
 1682 0016 0E46     	 mov r6,r1
 1683 0018 05D0     	 beq .L157
 1684              	.L145:
 997:D:/School/diseratie/SEMS/xmc4800_evaluation_kit/optiga-trust-m/optiga/crypt\optiga_crypt.c ****             ((TRUE == export_to_host) && (NULL == shared_secret)))
 998:D:/School/diseratie/SEMS/xmc4800_evaluation_kit/optiga-trust-m/optiga/crypt\optiga_crypt.c ****         {
 999:D:/School/diseratie/SEMS/xmc4800_evaluation_kit/optiga-trust-m/optiga/crypt\optiga_crypt.c ****             return_value = OPTIGA_CRYPT_ERROR_INVALID_INPUT;
1000:D:/School/diseratie/SEMS/xmc4800_evaluation_kit/optiga-trust-m/optiga/crypt\optiga_crypt.c ****             break;
1001:D:/School/diseratie/SEMS/xmc4800_evaluation_kit/optiga-trust-m/optiga/crypt\optiga_crypt.c ****         }
1002:D:/School/diseratie/SEMS/xmc4800_evaluation_kit/optiga-trust-m/optiga/crypt\optiga_crypt.c **** #endif
1003:D:/School/diseratie/SEMS/xmc4800_evaluation_kit/optiga-trust-m/optiga/crypt\optiga_crypt.c **** 
1004:D:/School/diseratie/SEMS/xmc4800_evaluation_kit/optiga-trust-m/optiga/crypt\optiga_crypt.c ****         if (OPTIGA_LIB_INSTANCE_BUSY == me->instance_state)
 1685              	 .loc 1 1004 0
 1686 001a A28D     	 ldrh r2,[r4,#44]
 1687 001c 012A     	 cmp r2,#1
 1688 001e 10D1     	 bne .L158
1005:D:/School/diseratie/SEMS/xmc4800_evaluation_kit/optiga-trust-m/optiga/crypt\optiga_crypt.c ****         {
1006:D:/School/diseratie/SEMS/xmc4800_evaluation_kit/optiga-trust-m/optiga/crypt\optiga_crypt.c ****             return_value = OPTIGA_CRYPT_ERROR_INSTANCE_IN_USE;
 1689              	 .loc 1 1006 0
 1690 0020 40F20540 	 movw r0,#1029
 1691              	.LVL166:
 1692 0024 04E0     	 b .L144
 1693              	.LVL167:
 1694              	.L157:
 997:D:/School/diseratie/SEMS/xmc4800_evaluation_kit/optiga-trust-m/optiga/crypt\optiga_crypt.c ****             ((TRUE == export_to_host) && (NULL == shared_secret)))
 1695              	 .loc 1 997 0
 1696 0026 089A     	 ldr r2,[sp,#32]
 1697 0028 002A     	 cmp r2,#0
 1698 002a F6D1     	 bne .L145
 1699              	.L150:
 999:D:/School/diseratie/SEMS/xmc4800_evaluation_kit/optiga-trust-m/optiga/crypt\optiga_crypt.c ****             break;
 1700              	 .loc 1 999 0
 1701 002c 40F20340 	 movw r0,#1027
 1702              	.LVL168:
 1703              	.L144:
 1704              	.LBB190:
 1705              	.LBB191:
 1706              	.LBB192:
 683:D:/School/diseratie/SEMS/xmc4800_evaluation_kit/optiga-trust-m/optiga/crypt\optiga_crypt.c ****             break;
 1707              	 .loc 1 683 0
 1708 0030 0023     	 movs r3,#0
 1709 0032 84F82E30 	 strb r3,[r4,#46]
 1710              	.LBE192:
 1711              	.LBE191:
 1712              	.LBE190:
1007:D:/School/diseratie/SEMS/xmc4800_evaluation_kit/optiga-trust-m/optiga/crypt\optiga_crypt.c ****             break;
1008:D:/School/diseratie/SEMS/xmc4800_evaluation_kit/optiga-trust-m/optiga/crypt\optiga_crypt.c ****         }
1009:D:/School/diseratie/SEMS/xmc4800_evaluation_kit/optiga-trust-m/optiga/crypt\optiga_crypt.c **** 
1010:D:/School/diseratie/SEMS/xmc4800_evaluation_kit/optiga-trust-m/optiga/crypt\optiga_crypt.c ****         me->instance_state = OPTIGA_LIB_INSTANCE_BUSY;
1011:D:/School/diseratie/SEMS/xmc4800_evaluation_kit/optiga-trust-m/optiga/crypt\optiga_crypt.c **** 
1012:D:/School/diseratie/SEMS/xmc4800_evaluation_kit/optiga-trust-m/optiga/crypt\optiga_crypt.c ****         p_params = (optiga_calc_ssec_params_t *)&(me->params.optiga_calc_ssec_params);
1013:D:/School/diseratie/SEMS/xmc4800_evaluation_kit/optiga-trust-m/optiga/crypt\optiga_crypt.c ****         pal_os_memset(&me->params,0x00,sizeof(optiga_crypt_params_t));
1014:D:/School/diseratie/SEMS/xmc4800_evaluation_kit/optiga-trust-m/optiga/crypt\optiga_crypt.c **** 
1015:D:/School/diseratie/SEMS/xmc4800_evaluation_kit/optiga-trust-m/optiga/crypt\optiga_crypt.c ****         p_params->private_key = private_key;
1016:D:/School/diseratie/SEMS/xmc4800_evaluation_kit/optiga-trust-m/optiga/crypt\optiga_crypt.c ****         p_params->public_key = public_key;
1017:D:/School/diseratie/SEMS/xmc4800_evaluation_kit/optiga-trust-m/optiga/crypt\optiga_crypt.c ****         p_params->export_to_host = export_to_host;
1018:D:/School/diseratie/SEMS/xmc4800_evaluation_kit/optiga-trust-m/optiga/crypt\optiga_crypt.c ****         p_params->shared_secret = shared_secret;
1019:D:/School/diseratie/SEMS/xmc4800_evaluation_kit/optiga-trust-m/optiga/crypt\optiga_crypt.c ****         OPTIGA_PROTECTION_ENABLE(me->my_cmd, me);
1020:D:/School/diseratie/SEMS/xmc4800_evaluation_kit/optiga-trust-m/optiga/crypt\optiga_crypt.c ****         OPTIGA_PROTECTION_SET_VERSION(me->my_cmd, me);
1021:D:/School/diseratie/SEMS/xmc4800_evaluation_kit/optiga-trust-m/optiga/crypt\optiga_crypt.c **** 
1022:D:/School/diseratie/SEMS/xmc4800_evaluation_kit/optiga-trust-m/optiga/crypt\optiga_crypt.c ****         return_value = optiga_cmd_calc_ssec(me->my_cmd, OPTIGA_CRYPT_ECDH_KEY_AGREEMENT_ALGORITHM,
1023:D:/School/diseratie/SEMS/xmc4800_evaluation_kit/optiga-trust-m/optiga/crypt\optiga_crypt.c ****                                             (optiga_calc_ssec_params_t *)p_params);
1024:D:/School/diseratie/SEMS/xmc4800_evaluation_kit/optiga-trust-m/optiga/crypt\optiga_crypt.c ****         if (OPTIGA_LIB_SUCCESS != return_value)
1025:D:/School/diseratie/SEMS/xmc4800_evaluation_kit/optiga-trust-m/optiga/crypt\optiga_crypt.c ****         {
1026:D:/School/diseratie/SEMS/xmc4800_evaluation_kit/optiga-trust-m/optiga/crypt\optiga_crypt.c ****             me->instance_state = OPTIGA_LIB_INSTANCE_FREE;
1027:D:/School/diseratie/SEMS/xmc4800_evaluation_kit/optiga-trust-m/optiga/crypt\optiga_crypt.c ****         }
1028:D:/School/diseratie/SEMS/xmc4800_evaluation_kit/optiga-trust-m/optiga/crypt\optiga_crypt.c ****     } while (FALSE);
1029:D:/School/diseratie/SEMS/xmc4800_evaluation_kit/optiga-trust-m/optiga/crypt\optiga_crypt.c ****     optiga_crypt_reset_protection_level(me);
1030:D:/School/diseratie/SEMS/xmc4800_evaluation_kit/optiga-trust-m/optiga/crypt\optiga_crypt.c ****     
1031:D:/School/diseratie/SEMS/xmc4800_evaluation_kit/optiga-trust-m/optiga/crypt\optiga_crypt.c ****     return (return_value);
1032:D:/School/diseratie/SEMS/xmc4800_evaluation_kit/optiga-trust-m/optiga/crypt\optiga_crypt.c **** }
 1713              	 .loc 1 1032 0
 1714 0036 03B0     	 add sp,sp,#12
 1715              	.LCFI43:
 1716              	 .cfi_remember_state
 1717              	 .cfi_def_cfa_offset 20
 1718              	 
 1719 0038 F0BD     	 pop {r4,r5,r6,r7,pc}
 1720              	.LVL169:
 1721              	.L146:
 1722              	.LCFI44:
 1723              	 .cfi_restore_state
 999:D:/School/diseratie/SEMS/xmc4800_evaluation_kit/optiga-trust-m/optiga/crypt\optiga_crypt.c ****             break;
 1724              	 .loc 1 999 0
 1725 003a 40F20340 	 movw r0,#1027
 1726              	.LVL170:
 1727              	 .loc 1 1032 0
 1728 003e 03B0     	 add sp,sp,#12
 1729              	.LCFI45:
 1730              	 .cfi_remember_state
 1731              	 .cfi_def_cfa_offset 20
 1732              	 
 1733 0040 F0BD     	 pop {r4,r5,r6,r7,pc}
 1734              	.LVL171:
 1735              	.L158:
 1736              	.LCFI46:
 1737              	 .cfi_restore_state
1010:D:/School/diseratie/SEMS/xmc4800_evaluation_kit/optiga-trust-m/optiga/crypt\optiga_crypt.c **** 
 1738              	 .loc 1 1010 0
 1739 0042 0127     	 movs r7,#1
1013:D:/School/diseratie/SEMS/xmc4800_evaluation_kit/optiga-trust-m/optiga/crypt\optiga_crypt.c **** 
 1740              	 .loc 1 1013 0
 1741 0044 2046     	 mov r0,r4
 1742              	.LVL172:
 1743 0046 0021     	 movs r1,#0
 1744              	.LVL173:
 1745 0048 2022     	 movs r2,#32
1010:D:/School/diseratie/SEMS/xmc4800_evaluation_kit/optiga-trust-m/optiga/crypt\optiga_crypt.c **** 
 1746              	 .loc 1 1010 0
 1747 004a A785     	 strh r7,[r4,#44]
 1748              	.LVL174:
 1749 004c 0193     	 str r3,[sp,#4]
1013:D:/School/diseratie/SEMS/xmc4800_evaluation_kit/optiga-trust-m/optiga/crypt\optiga_crypt.c **** 
 1750              	 .loc 1 1013 0
 1751 004e FFF7FEFF 	 bl pal_os_memset
 1752              	.LVL175:
1017:D:/School/diseratie/SEMS/xmc4800_evaluation_kit/optiga-trust-m/optiga/crypt\optiga_crypt.c ****         p_params->shared_secret = shared_secret;
 1753              	 .loc 1 1017 0
 1754 0052 019B     	 ldr r3,[sp,#4]
 1755 0054 A372     	 strb r3,[r4,#10]
1018:D:/School/diseratie/SEMS/xmc4800_evaluation_kit/optiga-trust-m/optiga/crypt\optiga_crypt.c ****         OPTIGA_PROTECTION_ENABLE(me->my_cmd, me);
 1756              	 .loc 1 1018 0
 1757 0056 089B     	 ldr r3,[sp,#32]
 1758 0058 6360     	 str r3,[r4,#4]
1019:D:/School/diseratie/SEMS/xmc4800_evaluation_kit/optiga-trust-m/optiga/crypt\optiga_crypt.c ****         OPTIGA_PROTECTION_SET_VERSION(me->my_cmd, me);
 1759              	 .loc 1 1019 0
 1760 005a 206A     	 ldr r0,[r4,#32]
 1761 005c 94F82E10 	 ldrb r1,[r4,#46]
1015:D:/School/diseratie/SEMS/xmc4800_evaluation_kit/optiga-trust-m/optiga/crypt\optiga_crypt.c ****         p_params->public_key = public_key;
 1762              	 .loc 1 1015 0
 1763 0060 2681     	 strh r6,[r4,#8]
1019:D:/School/diseratie/SEMS/xmc4800_evaluation_kit/optiga-trust-m/optiga/crypt\optiga_crypt.c ****         OPTIGA_PROTECTION_SET_VERSION(me->my_cmd, me);
 1764              	 .loc 1 1019 0
 1765 0062 0022     	 movs r2,#0
1016:D:/School/diseratie/SEMS/xmc4800_evaluation_kit/optiga-trust-m/optiga/crypt\optiga_crypt.c ****         p_params->export_to_host = export_to_host;
 1766              	 .loc 1 1016 0
 1767 0064 2560     	 str r5,[r4]
1019:D:/School/diseratie/SEMS/xmc4800_evaluation_kit/optiga-trust-m/optiga/crypt\optiga_crypt.c ****         OPTIGA_PROTECTION_SET_VERSION(me->my_cmd, me);
 1768              	 .loc 1 1019 0
 1769 0066 FFF7FEFF 	 bl optiga_cmd_set_shielded_connection_option
 1770              	.LVL176:
1020:D:/School/diseratie/SEMS/xmc4800_evaluation_kit/optiga-trust-m/optiga/crypt\optiga_crypt.c **** 
 1771              	 .loc 1 1020 0
 1772 006a 3A46     	 mov r2,r7
 1773 006c 206A     	 ldr r0,[r4,#32]
 1774 006e 94F82F10 	 ldrb r1,[r4,#47]
 1775 0072 FFF7FEFF 	 bl optiga_cmd_set_shielded_connection_option
 1776              	.LVL177:
1022:D:/School/diseratie/SEMS/xmc4800_evaluation_kit/optiga-trust-m/optiga/crypt\optiga_crypt.c ****                                             (optiga_calc_ssec_params_t *)p_params);
 1777              	 .loc 1 1022 0
 1778 0076 3946     	 mov r1,r7
 1779 0078 206A     	 ldr r0,[r4,#32]
 1780 007a 2246     	 mov r2,r4
 1781 007c FFF7FEFF 	 bl optiga_cmd_calc_ssec
 1782              	.LVL178:
1024:D:/School/diseratie/SEMS/xmc4800_evaluation_kit/optiga-trust-m/optiga/crypt\optiga_crypt.c ****         {
 1783              	 .loc 1 1024 0
 1784 0080 0028     	 cmp r0,#0
 1785 0082 D5D0     	 beq .L144
1026:D:/School/diseratie/SEMS/xmc4800_evaluation_kit/optiga-trust-m/optiga/crypt\optiga_crypt.c ****         }
 1786              	 .loc 1 1026 0
 1787 0084 0023     	 movs r3,#0
 1788 0086 A385     	 strh r3,[r4,#44]
 1789 0088 D2E7     	 b .L144
 1790              	 .cfi_endproc
 1791              	.LFE21:
 1793 008a 00BF     	 .section .text.optiga_crypt_tls_prf,"ax",%progbits
 1794              	 .align 2
 1795              	 .global optiga_crypt_tls_prf
 1796              	 .thumb
 1797              	 .thumb_func
 1799              	optiga_crypt_tls_prf:
 1800              	.LFB22:
1033:D:/School/diseratie/SEMS/xmc4800_evaluation_kit/optiga-trust-m/optiga/crypt\optiga_crypt.c **** #endif  //OPTIGA_CRYPT_ECDH_ENABLED
1034:D:/School/diseratie/SEMS/xmc4800_evaluation_kit/optiga-trust-m/optiga/crypt\optiga_crypt.c **** 
1035:D:/School/diseratie/SEMS/xmc4800_evaluation_kit/optiga-trust-m/optiga/crypt\optiga_crypt.c **** #if defined (OPTIGA_CRYPT_TLS_PRF_SHA256_ENABLED) || defined (OPTIGA_CRYPT_TLS_PRF_SHA384_ENABLED) 
1036:D:/School/diseratie/SEMS/xmc4800_evaluation_kit/optiga-trust-m/optiga/crypt\optiga_crypt.c **** optiga_lib_status_t optiga_crypt_tls_prf(optiga_crypt_t * me,
1037:D:/School/diseratie/SEMS/xmc4800_evaluation_kit/optiga-trust-m/optiga/crypt\optiga_crypt.c ****                                          optiga_tls_prf_type_t type,
1038:D:/School/diseratie/SEMS/xmc4800_evaluation_kit/optiga-trust-m/optiga/crypt\optiga_crypt.c ****                                          uint16_t secret,
1039:D:/School/diseratie/SEMS/xmc4800_evaluation_kit/optiga-trust-m/optiga/crypt\optiga_crypt.c ****                                          const uint8_t * label,
1040:D:/School/diseratie/SEMS/xmc4800_evaluation_kit/optiga-trust-m/optiga/crypt\optiga_crypt.c ****                                          uint16_t label_length,
1041:D:/School/diseratie/SEMS/xmc4800_evaluation_kit/optiga-trust-m/optiga/crypt\optiga_crypt.c ****                                          const uint8_t * seed,
1042:D:/School/diseratie/SEMS/xmc4800_evaluation_kit/optiga-trust-m/optiga/crypt\optiga_crypt.c ****                                          uint16_t seed_length,
1043:D:/School/diseratie/SEMS/xmc4800_evaluation_kit/optiga-trust-m/optiga/crypt\optiga_crypt.c ****                                          uint16_t derived_key_length,
1044:D:/School/diseratie/SEMS/xmc4800_evaluation_kit/optiga-trust-m/optiga/crypt\optiga_crypt.c ****                                          bool_t export_to_host,
1045:D:/School/diseratie/SEMS/xmc4800_evaluation_kit/optiga-trust-m/optiga/crypt\optiga_crypt.c ****                                          uint8_t * derived_key)
1046:D:/School/diseratie/SEMS/xmc4800_evaluation_kit/optiga-trust-m/optiga/crypt\optiga_crypt.c **** {
 1801              	 .loc 1 1046 0
 1802              	 .cfi_startproc
 1803              	 
 1804              	 
 1805              	.LVL179:
 1806 0000 2DE9F043 	 push {r4,r5,r6,r7,r8,r9,lr}
 1807              	.LCFI47:
 1808              	 .cfi_def_cfa_offset 28
 1809              	 .cfi_offset 4,-28
 1810              	 .cfi_offset 5,-24
 1811              	 .cfi_offset 6,-20
 1812              	 .cfi_offset 7,-16
 1813              	 .cfi_offset 8,-12
 1814              	 .cfi_offset 9,-8
 1815              	 .cfi_offset 14,-4
 1816 0004 83B0     	 sub sp,sp,#12
 1817              	.LCFI48:
 1818              	 .cfi_def_cfa_offset 40
 1819              	 .loc 1 1046 0
 1820 0006 0E46     	 mov r6,r1
 1821 0008 BDF82870 	 ldrh r7,[sp,#40]
 1822 000c BDF83080 	 ldrh r8,[sp,#48]
 1823 0010 BDF83490 	 ldrh r9,[sp,#52]
 1824 0014 9DF83810 	 ldrb r1,[sp,#56]
 1825              	.LVL180:
1047:D:/School/diseratie/SEMS/xmc4800_evaluation_kit/optiga-trust-m/optiga/crypt\optiga_crypt.c ****     optiga_lib_status_t return_value = OPTIGA_CRYPT_ERROR;
1048:D:/School/diseratie/SEMS/xmc4800_evaluation_kit/optiga-trust-m/optiga/crypt\optiga_crypt.c ****     OPTIGA_CRYPT_LOG_MESSAGE(__FUNCTION__);
1049:D:/School/diseratie/SEMS/xmc4800_evaluation_kit/optiga-trust-m/optiga/crypt\optiga_crypt.c **** 
1050:D:/School/diseratie/SEMS/xmc4800_evaluation_kit/optiga-trust-m/optiga/crypt\optiga_crypt.c ****     do
1051:D:/School/diseratie/SEMS/xmc4800_evaluation_kit/optiga-trust-m/optiga/crypt\optiga_crypt.c ****     {
1052:D:/School/diseratie/SEMS/xmc4800_evaluation_kit/optiga-trust-m/optiga/crypt\optiga_crypt.c **** #ifdef OPTIGA_LIB_DEBUG_NULL_CHECK
1053:D:/School/diseratie/SEMS/xmc4800_evaluation_kit/optiga-trust-m/optiga/crypt\optiga_crypt.c ****         if ((NULL == me) || (NULL == me->my_cmd) || (NULL == seed) ||
 1826              	 .loc 1 1053 0
 1827 0018 90B1     	 cbz r0,.L173
 1828 001a 1546     	 mov r5,r2
 1829              	 .loc 1 1053 0 is_stmt 0 discriminator 1
 1830 001c 026A     	 ldr r2,[r0,#32]
 1831              	.LVL181:
 1832 001e 0446     	 mov r4,r0
 1833 0020 72B1     	 cbz r2,.L173
 1834              	 .loc 1 1053 0 discriminator 2
 1835 0022 0B9A     	 ldr r2,[sp,#44]
 1836 0024 62B1     	 cbz r2,.L173
 1837              	 .loc 1 1053 0 discriminator 3
 1838 0026 0129     	 cmp r1,#1
 1839 0028 0FD0     	 beq .L186
 1840              	.LVL182:
 1841              	.LBB199:
 1842              	.LBB200:
 564:D:/School/diseratie/SEMS/xmc4800_evaluation_kit/optiga-trust-m/optiga/crypt\optiga_crypt.c ****         {
 1843              	 .loc 1 564 0 is_stmt 1
 1844 002a 828D     	 ldrh r2,[r0,#44]
 1845              	.LVL183:
 1846 002c 012A     	 cmp r2,#1
 1847 002e 28D1     	 bne .L187
 1848              	.LVL184:
 1849              	.L175:
 566:D:/School/diseratie/SEMS/xmc4800_evaluation_kit/optiga-trust-m/optiga/crypt\optiga_crypt.c ****             break;
 1850              	 .loc 1 566 0
 1851 0030 40F20540 	 movw r0,#1029
 1852              	.LVL185:
 1853              	.L167:
 1854              	.LBB201:
 1855              	.LBB202:
 1856              	.LBB203:
 683:D:/School/diseratie/SEMS/xmc4800_evaluation_kit/optiga-trust-m/optiga/crypt\optiga_crypt.c ****             break;
 1857              	 .loc 1 683 0
 1858 0034 0023     	 movs r3,#0
 1859 0036 84F82E30 	 strb r3,[r4,#46]
 1860              	.LBE203:
 1861              	.LBE202:
 1862              	.LBE201:
 1863              	.LBE200:
 1864              	.LBE199:
1054:D:/School/diseratie/SEMS/xmc4800_evaluation_kit/optiga-trust-m/optiga/crypt\optiga_crypt.c ****            ((TRUE == export_to_host) && (NULL == derived_key)))
1055:D:/School/diseratie/SEMS/xmc4800_evaluation_kit/optiga-trust-m/optiga/crypt\optiga_crypt.c ****         {
1056:D:/School/diseratie/SEMS/xmc4800_evaluation_kit/optiga-trust-m/optiga/crypt\optiga_crypt.c ****             return_value = OPTIGA_CRYPT_ERROR_INVALID_INPUT;
1057:D:/School/diseratie/SEMS/xmc4800_evaluation_kit/optiga-trust-m/optiga/crypt\optiga_crypt.c ****             break;
1058:D:/School/diseratie/SEMS/xmc4800_evaluation_kit/optiga-trust-m/optiga/crypt\optiga_crypt.c ****         }
1059:D:/School/diseratie/SEMS/xmc4800_evaluation_kit/optiga-trust-m/optiga/crypt\optiga_crypt.c **** #endif
1060:D:/School/diseratie/SEMS/xmc4800_evaluation_kit/optiga-trust-m/optiga/crypt\optiga_crypt.c **** 
1061:D:/School/diseratie/SEMS/xmc4800_evaluation_kit/optiga-trust-m/optiga/crypt\optiga_crypt.c ****         return_value = optiga_crypt_derive_key_generic(me,
1062:D:/School/diseratie/SEMS/xmc4800_evaluation_kit/optiga-trust-m/optiga/crypt\optiga_crypt.c ****                                                        (uint8_t)type,
1063:D:/School/diseratie/SEMS/xmc4800_evaluation_kit/optiga-trust-m/optiga/crypt\optiga_crypt.c ****                                                        secret,
1064:D:/School/diseratie/SEMS/xmc4800_evaluation_kit/optiga-trust-m/optiga/crypt\optiga_crypt.c ****                                                        seed,
1065:D:/School/diseratie/SEMS/xmc4800_evaluation_kit/optiga-trust-m/optiga/crypt\optiga_crypt.c ****                                                        seed_length,
1066:D:/School/diseratie/SEMS/xmc4800_evaluation_kit/optiga-trust-m/optiga/crypt\optiga_crypt.c ****                                                        label,
1067:D:/School/diseratie/SEMS/xmc4800_evaluation_kit/optiga-trust-m/optiga/crypt\optiga_crypt.c ****                                                        label_length,
1068:D:/School/diseratie/SEMS/xmc4800_evaluation_kit/optiga-trust-m/optiga/crypt\optiga_crypt.c ****                                                        NULL,
1069:D:/School/diseratie/SEMS/xmc4800_evaluation_kit/optiga-trust-m/optiga/crypt\optiga_crypt.c ****                                                        0,
1070:D:/School/diseratie/SEMS/xmc4800_evaluation_kit/optiga-trust-m/optiga/crypt\optiga_crypt.c ****                                                        derived_key_length,
1071:D:/School/diseratie/SEMS/xmc4800_evaluation_kit/optiga-trust-m/optiga/crypt\optiga_crypt.c ****                                                        export_to_host,
1072:D:/School/diseratie/SEMS/xmc4800_evaluation_kit/optiga-trust-m/optiga/crypt\optiga_crypt.c ****                                                        derived_key);
1073:D:/School/diseratie/SEMS/xmc4800_evaluation_kit/optiga-trust-m/optiga/crypt\optiga_crypt.c ****         
1074:D:/School/diseratie/SEMS/xmc4800_evaluation_kit/optiga-trust-m/optiga/crypt\optiga_crypt.c ****     } while (FALSE);
1075:D:/School/diseratie/SEMS/xmc4800_evaluation_kit/optiga-trust-m/optiga/crypt\optiga_crypt.c **** 
1076:D:/School/diseratie/SEMS/xmc4800_evaluation_kit/optiga-trust-m/optiga/crypt\optiga_crypt.c ****     return (return_value);
1077:D:/School/diseratie/SEMS/xmc4800_evaluation_kit/optiga-trust-m/optiga/crypt\optiga_crypt.c **** }
 1865              	 .loc 1 1077 0
 1866 003a 03B0     	 add sp,sp,#12
 1867              	.LCFI49:
 1868              	 .cfi_remember_state
 1869              	 .cfi_def_cfa_offset 28
 1870              	 
 1871 003c BDE8F083 	 pop {r4,r5,r6,r7,r8,r9,pc}
 1872              	.LVL186:
 1873              	.L173:
 1874              	.LCFI50:
 1875              	 .cfi_restore_state
1056:D:/School/diseratie/SEMS/xmc4800_evaluation_kit/optiga-trust-m/optiga/crypt\optiga_crypt.c ****             break;
 1876              	 .loc 1 1056 0
 1877 0040 40F20340 	 movw r0,#1027
 1878              	.LVL187:
 1879              	 .loc 1 1077 0
 1880 0044 03B0     	 add sp,sp,#12
 1881              	.LCFI51:
 1882              	 .cfi_remember_state
 1883              	 .cfi_def_cfa_offset 28
 1884              	 
 1885 0046 BDE8F083 	 pop {r4,r5,r6,r7,r8,r9,pc}
 1886              	.LVL188:
 1887              	.L186:
 1888              	.LCFI52:
 1889              	 .cfi_restore_state
1054:D:/School/diseratie/SEMS/xmc4800_evaluation_kit/optiga-trust-m/optiga/crypt\optiga_crypt.c ****            ((TRUE == export_to_host) && (NULL == derived_key)))
 1890              	 .loc 1 1054 0
 1891 004a 0F9A     	 ldr r2,[sp,#60]
 1892 004c 002A     	 cmp r2,#0
 1893 004e F7D0     	 beq .L173
 1894              	.LVL189:
 1895              	.LBB205:
 1896              	.LBB204:
 564:D:/School/diseratie/SEMS/xmc4800_evaluation_kit/optiga-trust-m/optiga/crypt\optiga_crypt.c ****         {
 1897              	 .loc 1 564 0
 1898 0050 828D     	 ldrh r2,[r0,#44]
 1899 0052 012A     	 cmp r2,#1
 1900 0054 ECD0     	 beq .L175
 570:D:/School/diseratie/SEMS/xmc4800_evaluation_kit/optiga-trust-m/optiga/crypt\optiga_crypt.c **** 
 1901              	 .loc 1 570 0
 1902 0056 A185     	 strh r1,[r4,#44]
 1903              	.LVL190:
 573:D:/School/diseratie/SEMS/xmc4800_evaluation_kit/optiga-trust-m/optiga/crypt\optiga_crypt.c ****         
 1904              	 .loc 1 573 0
 1905 0058 2022     	 movs r2,#32
 1906 005a 0021     	 movs r1,#0
 1907 005c 0193     	 str r3,[sp,#4]
 1908 005e FFF7FEFF 	 bl pal_os_memset
 1909              	.LVL191:
 576:D:/School/diseratie/SEMS/xmc4800_evaluation_kit/optiga-trust-m/optiga/crypt\optiga_crypt.c ****         p_params->random_data_length = random_data_length;
 1910              	 .loc 1 576 0
 1911 0062 0B9B     	 ldr r3,[sp,#44]
 1912 0064 2360     	 str r3,[r4]
 578:D:/School/diseratie/SEMS/xmc4800_evaluation_kit/optiga-trust-m/optiga/crypt\optiga_crypt.c ****         p_params->label_length = label_length;
 1913              	 .loc 1 578 0
 1914 0066 019B     	 ldr r3,[sp,#4]
 1915 0068 6360     	 str r3,[r4,#4]
 580:D:/School/diseratie/SEMS/xmc4800_evaluation_kit/optiga-trust-m/optiga/crypt\optiga_crypt.c ****         p_params->info_length = info_length;
 1916              	 .loc 1 580 0
 1917 006a 0022     	 movs r2,#0
 586:D:/School/diseratie/SEMS/xmc4800_evaluation_kit/optiga-trust-m/optiga/crypt\optiga_crypt.c ****         }
 1918              	 .loc 1 586 0
 1919 006c 0F9B     	 ldr r3,[sp,#60]
 575:D:/School/diseratie/SEMS/xmc4800_evaluation_kit/optiga-trust-m/optiga/crypt\optiga_crypt.c ****         p_params->random_data = random_data;
 1920              	 .loc 1 575 0
 1921 006e 2582     	 strh r5,[r4,#16]
 577:D:/School/diseratie/SEMS/xmc4800_evaluation_kit/optiga-trust-m/optiga/crypt\optiga_crypt.c ****         p_params->label = label;
 1922              	 .loc 1 577 0
 1923 0070 A4F81280 	 strh r8,[r4,#18]
 579:D:/School/diseratie/SEMS/xmc4800_evaluation_kit/optiga-trust-m/optiga/crypt\optiga_crypt.c ****         p_params->info = info;
 1924              	 .loc 1 579 0
 1925 0074 A782     	 strh r7,[r4,#20]
 582:D:/School/diseratie/SEMS/xmc4800_evaluation_kit/optiga-trust-m/optiga/crypt\optiga_crypt.c **** 
 1926              	 .loc 1 582 0
 1927 0076 A4F81890 	 strh r9,[r4,#24]
 586:D:/School/diseratie/SEMS/xmc4800_evaluation_kit/optiga-trust-m/optiga/crypt\optiga_crypt.c ****         }
 1928              	 .loc 1 586 0
 1929 007a E360     	 str r3,[r4,#12]
 580:D:/School/diseratie/SEMS/xmc4800_evaluation_kit/optiga-trust-m/optiga/crypt\optiga_crypt.c ****         p_params->info_length = info_length;
 1930              	 .loc 1 580 0
 1931 007c A260     	 str r2,[r4,#8]
 581:D:/School/diseratie/SEMS/xmc4800_evaluation_kit/optiga-trust-m/optiga/crypt\optiga_crypt.c ****         p_params->derived_key_length = derived_key_length;
 1932              	 .loc 1 581 0
 1933 007e E282     	 strh r2,[r4,#22]
 1934 0080 13E0     	 b .L166
 1935              	.LVL192:
 1936              	.L187:
 570:D:/School/diseratie/SEMS/xmc4800_evaluation_kit/optiga-trust-m/optiga/crypt\optiga_crypt.c **** 
 1937              	 .loc 1 570 0
 1938 0082 0122     	 movs r2,#1
 1939 0084 A285     	 strh r2,[r4,#44]
 1940              	.LVL193:
 573:D:/School/diseratie/SEMS/xmc4800_evaluation_kit/optiga-trust-m/optiga/crypt\optiga_crypt.c ****         
 1941              	 .loc 1 573 0
 1942 0086 0021     	 movs r1,#0
 1943              	.LVL194:
 1944 0088 2022     	 movs r2,#32
 1945 008a 0193     	 str r3,[sp,#4]
 1946 008c FFF7FEFF 	 bl pal_os_memset
 1947              	.LVL195:
 576:D:/School/diseratie/SEMS/xmc4800_evaluation_kit/optiga-trust-m/optiga/crypt\optiga_crypt.c ****         p_params->random_data_length = random_data_length;
 1948              	 .loc 1 576 0
 1949 0090 0B9B     	 ldr r3,[sp,#44]
 1950 0092 2360     	 str r3,[r4]
 580:D:/School/diseratie/SEMS/xmc4800_evaluation_kit/optiga-trust-m/optiga/crypt\optiga_crypt.c ****         p_params->info_length = info_length;
 1951              	 .loc 1 580 0
 1952 0094 0022     	 movs r2,#0
 578:D:/School/diseratie/SEMS/xmc4800_evaluation_kit/optiga-trust-m/optiga/crypt\optiga_crypt.c ****         p_params->label_length = label_length;
 1953              	 .loc 1 578 0
 1954 0096 019B     	 ldr r3,[sp,#4]
 575:D:/School/diseratie/SEMS/xmc4800_evaluation_kit/optiga-trust-m/optiga/crypt\optiga_crypt.c ****         p_params->random_data = random_data;
 1955              	 .loc 1 575 0
 1956 0098 2582     	 strh r5,[r4,#16]
 577:D:/School/diseratie/SEMS/xmc4800_evaluation_kit/optiga-trust-m/optiga/crypt\optiga_crypt.c ****         p_params->label = label;
 1957              	 .loc 1 577 0
 1958 009a A4F81280 	 strh r8,[r4,#18]
 578:D:/School/diseratie/SEMS/xmc4800_evaluation_kit/optiga-trust-m/optiga/crypt\optiga_crypt.c ****         p_params->label_length = label_length;
 1959              	 .loc 1 578 0
 1960 009e 6360     	 str r3,[r4,#4]
 579:D:/School/diseratie/SEMS/xmc4800_evaluation_kit/optiga-trust-m/optiga/crypt\optiga_crypt.c ****         p_params->info = info;
 1961              	 .loc 1 579 0
 1962 00a0 A782     	 strh r7,[r4,#20]
 582:D:/School/diseratie/SEMS/xmc4800_evaluation_kit/optiga-trust-m/optiga/crypt\optiga_crypt.c **** 
 1963              	 .loc 1 582 0
 1964 00a2 A4F81890 	 strh r9,[r4,#24]
 580:D:/School/diseratie/SEMS/xmc4800_evaluation_kit/optiga-trust-m/optiga/crypt\optiga_crypt.c ****         p_params->info_length = info_length;
 1965              	 .loc 1 580 0
 1966 00a6 A260     	 str r2,[r4,#8]
 581:D:/School/diseratie/SEMS/xmc4800_evaluation_kit/optiga-trust-m/optiga/crypt\optiga_crypt.c ****         p_params->derived_key_length = derived_key_length;
 1967              	 .loc 1 581 0
 1968 00a8 E282     	 strh r2,[r4,#22]
 1969              	.LVL196:
 1970              	.L166:
 592:D:/School/diseratie/SEMS/xmc4800_evaluation_kit/optiga-trust-m/optiga/crypt\optiga_crypt.c ****         }
 1971              	 .loc 1 592 0
 1972 00aa 94F82E10 	 ldrb r1,[r4,#46]
 590:D:/School/diseratie/SEMS/xmc4800_evaluation_kit/optiga-trust-m/optiga/crypt\optiga_crypt.c ****         {
 1973              	 .loc 1 590 0
 1974 00ae 1DB9     	 cbnz r5,.L164
 592:D:/School/diseratie/SEMS/xmc4800_evaluation_kit/optiga-trust-m/optiga/crypt\optiga_crypt.c ****         }
 1975              	 .loc 1 592 0
 1976 00b0 41F00101 	 orr r1,r1,#1
 1977 00b4 84F82E10 	 strb r1,[r4,#46]
 1978              	.L164:
 595:D:/School/diseratie/SEMS/xmc4800_evaluation_kit/optiga-trust-m/optiga/crypt\optiga_crypt.c ****         OPTIGA_PROTECTION_SET_VERSION(me->my_cmd, me);
 1979              	 .loc 1 595 0
 1980 00b8 206A     	 ldr r0,[r4,#32]
 1981 00ba 0022     	 movs r2,#0
 1982 00bc FFF7FEFF 	 bl optiga_cmd_set_shielded_connection_option
 1983              	.LVL197:
 596:D:/School/diseratie/SEMS/xmc4800_evaluation_kit/optiga-trust-m/optiga/crypt\optiga_crypt.c ****         
 1984              	 .loc 1 596 0
 1985 00c0 206A     	 ldr r0,[r4,#32]
 1986 00c2 94F82F10 	 ldrb r1,[r4,#47]
 1987 00c6 0122     	 movs r2,#1
 1988 00c8 FFF7FEFF 	 bl optiga_cmd_set_shielded_connection_option
 1989              	.LVL198:
 598:D:/School/diseratie/SEMS/xmc4800_evaluation_kit/optiga-trust-m/optiga/crypt\optiga_crypt.c ****                                              type,
 1990              	 .loc 1 598 0
 1991 00cc 3146     	 mov r1,r6
 1992 00ce 206A     	 ldr r0,[r4,#32]
 1993 00d0 2246     	 mov r2,r4
 1994 00d2 FFF7FEFF 	 bl optiga_cmd_derive_key
 1995              	.LVL199:
 601:D:/School/diseratie/SEMS/xmc4800_evaluation_kit/optiga-trust-m/optiga/crypt\optiga_crypt.c ****         {
 1996              	 .loc 1 601 0
 1997 00d6 0028     	 cmp r0,#0
 1998 00d8 ACD0     	 beq .L167
 603:D:/School/diseratie/SEMS/xmc4800_evaluation_kit/optiga-trust-m/optiga/crypt\optiga_crypt.c ****         }
 1999              	 .loc 1 603 0
 2000 00da 0023     	 movs r3,#0
 2001 00dc A385     	 strh r3,[r4,#44]
 2002              	.LVL200:
 2003 00de A9E7     	 b .L167
 2004              	.LBE204:
 2005              	.LBE205:
 2006              	 .cfi_endproc
 2007              	.LFE22:
 2009              	 .section .text.optiga_crypt_rsa_generate_keypair,"ax",%progbits
 2010              	 .align 2
 2011              	 .global optiga_crypt_rsa_generate_keypair
 2012              	 .thumb
 2013              	 .thumb_func
 2015              	optiga_crypt_rsa_generate_keypair:
 2016              	.LFB23:
1078:D:/School/diseratie/SEMS/xmc4800_evaluation_kit/optiga-trust-m/optiga/crypt\optiga_crypt.c **** #endif //OPTIGA_CRYPT_TLS_PRF_SHA256_ENABLED || OPTIGA_CRYPT_TLS_PRF_SHA384_ENABLED || OPTIGA_CRYPT
1079:D:/School/diseratie/SEMS/xmc4800_evaluation_kit/optiga-trust-m/optiga/crypt\optiga_crypt.c **** 
1080:D:/School/diseratie/SEMS/xmc4800_evaluation_kit/optiga-trust-m/optiga/crypt\optiga_crypt.c **** 
1081:D:/School/diseratie/SEMS/xmc4800_evaluation_kit/optiga-trust-m/optiga/crypt\optiga_crypt.c **** #ifdef OPTIGA_CRYPT_RSA_GENERATE_KEYPAIR_ENABLED
1082:D:/School/diseratie/SEMS/xmc4800_evaluation_kit/optiga-trust-m/optiga/crypt\optiga_crypt.c **** optiga_lib_status_t optiga_crypt_rsa_generate_keypair(optiga_crypt_t * me,
1083:D:/School/diseratie/SEMS/xmc4800_evaluation_kit/optiga-trust-m/optiga/crypt\optiga_crypt.c ****                                                       optiga_rsa_key_type_t key_type,
1084:D:/School/diseratie/SEMS/xmc4800_evaluation_kit/optiga-trust-m/optiga/crypt\optiga_crypt.c ****                                                       uint8_t key_usage,
1085:D:/School/diseratie/SEMS/xmc4800_evaluation_kit/optiga-trust-m/optiga/crypt\optiga_crypt.c ****                                                       bool_t export_private_key,
1086:D:/School/diseratie/SEMS/xmc4800_evaluation_kit/optiga-trust-m/optiga/crypt\optiga_crypt.c ****                                                       void * private_key,
1087:D:/School/diseratie/SEMS/xmc4800_evaluation_kit/optiga-trust-m/optiga/crypt\optiga_crypt.c ****                                                       uint8_t * public_key,
1088:D:/School/diseratie/SEMS/xmc4800_evaluation_kit/optiga-trust-m/optiga/crypt\optiga_crypt.c ****                                                       uint16_t * public_key_length)
1089:D:/School/diseratie/SEMS/xmc4800_evaluation_kit/optiga-trust-m/optiga/crypt\optiga_crypt.c **** {
 2017              	 .loc 1 1089 0
 2018              	 .cfi_startproc
 2019              	 
 2020              	 
 2021              	.LVL201:
 2022              	.LBB212:
 2023              	.LBB213:
 146:D:/School/diseratie/SEMS/xmc4800_evaluation_kit/optiga-trust-m/optiga/crypt\optiga_crypt.c ****             (NULL == p_public_key) || (NULL == p_private_key) || (NULL == p_public_key_length))
 2024              	 .loc 1 146 0
 2025 0000 E0B1     	 cbz r0,.L193
 2026              	.LBE213:
 2027              	.LBE212:
 2028              	 .loc 1 1089 0
 2029 0002 F0B5     	 push {r4,r5,r6,r7,lr}
 2030              	.LCFI53:
 2031              	 .cfi_def_cfa_offset 20
 2032              	 .cfi_offset 4,-20
 2033              	 .cfi_offset 5,-16
 2034              	 .cfi_offset 6,-12
 2035              	 .cfi_offset 7,-8
 2036              	 .cfi_offset 14,-4
 2037 0004 1646     	 mov r6,r2
 2038              	.LVL202:
 2039              	.LBB225:
 2040              	.LBB220:
 146:D:/School/diseratie/SEMS/xmc4800_evaluation_kit/optiga-trust-m/optiga/crypt\optiga_crypt.c ****             (NULL == p_public_key) || (NULL == p_private_key) || (NULL == p_public_key_length))
 2041              	 .loc 1 146 0
 2042 0006 026A     	 ldr r2,[r0,#32]
 2043              	.LVL203:
 2044              	.LBE220:
 2045              	.LBE225:
 2046              	 .loc 1 1089 0
 2047 0008 83B0     	 sub sp,sp,#12
 2048              	.LCFI54:
 2049              	 .cfi_def_cfa_offset 32
 2050 000a 0446     	 mov r4,r0
 2051              	.LBB226:
 2052              	.LBB221:
 146:D:/School/diseratie/SEMS/xmc4800_evaluation_kit/optiga-trust-m/optiga/crypt\optiga_crypt.c ****             (NULL == p_public_key) || (NULL == p_private_key) || (NULL == p_public_key_length))
 2053              	 .loc 1 146 0
 2054 000c 7AB1     	 cbz r2,.L197
 2055 000e 099A     	 ldr r2,[sp,#36]
 2056 0010 6AB1     	 cbz r2,.L197
 147:D:/School/diseratie/SEMS/xmc4800_evaluation_kit/optiga-trust-m/optiga/crypt\optiga_crypt.c ****         {
 2057              	 .loc 1 147 0
 2058 0012 089A     	 ldr r2,[sp,#32]
 2059 0014 5AB1     	 cbz r2,.L197
 2060 0016 0A9A     	 ldr r2,[sp,#40]
 2061 0018 4AB1     	 cbz r2,.L197
 153:D:/School/diseratie/SEMS/xmc4800_evaluation_kit/optiga-trust-m/optiga/crypt\optiga_crypt.c ****         {
 2062              	 .loc 1 153 0
 2063 001a 828D     	 ldrh r2,[r0,#44]
 2064 001c 012A     	 cmp r2,#1
 2065 001e 10D1     	 bne .L201
 155:D:/School/diseratie/SEMS/xmc4800_evaluation_kit/optiga-trust-m/optiga/crypt\optiga_crypt.c ****             break;
 2066              	 .loc 1 155 0
 2067 0020 40F20540 	 movw r0,#1029
 2068              	.LVL204:
 2069              	.LBB214:
 2070              	.LBB215:
 2071              	.LBB216:
 683:D:/School/diseratie/SEMS/xmc4800_evaluation_kit/optiga-trust-m/optiga/crypt\optiga_crypt.c ****             break;
 2072              	 .loc 1 683 0
 2073 0024 0023     	 movs r3,#0
 2074              	.LVL205:
 2075 0026 84F82E30 	 strb r3,[r4,#46]
 2076              	.LBE216:
 2077              	.LBE215:
 2078              	.LBE214:
 2079              	.LBE221:
 2080              	.LBE226:
1090:D:/School/diseratie/SEMS/xmc4800_evaluation_kit/optiga-trust-m/optiga/crypt\optiga_crypt.c ****     OPTIGA_CRYPT_LOG_MESSAGE(__FUNCTION__);
1091:D:/School/diseratie/SEMS/xmc4800_evaluation_kit/optiga-trust-m/optiga/crypt\optiga_crypt.c ****     return (optiga_crypt_generate_keypair(me,
1092:D:/School/diseratie/SEMS/xmc4800_evaluation_kit/optiga-trust-m/optiga/crypt\optiga_crypt.c ****                                          (uint8_t)key_type,
1093:D:/School/diseratie/SEMS/xmc4800_evaluation_kit/optiga-trust-m/optiga/crypt\optiga_crypt.c ****                                          key_usage,
1094:D:/School/diseratie/SEMS/xmc4800_evaluation_kit/optiga-trust-m/optiga/crypt\optiga_crypt.c ****                                          export_private_key,
1095:D:/School/diseratie/SEMS/xmc4800_evaluation_kit/optiga-trust-m/optiga/crypt\optiga_crypt.c ****                                          private_key,
1096:D:/School/diseratie/SEMS/xmc4800_evaluation_kit/optiga-trust-m/optiga/crypt\optiga_crypt.c ****                                          public_key,
1097:D:/School/diseratie/SEMS/xmc4800_evaluation_kit/optiga-trust-m/optiga/crypt\optiga_crypt.c ****                                          public_key_length));
1098:D:/School/diseratie/SEMS/xmc4800_evaluation_kit/optiga-trust-m/optiga/crypt\optiga_crypt.c **** }
 2081              	 .loc 1 1098 0
 2082 002a 03B0     	 add sp,sp,#12
 2083              	.LCFI55:
 2084              	 .cfi_remember_state
 2085              	 .cfi_def_cfa_offset 20
 2086              	 
 2087 002c F0BD     	 pop {r4,r5,r6,r7,pc}
 2088              	.LVL206:
 2089              	.L197:
 2090              	.LCFI56:
 2091              	 .cfi_restore_state
 2092              	.LBB227:
 2093              	.LBB222:
 149:D:/School/diseratie/SEMS/xmc4800_evaluation_kit/optiga-trust-m/optiga/crypt\optiga_crypt.c ****             break;
 2094              	 .loc 1 149 0
 2095 002e 40F20340 	 movw r0,#1027
 2096              	.LVL207:
 2097              	.L190:
 2098              	.LBB219:
 2099              	.LBB218:
 2100              	.LBB217:
 683:D:/School/diseratie/SEMS/xmc4800_evaluation_kit/optiga-trust-m/optiga/crypt\optiga_crypt.c ****             break;
 2101              	 .loc 1 683 0
 2102 0032 0023     	 movs r3,#0
 2103 0034 84F82E30 	 strb r3,[r4,#46]
 2104              	.LBE217:
 2105              	.LBE218:
 2106              	.LBE219:
 2107              	.LBE222:
 2108              	.LBE227:
 2109              	 .loc 1 1098 0
 2110 0038 03B0     	 add sp,sp,#12
 2111              	.LCFI57:
 2112              	 .cfi_def_cfa_offset 20
 2113              	 
 2114 003a F0BD     	 pop {r4,r5,r6,r7,pc}
 2115              	.LVL208:
 2116              	.L193:
 2117              	.LCFI58:
 2118              	 .cfi_def_cfa_offset 0
 2119              	 .cfi_restore 4
 2120              	 .cfi_restore 5
 2121              	 .cfi_restore 6
 2122              	 .cfi_restore 7
 2123              	 .cfi_restore 14
 2124              	.LBB228:
 2125              	.LBB223:
 149:D:/School/diseratie/SEMS/xmc4800_evaluation_kit/optiga-trust-m/optiga/crypt\optiga_crypt.c ****             break;
 2126              	 .loc 1 149 0
 2127 003c 40F20340 	 movw r0,#1027
 2128              	.LVL209:
 2129              	.LBE223:
 2130              	.LBE228:
 2131              	 .loc 1 1098 0
 2132 0040 7047     	 bx lr
 2133              	.LVL210:
 2134              	.L201:
 2135              	.LCFI59:
 2136              	 .cfi_def_cfa_offset 32
 2137              	 .cfi_offset 4,-20
 2138              	 .cfi_offset 5,-16
 2139              	 .cfi_offset 6,-12
 2140              	 .cfi_offset 7,-8
 2141              	 .cfi_offset 14,-4
 2142              	.LBB229:
 2143              	.LBB224:
 159:D:/School/diseratie/SEMS/xmc4800_evaluation_kit/optiga-trust-m/optiga/crypt\optiga_crypt.c ****         p_params = (optiga_gen_keypair_params_t *)&(me->params.optiga_gen_keypair_params);
 2144              	 .loc 1 159 0
 2145 0042 0127     	 movs r7,#1
 2146 0044 8785     	 strh r7,[r0,#44]
 2147              	.LVL211:
 161:D:/School/diseratie/SEMS/xmc4800_evaluation_kit/optiga-trust-m/optiga/crypt\optiga_crypt.c **** 
 2148              	 .loc 1 161 0
 2149 0046 2022     	 movs r2,#32
 2150 0048 0D46     	 mov r5,r1
 2151              	.LVL212:
 2152 004a 0021     	 movs r1,#0
 2153              	.LVL213:
 2154 004c 0193     	 str r3,[sp,#4]
 2155 004e FFF7FEFF 	 bl pal_os_memset
 2156              	.LVL214:
 164:D:/School/diseratie/SEMS/xmc4800_evaluation_kit/optiga-trust-m/optiga/crypt\optiga_crypt.c ****         p_params->public_key_length = p_public_key_length;
 2157              	 .loc 1 164 0
 2158 0052 019B     	 ldr r3,[sp,#4]
 2159 0054 6370     	 strb r3,[r4,#1]
 165:D:/School/diseratie/SEMS/xmc4800_evaluation_kit/optiga-trust-m/optiga/crypt\optiga_crypt.c ****         OPTIGA_PROTECTION_ENABLE(me->my_cmd, me);
 2160              	 .loc 1 165 0
 2161 0056 0A9B     	 ldr r3,[sp,#40]
 2162 0058 2361     	 str r3,[r4,#16]
 166:D:/School/diseratie/SEMS/xmc4800_evaluation_kit/optiga-trust-m/optiga/crypt\optiga_crypt.c ****         OPTIGA_PROTECTION_SET_VERSION(me->my_cmd, me);
 2163              	 .loc 1 166 0
 2164 005a 206A     	 ldr r0,[r4,#32]
 2165 005c 94F82E10 	 ldrb r1,[r4,#46]
 163:D:/School/diseratie/SEMS/xmc4800_evaluation_kit/optiga-trust-m/optiga/crypt\optiga_crypt.c ****         p_params->export_private_key = export_private_key;
 2166              	 .loc 1 163 0
 2167 0060 2670     	 strb r6,[r4]
 166:D:/School/diseratie/SEMS/xmc4800_evaluation_kit/optiga-trust-m/optiga/crypt\optiga_crypt.c ****         OPTIGA_PROTECTION_SET_VERSION(me->my_cmd, me);
 2168              	 .loc 1 166 0
 2169 0062 0022     	 movs r2,#0
 2170 0064 FFF7FEFF 	 bl optiga_cmd_set_shielded_connection_option
 2171              	.LVL215:
 167:D:/School/diseratie/SEMS/xmc4800_evaluation_kit/optiga-trust-m/optiga/crypt\optiga_crypt.c **** 
 2172              	 .loc 1 167 0
 2173 0068 3A46     	 mov r2,r7
 2174 006a 206A     	 ldr r0,[r4,#32]
 2175 006c 94F82F10 	 ldrb r1,[r4,#47]
 2176 0070 FFF7FEFF 	 bl optiga_cmd_set_shielded_connection_option
 2177              	.LVL216:
 169:D:/School/diseratie/SEMS/xmc4800_evaluation_kit/optiga-trust-m/optiga/crypt\optiga_crypt.c ****         {
 2178              	 .loc 1 169 0
 2179 0074 019B     	 ldr r3,[sp,#4]
 2180 0076 63B9     	 cbnz r3,.L202
 175:D:/School/diseratie/SEMS/xmc4800_evaluation_kit/optiga-trust-m/optiga/crypt\optiga_crypt.c ****         }
 2181              	 .loc 1 175 0
 2182 0078 089B     	 ldr r3,[sp,#32]
 2183 007a 1B88     	 ldrh r3,[r3]
 2184 007c 6380     	 strh r3,[r4,#2]
 2185              	.L192:
 178:D:/School/diseratie/SEMS/xmc4800_evaluation_kit/optiga-trust-m/optiga/crypt\optiga_crypt.c ****         p_params->public_key_length = p_public_key_length;
 2186              	 .loc 1 178 0
 2187 007e 099B     	 ldr r3,[sp,#36]
 2188 0080 E360     	 str r3,[r4,#12]
 179:D:/School/diseratie/SEMS/xmc4800_evaluation_kit/optiga-trust-m/optiga/crypt\optiga_crypt.c **** 
 2189              	 .loc 1 179 0
 2190 0082 0A9B     	 ldr r3,[sp,#40]
 2191 0084 2361     	 str r3,[r4,#16]
 181:D:/School/diseratie/SEMS/xmc4800_evaluation_kit/optiga-trust-m/optiga/crypt\optiga_crypt.c ****                                               (uint8_t )cmd_param,
 2192              	 .loc 1 181 0
 2193 0086 2946     	 mov r1,r5
 2194 0088 206A     	 ldr r0,[r4,#32]
 2195 008a 2246     	 mov r2,r4
 2196 008c FFF7FEFF 	 bl optiga_cmd_gen_keypair
 2197              	.LVL217:
 2198 0090 CFE7     	 b .L190
 2199              	.LVL218:
 2200              	.L202:
 171:D:/School/diseratie/SEMS/xmc4800_evaluation_kit/optiga-trust-m/optiga/crypt\optiga_crypt.c ****         }
 2201              	 .loc 1 171 0
 2202 0092 089B     	 ldr r3,[sp,#32]
 2203 0094 6360     	 str r3,[r4,#4]
 2204 0096 F2E7     	 b .L192
 2205              	.LBE224:
 2206              	.LBE229:
 2207              	 .cfi_endproc
 2208              	.LFE23:
 2210              	 .section .text.optiga_crypt_rsa_sign,"ax",%progbits
 2211              	 .align 2
 2212              	 .global optiga_crypt_rsa_sign
 2213              	 .thumb
 2214              	 .thumb_func
 2216              	optiga_crypt_rsa_sign:
 2217              	.LFB24:
1099:D:/School/diseratie/SEMS/xmc4800_evaluation_kit/optiga-trust-m/optiga/crypt\optiga_crypt.c **** #endif //OPTIGA_CRYPT_RSA_GENERATE_KEYPAIR_ENABLED
1100:D:/School/diseratie/SEMS/xmc4800_evaluation_kit/optiga-trust-m/optiga/crypt\optiga_crypt.c **** 
1101:D:/School/diseratie/SEMS/xmc4800_evaluation_kit/optiga-trust-m/optiga/crypt\optiga_crypt.c **** 
1102:D:/School/diseratie/SEMS/xmc4800_evaluation_kit/optiga-trust-m/optiga/crypt\optiga_crypt.c **** #ifdef OPTIGA_CRYPT_RSA_SIGN_ENABLED
1103:D:/School/diseratie/SEMS/xmc4800_evaluation_kit/optiga-trust-m/optiga/crypt\optiga_crypt.c **** optiga_lib_status_t optiga_crypt_rsa_sign(optiga_crypt_t * me,
1104:D:/School/diseratie/SEMS/xmc4800_evaluation_kit/optiga-trust-m/optiga/crypt\optiga_crypt.c ****                                           optiga_rsa_signature_scheme_t signature_scheme,
1105:D:/School/diseratie/SEMS/xmc4800_evaluation_kit/optiga-trust-m/optiga/crypt\optiga_crypt.c ****                                           const uint8_t * digest,
1106:D:/School/diseratie/SEMS/xmc4800_evaluation_kit/optiga-trust-m/optiga/crypt\optiga_crypt.c ****                                           uint8_t digest_length,
1107:D:/School/diseratie/SEMS/xmc4800_evaluation_kit/optiga-trust-m/optiga/crypt\optiga_crypt.c ****                                           optiga_key_id_t private_key,
1108:D:/School/diseratie/SEMS/xmc4800_evaluation_kit/optiga-trust-m/optiga/crypt\optiga_crypt.c ****                                           uint8_t * signature,
1109:D:/School/diseratie/SEMS/xmc4800_evaluation_kit/optiga-trust-m/optiga/crypt\optiga_crypt.c ****                                           uint16_t * signature_length,
1110:D:/School/diseratie/SEMS/xmc4800_evaluation_kit/optiga-trust-m/optiga/crypt\optiga_crypt.c ****                                           uint16_t salt_length)
1111:D:/School/diseratie/SEMS/xmc4800_evaluation_kit/optiga-trust-m/optiga/crypt\optiga_crypt.c **** {
 2218              	 .loc 1 1111 0
 2219              	 .cfi_startproc
 2220              	 
 2221              	 
 2222              	.LVL219:
 2223 0000 2DE9F041 	 push {r4,r5,r6,r7,r8,lr}
 2224              	.LCFI60:
 2225              	 .cfi_def_cfa_offset 24
 2226              	 .cfi_offset 4,-24
 2227              	 .cfi_offset 5,-20
 2228              	 .cfi_offset 6,-16
 2229              	 .cfi_offset 7,-12
 2230              	 .cfi_offset 8,-8
 2231              	 .cfi_offset 14,-4
 2232 0004 82B0     	 sub sp,sp,#8
 2233              	.LCFI61:
 2234              	 .cfi_def_cfa_offset 32
 2235              	.LVL220:
 2236              	 .loc 1 1111 0
 2237 0006 BDF82070 	 ldrh r7,[sp,#32]
 2238              	.LVL221:
 2239              	.LBB236:
 2240              	.LBB237:
 208:D:/School/diseratie/SEMS/xmc4800_evaluation_kit/optiga-trust-m/optiga/crypt\optiga_crypt.c ****             (NULL == p_signature) || (NULL == p_signature_length))
 2241              	 .loc 1 208 0
 2242 000a B0B1     	 cbz r0,.L206
 2243 000c 1546     	 mov r5,r2
 2244              	.LVL222:
 2245 000e 026A     	 ldr r2,[r0,#32]
 2246              	.LVL223:
 2247 0010 0446     	 mov r4,r0
 2248 0012 52B1     	 cbz r2,.L210
 2249 0014 4DB1     	 cbz r5,.L210
 2250 0016 099A     	 ldr r2,[sp,#36]
 2251 0018 3AB1     	 cbz r2,.L210
 209:D:/School/diseratie/SEMS/xmc4800_evaluation_kit/optiga-trust-m/optiga/crypt\optiga_crypt.c ****         {
 2252              	 .loc 1 209 0
 2253 001a 0A9A     	 ldr r2,[sp,#40]
 2254 001c 2AB1     	 cbz r2,.L210
 216:D:/School/diseratie/SEMS/xmc4800_evaluation_kit/optiga-trust-m/optiga/crypt\optiga_crypt.c ****         {
 2255              	 .loc 1 216 0
 2256 001e 828D     	 ldrh r2,[r0,#44]
 2257 0020 012A     	 cmp r2,#1
 2258 0022 0FD1     	 bne .L217
 218:D:/School/diseratie/SEMS/xmc4800_evaluation_kit/optiga-trust-m/optiga/crypt\optiga_crypt.c ****             break;
 2259              	 .loc 1 218 0
 2260 0024 40F20540 	 movw r0,#1029
 2261              	.LVL224:
 2262 0028 01E0     	 b .L205
 2263              	.LVL225:
 2264              	.L210:
 211:D:/School/diseratie/SEMS/xmc4800_evaluation_kit/optiga-trust-m/optiga/crypt\optiga_crypt.c ****             break;
 2265              	 .loc 1 211 0
 2266 002a 40F20340 	 movw r0,#1027
 2267              	.LVL226:
 2268              	.L205:
 2269              	.LBB238:
 2270              	.LBB239:
 2271              	.LBB240:
 683:D:/School/diseratie/SEMS/xmc4800_evaluation_kit/optiga-trust-m/optiga/crypt\optiga_crypt.c ****             break;
 2272              	 .loc 1 683 0
 2273 002e 0023     	 movs r3,#0
 2274 0030 84F82E30 	 strb r3,[r4,#46]
 2275              	.LBE240:
 2276              	.LBE239:
 2277              	.LBE238:
 2278              	.LBE237:
 2279              	.LBE236:
1112:D:/School/diseratie/SEMS/xmc4800_evaluation_kit/optiga-trust-m/optiga/crypt\optiga_crypt.c ****     OPTIGA_CRYPT_LOG_MESSAGE(__FUNCTION__);
1113:D:/School/diseratie/SEMS/xmc4800_evaluation_kit/optiga-trust-m/optiga/crypt\optiga_crypt.c ****     return (optiga_crypt_sign(me,
1114:D:/School/diseratie/SEMS/xmc4800_evaluation_kit/optiga-trust-m/optiga/crypt\optiga_crypt.c ****                              (uint8_t)signature_scheme,
1115:D:/School/diseratie/SEMS/xmc4800_evaluation_kit/optiga-trust-m/optiga/crypt\optiga_crypt.c ****                              digest,
1116:D:/School/diseratie/SEMS/xmc4800_evaluation_kit/optiga-trust-m/optiga/crypt\optiga_crypt.c ****                              digest_length,
1117:D:/School/diseratie/SEMS/xmc4800_evaluation_kit/optiga-trust-m/optiga/crypt\optiga_crypt.c ****                              private_key,
1118:D:/School/diseratie/SEMS/xmc4800_evaluation_kit/optiga-trust-m/optiga/crypt\optiga_crypt.c ****                              signature,
1119:D:/School/diseratie/SEMS/xmc4800_evaluation_kit/optiga-trust-m/optiga/crypt\optiga_crypt.c ****                              signature_length,
1120:D:/School/diseratie/SEMS/xmc4800_evaluation_kit/optiga-trust-m/optiga/crypt\optiga_crypt.c ****                              salt_length));
1121:D:/School/diseratie/SEMS/xmc4800_evaluation_kit/optiga-trust-m/optiga/crypt\optiga_crypt.c **** }
 2280              	 .loc 1 1121 0
 2281 0034 02B0     	 add sp,sp,#8
 2282              	.LCFI62:
 2283              	 .cfi_remember_state
 2284              	 .cfi_def_cfa_offset 24
 2285              	 
 2286 0036 BDE8F081 	 pop {r4,r5,r6,r7,r8,pc}
 2287              	.LVL227:
 2288              	.L206:
 2289              	.LCFI63:
 2290              	 .cfi_restore_state
 2291              	.LBB243:
 2292              	.LBB241:
 211:D:/School/diseratie/SEMS/xmc4800_evaluation_kit/optiga-trust-m/optiga/crypt\optiga_crypt.c ****             break;
 2293              	 .loc 1 211 0
 2294 003a 40F20340 	 movw r0,#1027
 2295              	.LVL228:
 2296              	.LBE241:
 2297              	.LBE243:
 2298              	 .loc 1 1121 0
 2299 003e 02B0     	 add sp,sp,#8
 2300              	.LCFI64:
 2301              	 .cfi_remember_state
 2302              	 .cfi_def_cfa_offset 24
 2303              	 
 2304 0040 BDE8F081 	 pop {r4,r5,r6,r7,r8,pc}
 2305              	.LVL229:
 2306              	.L217:
 2307              	.LCFI65:
 2308              	 .cfi_restore_state
 2309              	.LBB244:
 2310              	.LBB242:
 222:D:/School/diseratie/SEMS/xmc4800_evaluation_kit/optiga-trust-m/optiga/crypt\optiga_crypt.c **** 
 2311              	 .loc 1 222 0
 2312 0044 4FF00108 	 mov r8,#1
 2313 0048 0E46     	 mov r6,r1
 2314              	.LVL230:
 2315 004a A0F82C80 	 strh r8,[r0,#44]
 2316              	.LVL231:
 225:D:/School/diseratie/SEMS/xmc4800_evaluation_kit/optiga-trust-m/optiga/crypt\optiga_crypt.c **** 
 2317              	 .loc 1 225 0
 2318 004e 0021     	 movs r1,#0
 2319              	.LVL232:
 2320 0050 2022     	 movs r2,#32
 2321 0052 0193     	 str r3,[sp,#4]
 2322 0054 FFF7FEFF 	 bl pal_os_memset
 2323              	.LVL233:
 228:D:/School/diseratie/SEMS/xmc4800_evaluation_kit/optiga-trust-m/optiga/crypt\optiga_crypt.c ****         p_params->private_key_oid = private_key;
 2324              	 .loc 1 228 0
 2325 0058 019B     	 ldr r3,[sp,#4]
 2326 005a A373     	 strb r3,[r4,#14]
 230:D:/School/diseratie/SEMS/xmc4800_evaluation_kit/optiga-trust-m/optiga/crypt\optiga_crypt.c ****         p_params->p_signature_length = p_signature_length;
 2327              	 .loc 1 230 0
 2328 005c 099B     	 ldr r3,[sp,#36]
 2329 005e 6360     	 str r3,[r4,#4]
 231:D:/School/diseratie/SEMS/xmc4800_evaluation_kit/optiga-trust-m/optiga/crypt\optiga_crypt.c ****         OPTIGA_PROTECTION_ENABLE(me->my_cmd, me);
 2330              	 .loc 1 231 0
 2331 0060 0A9B     	 ldr r3,[sp,#40]
 2332 0062 A360     	 str r3,[r4,#8]
 232:D:/School/diseratie/SEMS/xmc4800_evaluation_kit/optiga-trust-m/optiga/crypt\optiga_crypt.c ****         OPTIGA_PROTECTION_SET_VERSION(me->my_cmd, me);
 2333              	 .loc 1 232 0
 2334 0064 206A     	 ldr r0,[r4,#32]
 2335 0066 94F82E10 	 ldrb r1,[r4,#46]
 227:D:/School/diseratie/SEMS/xmc4800_evaluation_kit/optiga-trust-m/optiga/crypt\optiga_crypt.c ****         p_params->digest_length = digest_length;
 2336              	 .loc 1 227 0
 2337 006a 2560     	 str r5,[r4]
 232:D:/School/diseratie/SEMS/xmc4800_evaluation_kit/optiga-trust-m/optiga/crypt\optiga_crypt.c ****         OPTIGA_PROTECTION_SET_VERSION(me->my_cmd, me);
 2338              	 .loc 1 232 0
 2339 006c 0022     	 movs r2,#0
 229:D:/School/diseratie/SEMS/xmc4800_evaluation_kit/optiga-trust-m/optiga/crypt\optiga_crypt.c ****         p_params->p_signature = p_signature;
 2340              	 .loc 1 229 0
 2341 006e A781     	 strh r7,[r4,#12]
 232:D:/School/diseratie/SEMS/xmc4800_evaluation_kit/optiga-trust-m/optiga/crypt\optiga_crypt.c ****         OPTIGA_PROTECTION_SET_VERSION(me->my_cmd, me);
 2342              	 .loc 1 232 0
 2343 0070 FFF7FEFF 	 bl optiga_cmd_set_shielded_connection_option
 2344              	.LVL234:
 233:D:/School/diseratie/SEMS/xmc4800_evaluation_kit/optiga-trust-m/optiga/crypt\optiga_crypt.c **** 
 2345              	 .loc 1 233 0
 2346 0074 4246     	 mov r2,r8
 2347 0076 206A     	 ldr r0,[r4,#32]
 2348 0078 94F82F10 	 ldrb r1,[r4,#47]
 2349 007c FFF7FEFF 	 bl optiga_cmd_set_shielded_connection_option
 2350              	.LVL235:
 235:D:/School/diseratie/SEMS/xmc4800_evaluation_kit/optiga-trust-m/optiga/crypt\optiga_crypt.c ****                                             signature_scheme,
 2351              	 .loc 1 235 0
 2352 0080 3146     	 mov r1,r6
 2353 0082 206A     	 ldr r0,[r4,#32]
 2354 0084 2246     	 mov r2,r4
 2355 0086 FFF7FEFF 	 bl optiga_cmd_calc_sign
 2356              	.LVL236:
 238:D:/School/diseratie/SEMS/xmc4800_evaluation_kit/optiga-trust-m/optiga/crypt\optiga_crypt.c ****         {
 2357              	 .loc 1 238 0
 2358 008a 0028     	 cmp r0,#0
 2359 008c CFD0     	 beq .L205
 240:D:/School/diseratie/SEMS/xmc4800_evaluation_kit/optiga-trust-m/optiga/crypt\optiga_crypt.c ****         }
 2360              	 .loc 1 240 0
 2361 008e 0023     	 movs r3,#0
 2362 0090 A385     	 strh r3,[r4,#44]
 2363 0092 CCE7     	 b .L205
 2364              	.LBE242:
 2365              	.LBE244:
 2366              	 .cfi_endproc
 2367              	.LFE24:
 2369              	 .section .text.optiga_crypt_rsa_verify,"ax",%progbits
 2370              	 .align 2
 2371              	 .global optiga_crypt_rsa_verify
 2372              	 .thumb
 2373              	 .thumb_func
 2375              	optiga_crypt_rsa_verify:
 2376              	.LFB25:
1122:D:/School/diseratie/SEMS/xmc4800_evaluation_kit/optiga-trust-m/optiga/crypt\optiga_crypt.c **** 
1123:D:/School/diseratie/SEMS/xmc4800_evaluation_kit/optiga-trust-m/optiga/crypt\optiga_crypt.c **** #endif //OPTIGA_CRYPT_RSA_SIGN_ENABLED
1124:D:/School/diseratie/SEMS/xmc4800_evaluation_kit/optiga-trust-m/optiga/crypt\optiga_crypt.c **** #ifdef OPTIGA_CRYPT_RSA_VERIFY_ENABLED
1125:D:/School/diseratie/SEMS/xmc4800_evaluation_kit/optiga-trust-m/optiga/crypt\optiga_crypt.c **** optiga_lib_status_t optiga_crypt_rsa_verify(optiga_crypt_t * me,
1126:D:/School/diseratie/SEMS/xmc4800_evaluation_kit/optiga-trust-m/optiga/crypt\optiga_crypt.c ****                                             optiga_rsa_signature_scheme_t signature_scheme,
1127:D:/School/diseratie/SEMS/xmc4800_evaluation_kit/optiga-trust-m/optiga/crypt\optiga_crypt.c ****                                             const uint8_t * digest,
1128:D:/School/diseratie/SEMS/xmc4800_evaluation_kit/optiga-trust-m/optiga/crypt\optiga_crypt.c ****                                             uint8_t digest_length,
1129:D:/School/diseratie/SEMS/xmc4800_evaluation_kit/optiga-trust-m/optiga/crypt\optiga_crypt.c ****                                             const uint8_t * signature,
1130:D:/School/diseratie/SEMS/xmc4800_evaluation_kit/optiga-trust-m/optiga/crypt\optiga_crypt.c ****                                             uint16_t signature_length,
1131:D:/School/diseratie/SEMS/xmc4800_evaluation_kit/optiga-trust-m/optiga/crypt\optiga_crypt.c ****                                             uint8_t public_key_source_type,
1132:D:/School/diseratie/SEMS/xmc4800_evaluation_kit/optiga-trust-m/optiga/crypt\optiga_crypt.c ****                                             const void * public_key,
1133:D:/School/diseratie/SEMS/xmc4800_evaluation_kit/optiga-trust-m/optiga/crypt\optiga_crypt.c ****                                             uint16_t salt_length)
1134:D:/School/diseratie/SEMS/xmc4800_evaluation_kit/optiga-trust-m/optiga/crypt\optiga_crypt.c **** {
 2377              	 .loc 1 1134 0
 2378              	 .cfi_startproc
 2379              	 
 2380              	 
 2381              	.LVL237:
 2382 0000 2DE9F043 	 push {r4,r5,r6,r7,r8,r9,lr}
 2383              	.LCFI66:
 2384              	 .cfi_def_cfa_offset 28
 2385              	 .cfi_offset 4,-28
 2386              	 .cfi_offset 5,-24
 2387              	 .cfi_offset 6,-20
 2388              	 .cfi_offset 7,-16
 2389              	 .cfi_offset 8,-12
 2390              	 .cfi_offset 9,-8
 2391              	 .cfi_offset 14,-4
 2392 0004 83B0     	 sub sp,sp,#12
 2393              	.LCFI67:
 2394              	 .cfi_def_cfa_offset 40
 2395              	.LVL238:
 2396              	 .loc 1 1134 0
 2397 0006 BDF82C80 	 ldrh r8,[sp,#44]
 2398              	.LVL239:
 2399 000a 9DF83060 	 ldrb r6,[sp,#48]
 2400              	.LVL240:
 2401              	.LBB251:
 2402              	.LBB252:
 267:D:/School/diseratie/SEMS/xmc4800_evaluation_kit/optiga-trust-m/optiga/crypt\optiga_crypt.c ****             (NULL == p_digest) || (NULL == p_signature) || (NULL == p_public_key))
 2403              	 .loc 1 267 0
 2404 000e B0B1     	 cbz r0,.L223
 2405 0010 1546     	 mov r5,r2
 2406              	.LVL241:
 2407 0012 026A     	 ldr r2,[r0,#32]
 2408              	.LVL242:
 2409 0014 0446     	 mov r4,r0
 2410 0016 52B1     	 cbz r2,.L227
 2411 0018 4DB1     	 cbz r5,.L227
 268:D:/School/diseratie/SEMS/xmc4800_evaluation_kit/optiga-trust-m/optiga/crypt\optiga_crypt.c ****         {
 2412              	 .loc 1 268 0
 2413 001a 0A9A     	 ldr r2,[sp,#40]
 2414 001c 3AB1     	 cbz r2,.L227
 2415 001e 0D9A     	 ldr r2,[sp,#52]
 2416 0020 2AB1     	 cbz r2,.L227
 275:D:/School/diseratie/SEMS/xmc4800_evaluation_kit/optiga-trust-m/optiga/crypt\optiga_crypt.c ****         {
 2417              	 .loc 1 275 0
 2418 0022 828D     	 ldrh r2,[r0,#44]
 2419 0024 012A     	 cmp r2,#1
 2420 0026 0FD1     	 bne .L234
 277:D:/School/diseratie/SEMS/xmc4800_evaluation_kit/optiga-trust-m/optiga/crypt\optiga_crypt.c ****             break;
 2421              	 .loc 1 277 0
 2422 0028 40F20540 	 movw r0,#1029
 2423              	.LVL243:
 2424 002c 01E0     	 b .L220
 2425              	.LVL244:
 2426              	.L227:
 270:D:/School/diseratie/SEMS/xmc4800_evaluation_kit/optiga-trust-m/optiga/crypt\optiga_crypt.c ****             break;
 2427              	 .loc 1 270 0
 2428 002e 40F20340 	 movw r0,#1027
 2429              	.LVL245:
 2430              	.L220:
 2431              	.LBB253:
 2432              	.LBB254:
 2433              	.LBB255:
 683:D:/School/diseratie/SEMS/xmc4800_evaluation_kit/optiga-trust-m/optiga/crypt\optiga_crypt.c ****             break;
 2434              	 .loc 1 683 0
 2435 0032 0023     	 movs r3,#0
 2436 0034 84F82E30 	 strb r3,[r4,#46]
 2437              	.LBE255:
 2438              	.LBE254:
 2439              	.LBE253:
 2440              	.LBE252:
 2441              	.LBE251:
1135:D:/School/diseratie/SEMS/xmc4800_evaluation_kit/optiga-trust-m/optiga/crypt\optiga_crypt.c ****     OPTIGA_CRYPT_LOG_MESSAGE(__FUNCTION__);
1136:D:/School/diseratie/SEMS/xmc4800_evaluation_kit/optiga-trust-m/optiga/crypt\optiga_crypt.c ****     return (optiga_crypt_verify(me,
1137:D:/School/diseratie/SEMS/xmc4800_evaluation_kit/optiga-trust-m/optiga/crypt\optiga_crypt.c ****                                 (uint8_t)signature_scheme,
1138:D:/School/diseratie/SEMS/xmc4800_evaluation_kit/optiga-trust-m/optiga/crypt\optiga_crypt.c ****                                 digest,
1139:D:/School/diseratie/SEMS/xmc4800_evaluation_kit/optiga-trust-m/optiga/crypt\optiga_crypt.c ****                                 digest_length,
1140:D:/School/diseratie/SEMS/xmc4800_evaluation_kit/optiga-trust-m/optiga/crypt\optiga_crypt.c ****                                 signature,
1141:D:/School/diseratie/SEMS/xmc4800_evaluation_kit/optiga-trust-m/optiga/crypt\optiga_crypt.c ****                                 signature_length,
1142:D:/School/diseratie/SEMS/xmc4800_evaluation_kit/optiga-trust-m/optiga/crypt\optiga_crypt.c ****                                 public_key_source_type,
1143:D:/School/diseratie/SEMS/xmc4800_evaluation_kit/optiga-trust-m/optiga/crypt\optiga_crypt.c ****                                 public_key,
1144:D:/School/diseratie/SEMS/xmc4800_evaluation_kit/optiga-trust-m/optiga/crypt\optiga_crypt.c ****                                 salt_length));
1145:D:/School/diseratie/SEMS/xmc4800_evaluation_kit/optiga-trust-m/optiga/crypt\optiga_crypt.c **** }
 2442              	 .loc 1 1145 0
 2443 0038 03B0     	 add sp,sp,#12
 2444              	.LCFI68:
 2445              	 .cfi_remember_state
 2446              	 .cfi_def_cfa_offset 28
 2447              	 
 2448 003a BDE8F083 	 pop {r4,r5,r6,r7,r8,r9,pc}
 2449              	.LVL246:
 2450              	.L223:
 2451              	.LCFI69:
 2452              	 .cfi_restore_state
 2453              	.LBB258:
 2454              	.LBB256:
 270:D:/School/diseratie/SEMS/xmc4800_evaluation_kit/optiga-trust-m/optiga/crypt\optiga_crypt.c ****             break;
 2455              	 .loc 1 270 0
 2456 003e 40F20340 	 movw r0,#1027
 2457              	.LVL247:
 2458              	.LBE256:
 2459              	.LBE258:
 2460              	 .loc 1 1145 0
 2461 0042 03B0     	 add sp,sp,#12
 2462              	.LCFI70:
 2463              	 .cfi_remember_state
 2464              	 .cfi_def_cfa_offset 28
 2465              	 
 2466 0044 BDE8F083 	 pop {r4,r5,r6,r7,r8,r9,pc}
 2467              	.LVL248:
 2468              	.L234:
 2469              	.LCFI71:
 2470              	 .cfi_restore_state
 2471              	.LBB259:
 2472              	.LBB257:
 281:D:/School/diseratie/SEMS/xmc4800_evaluation_kit/optiga-trust-m/optiga/crypt\optiga_crypt.c ****         p_params = (optiga_verify_sign_params_t *)&(me->params.optiga_verify_sign_params);
 2473              	 .loc 1 281 0
 2474 0048 4FF00109 	 mov r9,#1
 2475 004c A0F82C90 	 strh r9,[r0,#44]
 2476              	.LVL249:
 283:D:/School/diseratie/SEMS/xmc4800_evaluation_kit/optiga-trust-m/optiga/crypt\optiga_crypt.c **** 
 2477              	 .loc 1 283 0
 2478 0050 2022     	 movs r2,#32
 2479 0052 0F46     	 mov r7,r1
 2480              	.LVL250:
 2481 0054 0021     	 movs r1,#0
 2482              	.LVL251:
 2483 0056 0193     	 str r3,[sp,#4]
 2484 0058 FFF7FEFF 	 bl pal_os_memset
 2485              	.LVL252:
 285:D:/School/diseratie/SEMS/xmc4800_evaluation_kit/optiga-trust-m/optiga/crypt\optiga_crypt.c ****         OPTIGA_PROTECTION_SET_VERSION(me->my_cmd, me);
 2486              	 .loc 1 285 0
 2487 005c 206A     	 ldr r0,[r4,#32]
 2488 005e 94F82E10 	 ldrb r1,[r4,#46]
 2489 0062 0022     	 movs r2,#0
 2490 0064 FFF7FEFF 	 bl optiga_cmd_set_shielded_connection_option
 2491              	.LVL253:
 286:D:/School/diseratie/SEMS/xmc4800_evaluation_kit/optiga-trust-m/optiga/crypt\optiga_crypt.c ****         p_params->p_digest = p_digest;
 2492              	 .loc 1 286 0
 2493 0068 4A46     	 mov r2,r9
 2494 006a 206A     	 ldr r0,[r4,#32]
 2495 006c 94F82F10 	 ldrb r1,[r4,#47]
 2496 0070 FFF7FEFF 	 bl optiga_cmd_set_shielded_connection_option
 2497              	.LVL254:
 288:D:/School/diseratie/SEMS/xmc4800_evaluation_kit/optiga-trust-m/optiga/crypt\optiga_crypt.c ****         p_params->p_signature = p_signature;
 2498              	 .loc 1 288 0
 2499 0074 019B     	 ldr r3,[sp,#4]
 2500 0076 2371     	 strb r3,[r4,#4]
 289:D:/School/diseratie/SEMS/xmc4800_evaluation_kit/optiga-trust-m/optiga/crypt\optiga_crypt.c ****         p_params->signature_length = signature_length;
 2501              	 .loc 1 289 0
 2502 0078 0A9B     	 ldr r3,[sp,#40]
 2503 007a A360     	 str r3,[r4,#8]
 287:D:/School/diseratie/SEMS/xmc4800_evaluation_kit/optiga-trust-m/optiga/crypt\optiga_crypt.c ****         p_params->digest_length = digest_length;
 2504              	 .loc 1 287 0
 2505 007c 2560     	 str r5,[r4]
 290:D:/School/diseratie/SEMS/xmc4800_evaluation_kit/optiga-trust-m/optiga/crypt\optiga_crypt.c ****         p_params->public_key_source_type = public_key_source_type;
 2506              	 .loc 1 290 0
 2507 007e A4F80C80 	 strh r8,[r4,#12]
 291:D:/School/diseratie/SEMS/xmc4800_evaluation_kit/optiga-trust-m/optiga/crypt\optiga_crypt.c **** 
 2508              	 .loc 1 291 0
 2509 0082 A673     	 strb r6,[r4,#14]
 295:D:/School/diseratie/SEMS/xmc4800_evaluation_kit/optiga-trust-m/optiga/crypt\optiga_crypt.c ****         }
 2510              	 .loc 1 295 0
 2511 0084 0D9B     	 ldr r3,[sp,#52]
 293:D:/School/diseratie/SEMS/xmc4800_evaluation_kit/optiga-trust-m/optiga/crypt\optiga_crypt.c ****         {
 2512              	 .loc 1 293 0
 2513 0086 56B1     	 cbz r6,.L235
 299:D:/School/diseratie/SEMS/xmc4800_evaluation_kit/optiga-trust-m/optiga/crypt\optiga_crypt.c ****         }
 2514              	 .loc 1 299 0
 2515 0088 2361     	 str r3,[r4,#16]
 2516              	.L222:
 302:D:/School/diseratie/SEMS/xmc4800_evaluation_kit/optiga-trust-m/optiga/crypt\optiga_crypt.c ****                                              (uint8_t)cmd_param,
 2517              	 .loc 1 302 0
 2518 008a 3946     	 mov r1,r7
 2519 008c 206A     	 ldr r0,[r4,#32]
 2520 008e 2246     	 mov r2,r4
 2521 0090 FFF7FEFF 	 bl optiga_cmd_verify_sign
 2522              	.LVL255:
 305:D:/School/diseratie/SEMS/xmc4800_evaluation_kit/optiga-trust-m/optiga/crypt\optiga_crypt.c ****         {
 2523              	 .loc 1 305 0
 2524 0094 0028     	 cmp r0,#0
 2525 0096 CCD0     	 beq .L220
 307:D:/School/diseratie/SEMS/xmc4800_evaluation_kit/optiga-trust-m/optiga/crypt\optiga_crypt.c ****         }
 2526              	 .loc 1 307 0
 2527 0098 0023     	 movs r3,#0
 2528 009a A385     	 strh r3,[r4,#44]
 2529 009c C9E7     	 b .L220
 2530              	.LVL256:
 2531              	.L235:
 295:D:/School/diseratie/SEMS/xmc4800_evaluation_kit/optiga-trust-m/optiga/crypt\optiga_crypt.c ****         }
 2532              	 .loc 1 295 0
 2533 009e 1B88     	 ldrh r3,[r3]
 2534 00a0 A382     	 strh r3,[r4,#20]
 2535 00a2 F2E7     	 b .L222
 2536              	.LBE257:
 2537              	.LBE259:
 2538              	 .cfi_endproc
 2539              	.LFE25:
 2541              	 .section .text.optiga_crypt_rsa_encrypt_message,"ax",%progbits
 2542              	 .align 2
 2543              	 .global optiga_crypt_rsa_encrypt_message
 2544              	 .thumb
 2545              	 .thumb_func
 2547              	optiga_crypt_rsa_encrypt_message:
 2548              	.LFB26:
1146:D:/School/diseratie/SEMS/xmc4800_evaluation_kit/optiga-trust-m/optiga/crypt\optiga_crypt.c **** #endif //OPTIGA_CRYPT_RSA_VERIFY_ENABLED
1147:D:/School/diseratie/SEMS/xmc4800_evaluation_kit/optiga-trust-m/optiga/crypt\optiga_crypt.c **** 
1148:D:/School/diseratie/SEMS/xmc4800_evaluation_kit/optiga-trust-m/optiga/crypt\optiga_crypt.c **** #ifdef OPTIGA_CRYPT_RSA_ENCRYPT_ENABLED
1149:D:/School/diseratie/SEMS/xmc4800_evaluation_kit/optiga-trust-m/optiga/crypt\optiga_crypt.c **** optiga_lib_status_t optiga_crypt_rsa_encrypt_message(optiga_crypt_t * me,
1150:D:/School/diseratie/SEMS/xmc4800_evaluation_kit/optiga-trust-m/optiga/crypt\optiga_crypt.c ****                                                      optiga_rsa_encryption_scheme_t encryption_sche
1151:D:/School/diseratie/SEMS/xmc4800_evaluation_kit/optiga-trust-m/optiga/crypt\optiga_crypt.c ****                                                      const uint8_t * message,
1152:D:/School/diseratie/SEMS/xmc4800_evaluation_kit/optiga-trust-m/optiga/crypt\optiga_crypt.c ****                                                      uint16_t message_length,
1153:D:/School/diseratie/SEMS/xmc4800_evaluation_kit/optiga-trust-m/optiga/crypt\optiga_crypt.c ****                                                      const uint8_t * label,
1154:D:/School/diseratie/SEMS/xmc4800_evaluation_kit/optiga-trust-m/optiga/crypt\optiga_crypt.c ****                                                      uint16_t label_length,
1155:D:/School/diseratie/SEMS/xmc4800_evaluation_kit/optiga-trust-m/optiga/crypt\optiga_crypt.c ****                                                      uint8_t public_key_source_type,
1156:D:/School/diseratie/SEMS/xmc4800_evaluation_kit/optiga-trust-m/optiga/crypt\optiga_crypt.c ****                                                      const void * public_key,
1157:D:/School/diseratie/SEMS/xmc4800_evaluation_kit/optiga-trust-m/optiga/crypt\optiga_crypt.c ****                                                      uint8_t * encrypted_message,
1158:D:/School/diseratie/SEMS/xmc4800_evaluation_kit/optiga-trust-m/optiga/crypt\optiga_crypt.c ****                                                      uint16_t * encrypted_message_length)
1159:D:/School/diseratie/SEMS/xmc4800_evaluation_kit/optiga-trust-m/optiga/crypt\optiga_crypt.c **** {
 2549              	 .loc 1 1159 0
 2550              	 .cfi_startproc
 2551              	 
 2552              	 
 2553              	.LVL257:
 2554 0000 2DE9F041 	 push {r4,r5,r6,r7,r8,lr}
 2555              	.LCFI72:
 2556              	 .cfi_def_cfa_offset 24
 2557              	 .cfi_offset 4,-24
 2558              	 .cfi_offset 5,-20
 2559              	 .cfi_offset 6,-16
 2560              	 .cfi_offset 7,-12
 2561              	 .cfi_offset 8,-8
 2562              	 .cfi_offset 14,-4
 2563 0004 82B0     	 sub sp,sp,#8
 2564              	.LCFI73:
 2565              	 .cfi_def_cfa_offset 32
 2566              	.LVL258:
 2567              	 .loc 1 1159 0
 2568 0006 9DF82870 	 ldrb r7,[sp,#40]
1160:D:/School/diseratie/SEMS/xmc4800_evaluation_kit/optiga-trust-m/optiga/crypt\optiga_crypt.c **** 
1161:D:/School/diseratie/SEMS/xmc4800_evaluation_kit/optiga-trust-m/optiga/crypt\optiga_crypt.c ****     optiga_lib_status_t return_value = OPTIGA_CRYPT_ERROR_INVALID_INPUT;
1162:D:/School/diseratie/SEMS/xmc4800_evaluation_kit/optiga-trust-m/optiga/crypt\optiga_crypt.c ****     OPTIGA_CRYPT_LOG_MESSAGE(__FUNCTION__);
1163:D:/School/diseratie/SEMS/xmc4800_evaluation_kit/optiga-trust-m/optiga/crypt\optiga_crypt.c ****     do
1164:D:/School/diseratie/SEMS/xmc4800_evaluation_kit/optiga-trust-m/optiga/crypt\optiga_crypt.c ****     {
1165:D:/School/diseratie/SEMS/xmc4800_evaluation_kit/optiga-trust-m/optiga/crypt\optiga_crypt.c **** #ifdef OPTIGA_LIB_DEBUG_NULL_CHECK
1166:D:/School/diseratie/SEMS/xmc4800_evaluation_kit/optiga-trust-m/optiga/crypt\optiga_crypt.c ****         if ((NULL == me) || (NULL == me->my_cmd) || (NULL == message)||
 2569              	 .loc 1 1166 0
 2570 000a A8B1     	 cbz r0,.L244
 2571 000c 1546     	 mov r5,r2
 2572              	 .loc 1 1166 0 is_stmt 0 discriminator 1
 2573 000e 026A     	 ldr r2,[r0,#32]
 2574              	.LVL259:
 2575 0010 0446     	 mov r4,r0
 2576 0012 8AB1     	 cbz r2,.L244
 2577              	 .loc 1 1166 0 discriminator 2
 2578 0014 85B1     	 cbz r5,.L244
 2579              	 .loc 1 1166 0 discriminator 3
 2580 0016 0B9A     	 ldr r2,[sp,#44]
 2581 0018 72B1     	 cbz r2,.L244
1167:D:/School/diseratie/SEMS/xmc4800_evaluation_kit/optiga-trust-m/optiga/crypt\optiga_crypt.c ****             (NULL == public_key) || (NULL == encrypted_message) || (NULL == encrypted_message_lengt
 2582              	 .loc 1 1167 0 is_stmt 1
 2583 001a 0C9A     	 ldr r2,[sp,#48]
 2584 001c 62B1     	 cbz r2,.L244
 2585              	 .loc 1 1167 0 is_stmt 0 discriminator 1
 2586 001e 0D9A     	 ldr r2,[sp,#52]
 2587 0020 52B1     	 cbz r2,.L244
 2588              	.LVL260:
 2589              	.LBB266:
 2590              	.LBB267:
 335:D:/School/diseratie/SEMS/xmc4800_evaluation_kit/optiga-trust-m/optiga/crypt\optiga_crypt.c ****         {
 2591              	 .loc 1 335 0 is_stmt 1
 2592 0022 828D     	 ldrh r2,[r0,#44]
 2593              	.LVL261:
 2594 0024 012A     	 cmp r2,#1
 2595 0026 0CD1     	 bne .L250
 337:D:/School/diseratie/SEMS/xmc4800_evaluation_kit/optiga-trust-m/optiga/crypt\optiga_crypt.c ****             break;
 2596              	 .loc 1 337 0
 2597 0028 40F20540 	 movw r0,#1029
 2598              	.LVL262:
 2599              	.L238:
 2600              	.LBB268:
 2601              	.LBB269:
 2602              	.LBB270:
 683:D:/School/diseratie/SEMS/xmc4800_evaluation_kit/optiga-trust-m/optiga/crypt\optiga_crypt.c ****             break;
 2603              	 .loc 1 683 0
 2604 002c 0023     	 movs r3,#0
 2605 002e 84F82E30 	 strb r3,[r4,#46]
 2606              	.LVL263:
 2607              	.LBE270:
 2608              	.LBE269:
 2609              	.LBE268:
 2610              	.LBE267:
 2611              	.LBE266:
1168:D:/School/diseratie/SEMS/xmc4800_evaluation_kit/optiga-trust-m/optiga/crypt\optiga_crypt.c ****         {
1169:D:/School/diseratie/SEMS/xmc4800_evaluation_kit/optiga-trust-m/optiga/crypt\optiga_crypt.c ****             break;
1170:D:/School/diseratie/SEMS/xmc4800_evaluation_kit/optiga-trust-m/optiga/crypt\optiga_crypt.c ****         }
1171:D:/School/diseratie/SEMS/xmc4800_evaluation_kit/optiga-trust-m/optiga/crypt\optiga_crypt.c **** #endif
1172:D:/School/diseratie/SEMS/xmc4800_evaluation_kit/optiga-trust-m/optiga/crypt\optiga_crypt.c ****         return_value =  optiga_crypt_rsa_enc_dec(me,
1173:D:/School/diseratie/SEMS/xmc4800_evaluation_kit/optiga-trust-m/optiga/crypt\optiga_crypt.c ****                                                  encryption_scheme,
1174:D:/School/diseratie/SEMS/xmc4800_evaluation_kit/optiga-trust-m/optiga/crypt\optiga_crypt.c ****                                                  message,
1175:D:/School/diseratie/SEMS/xmc4800_evaluation_kit/optiga-trust-m/optiga/crypt\optiga_crypt.c ****                                                  message_length,
1176:D:/School/diseratie/SEMS/xmc4800_evaluation_kit/optiga-trust-m/optiga/crypt\optiga_crypt.c ****                                                  label,
1177:D:/School/diseratie/SEMS/xmc4800_evaluation_kit/optiga-trust-m/optiga/crypt\optiga_crypt.c ****                                                  label_length,
1178:D:/School/diseratie/SEMS/xmc4800_evaluation_kit/optiga-trust-m/optiga/crypt\optiga_crypt.c ****                                                  public_key_source_type,
1179:D:/School/diseratie/SEMS/xmc4800_evaluation_kit/optiga-trust-m/optiga/crypt\optiga_crypt.c ****                                                  public_key,
1180:D:/School/diseratie/SEMS/xmc4800_evaluation_kit/optiga-trust-m/optiga/crypt\optiga_crypt.c ****                                                  encrypted_message,
1181:D:/School/diseratie/SEMS/xmc4800_evaluation_kit/optiga-trust-m/optiga/crypt\optiga_crypt.c ****                                                  encrypted_message_length,
1182:D:/School/diseratie/SEMS/xmc4800_evaluation_kit/optiga-trust-m/optiga/crypt\optiga_crypt.c ****                                                  TRUE);
1183:D:/School/diseratie/SEMS/xmc4800_evaluation_kit/optiga-trust-m/optiga/crypt\optiga_crypt.c ****     } while (FALSE);
1184:D:/School/diseratie/SEMS/xmc4800_evaluation_kit/optiga-trust-m/optiga/crypt\optiga_crypt.c ****     return (return_value);
1185:D:/School/diseratie/SEMS/xmc4800_evaluation_kit/optiga-trust-m/optiga/crypt\optiga_crypt.c **** }
 2612              	 .loc 1 1185 0
 2613 0032 02B0     	 add sp,sp,#8
 2614              	.LCFI74:
 2615              	 .cfi_remember_state
 2616              	 .cfi_def_cfa_offset 24
 2617              	 
 2618 0034 BDE8F081 	 pop {r4,r5,r6,r7,r8,pc}
 2619              	.LVL264:
 2620              	.L244:
 2621              	.LCFI75:
 2622              	 .cfi_restore_state
1161:D:/School/diseratie/SEMS/xmc4800_evaluation_kit/optiga-trust-m/optiga/crypt\optiga_crypt.c ****     OPTIGA_CRYPT_LOG_MESSAGE(__FUNCTION__);
 2623              	 .loc 1 1161 0
 2624 0038 40F20340 	 movw r0,#1027
 2625              	.LVL265:
 2626              	 .loc 1 1185 0
 2627 003c 02B0     	 add sp,sp,#8
 2628              	.LCFI76:
 2629              	 .cfi_remember_state
 2630              	 .cfi_def_cfa_offset 24
 2631              	 
 2632 003e BDE8F081 	 pop {r4,r5,r6,r7,r8,pc}
 2633              	.LVL266:
 2634              	.L250:
 2635              	.LCFI77:
 2636              	 .cfi_restore_state
 2637              	.LBB272:
 2638              	.LBB271:
 340:D:/School/diseratie/SEMS/xmc4800_evaluation_kit/optiga-trust-m/optiga/crypt\optiga_crypt.c **** 
 2639              	 .loc 1 340 0
 2640 0042 4FF00108 	 mov r8,#1
 2641 0046 0E46     	 mov r6,r1
 2642 0048 A0F82C80 	 strh r8,[r0,#44]
 2643              	.LVL267:
 343:D:/School/diseratie/SEMS/xmc4800_evaluation_kit/optiga-trust-m/optiga/crypt\optiga_crypt.c **** 
 2644              	 .loc 1 343 0
 2645 004c 0021     	 movs r1,#0
 2646              	.LVL268:
 2647 004e 2022     	 movs r2,#32
 2648 0050 0193     	 str r3,[sp,#4]
 2649 0052 FFF7FEFF 	 bl pal_os_memset
 2650              	.LVL269:
 346:D:/School/diseratie/SEMS/xmc4800_evaluation_kit/optiga-trust-m/optiga/crypt\optiga_crypt.c ****         p_params->processed_message = p_processed_message;
 2651              	 .loc 1 346 0
 2652 0056 019B     	 ldr r3,[sp,#4]
 2653 0058 2380     	 strh r3,[r4]
 347:D:/School/diseratie/SEMS/xmc4800_evaluation_kit/optiga-trust-m/optiga/crypt\optiga_crypt.c ****         p_params->processed_message_length = p_processed_message_length;
 2654              	 .loc 1 347 0
 2655 005a 0C9B     	 ldr r3,[sp,#48]
 2656 005c 6361     	 str r3,[r4,#20]
 348:D:/School/diseratie/SEMS/xmc4800_evaluation_kit/optiga-trust-m/optiga/crypt\optiga_crypt.c **** 
 2657              	 .loc 1 348 0
 2658 005e 0D9B     	 ldr r3,[sp,#52]
 2659 0060 6360     	 str r3,[r4,#4]
 350:D:/School/diseratie/SEMS/xmc4800_evaluation_kit/optiga-trust-m/optiga/crypt\optiga_crypt.c ****         OPTIGA_PROTECTION_SET_VERSION(me->my_cmd, me);
 2660              	 .loc 1 350 0
 2661 0062 206A     	 ldr r0,[r4,#32]
 2662 0064 94F82E10 	 ldrb r1,[r4,#46]
 345:D:/School/diseratie/SEMS/xmc4800_evaluation_kit/optiga-trust-m/optiga/crypt\optiga_crypt.c ****         p_params->message_length = message_length;
 2663              	 .loc 1 345 0
 2664 0068 A560     	 str r5,[r4,#8]
 350:D:/School/diseratie/SEMS/xmc4800_evaluation_kit/optiga-trust-m/optiga/crypt\optiga_crypt.c ****         OPTIGA_PROTECTION_SET_VERSION(me->my_cmd, me);
 2665              	 .loc 1 350 0
 2666 006a 0022     	 movs r2,#0
 2667 006c FFF7FEFF 	 bl optiga_cmd_set_shielded_connection_option
 2668              	.LVL270:
 351:D:/School/diseratie/SEMS/xmc4800_evaluation_kit/optiga-trust-m/optiga/crypt\optiga_crypt.c **** 
 2669              	 .loc 1 351 0
 2670 0070 4246     	 mov r2,r8
 2671 0072 206A     	 ldr r0,[r4,#32]
 2672 0074 94F82F10 	 ldrb r1,[r4,#47]
 2673 0078 FFF7FEFF 	 bl optiga_cmd_set_shielded_connection_option
 2674              	.LVL271:
 356:D:/School/diseratie/SEMS/xmc4800_evaluation_kit/optiga-trust-m/optiga/crypt\optiga_crypt.c ****             p_params->public_key_source_type = public_key_source_type;
 2675              	 .loc 1 356 0
 2676 007c 0B9B     	 ldr r3,[sp,#44]
 2677 007e 2361     	 str r3,[r4,#16]
 357:D:/School/diseratie/SEMS/xmc4800_evaluation_kit/optiga-trust-m/optiga/crypt\optiga_crypt.c **** #ifdef OPTIGA_CRYPT_RSA_ENCRYPT_ENABLED
 2678              	 .loc 1 357 0
 2679 0080 2773     	 strb r7,[r4,#12]
 359:D:/School/diseratie/SEMS/xmc4800_evaluation_kit/optiga-trust-m/optiga/crypt\optiga_crypt.c ****                                                    (optiga_encrypt_asym_params_t *)p_params);
 2680              	 .loc 1 359 0
 2681 0082 3146     	 mov r1,r6
 2682 0084 206A     	 ldr r0,[r4,#32]
 2683 0086 2246     	 mov r2,r4
 2684 0088 FFF7FEFF 	 bl optiga_cmd_encrypt_asym
 2685              	.LVL272:
 373:D:/School/diseratie/SEMS/xmc4800_evaluation_kit/optiga-trust-m/optiga/crypt\optiga_crypt.c ****         {
 2686              	 .loc 1 373 0
 2687 008c 0028     	 cmp r0,#0
 2688 008e CDD0     	 beq .L238
 375:D:/School/diseratie/SEMS/xmc4800_evaluation_kit/optiga-trust-m/optiga/crypt\optiga_crypt.c ****         }
 2689              	 .loc 1 375 0
 2690 0090 0023     	 movs r3,#0
 2691 0092 A385     	 strh r3,[r4,#44]
 2692 0094 CAE7     	 b .L238
 2693              	.LBE271:
 2694              	.LBE272:
 2695              	 .cfi_endproc
 2696              	.LFE26:
 2698 0096 00BF     	 .section .text.optiga_crypt_rsa_encrypt_session,"ax",%progbits
 2699              	 .align 2
 2700              	 .global optiga_crypt_rsa_encrypt_session
 2701              	 .thumb
 2702              	 .thumb_func
 2704              	optiga_crypt_rsa_encrypt_session:
 2705              	.LFB27:
1186:D:/School/diseratie/SEMS/xmc4800_evaluation_kit/optiga-trust-m/optiga/crypt\optiga_crypt.c **** 
1187:D:/School/diseratie/SEMS/xmc4800_evaluation_kit/optiga-trust-m/optiga/crypt\optiga_crypt.c **** optiga_lib_status_t optiga_crypt_rsa_encrypt_session(optiga_crypt_t * me,
1188:D:/School/diseratie/SEMS/xmc4800_evaluation_kit/optiga-trust-m/optiga/crypt\optiga_crypt.c ****                                                      optiga_rsa_encryption_scheme_t encryption_sche
1189:D:/School/diseratie/SEMS/xmc4800_evaluation_kit/optiga-trust-m/optiga/crypt\optiga_crypt.c ****                                                      const uint8_t * label,
1190:D:/School/diseratie/SEMS/xmc4800_evaluation_kit/optiga-trust-m/optiga/crypt\optiga_crypt.c ****                                                      uint16_t label_length,
1191:D:/School/diseratie/SEMS/xmc4800_evaluation_kit/optiga-trust-m/optiga/crypt\optiga_crypt.c ****                                                      uint8_t public_key_source_type,
1192:D:/School/diseratie/SEMS/xmc4800_evaluation_kit/optiga-trust-m/optiga/crypt\optiga_crypt.c ****                                                      const void * public_key,
1193:D:/School/diseratie/SEMS/xmc4800_evaluation_kit/optiga-trust-m/optiga/crypt\optiga_crypt.c ****                                                      uint8_t * encrypted_message,
1194:D:/School/diseratie/SEMS/xmc4800_evaluation_kit/optiga-trust-m/optiga/crypt\optiga_crypt.c ****                                                      uint16_t * encrypted_message_length)
1195:D:/School/diseratie/SEMS/xmc4800_evaluation_kit/optiga-trust-m/optiga/crypt\optiga_crypt.c **** {
 2706              	 .loc 1 1195 0
 2707              	 .cfi_startproc
 2708              	 
 2709              	 
 2710              	.LVL273:
 2711 0000 2DE9F041 	 push {r4,r5,r6,r7,r8,lr}
 2712              	.LCFI78:
 2713              	 .cfi_def_cfa_offset 24
 2714              	 .cfi_offset 4,-24
 2715              	 .cfi_offset 5,-20
 2716              	 .cfi_offset 6,-16
 2717              	 .cfi_offset 7,-12
 2718              	 .cfi_offset 8,-8
 2719              	 .cfi_offset 14,-4
 2720              	 .loc 1 1195 0
 2721 0004 9DF81860 	 ldrb r6,[sp,#24]
1196:D:/School/diseratie/SEMS/xmc4800_evaluation_kit/optiga-trust-m/optiga/crypt\optiga_crypt.c ****     optiga_lib_status_t return_value = OPTIGA_CRYPT_ERROR_INVALID_INPUT;
1197:D:/School/diseratie/SEMS/xmc4800_evaluation_kit/optiga-trust-m/optiga/crypt\optiga_crypt.c ****     OPTIGA_CRYPT_LOG_MESSAGE(__FUNCTION__);
1198:D:/School/diseratie/SEMS/xmc4800_evaluation_kit/optiga-trust-m/optiga/crypt\optiga_crypt.c ****     do
1199:D:/School/diseratie/SEMS/xmc4800_evaluation_kit/optiga-trust-m/optiga/crypt\optiga_crypt.c ****     {
1200:D:/School/diseratie/SEMS/xmc4800_evaluation_kit/optiga-trust-m/optiga/crypt\optiga_crypt.c **** #ifdef OPTIGA_LIB_DEBUG_NULL_CHECK
1201:D:/School/diseratie/SEMS/xmc4800_evaluation_kit/optiga-trust-m/optiga/crypt\optiga_crypt.c ****         if ((NULL == me) || (NULL == me->my_cmd) || (NULL == encrypted_message)|| (NULL == encrypte
 2722              	 .loc 1 1201 0
 2723 0008 C8B1     	 cbz r0,.L258
 2724              	 .loc 1 1201 0 is_stmt 0 discriminator 1
 2725 000a 036A     	 ldr r3,[r0,#32]
 2726              	.LVL274:
 2727 000c BBB1     	 cbz r3,.L258
 2728              	 .loc 1 1201 0 discriminator 2
 2729 000e 089B     	 ldr r3,[sp,#32]
 2730 0010 ABB1     	 cbz r3,.L258
 2731              	 .loc 1 1201 0 discriminator 3
 2732 0012 099B     	 ldr r3,[sp,#36]
 2733 0014 9BB1     	 cbz r3,.L258
 2734              	 .loc 1 1201 0 discriminator 4
 2735 0016 079B     	 ldr r3,[sp,#28]
 2736 0018 8BB1     	 cbz r3,.L258
1202:D:/School/diseratie/SEMS/xmc4800_evaluation_kit/optiga-trust-m/optiga/crypt\optiga_crypt.c ****             (NULL == public_key))
1203:D:/School/diseratie/SEMS/xmc4800_evaluation_kit/optiga-trust-m/optiga/crypt\optiga_crypt.c ****         {
1204:D:/School/diseratie/SEMS/xmc4800_evaluation_kit/optiga-trust-m/optiga/crypt\optiga_crypt.c ****             break;
1205:D:/School/diseratie/SEMS/xmc4800_evaluation_kit/optiga-trust-m/optiga/crypt\optiga_crypt.c ****         }
1206:D:/School/diseratie/SEMS/xmc4800_evaluation_kit/optiga-trust-m/optiga/crypt\optiga_crypt.c **** #endif
1207:D:/School/diseratie/SEMS/xmc4800_evaluation_kit/optiga-trust-m/optiga/crypt\optiga_crypt.c **** #ifdef OPTIGA_COMMS_SHIELDED_CONNECTION
1208:D:/School/diseratie/SEMS/xmc4800_evaluation_kit/optiga-trust-m/optiga/crypt\optiga_crypt.c ****         me->protection_level |= OPTIGA_COMMS_COMMAND_PROTECTION;
 2737              	 .loc 1 1208 0 is_stmt 1
 2738 001a 90F82E30 	 ldrb r3,[r0,#46]
 2739              	.LBB279:
 2740              	.LBB280:
 335:D:/School/diseratie/SEMS/xmc4800_evaluation_kit/optiga-trust-m/optiga/crypt\optiga_crypt.c ****         {
 2741              	 .loc 1 335 0
 2742 001e 828D     	 ldrh r2,[r0,#44]
 2743              	.LVL275:
 2744              	.LBE280:
 2745              	.LBE279:
 2746              	 .loc 1 1208 0
 2747 0020 43F00103 	 orr r3,r3,#1
 2748              	.LBB287:
 2749              	.LBB284:
 335:D:/School/diseratie/SEMS/xmc4800_evaluation_kit/optiga-trust-m/optiga/crypt\optiga_crypt.c ****         {
 2750              	 .loc 1 335 0
 2751 0024 012A     	 cmp r2,#1
 2752 0026 0446     	 mov r4,r0
 2753 0028 0D46     	 mov r5,r1
 2754              	.LBE284:
 2755              	.LBE287:
 2756              	 .loc 1 1208 0
 2757 002a 80F82E30 	 strb r3,[r0,#46]
 2758              	.LVL276:
 2759              	.LBB288:
 2760              	.LBB285:
 335:D:/School/diseratie/SEMS/xmc4800_evaluation_kit/optiga-trust-m/optiga/crypt\optiga_crypt.c ****         {
 2761              	 .loc 1 335 0
 2762 002e 0AD1     	 bne .L264
 337:D:/School/diseratie/SEMS/xmc4800_evaluation_kit/optiga-trust-m/optiga/crypt\optiga_crypt.c ****             break;
 2763              	 .loc 1 337 0
 2764 0030 40F20540 	 movw r0,#1029
 2765              	.LVL277:
 2766              	.L253:
 2767              	.LBB281:
 2768              	.LBB282:
 2769              	.LBB283:
 683:D:/School/diseratie/SEMS/xmc4800_evaluation_kit/optiga-trust-m/optiga/crypt\optiga_crypt.c ****             break;
 2770              	 .loc 1 683 0
 2771 0034 0023     	 movs r3,#0
 2772 0036 84F82E30 	 strb r3,[r4,#46]
 2773 003a BDE8F081 	 pop {r4,r5,r6,r7,r8,pc}
 2774              	.LVL278:
 2775              	.L258:
 2776              	.LBE283:
 2777              	.LBE282:
 2778              	.LBE281:
 2779              	.LBE285:
 2780              	.LBE288:
1196:D:/School/diseratie/SEMS/xmc4800_evaluation_kit/optiga-trust-m/optiga/crypt\optiga_crypt.c ****     OPTIGA_CRYPT_LOG_MESSAGE(__FUNCTION__);
 2781              	 .loc 1 1196 0
 2782 003e 40F20340 	 movw r0,#1027
 2783              	.LVL279:
1209:D:/School/diseratie/SEMS/xmc4800_evaluation_kit/optiga-trust-m/optiga/crypt\optiga_crypt.c **** #endif //OPTIGA_COMMS_SHIELDED_CONNECTION
1210:D:/School/diseratie/SEMS/xmc4800_evaluation_kit/optiga-trust-m/optiga/crypt\optiga_crypt.c ****         return_value =  optiga_crypt_rsa_enc_dec(me,
1211:D:/School/diseratie/SEMS/xmc4800_evaluation_kit/optiga-trust-m/optiga/crypt\optiga_crypt.c ****                                                  encryption_scheme,
1212:D:/School/diseratie/SEMS/xmc4800_evaluation_kit/optiga-trust-m/optiga/crypt\optiga_crypt.c ****                                                  NULL,
1213:D:/School/diseratie/SEMS/xmc4800_evaluation_kit/optiga-trust-m/optiga/crypt\optiga_crypt.c ****                                                  0,
1214:D:/School/diseratie/SEMS/xmc4800_evaluation_kit/optiga-trust-m/optiga/crypt\optiga_crypt.c ****                                                  label,
1215:D:/School/diseratie/SEMS/xmc4800_evaluation_kit/optiga-trust-m/optiga/crypt\optiga_crypt.c ****                                                  label_length,
1216:D:/School/diseratie/SEMS/xmc4800_evaluation_kit/optiga-trust-m/optiga/crypt\optiga_crypt.c ****                                                  public_key_source_type,
1217:D:/School/diseratie/SEMS/xmc4800_evaluation_kit/optiga-trust-m/optiga/crypt\optiga_crypt.c ****                                                  public_key,
1218:D:/School/diseratie/SEMS/xmc4800_evaluation_kit/optiga-trust-m/optiga/crypt\optiga_crypt.c ****                                                  encrypted_message,
1219:D:/School/diseratie/SEMS/xmc4800_evaluation_kit/optiga-trust-m/optiga/crypt\optiga_crypt.c ****                                                  encrypted_message_length,
1220:D:/School/diseratie/SEMS/xmc4800_evaluation_kit/optiga-trust-m/optiga/crypt\optiga_crypt.c ****                                                  TRUE);
1221:D:/School/diseratie/SEMS/xmc4800_evaluation_kit/optiga-trust-m/optiga/crypt\optiga_crypt.c ****     } while (FALSE);
1222:D:/School/diseratie/SEMS/xmc4800_evaluation_kit/optiga-trust-m/optiga/crypt\optiga_crypt.c ****     return (return_value);
1223:D:/School/diseratie/SEMS/xmc4800_evaluation_kit/optiga-trust-m/optiga/crypt\optiga_crypt.c **** }
 2784              	 .loc 1 1223 0
 2785 0042 BDE8F081 	 pop {r4,r5,r6,r7,r8,pc}
 2786              	.LVL280:
 2787              	.L264:
 2788              	.LBB289:
 2789              	.LBB286:
 340:D:/School/diseratie/SEMS/xmc4800_evaluation_kit/optiga-trust-m/optiga/crypt\optiga_crypt.c **** 
 2790              	 .loc 1 340 0
 2791 0046 4FF00108 	 mov r8,#1
 343:D:/School/diseratie/SEMS/xmc4800_evaluation_kit/optiga-trust-m/optiga/crypt\optiga_crypt.c **** 
 2792              	 .loc 1 343 0
 2793 004a 0021     	 movs r1,#0
 2794              	.LVL281:
 340:D:/School/diseratie/SEMS/xmc4800_evaluation_kit/optiga-trust-m/optiga/crypt\optiga_crypt.c **** 
 2795              	 .loc 1 340 0
 2796 004c A0F82C80 	 strh r8,[r0,#44]
 2797              	.LVL282:
 343:D:/School/diseratie/SEMS/xmc4800_evaluation_kit/optiga-trust-m/optiga/crypt\optiga_crypt.c **** 
 2798              	 .loc 1 343 0
 2799 0050 2022     	 movs r2,#32
 345:D:/School/diseratie/SEMS/xmc4800_evaluation_kit/optiga-trust-m/optiga/crypt\optiga_crypt.c ****         p_params->message_length = message_length;
 2800              	 .loc 1 345 0
 2801 0052 0F46     	 mov r7,r1
 343:D:/School/diseratie/SEMS/xmc4800_evaluation_kit/optiga-trust-m/optiga/crypt\optiga_crypt.c **** 
 2802              	 .loc 1 343 0
 2803 0054 FFF7FEFF 	 bl pal_os_memset
 2804              	.LVL283:
 347:D:/School/diseratie/SEMS/xmc4800_evaluation_kit/optiga-trust-m/optiga/crypt\optiga_crypt.c ****         p_params->processed_message_length = p_processed_message_length;
 2805              	 .loc 1 347 0
 2806 0058 089B     	 ldr r3,[sp,#32]
 2807 005a 6361     	 str r3,[r4,#20]
 348:D:/School/diseratie/SEMS/xmc4800_evaluation_kit/optiga-trust-m/optiga/crypt\optiga_crypt.c **** 
 2808              	 .loc 1 348 0
 2809 005c 099B     	 ldr r3,[sp,#36]
 2810 005e 6360     	 str r3,[r4,#4]
 350:D:/School/diseratie/SEMS/xmc4800_evaluation_kit/optiga-trust-m/optiga/crypt\optiga_crypt.c ****         OPTIGA_PROTECTION_SET_VERSION(me->my_cmd, me);
 2811              	 .loc 1 350 0
 2812 0060 3A46     	 mov r2,r7
 2813 0062 206A     	 ldr r0,[r4,#32]
 2814 0064 94F82E10 	 ldrb r1,[r4,#46]
 345:D:/School/diseratie/SEMS/xmc4800_evaluation_kit/optiga-trust-m/optiga/crypt\optiga_crypt.c ****         p_params->message_length = message_length;
 2815              	 .loc 1 345 0
 2816 0068 A760     	 str r7,[r4,#8]
 346:D:/School/diseratie/SEMS/xmc4800_evaluation_kit/optiga-trust-m/optiga/crypt\optiga_crypt.c ****         p_params->processed_message = p_processed_message;
 2817              	 .loc 1 346 0
 2818 006a 2780     	 strh r7,[r4]
 350:D:/School/diseratie/SEMS/xmc4800_evaluation_kit/optiga-trust-m/optiga/crypt\optiga_crypt.c ****         OPTIGA_PROTECTION_SET_VERSION(me->my_cmd, me);
 2819              	 .loc 1 350 0
 2820 006c FFF7FEFF 	 bl optiga_cmd_set_shielded_connection_option
 2821              	.LVL284:
 351:D:/School/diseratie/SEMS/xmc4800_evaluation_kit/optiga-trust-m/optiga/crypt\optiga_crypt.c **** 
 2822              	 .loc 1 351 0
 2823 0070 4246     	 mov r2,r8
 2824 0072 206A     	 ldr r0,[r4,#32]
 2825 0074 94F82F10 	 ldrb r1,[r4,#47]
 2826 0078 FFF7FEFF 	 bl optiga_cmd_set_shielded_connection_option
 2827              	.LVL285:
 356:D:/School/diseratie/SEMS/xmc4800_evaluation_kit/optiga-trust-m/optiga/crypt\optiga_crypt.c ****             p_params->public_key_source_type = public_key_source_type;
 2828              	 .loc 1 356 0
 2829 007c 079B     	 ldr r3,[sp,#28]
 2830 007e 2361     	 str r3,[r4,#16]
 357:D:/School/diseratie/SEMS/xmc4800_evaluation_kit/optiga-trust-m/optiga/crypt\optiga_crypt.c **** #ifdef OPTIGA_CRYPT_RSA_ENCRYPT_ENABLED
 2831              	 .loc 1 357 0
 2832 0080 2673     	 strb r6,[r4,#12]
 359:D:/School/diseratie/SEMS/xmc4800_evaluation_kit/optiga-trust-m/optiga/crypt\optiga_crypt.c ****                                                    (optiga_encrypt_asym_params_t *)p_params);
 2833              	 .loc 1 359 0
 2834 0082 2946     	 mov r1,r5
 2835 0084 206A     	 ldr r0,[r4,#32]
 2836 0086 2246     	 mov r2,r4
 2837 0088 FFF7FEFF 	 bl optiga_cmd_encrypt_asym
 2838              	.LVL286:
 373:D:/School/diseratie/SEMS/xmc4800_evaluation_kit/optiga-trust-m/optiga/crypt\optiga_crypt.c ****         {
 2839              	 .loc 1 373 0
 2840 008c 0028     	 cmp r0,#0
 2841 008e D1D0     	 beq .L253
 375:D:/School/diseratie/SEMS/xmc4800_evaluation_kit/optiga-trust-m/optiga/crypt\optiga_crypt.c ****         }
 2842              	 .loc 1 375 0
 2843 0090 A785     	 strh r7,[r4,#44]
 2844 0092 CFE7     	 b .L253
 2845              	.LBE286:
 2846              	.LBE289:
 2847              	 .cfi_endproc
 2848              	.LFE27:
 2850              	 .section .text.optiga_crypt_rsa_decrypt_and_export,"ax",%progbits
 2851              	 .align 2
 2852              	 .global optiga_crypt_rsa_decrypt_and_export
 2853              	 .thumb
 2854              	 .thumb_func
 2856              	optiga_crypt_rsa_decrypt_and_export:
 2857              	.LFB28:
1224:D:/School/diseratie/SEMS/xmc4800_evaluation_kit/optiga-trust-m/optiga/crypt\optiga_crypt.c **** 
1225:D:/School/diseratie/SEMS/xmc4800_evaluation_kit/optiga-trust-m/optiga/crypt\optiga_crypt.c **** #endif //OPTIGA_CRYPT_RSA_ENCRYPT_ENABLED
1226:D:/School/diseratie/SEMS/xmc4800_evaluation_kit/optiga-trust-m/optiga/crypt\optiga_crypt.c **** #ifdef OPTIGA_CRYPT_RSA_DECRYPT_ENABLED
1227:D:/School/diseratie/SEMS/xmc4800_evaluation_kit/optiga-trust-m/optiga/crypt\optiga_crypt.c **** optiga_lib_status_t optiga_crypt_rsa_decrypt_and_export(optiga_crypt_t * me,
1228:D:/School/diseratie/SEMS/xmc4800_evaluation_kit/optiga-trust-m/optiga/crypt\optiga_crypt.c ****                                                         optiga_rsa_encryption_scheme_t encryption_s
1229:D:/School/diseratie/SEMS/xmc4800_evaluation_kit/optiga-trust-m/optiga/crypt\optiga_crypt.c ****                                                         const uint8_t * encrypted_message,
1230:D:/School/diseratie/SEMS/xmc4800_evaluation_kit/optiga-trust-m/optiga/crypt\optiga_crypt.c ****                                                         uint16_t encrypted_message_length,
1231:D:/School/diseratie/SEMS/xmc4800_evaluation_kit/optiga-trust-m/optiga/crypt\optiga_crypt.c ****                                                         const uint8_t * label,
1232:D:/School/diseratie/SEMS/xmc4800_evaluation_kit/optiga-trust-m/optiga/crypt\optiga_crypt.c ****                                                         uint16_t label_length,
1233:D:/School/diseratie/SEMS/xmc4800_evaluation_kit/optiga-trust-m/optiga/crypt\optiga_crypt.c ****                                                         optiga_key_id_t private_key,
1234:D:/School/diseratie/SEMS/xmc4800_evaluation_kit/optiga-trust-m/optiga/crypt\optiga_crypt.c ****                                                         uint8_t * message,
1235:D:/School/diseratie/SEMS/xmc4800_evaluation_kit/optiga-trust-m/optiga/crypt\optiga_crypt.c ****                                                         uint16_t * message_length)
1236:D:/School/diseratie/SEMS/xmc4800_evaluation_kit/optiga-trust-m/optiga/crypt\optiga_crypt.c **** {
 2858              	 .loc 1 1236 0
 2859              	 .cfi_startproc
 2860              	 
 2861              	 
 2862              	.LVL287:
 2863 0000 2DE9F041 	 push {r4,r5,r6,r7,r8,lr}
 2864              	.LCFI79:
 2865              	 .cfi_def_cfa_offset 24
 2866              	 .cfi_offset 4,-24
 2867              	 .cfi_offset 5,-20
 2868              	 .cfi_offset 6,-16
 2869              	 .cfi_offset 7,-12
 2870              	 .cfi_offset 8,-8
 2871              	 .cfi_offset 14,-4
 2872 0004 82B0     	 sub sp,sp,#8
 2873              	.LCFI80:
 2874              	 .cfi_def_cfa_offset 32
 2875              	.LVL288:
 2876              	 .loc 1 1236 0
 2877 0006 BDF82870 	 ldrh r7,[sp,#40]
1237:D:/School/diseratie/SEMS/xmc4800_evaluation_kit/optiga-trust-m/optiga/crypt\optiga_crypt.c ****     optiga_lib_status_t return_value = OPTIGA_CRYPT_ERROR_INVALID_INPUT;
1238:D:/School/diseratie/SEMS/xmc4800_evaluation_kit/optiga-trust-m/optiga/crypt\optiga_crypt.c ****     optiga_key_id_t private_key_id;
1239:D:/School/diseratie/SEMS/xmc4800_evaluation_kit/optiga-trust-m/optiga/crypt\optiga_crypt.c ****     OPTIGA_CRYPT_LOG_MESSAGE(__FUNCTION__);
1240:D:/School/diseratie/SEMS/xmc4800_evaluation_kit/optiga-trust-m/optiga/crypt\optiga_crypt.c ****     do
1241:D:/School/diseratie/SEMS/xmc4800_evaluation_kit/optiga-trust-m/optiga/crypt\optiga_crypt.c ****     {
1242:D:/School/diseratie/SEMS/xmc4800_evaluation_kit/optiga-trust-m/optiga/crypt\optiga_crypt.c **** #ifdef OPTIGA_LIB_DEBUG_NULL_CHECK
1243:D:/School/diseratie/SEMS/xmc4800_evaluation_kit/optiga-trust-m/optiga/crypt\optiga_crypt.c ****         if ((NULL == me) || (NULL == me->my_cmd) || (NULL == message) || (NULL == message_length)||
 2878              	 .loc 1 1243 0
 2879 000a D0B1     	 cbz r0,.L272
 2880 000c 1546     	 mov r5,r2
 2881              	 .loc 1 1243 0 is_stmt 0 discriminator 1
 2882 000e 026A     	 ldr r2,[r0,#32]
 2883              	.LVL289:
 2884 0010 0446     	 mov r4,r0
 2885 0012 B2B1     	 cbz r2,.L272
 2886              	 .loc 1 1243 0 discriminator 2
 2887 0014 0B9A     	 ldr r2,[sp,#44]
 2888 0016 A2B1     	 cbz r2,.L272
 2889              	 .loc 1 1243 0 discriminator 3
 2890 0018 0C9A     	 ldr r2,[sp,#48]
 2891 001a 92B1     	 cbz r2,.L272
 2892              	 .loc 1 1243 0 discriminator 4
 2893 001c 8DB1     	 cbz r5,.L272
1244:D:/School/diseratie/SEMS/xmc4800_evaluation_kit/optiga-trust-m/optiga/crypt\optiga_crypt.c ****             (NULL == encrypted_message))
1245:D:/School/diseratie/SEMS/xmc4800_evaluation_kit/optiga-trust-m/optiga/crypt\optiga_crypt.c ****         {
1246:D:/School/diseratie/SEMS/xmc4800_evaluation_kit/optiga-trust-m/optiga/crypt\optiga_crypt.c ****             break;
1247:D:/School/diseratie/SEMS/xmc4800_evaluation_kit/optiga-trust-m/optiga/crypt\optiga_crypt.c ****         }
1248:D:/School/diseratie/SEMS/xmc4800_evaluation_kit/optiga-trust-m/optiga/crypt\optiga_crypt.c **** #endif
1249:D:/School/diseratie/SEMS/xmc4800_evaluation_kit/optiga-trust-m/optiga/crypt\optiga_crypt.c **** #ifdef OPTIGA_COMMS_SHIELDED_CONNECTION
1250:D:/School/diseratie/SEMS/xmc4800_evaluation_kit/optiga-trust-m/optiga/crypt\optiga_crypt.c ****         me->protection_level |= OPTIGA_COMMS_RESPONSE_PROTECTION;
 2894              	 .loc 1 1250 0 is_stmt 1
 2895 001e 90F82E20 	 ldrb r2,[r0,#46]
 2896 0022 0E46     	 mov r6,r1
 2897              	.LBB296:
 2898              	.LBB297:
 335:D:/School/diseratie/SEMS/xmc4800_evaluation_kit/optiga-trust-m/optiga/crypt\optiga_crypt.c ****         {
 2899              	 .loc 1 335 0
 2900 0024 818D     	 ldrh r1,[r0,#44]
 2901              	.LVL290:
 2902              	.LBE297:
 2903              	.LBE296:
 2904              	 .loc 1 1250 0
 2905 0026 42F00202 	 orr r2,r2,#2
 2906              	.LBB304:
 2907              	.LBB301:
 335:D:/School/diseratie/SEMS/xmc4800_evaluation_kit/optiga-trust-m/optiga/crypt\optiga_crypt.c ****         {
 2908              	 .loc 1 335 0
 2909 002a 0129     	 cmp r1,#1
 2910              	.LBE301:
 2911              	.LBE304:
 2912              	 .loc 1 1250 0
 2913 002c 80F82E20 	 strb r2,[r0,#46]
 2914              	.LVL291:
 2915              	.LBB305:
 2916              	.LBB302:
 335:D:/School/diseratie/SEMS/xmc4800_evaluation_kit/optiga-trust-m/optiga/crypt\optiga_crypt.c ****         {
 2917              	 .loc 1 335 0
 2918 0030 0CD1     	 bne .L278
 337:D:/School/diseratie/SEMS/xmc4800_evaluation_kit/optiga-trust-m/optiga/crypt\optiga_crypt.c ****             break;
 2919              	 .loc 1 337 0
 2920 0032 40F20540 	 movw r0,#1029
 2921              	.LVL292:
 2922              	.L267:
 2923              	.LBB298:
 2924              	.LBB299:
 2925              	.LBB300:
 683:D:/School/diseratie/SEMS/xmc4800_evaluation_kit/optiga-trust-m/optiga/crypt\optiga_crypt.c ****             break;
 2926              	 .loc 1 683 0
 2927 0036 0023     	 movs r3,#0
 2928 0038 84F82E30 	 strb r3,[r4,#46]
 2929              	.LVL293:
 2930              	.LBE300:
 2931              	.LBE299:
 2932              	.LBE298:
 2933              	.LBE302:
 2934              	.LBE305:
1251:D:/School/diseratie/SEMS/xmc4800_evaluation_kit/optiga-trust-m/optiga/crypt\optiga_crypt.c **** #endif //OPTIGA_COMMS_SHIELDED_CONNECTION
1252:D:/School/diseratie/SEMS/xmc4800_evaluation_kit/optiga-trust-m/optiga/crypt\optiga_crypt.c ****         private_key_id = private_key;
1253:D:/School/diseratie/SEMS/xmc4800_evaluation_kit/optiga-trust-m/optiga/crypt\optiga_crypt.c ****         return_value = optiga_crypt_rsa_enc_dec(me,
1254:D:/School/diseratie/SEMS/xmc4800_evaluation_kit/optiga-trust-m/optiga/crypt\optiga_crypt.c ****                                                 encryption_scheme,
1255:D:/School/diseratie/SEMS/xmc4800_evaluation_kit/optiga-trust-m/optiga/crypt\optiga_crypt.c ****                                                 encrypted_message,
1256:D:/School/diseratie/SEMS/xmc4800_evaluation_kit/optiga-trust-m/optiga/crypt\optiga_crypt.c ****                                                 encrypted_message_length,
1257:D:/School/diseratie/SEMS/xmc4800_evaluation_kit/optiga-trust-m/optiga/crypt\optiga_crypt.c ****                                                 label,
1258:D:/School/diseratie/SEMS/xmc4800_evaluation_kit/optiga-trust-m/optiga/crypt\optiga_crypt.c ****                                                 label_length,
1259:D:/School/diseratie/SEMS/xmc4800_evaluation_kit/optiga-trust-m/optiga/crypt\optiga_crypt.c ****                                                 0,
1260:D:/School/diseratie/SEMS/xmc4800_evaluation_kit/optiga-trust-m/optiga/crypt\optiga_crypt.c ****                                                 (void *)&private_key_id,
1261:D:/School/diseratie/SEMS/xmc4800_evaluation_kit/optiga-trust-m/optiga/crypt\optiga_crypt.c ****                                                 message,
1262:D:/School/diseratie/SEMS/xmc4800_evaluation_kit/optiga-trust-m/optiga/crypt\optiga_crypt.c ****                                                 message_length,
1263:D:/School/diseratie/SEMS/xmc4800_evaluation_kit/optiga-trust-m/optiga/crypt\optiga_crypt.c ****                                                 FALSE);
1264:D:/School/diseratie/SEMS/xmc4800_evaluation_kit/optiga-trust-m/optiga/crypt\optiga_crypt.c ****     } while (FALSE);
1265:D:/School/diseratie/SEMS/xmc4800_evaluation_kit/optiga-trust-m/optiga/crypt\optiga_crypt.c **** 
1266:D:/School/diseratie/SEMS/xmc4800_evaluation_kit/optiga-trust-m/optiga/crypt\optiga_crypt.c ****     return (return_value);
1267:D:/School/diseratie/SEMS/xmc4800_evaluation_kit/optiga-trust-m/optiga/crypt\optiga_crypt.c **** }
 2935              	 .loc 1 1267 0
 2936 003c 02B0     	 add sp,sp,#8
 2937              	.LCFI81:
 2938              	 .cfi_remember_state
 2939              	 .cfi_def_cfa_offset 24
 2940              	 
 2941 003e BDE8F081 	 pop {r4,r5,r6,r7,r8,pc}
 2942              	.LVL294:
 2943              	.L272:
 2944              	.LCFI82:
 2945              	 .cfi_restore_state
1237:D:/School/diseratie/SEMS/xmc4800_evaluation_kit/optiga-trust-m/optiga/crypt\optiga_crypt.c ****     optiga_key_id_t private_key_id;
 2946              	 .loc 1 1237 0
 2947 0042 40F20340 	 movw r0,#1027
 2948              	.LVL295:
 2949              	 .loc 1 1267 0
 2950 0046 02B0     	 add sp,sp,#8
 2951              	.LCFI83:
 2952              	 .cfi_remember_state
 2953              	 .cfi_def_cfa_offset 24
 2954              	 
 2955 0048 BDE8F081 	 pop {r4,r5,r6,r7,r8,pc}
 2956              	.LVL296:
 2957              	.L278:
 2958              	.LCFI84:
 2959              	 .cfi_restore_state
 2960              	.LBB306:
 2961              	.LBB303:
 340:D:/School/diseratie/SEMS/xmc4800_evaluation_kit/optiga-trust-m/optiga/crypt\optiga_crypt.c **** 
 2962              	 .loc 1 340 0
 2963 004c 4FF00108 	 mov r8,#1
 2964 0050 A0F82C80 	 strh r8,[r0,#44]
 2965              	.LVL297:
 343:D:/School/diseratie/SEMS/xmc4800_evaluation_kit/optiga-trust-m/optiga/crypt\optiga_crypt.c **** 
 2966              	 .loc 1 343 0
 2967 0054 0021     	 movs r1,#0
 2968 0056 2022     	 movs r2,#32
 2969 0058 0193     	 str r3,[sp,#4]
 2970 005a FFF7FEFF 	 bl pal_os_memset
 2971              	.LVL298:
 346:D:/School/diseratie/SEMS/xmc4800_evaluation_kit/optiga-trust-m/optiga/crypt\optiga_crypt.c ****         p_params->processed_message = p_processed_message;
 2972              	 .loc 1 346 0
 2973 005e 019B     	 ldr r3,[sp,#4]
 2974 0060 2380     	 strh r3,[r4]
 347:D:/School/diseratie/SEMS/xmc4800_evaluation_kit/optiga-trust-m/optiga/crypt\optiga_crypt.c ****         p_params->processed_message_length = p_processed_message_length;
 2975              	 .loc 1 347 0
 2976 0062 0B9B     	 ldr r3,[sp,#44]
 2977 0064 6361     	 str r3,[r4,#20]
 348:D:/School/diseratie/SEMS/xmc4800_evaluation_kit/optiga-trust-m/optiga/crypt\optiga_crypt.c **** 
 2978              	 .loc 1 348 0
 2979 0066 0C9B     	 ldr r3,[sp,#48]
 2980 0068 6360     	 str r3,[r4,#4]
 345:D:/School/diseratie/SEMS/xmc4800_evaluation_kit/optiga-trust-m/optiga/crypt\optiga_crypt.c ****         p_params->message_length = message_length;
 2981              	 .loc 1 345 0
 2982 006a A560     	 str r5,[r4,#8]
 350:D:/School/diseratie/SEMS/xmc4800_evaluation_kit/optiga-trust-m/optiga/crypt\optiga_crypt.c ****         OPTIGA_PROTECTION_SET_VERSION(me->my_cmd, me);
 2983              	 .loc 1 350 0
 2984 006c 206A     	 ldr r0,[r4,#32]
 2985 006e 94F82E10 	 ldrb r1,[r4,#46]
 2986 0072 0022     	 movs r2,#0
 2987 0074 FFF7FEFF 	 bl optiga_cmd_set_shielded_connection_option
 2988              	.LVL299:
 351:D:/School/diseratie/SEMS/xmc4800_evaluation_kit/optiga-trust-m/optiga/crypt\optiga_crypt.c **** 
 2989              	 .loc 1 351 0
 2990 0078 4246     	 mov r2,r8
 2991 007a 206A     	 ldr r0,[r4,#32]
 2992 007c 94F82F10 	 ldrb r1,[r4,#47]
 2993 0080 FFF7FEFF 	 bl optiga_cmd_set_shielded_connection_option
 2994              	.LVL300:
 365:D:/School/diseratie/SEMS/xmc4800_evaluation_kit/optiga-trust-m/optiga/crypt\optiga_crypt.c ****             p_params->key = &p_params->private_key_id;
 2995              	 .loc 1 365 0
 2996 0084 2346     	 mov r3,r4
 367:D:/School/diseratie/SEMS/xmc4800_evaluation_kit/optiga-trust-m/optiga/crypt\optiga_crypt.c **** #ifdef OPTIGA_CRYPT_RSA_DECRYPT_ENABLED
 2997              	 .loc 1 367 0
 2998 0086 0025     	 movs r5,#0
 2999              	.LVL301:
 365:D:/School/diseratie/SEMS/xmc4800_evaluation_kit/optiga-trust-m/optiga/crypt\optiga_crypt.c ****             p_params->key = &p_params->private_key_id;
 3000              	 .loc 1 365 0
 3001 0088 23F8187F 	 strh r7,[r3,#24]!
 369:D:/School/diseratie/SEMS/xmc4800_evaluation_kit/optiga-trust-m/optiga/crypt\optiga_crypt.c ****                                                    (optiga_encrypt_asym_params_t *)p_params);
 3002              	 .loc 1 369 0
 3003 008c 3146     	 mov r1,r6
 366:D:/School/diseratie/SEMS/xmc4800_evaluation_kit/optiga-trust-m/optiga/crypt\optiga_crypt.c ****             p_params->public_key_source_type = 0;
 3004              	 .loc 1 366 0
 3005 008e 2361     	 str r3,[r4,#16]
 367:D:/School/diseratie/SEMS/xmc4800_evaluation_kit/optiga-trust-m/optiga/crypt\optiga_crypt.c **** #ifdef OPTIGA_CRYPT_RSA_DECRYPT_ENABLED
 3006              	 .loc 1 367 0
 3007 0090 2573     	 strb r5,[r4,#12]
 369:D:/School/diseratie/SEMS/xmc4800_evaluation_kit/optiga-trust-m/optiga/crypt\optiga_crypt.c ****                                                    (optiga_encrypt_asym_params_t *)p_params);
 3008              	 .loc 1 369 0
 3009 0092 206A     	 ldr r0,[r4,#32]
 3010 0094 2246     	 mov r2,r4
 3011 0096 FFF7FEFF 	 bl optiga_cmd_decrypt_asym
 3012              	.LVL302:
 373:D:/School/diseratie/SEMS/xmc4800_evaluation_kit/optiga-trust-m/optiga/crypt\optiga_crypt.c ****         {
 3013              	 .loc 1 373 0
 3014 009a 0028     	 cmp r0,#0
 3015 009c CBD0     	 beq .L267
 375:D:/School/diseratie/SEMS/xmc4800_evaluation_kit/optiga-trust-m/optiga/crypt\optiga_crypt.c ****         }
 3016              	 .loc 1 375 0
 3017 009e A585     	 strh r5,[r4,#44]
 3018 00a0 C9E7     	 b .L267
 3019              	.LBE303:
 3020              	.LBE306:
 3021              	 .cfi_endproc
 3022              	.LFE28:
 3024 00a2 00BF     	 .section .text.optiga_crypt_rsa_decrypt_and_store,"ax",%progbits
 3025              	 .align 2
 3026              	 .global optiga_crypt_rsa_decrypt_and_store
 3027              	 .thumb
 3028              	 .thumb_func
 3030              	optiga_crypt_rsa_decrypt_and_store:
 3031              	.LFB29:
1268:D:/School/diseratie/SEMS/xmc4800_evaluation_kit/optiga-trust-m/optiga/crypt\optiga_crypt.c **** 
1269:D:/School/diseratie/SEMS/xmc4800_evaluation_kit/optiga-trust-m/optiga/crypt\optiga_crypt.c **** optiga_lib_status_t optiga_crypt_rsa_decrypt_and_store(optiga_crypt_t * me,
1270:D:/School/diseratie/SEMS/xmc4800_evaluation_kit/optiga-trust-m/optiga/crypt\optiga_crypt.c ****                                                        optiga_rsa_encryption_scheme_t encryption_sc
1271:D:/School/diseratie/SEMS/xmc4800_evaluation_kit/optiga-trust-m/optiga/crypt\optiga_crypt.c ****                                                        const uint8_t * encrypted_message,
1272:D:/School/diseratie/SEMS/xmc4800_evaluation_kit/optiga-trust-m/optiga/crypt\optiga_crypt.c ****                                                        uint16_t encrypted_message_length,
1273:D:/School/diseratie/SEMS/xmc4800_evaluation_kit/optiga-trust-m/optiga/crypt\optiga_crypt.c ****                                                        const uint8_t * label,
1274:D:/School/diseratie/SEMS/xmc4800_evaluation_kit/optiga-trust-m/optiga/crypt\optiga_crypt.c ****                                                        uint16_t label_length,
1275:D:/School/diseratie/SEMS/xmc4800_evaluation_kit/optiga-trust-m/optiga/crypt\optiga_crypt.c ****                                                        optiga_key_id_t private_key)
1276:D:/School/diseratie/SEMS/xmc4800_evaluation_kit/optiga-trust-m/optiga/crypt\optiga_crypt.c **** {
 3032              	 .loc 1 1276 0
 3033              	 .cfi_startproc
 3034              	 
 3035              	 
 3036              	.LVL303:
 3037 0000 2DE9F043 	 push {r4,r5,r6,r7,r8,r9,lr}
 3038              	.LCFI85:
 3039              	 .cfi_def_cfa_offset 28
 3040              	 .cfi_offset 4,-28
 3041              	 .cfi_offset 5,-24
 3042              	 .cfi_offset 6,-20
 3043              	 .cfi_offset 7,-16
 3044              	 .cfi_offset 8,-12
 3045              	 .cfi_offset 9,-8
 3046              	 .cfi_offset 14,-4
 3047 0004 83B0     	 sub sp,sp,#12
 3048              	.LCFI86:
 3049              	 .cfi_def_cfa_offset 40
 3050              	.LVL304:
 3051              	 .loc 1 1276 0
 3052 0006 BDF83060 	 ldrh r6,[sp,#48]
1277:D:/School/diseratie/SEMS/xmc4800_evaluation_kit/optiga-trust-m/optiga/crypt\optiga_crypt.c ****     optiga_lib_status_t return_value = OPTIGA_CRYPT_ERROR_INVALID_INPUT;
1278:D:/School/diseratie/SEMS/xmc4800_evaluation_kit/optiga-trust-m/optiga/crypt\optiga_crypt.c ****     optiga_key_id_t private_key_id;
1279:D:/School/diseratie/SEMS/xmc4800_evaluation_kit/optiga-trust-m/optiga/crypt\optiga_crypt.c ****     OPTIGA_CRYPT_LOG_MESSAGE(__FUNCTION__);
1280:D:/School/diseratie/SEMS/xmc4800_evaluation_kit/optiga-trust-m/optiga/crypt\optiga_crypt.c **** 
1281:D:/School/diseratie/SEMS/xmc4800_evaluation_kit/optiga-trust-m/optiga/crypt\optiga_crypt.c ****     do
1282:D:/School/diseratie/SEMS/xmc4800_evaluation_kit/optiga-trust-m/optiga/crypt\optiga_crypt.c ****     {
1283:D:/School/diseratie/SEMS/xmc4800_evaluation_kit/optiga-trust-m/optiga/crypt\optiga_crypt.c **** #ifdef OPTIGA_LIB_DEBUG_NULL_CHECK
1284:D:/School/diseratie/SEMS/xmc4800_evaluation_kit/optiga-trust-m/optiga/crypt\optiga_crypt.c ****         if ((NULL == me) || (NULL == me->my_cmd) || (NULL == encrypted_message))
 3053              	 .loc 1 1284 0
 3054 000a 78B1     	 cbz r0,.L284
 3055 000c 1546     	 mov r5,r2
 3056              	 .loc 1 1284 0 is_stmt 0 discriminator 1
 3057 000e 026A     	 ldr r2,[r0,#32]
 3058              	.LVL305:
 3059 0010 0446     	 mov r4,r0
 3060 0012 5AB1     	 cbz r2,.L284
 3061              	 .loc 1 1284 0 discriminator 2
 3062 0014 55B1     	 cbz r5,.L284
 3063              	.LVL306:
 3064              	.LBB313:
 3065              	.LBB314:
 335:D:/School/diseratie/SEMS/xmc4800_evaluation_kit/optiga-trust-m/optiga/crypt\optiga_crypt.c ****         {
 3066              	 .loc 1 335 0 is_stmt 1
 3067 0016 828D     	 ldrh r2,[r0,#44]
 3068 0018 012A     	 cmp r2,#1
 3069 001a 0CD1     	 bne .L290
 337:D:/School/diseratie/SEMS/xmc4800_evaluation_kit/optiga-trust-m/optiga/crypt\optiga_crypt.c ****             break;
 3070              	 .loc 1 337 0
 3071 001c 40F20540 	 movw r0,#1029
 3072              	.LVL307:
 3073              	.L281:
 3074              	.LBB315:
 3075              	.LBB316:
 3076              	.LBB317:
 683:D:/School/diseratie/SEMS/xmc4800_evaluation_kit/optiga-trust-m/optiga/crypt\optiga_crypt.c ****             break;
 3077              	 .loc 1 683 0
 3078 0020 0023     	 movs r3,#0
 3079 0022 84F82E30 	 strb r3,[r4,#46]
 3080              	.LVL308:
 3081              	.LBE317:
 3082              	.LBE316:
 3083              	.LBE315:
 3084              	.LBE314:
 3085              	.LBE313:
1285:D:/School/diseratie/SEMS/xmc4800_evaluation_kit/optiga-trust-m/optiga/crypt\optiga_crypt.c ****         {
1286:D:/School/diseratie/SEMS/xmc4800_evaluation_kit/optiga-trust-m/optiga/crypt\optiga_crypt.c ****            break;
1287:D:/School/diseratie/SEMS/xmc4800_evaluation_kit/optiga-trust-m/optiga/crypt\optiga_crypt.c ****         }
1288:D:/School/diseratie/SEMS/xmc4800_evaluation_kit/optiga-trust-m/optiga/crypt\optiga_crypt.c **** #endif
1289:D:/School/diseratie/SEMS/xmc4800_evaluation_kit/optiga-trust-m/optiga/crypt\optiga_crypt.c ****         private_key_id = private_key;
1290:D:/School/diseratie/SEMS/xmc4800_evaluation_kit/optiga-trust-m/optiga/crypt\optiga_crypt.c ****         return_value = optiga_crypt_rsa_enc_dec(me,
1291:D:/School/diseratie/SEMS/xmc4800_evaluation_kit/optiga-trust-m/optiga/crypt\optiga_crypt.c ****                                                 encryption_scheme,
1292:D:/School/diseratie/SEMS/xmc4800_evaluation_kit/optiga-trust-m/optiga/crypt\optiga_crypt.c ****                                                 encrypted_message,
1293:D:/School/diseratie/SEMS/xmc4800_evaluation_kit/optiga-trust-m/optiga/crypt\optiga_crypt.c ****                                                 encrypted_message_length,
1294:D:/School/diseratie/SEMS/xmc4800_evaluation_kit/optiga-trust-m/optiga/crypt\optiga_crypt.c ****                                                 label,
1295:D:/School/diseratie/SEMS/xmc4800_evaluation_kit/optiga-trust-m/optiga/crypt\optiga_crypt.c ****                                                 label_length,
1296:D:/School/diseratie/SEMS/xmc4800_evaluation_kit/optiga-trust-m/optiga/crypt\optiga_crypt.c ****                                                 0,
1297:D:/School/diseratie/SEMS/xmc4800_evaluation_kit/optiga-trust-m/optiga/crypt\optiga_crypt.c ****                                                 (void *)&private_key_id,
1298:D:/School/diseratie/SEMS/xmc4800_evaluation_kit/optiga-trust-m/optiga/crypt\optiga_crypt.c ****                                                 NULL,
1299:D:/School/diseratie/SEMS/xmc4800_evaluation_kit/optiga-trust-m/optiga/crypt\optiga_crypt.c ****                                                 NULL,
1300:D:/School/diseratie/SEMS/xmc4800_evaluation_kit/optiga-trust-m/optiga/crypt\optiga_crypt.c ****                                                 FALSE);
1301:D:/School/diseratie/SEMS/xmc4800_evaluation_kit/optiga-trust-m/optiga/crypt\optiga_crypt.c ****     } while (FALSE);
1302:D:/School/diseratie/SEMS/xmc4800_evaluation_kit/optiga-trust-m/optiga/crypt\optiga_crypt.c **** 
1303:D:/School/diseratie/SEMS/xmc4800_evaluation_kit/optiga-trust-m/optiga/crypt\optiga_crypt.c ****     return (return_value);
1304:D:/School/diseratie/SEMS/xmc4800_evaluation_kit/optiga-trust-m/optiga/crypt\optiga_crypt.c **** }
 3086              	 .loc 1 1304 0
 3087 0026 03B0     	 add sp,sp,#12
 3088              	.LCFI87:
 3089              	 .cfi_remember_state
 3090              	 .cfi_def_cfa_offset 28
 3091              	 
 3092 0028 BDE8F083 	 pop {r4,r5,r6,r7,r8,r9,pc}
 3093              	.LVL309:
 3094              	.L284:
 3095              	.LCFI88:
 3096              	 .cfi_restore_state
1277:D:/School/diseratie/SEMS/xmc4800_evaluation_kit/optiga-trust-m/optiga/crypt\optiga_crypt.c ****     optiga_key_id_t private_key_id;
 3097              	 .loc 1 1277 0
 3098 002c 40F20340 	 movw r0,#1027
 3099              	.LVL310:
 3100              	 .loc 1 1304 0
 3101 0030 03B0     	 add sp,sp,#12
 3102              	.LCFI89:
 3103              	 .cfi_remember_state
 3104              	 .cfi_def_cfa_offset 28
 3105              	 
 3106 0032 BDE8F083 	 pop {r4,r5,r6,r7,r8,r9,pc}
 3107              	.LVL311:
 3108              	.L290:
 3109              	.LCFI90:
 3110              	 .cfi_restore_state
 3111              	.LBB319:
 3112              	.LBB318:
 340:D:/School/diseratie/SEMS/xmc4800_evaluation_kit/optiga-trust-m/optiga/crypt\optiga_crypt.c **** 
 3113              	 .loc 1 340 0
 3114 0036 4FF00109 	 mov r9,#1
 3115 003a 0F46     	 mov r7,r1
 3116 003c A0F82C90 	 strh r9,[r0,#44]
 3117              	.LVL312:
 343:D:/School/diseratie/SEMS/xmc4800_evaluation_kit/optiga-trust-m/optiga/crypt\optiga_crypt.c **** 
 3118              	 .loc 1 343 0
 3119 0040 0021     	 movs r1,#0
 3120              	.LVL313:
 3121 0042 2022     	 movs r2,#32
 347:D:/School/diseratie/SEMS/xmc4800_evaluation_kit/optiga-trust-m/optiga/crypt\optiga_crypt.c ****         p_params->processed_message_length = p_processed_message_length;
 3122              	 .loc 1 347 0
 3123 0044 8846     	 mov r8,r1
 3124 0046 0193     	 str r3,[sp,#4]
 343:D:/School/diseratie/SEMS/xmc4800_evaluation_kit/optiga-trust-m/optiga/crypt\optiga_crypt.c **** 
 3125              	 .loc 1 343 0
 3126 0048 FFF7FEFF 	 bl pal_os_memset
 3127              	.LVL314:
 346:D:/School/diseratie/SEMS/xmc4800_evaluation_kit/optiga-trust-m/optiga/crypt\optiga_crypt.c ****         p_params->processed_message = p_processed_message;
 3128              	 .loc 1 346 0
 3129 004c 019B     	 ldr r3,[sp,#4]
 3130 004e 2380     	 strh r3,[r4]
 350:D:/School/diseratie/SEMS/xmc4800_evaluation_kit/optiga-trust-m/optiga/crypt\optiga_crypt.c ****         OPTIGA_PROTECTION_SET_VERSION(me->my_cmd, me);
 3131              	 .loc 1 350 0
 3132 0050 4246     	 mov r2,r8
 3133 0052 206A     	 ldr r0,[r4,#32]
 3134 0054 94F82E10 	 ldrb r1,[r4,#46]
 345:D:/School/diseratie/SEMS/xmc4800_evaluation_kit/optiga-trust-m/optiga/crypt\optiga_crypt.c ****         p_params->message_length = message_length;
 3135              	 .loc 1 345 0
 3136 0058 A560     	 str r5,[r4,#8]
 347:D:/School/diseratie/SEMS/xmc4800_evaluation_kit/optiga-trust-m/optiga/crypt\optiga_crypt.c ****         p_params->processed_message_length = p_processed_message_length;
 3137              	 .loc 1 347 0
 3138 005a C4F81480 	 str r8,[r4,#20]
 348:D:/School/diseratie/SEMS/xmc4800_evaluation_kit/optiga-trust-m/optiga/crypt\optiga_crypt.c **** 
 3139              	 .loc 1 348 0
 3140 005e C4F80480 	 str r8,[r4,#4]
 350:D:/School/diseratie/SEMS/xmc4800_evaluation_kit/optiga-trust-m/optiga/crypt\optiga_crypt.c ****         OPTIGA_PROTECTION_SET_VERSION(me->my_cmd, me);
 3141              	 .loc 1 350 0
 3142 0062 FFF7FEFF 	 bl optiga_cmd_set_shielded_connection_option
 3143              	.LVL315:
 351:D:/School/diseratie/SEMS/xmc4800_evaluation_kit/optiga-trust-m/optiga/crypt\optiga_crypt.c **** 
 3144              	 .loc 1 351 0
 3145 0066 4A46     	 mov r2,r9
 3146 0068 206A     	 ldr r0,[r4,#32]
 3147 006a 94F82F10 	 ldrb r1,[r4,#47]
 3148 006e FFF7FEFF 	 bl optiga_cmd_set_shielded_connection_option
 3149              	.LVL316:
 365:D:/School/diseratie/SEMS/xmc4800_evaluation_kit/optiga-trust-m/optiga/crypt\optiga_crypt.c ****             p_params->key = &p_params->private_key_id;
 3150              	 .loc 1 365 0
 3151 0072 2346     	 mov r3,r4
 369:D:/School/diseratie/SEMS/xmc4800_evaluation_kit/optiga-trust-m/optiga/crypt\optiga_crypt.c ****                                                    (optiga_encrypt_asym_params_t *)p_params);
 3152              	 .loc 1 369 0
 3153 0074 3946     	 mov r1,r7
 365:D:/School/diseratie/SEMS/xmc4800_evaluation_kit/optiga-trust-m/optiga/crypt\optiga_crypt.c ****             p_params->key = &p_params->private_key_id;
 3154              	 .loc 1 365 0
 3155 0076 23F8186F 	 strh r6,[r3,#24]!
 369:D:/School/diseratie/SEMS/xmc4800_evaluation_kit/optiga-trust-m/optiga/crypt\optiga_crypt.c ****                                                    (optiga_encrypt_asym_params_t *)p_params);
 3156              	 .loc 1 369 0
 3157 007a 206A     	 ldr r0,[r4,#32]
 366:D:/School/diseratie/SEMS/xmc4800_evaluation_kit/optiga-trust-m/optiga/crypt\optiga_crypt.c ****             p_params->public_key_source_type = 0;
 3158              	 .loc 1 366 0
 3159 007c 2361     	 str r3,[r4,#16]
 367:D:/School/diseratie/SEMS/xmc4800_evaluation_kit/optiga-trust-m/optiga/crypt\optiga_crypt.c **** #ifdef OPTIGA_CRYPT_RSA_DECRYPT_ENABLED
 3160              	 .loc 1 367 0
 3161 007e 84F80C80 	 strb r8,[r4,#12]
 369:D:/School/diseratie/SEMS/xmc4800_evaluation_kit/optiga-trust-m/optiga/crypt\optiga_crypt.c ****                                                    (optiga_encrypt_asym_params_t *)p_params);
 3162              	 .loc 1 369 0
 3163 0082 2246     	 mov r2,r4
 3164 0084 FFF7FEFF 	 bl optiga_cmd_decrypt_asym
 3165              	.LVL317:
 373:D:/School/diseratie/SEMS/xmc4800_evaluation_kit/optiga-trust-m/optiga/crypt\optiga_crypt.c ****         {
 3166              	 .loc 1 373 0
 3167 0088 0028     	 cmp r0,#0
 3168 008a C9D0     	 beq .L281
 375:D:/School/diseratie/SEMS/xmc4800_evaluation_kit/optiga-trust-m/optiga/crypt\optiga_crypt.c ****         }
 3169              	 .loc 1 375 0
 3170 008c A4F82C80 	 strh r8,[r4,#44]
 3171 0090 C6E7     	 b .L281
 3172              	.LBE318:
 3173              	.LBE319:
 3174              	 .cfi_endproc
 3175              	.LFE29:
 3177 0092 00BF     	 .section .text.optiga_crypt_rsa_generate_pre_master_secret,"ax",%progbits
 3178              	 .align 2
 3179              	 .global optiga_crypt_rsa_generate_pre_master_secret
 3180              	 .thumb
 3181              	 .thumb_func
 3183              	optiga_crypt_rsa_generate_pre_master_secret:
 3184              	.LFB30:
1305:D:/School/diseratie/SEMS/xmc4800_evaluation_kit/optiga-trust-m/optiga/crypt\optiga_crypt.c **** #endif //OPTIGA_CRYPT_RSA_DECRYPT_ENABLED
1306:D:/School/diseratie/SEMS/xmc4800_evaluation_kit/optiga-trust-m/optiga/crypt\optiga_crypt.c **** #ifdef OPTIGA_CRYPT_RSA_PRE_MASTER_SECRET_ENABLED
1307:D:/School/diseratie/SEMS/xmc4800_evaluation_kit/optiga-trust-m/optiga/crypt\optiga_crypt.c **** optiga_lib_status_t optiga_crypt_rsa_generate_pre_master_secret(optiga_crypt_t * me,
1308:D:/School/diseratie/SEMS/xmc4800_evaluation_kit/optiga-trust-m/optiga/crypt\optiga_crypt.c ****                                                                 const uint8_t * optional_data,
1309:D:/School/diseratie/SEMS/xmc4800_evaluation_kit/optiga-trust-m/optiga/crypt\optiga_crypt.c ****                                                                 uint16_t optional_data_length,
1310:D:/School/diseratie/SEMS/xmc4800_evaluation_kit/optiga-trust-m/optiga/crypt\optiga_crypt.c ****                                                                 uint16_t pre_master_secret_length)
1311:D:/School/diseratie/SEMS/xmc4800_evaluation_kit/optiga-trust-m/optiga/crypt\optiga_crypt.c **** {
 3185              	 .loc 1 1311 0
 3186              	 .cfi_startproc
 3187              	 
 3188              	 
 3189              	.LVL318:
1312:D:/School/diseratie/SEMS/xmc4800_evaluation_kit/optiga-trust-m/optiga/crypt\optiga_crypt.c ****     optiga_lib_status_t return_value = OPTIGA_CRYPT_ERROR;
1313:D:/School/diseratie/SEMS/xmc4800_evaluation_kit/optiga-trust-m/optiga/crypt\optiga_crypt.c ****     OPTIGA_CRYPT_LOG_MESSAGE(__FUNCTION__);
1314:D:/School/diseratie/SEMS/xmc4800_evaluation_kit/optiga-trust-m/optiga/crypt\optiga_crypt.c **** 
1315:D:/School/diseratie/SEMS/xmc4800_evaluation_kit/optiga-trust-m/optiga/crypt\optiga_crypt.c ****     do
1316:D:/School/diseratie/SEMS/xmc4800_evaluation_kit/optiga-trust-m/optiga/crypt\optiga_crypt.c ****     {
1317:D:/School/diseratie/SEMS/xmc4800_evaluation_kit/optiga-trust-m/optiga/crypt\optiga_crypt.c **** #ifdef OPTIGA_LIB_DEBUG_NULL_CHECK
1318:D:/School/diseratie/SEMS/xmc4800_evaluation_kit/optiga-trust-m/optiga/crypt\optiga_crypt.c ****         /// Maximum length of shared secret supported by OPTIGA is 48 bytes, minimum is 8 bytes.
1319:D:/School/diseratie/SEMS/xmc4800_evaluation_kit/optiga-trust-m/optiga/crypt\optiga_crypt.c ****         if ((NULL == me) || (NULL == me->my_cmd))
 3190              	 .loc 1 1319 0
 3191 0000 70B1     	 cbz r0,.L294
1311:D:/School/diseratie/SEMS/xmc4800_evaluation_kit/optiga-trust-m/optiga/crypt\optiga_crypt.c ****     optiga_lib_status_t return_value = OPTIGA_CRYPT_ERROR;
 3192              	 .loc 1 1311 0 discriminator 1
 3193 0002 2DE9F041 	 push {r4,r5,r6,r7,r8,lr}
 3194              	.LCFI91:
 3195              	 .cfi_def_cfa_offset 24
 3196              	 .cfi_offset 4,-24
 3197              	 .cfi_offset 5,-20
 3198              	 .cfi_offset 6,-16
 3199              	 .cfi_offset 7,-12
 3200              	 .cfi_offset 8,-8
 3201              	 .cfi_offset 14,-4
 3202 0006 1546     	 mov r5,r2
 3203              	 .loc 1 1319 0 discriminator 1
 3204 0008 026A     	 ldr r2,[r0,#32]
 3205              	.LVL319:
1311:D:/School/diseratie/SEMS/xmc4800_evaluation_kit/optiga-trust-m/optiga/crypt\optiga_crypt.c ****     optiga_lib_status_t return_value = OPTIGA_CRYPT_ERROR;
 3206              	 .loc 1 1311 0 discriminator 1
 3207 000a 82B0     	 sub sp,sp,#8
 3208              	.LCFI92:
 3209              	 .cfi_def_cfa_offset 32
 3210 000c 0446     	 mov r4,r0
 3211              	 .loc 1 1319 0 discriminator 1
 3212 000e 12B1     	 cbz r2,.L297
1320:D:/School/diseratie/SEMS/xmc4800_evaluation_kit/optiga-trust-m/optiga/crypt\optiga_crypt.c ****         {
1321:D:/School/diseratie/SEMS/xmc4800_evaluation_kit/optiga-trust-m/optiga/crypt\optiga_crypt.c ****             return_value = OPTIGA_CRYPT_ERROR_INVALID_INPUT;
1322:D:/School/diseratie/SEMS/xmc4800_evaluation_kit/optiga-trust-m/optiga/crypt\optiga_crypt.c ****             break;
1323:D:/School/diseratie/SEMS/xmc4800_evaluation_kit/optiga-trust-m/optiga/crypt\optiga_crypt.c ****         }
1324:D:/School/diseratie/SEMS/xmc4800_evaluation_kit/optiga-trust-m/optiga/crypt\optiga_crypt.c **** #endif
1325:D:/School/diseratie/SEMS/xmc4800_evaluation_kit/optiga-trust-m/optiga/crypt\optiga_crypt.c **** 
1326:D:/School/diseratie/SEMS/xmc4800_evaluation_kit/optiga-trust-m/optiga/crypt\optiga_crypt.c ****         /// The minimum difference between shared secret length and optional data length should be 
1327:D:/School/diseratie/SEMS/xmc4800_evaluation_kit/optiga-trust-m/optiga/crypt\optiga_crypt.c ****         /// since the minimum random length OPTIGA expects is 8 bytes (optional_data_length <= shar
1328:D:/School/diseratie/SEMS/xmc4800_evaluation_kit/optiga-trust-m/optiga/crypt\optiga_crypt.c ****         if (((optional_data_length + OPTIGA_CRYPT_MINIMUM_RANDOM_DATA_LENGTH) > pre_master_secret_l
 3213              	 .loc 1 1328 0
 3214 0010 EA1D     	 adds r2,r5,#7
 3215 0012 9A42     	 cmp r2,r3
 3216 0014 07DB     	 blt .L303
 3217              	.L297:
1321:D:/School/diseratie/SEMS/xmc4800_evaluation_kit/optiga-trust-m/optiga/crypt\optiga_crypt.c ****             break;
 3218              	 .loc 1 1321 0
 3219 0016 40F20340 	 movw r0,#1027
 3220              	.LVL320:
 3221              	.L292:
1329:D:/School/diseratie/SEMS/xmc4800_evaluation_kit/optiga-trust-m/optiga/crypt\optiga_crypt.c ****             (optional_data_length > OPTIGA_CRYPT_MINIMUM_OPTIONAL_DATA_LENGTH))
1330:D:/School/diseratie/SEMS/xmc4800_evaluation_kit/optiga-trust-m/optiga/crypt\optiga_crypt.c ****         {
1331:D:/School/diseratie/SEMS/xmc4800_evaluation_kit/optiga-trust-m/optiga/crypt\optiga_crypt.c ****             return_value = OPTIGA_CRYPT_ERROR_INVALID_INPUT;
1332:D:/School/diseratie/SEMS/xmc4800_evaluation_kit/optiga-trust-m/optiga/crypt\optiga_crypt.c ****             break;
1333:D:/School/diseratie/SEMS/xmc4800_evaluation_kit/optiga-trust-m/optiga/crypt\optiga_crypt.c ****         }
1334:D:/School/diseratie/SEMS/xmc4800_evaluation_kit/optiga-trust-m/optiga/crypt\optiga_crypt.c **** 
1335:D:/School/diseratie/SEMS/xmc4800_evaluation_kit/optiga-trust-m/optiga/crypt\optiga_crypt.c ****         return_value = optiga_crypt_get_random(me,
1336:D:/School/diseratie/SEMS/xmc4800_evaluation_kit/optiga-trust-m/optiga/crypt\optiga_crypt.c ****                                                OPTIGA_CRYTP_RANDOM_PARAM_PRE_MASTER_SECRET,
1337:D:/School/diseratie/SEMS/xmc4800_evaluation_kit/optiga-trust-m/optiga/crypt\optiga_crypt.c ****                                                NULL,
1338:D:/School/diseratie/SEMS/xmc4800_evaluation_kit/optiga-trust-m/optiga/crypt\optiga_crypt.c ****                                                (pre_master_secret_length - optional_data_length),
1339:D:/School/diseratie/SEMS/xmc4800_evaluation_kit/optiga-trust-m/optiga/crypt\optiga_crypt.c ****                                                optional_data,
1340:D:/School/diseratie/SEMS/xmc4800_evaluation_kit/optiga-trust-m/optiga/crypt\optiga_crypt.c ****                                                optional_data_length,
1341:D:/School/diseratie/SEMS/xmc4800_evaluation_kit/optiga-trust-m/optiga/crypt\optiga_crypt.c ****                                                TRUE);
1342:D:/School/diseratie/SEMS/xmc4800_evaluation_kit/optiga-trust-m/optiga/crypt\optiga_crypt.c ****     } while (FALSE);
1343:D:/School/diseratie/SEMS/xmc4800_evaluation_kit/optiga-trust-m/optiga/crypt\optiga_crypt.c **** 
1344:D:/School/diseratie/SEMS/xmc4800_evaluation_kit/optiga-trust-m/optiga/crypt\optiga_crypt.c ****     return (return_value);
1345:D:/School/diseratie/SEMS/xmc4800_evaluation_kit/optiga-trust-m/optiga/crypt\optiga_crypt.c **** }
 3222              	 .loc 1 1345 0
 3223 001a 02B0     	 add sp,sp,#8
 3224              	.LCFI93:
 3225              	 .cfi_def_cfa_offset 24
 3226              	 
 3227 001c BDE8F081 	 pop {r4,r5,r6,r7,r8,pc}
 3228              	.LVL321:
 3229              	.L294:
 3230              	.LCFI94:
 3231              	 .cfi_def_cfa_offset 0
 3232              	 .cfi_restore 4
 3233              	 .cfi_restore 5
 3234              	 .cfi_restore 6
 3235              	 .cfi_restore 7
 3236              	 .cfi_restore 8
 3237              	 .cfi_restore 14
1321:D:/School/diseratie/SEMS/xmc4800_evaluation_kit/optiga-trust-m/optiga/crypt\optiga_crypt.c ****             break;
 3238              	 .loc 1 1321 0
 3239 0020 40F20340 	 movw r0,#1027
 3240              	.LVL322:
 3241              	 .loc 1 1345 0
 3242 0024 7047     	 bx lr
 3243              	.LVL323:
 3244              	.L303:
 3245              	.LCFI95:
 3246              	 .cfi_def_cfa_offset 32
 3247              	 .cfi_offset 4,-24
 3248              	 .cfi_offset 5,-20
 3249              	 .cfi_offset 6,-16
 3250              	 .cfi_offset 7,-12
 3251              	 .cfi_offset 8,-8
 3252              	 .cfi_offset 14,-4
1328:D:/School/diseratie/SEMS/xmc4800_evaluation_kit/optiga-trust-m/optiga/crypt\optiga_crypt.c ****             (optional_data_length > OPTIGA_CRYPT_MINIMUM_OPTIONAL_DATA_LENGTH))
 3253              	 .loc 1 1328 0 discriminator 1
 3254 0026 3A2D     	 cmp r5,#58
 3255 0028 F5D8     	 bhi .L297
 3256              	.LVL324:
 3257              	.LBB326:
 3258              	.LBB327:
 396:D:/School/diseratie/SEMS/xmc4800_evaluation_kit/optiga-trust-m/optiga/crypt\optiga_crypt.c ****         {
 3259              	 .loc 1 396 0
 3260 002a 828D     	 ldrh r2,[r0,#44]
 3261 002c 012A     	 cmp r2,#1
 3262 002e 05D1     	 bne .L304
 398:D:/School/diseratie/SEMS/xmc4800_evaluation_kit/optiga-trust-m/optiga/crypt\optiga_crypt.c ****             break;
 3263              	 .loc 1 398 0
 3264 0030 40F20540 	 movw r0,#1029
 3265              	.LVL325:
 3266              	.L293:
 3267              	.LBB328:
 3268              	.LBB329:
 3269              	.LBB330:
 683:D:/School/diseratie/SEMS/xmc4800_evaluation_kit/optiga-trust-m/optiga/crypt\optiga_crypt.c ****             break;
 3270              	 .loc 1 683 0
 3271 0034 0023     	 movs r3,#0
 3272 0036 84F82E30 	 strb r3,[r4,#46]
 3273 003a EEE7     	 b .L292
 3274              	.LVL326:
 3275              	.L304:
 3276              	.LBE330:
 3277              	.LBE329:
 3278              	.LBE328:
 402:D:/School/diseratie/SEMS/xmc4800_evaluation_kit/optiga-trust-m/optiga/crypt\optiga_crypt.c ****         p_params = (optiga_get_random_params_t *)&(me->params.optiga_get_random_params);
 3279              	 .loc 1 402 0
 3280 003c 0127     	 movs r7,#1
 3281 003e 0E46     	 mov r6,r1
 3282 0040 8785     	 strh r7,[r0,#44]
 3283              	.LVL327:
 404:D:/School/diseratie/SEMS/xmc4800_evaluation_kit/optiga-trust-m/optiga/crypt\optiga_crypt.c **** 
 3284              	 .loc 1 404 0
 3285 0042 0021     	 movs r1,#0
 3286              	.LVL328:
 3287 0044 2022     	 movs r2,#32
 3288 0046 0193     	 str r3,[sp,#4]
 3289 0048 FFF7FEFF 	 bl pal_os_memset
 3290              	.LVL329:
 3291              	.LBE327:
 3292              	.LBE326:
1335:D:/School/diseratie/SEMS/xmc4800_evaluation_kit/optiga-trust-m/optiga/crypt\optiga_crypt.c ****                                                OPTIGA_CRYTP_RANDOM_PARAM_PRE_MASTER_SECRET,
 3293              	 .loc 1 1335 0
 3294 004c 019B     	 ldr r3,[sp,#4]
 3295              	.LBB333:
 3296              	.LBB331:
 411:D:/School/diseratie/SEMS/xmc4800_evaluation_kit/optiga-trust-m/optiga/crypt\optiga_crypt.c ****         OPTIGA_PROTECTION_SET_VERSION(me->my_cmd, me);
 3297              	 .loc 1 411 0
 3298 004e 206A     	 ldr r0,[r4,#32]
 3299 0050 94F82E10 	 ldrb r1,[r4,#46]
 410:D:/School/diseratie/SEMS/xmc4800_evaluation_kit/optiga-trust-m/optiga/crypt\optiga_crypt.c ****         OPTIGA_PROTECTION_ENABLE(me->my_cmd, me);
 3300              	 .loc 1 410 0
 3301 0054 2773     	 strb r7,[r4,#12]
 3302              	.LBE331:
 3303              	.LBE333:
1335:D:/School/diseratie/SEMS/xmc4800_evaluation_kit/optiga-trust-m/optiga/crypt\optiga_crypt.c ****                                                OPTIGA_CRYTP_RANDOM_PARAM_PRE_MASTER_SECRET,
 3304              	 .loc 1 1335 0
 3305 0056 5B1B     	 subs r3,r3,r5
 3306              	.LBB334:
 3307              	.LBB332:
 408:D:/School/diseratie/SEMS/xmc4800_evaluation_kit/optiga-trust-m/optiga/crypt\optiga_crypt.c ****         p_params->random_data_length = random_data_length;
 3308              	 .loc 1 408 0
 3309 0058 4FF00008 	 mov r8,#0
 409:D:/School/diseratie/SEMS/xmc4800_evaluation_kit/optiga-trust-m/optiga/crypt\optiga_crypt.c ****         p_params->store_in_session = store_in_session;
 3310              	 .loc 1 409 0
 3311 005c 2380     	 strh r3,[r4]
 411:D:/School/diseratie/SEMS/xmc4800_evaluation_kit/optiga-trust-m/optiga/crypt\optiga_crypt.c ****         OPTIGA_PROTECTION_SET_VERSION(me->my_cmd, me);
 3312              	 .loc 1 411 0
 3313 005e 4246     	 mov r2,r8
 406:D:/School/diseratie/SEMS/xmc4800_evaluation_kit/optiga-trust-m/optiga/crypt\optiga_crypt.c ****         p_params->optional_data_length = optional_data_length;
 3314              	 .loc 1 406 0
 3315 0060 A660     	 str r6,[r4,#8]
 407:D:/School/diseratie/SEMS/xmc4800_evaluation_kit/optiga-trust-m/optiga/crypt\optiga_crypt.c ****         p_params->random_data = p_random_data;
 3316              	 .loc 1 407 0
 3317 0062 6580     	 strh r5,[r4,#2]
 408:D:/School/diseratie/SEMS/xmc4800_evaluation_kit/optiga-trust-m/optiga/crypt\optiga_crypt.c ****         p_params->random_data_length = random_data_length;
 3318              	 .loc 1 408 0
 3319 0064 C4F80480 	 str r8,[r4,#4]
 411:D:/School/diseratie/SEMS/xmc4800_evaluation_kit/optiga-trust-m/optiga/crypt\optiga_crypt.c ****         OPTIGA_PROTECTION_SET_VERSION(me->my_cmd, me);
 3320              	 .loc 1 411 0
 3321 0068 FFF7FEFF 	 bl optiga_cmd_set_shielded_connection_option
 3322              	.LVL330:
 412:D:/School/diseratie/SEMS/xmc4800_evaluation_kit/optiga-trust-m/optiga/crypt\optiga_crypt.c **** 
 3323              	 .loc 1 412 0
 3324 006c 3A46     	 mov r2,r7
 3325 006e 206A     	 ldr r0,[r4,#32]
 3326 0070 94F82F10 	 ldrb r1,[r4,#47]
 3327 0074 FFF7FEFF 	 bl optiga_cmd_set_shielded_connection_option
 3328              	.LVL331:
 414:D:/School/diseratie/SEMS/xmc4800_evaluation_kit/optiga-trust-m/optiga/crypt\optiga_crypt.c ****                                              cmd_param,
 3329              	 .loc 1 414 0
 3330 0078 206A     	 ldr r0,[r4,#32]
 3331 007a 0421     	 movs r1,#4
 3332 007c 2246     	 mov r2,r4
 3333 007e FFF7FEFF 	 bl optiga_cmd_get_random
 3334              	.LVL332:
 417:D:/School/diseratie/SEMS/xmc4800_evaluation_kit/optiga-trust-m/optiga/crypt\optiga_crypt.c ****         {
 3335              	 .loc 1 417 0
 3336 0082 0028     	 cmp r0,#0
 3337 0084 D6D0     	 beq .L293
 419:D:/School/diseratie/SEMS/xmc4800_evaluation_kit/optiga-trust-m/optiga/crypt\optiga_crypt.c ****         }
 3338              	 .loc 1 419 0
 3339 0086 A4F82C80 	 strh r8,[r4,#44]
 3340 008a D3E7     	 b .L293
 3341              	.LBE332:
 3342              	.LBE334:
 3343              	 .cfi_endproc
 3344              	.LFE30:
 3346              	 .text
 3347              	.Letext0:
 3348              	 .file 2 "c:\\infineon\\tools\\dave ide\\4.5.0.202105191637\\eclipse\\arm-gcc-49\\arm-none-eabi\\include\\machine\\_default_types.h"
 3349              	 .file 3 "c:\\infineon\\tools\\dave ide\\4.5.0.202105191637\\eclipse\\arm-gcc-49\\arm-none-eabi\\include\\stdint.h"
 3350              	 .file 4 "D:/School/diseratie/SEMS/xmc4800_evaluation_kit/optiga-trust-m/optiga/include/optiga/common/optiga_lib_types.h"
 3351              	 .file 5 "D:/School/diseratie/SEMS/xmc4800_evaluation_kit/optiga-trust-m/optiga/include/optiga/common/optiga_lib_common.h"
 3352              	 .file 6 "D:/School/diseratie/SEMS/xmc4800_evaluation_kit/optiga-trust-m/optiga/include/optiga/cmd/optiga_cmd.h"
 3353              	 .file 7 "D:/School/diseratie/SEMS/xmc4800_evaluation_kit/optiga-trust-m/optiga/include/optiga/optiga_crypt.h"
 3354              	 .file 8 "D:/School/diseratie/SEMS/xmc4800_evaluation_kit/optiga-trust-m/optiga/include/optiga/pal/pal_os_memory.h"
DEFINED SYMBOLS
                            *ABS*:00000000 optiga_crypt.c
    {standard input}:20     .text.optiga_crypt_generic_event_handler:00000000 $t
    {standard input}:24     .text.optiga_crypt_generic_event_handler:00000000 optiga_crypt_generic_event_handler
    {standard input}:46     .text.optiga_crypt_set_comms_params:00000000 $t
    {standard input}:51     .text.optiga_crypt_set_comms_params:00000000 optiga_crypt_set_comms_params
    {standard input}:78     .text.optiga_crypt_create:00000000 $t
    {standard input}:83     .text.optiga_crypt_create:00000000 optiga_crypt_create
    {standard input}:167    .text.optiga_crypt_create:0000004c $d
    {standard input}:172    .text.optiga_crypt_destroy:00000000 $t
    {standard input}:177    .text.optiga_crypt_destroy:00000000 optiga_crypt_destroy
    {standard input}:234    .text.optiga_crypt_random:00000000 $t
    {standard input}:239    .text.optiga_crypt_random:00000000 optiga_crypt_random
    {standard input}:398    .text.optiga_crypt_hash_start:00000000 $t
    {standard input}:403    .text.optiga_crypt_hash_start:00000000 optiga_crypt_hash_start
    {standard input}:553    .text.optiga_crypt_hash_update:00000000 $t
    {standard input}:558    .text.optiga_crypt_hash_update:00000000 optiga_crypt_hash_update
    {standard input}:741    .text.optiga_crypt_hash_finalize:00000000 $t
    {standard input}:746    .text.optiga_crypt_hash_finalize:00000000 optiga_crypt_hash_finalize
    {standard input}:912    .text.optiga_crypt_hash:00000000 $t
    {standard input}:917    .text.optiga_crypt_hash:00000000 optiga_crypt_hash
    {standard input}:1080   .text.optiga_crypt_ecc_generate_keypair:00000000 $t
    {standard input}:1085   .text.optiga_crypt_ecc_generate_keypair:00000000 optiga_crypt_ecc_generate_keypair
    {standard input}:1281   .text.optiga_crypt_ecdsa_sign:00000000 $t
    {standard input}:1286   .text.optiga_crypt_ecdsa_sign:00000000 optiga_crypt_ecdsa_sign
    {standard input}:1473   .text.optiga_crypt_ecdsa_verify:00000000 $t
    {standard input}:1478   .text.optiga_crypt_ecdsa_verify:00000000 optiga_crypt_ecdsa_verify
    {standard input}:1642   .text.optiga_crypt_ecdh:00000000 $t
    {standard input}:1647   .text.optiga_crypt_ecdh:00000000 optiga_crypt_ecdh
    {standard input}:1794   .text.optiga_crypt_tls_prf:00000000 $t
    {standard input}:1799   .text.optiga_crypt_tls_prf:00000000 optiga_crypt_tls_prf
    {standard input}:2010   .text.optiga_crypt_rsa_generate_keypair:00000000 $t
    {standard input}:2015   .text.optiga_crypt_rsa_generate_keypair:00000000 optiga_crypt_rsa_generate_keypair
    {standard input}:2211   .text.optiga_crypt_rsa_sign:00000000 $t
    {standard input}:2216   .text.optiga_crypt_rsa_sign:00000000 optiga_crypt_rsa_sign
    {standard input}:2370   .text.optiga_crypt_rsa_verify:00000000 $t
    {standard input}:2375   .text.optiga_crypt_rsa_verify:00000000 optiga_crypt_rsa_verify
    {standard input}:2542   .text.optiga_crypt_rsa_encrypt_message:00000000 $t
    {standard input}:2547   .text.optiga_crypt_rsa_encrypt_message:00000000 optiga_crypt_rsa_encrypt_message
    {standard input}:2699   .text.optiga_crypt_rsa_encrypt_session:00000000 $t
    {standard input}:2704   .text.optiga_crypt_rsa_encrypt_session:00000000 optiga_crypt_rsa_encrypt_session
    {standard input}:2851   .text.optiga_crypt_rsa_decrypt_and_export:00000000 $t
    {standard input}:2856   .text.optiga_crypt_rsa_decrypt_and_export:00000000 optiga_crypt_rsa_decrypt_and_export
    {standard input}:3025   .text.optiga_crypt_rsa_decrypt_and_store:00000000 $t
    {standard input}:3030   .text.optiga_crypt_rsa_decrypt_and_store:00000000 optiga_crypt_rsa_decrypt_and_store
    {standard input}:3178   .text.optiga_crypt_rsa_generate_pre_master_secret:00000000 $t
    {standard input}:3183   .text.optiga_crypt_rsa_generate_pre_master_secret:00000000 optiga_crypt_rsa_generate_pre_master_secret
                     .debug_frame:00000010 $d

UNDEFINED SYMBOLS
pal_os_calloc
optiga_cmd_create
pal_os_free
optiga_cmd_destroy
pal_os_memset
optiga_cmd_set_shielded_connection_option
optiga_cmd_get_random
optiga_cmd_calc_hash
optiga_cmd_gen_keypair
optiga_cmd_calc_sign
optiga_cmd_verify_sign
optiga_cmd_calc_ssec
optiga_cmd_derive_key
optiga_cmd_encrypt_asym
optiga_cmd_decrypt_asym
