   1              	 .syntax unified
   2              	 .cpu cortex-m4
   3              	 .eabi_attribute 27,3
   4              	 .fpu fpv4-sp-d16
   5              	 .eabi_attribute 20,1
   6              	 .eabi_attribute 21,1
   7              	 .eabi_attribute 23,3
   8              	 .eabi_attribute 24,1
   9              	 .eabi_attribute 25,1
  10              	 .eabi_attribute 26,1
  11              	 .eabi_attribute 30,2
  12              	 .eabi_attribute 34,1
  13              	 .eabi_attribute 18,4
  14              	 .thumb
  15              	 .file "example_optiga_crypt_symmetric_encrypt_decrypt.c"
  16              	 .text
  17              	.Ltext0:
  18              	 .cfi_sections .debug_frame
  19              	 .section .text.optiga_util_crypt_callback,"ax",%progbits
  20              	 .align 2
  21              	 .thumb
  22              	 .thumb_func
  24              	optiga_util_crypt_callback:
  25              	.LFB6:
  26              	 .file 1 "D:/School/diseratie/SEMS/xmc4800_evaluation_kit/optiga-trust-m/examples/optiga/example_optiga_crypt_symmetric_encrypt_decrypt.c"
   1:D:/School/diseratie/SEMS/xmc4800_evaluation_kit/optiga-trust-m/examples/optiga\example_optiga_crypt_symmetric_encrypt_decrypt.c **** /**
   2:D:/School/diseratie/SEMS/xmc4800_evaluation_kit/optiga-trust-m/examples/optiga\example_optiga_crypt_symmetric_encrypt_decrypt.c **** * \copyright
   3:D:/School/diseratie/SEMS/xmc4800_evaluation_kit/optiga-trust-m/examples/optiga\example_optiga_crypt_symmetric_encrypt_decrypt.c **** * MIT License
   4:D:/School/diseratie/SEMS/xmc4800_evaluation_kit/optiga-trust-m/examples/optiga\example_optiga_crypt_symmetric_encrypt_decrypt.c **** *
   5:D:/School/diseratie/SEMS/xmc4800_evaluation_kit/optiga-trust-m/examples/optiga\example_optiga_crypt_symmetric_encrypt_decrypt.c **** * Copyright (c) 2020 Infineon Technologies AG
   6:D:/School/diseratie/SEMS/xmc4800_evaluation_kit/optiga-trust-m/examples/optiga\example_optiga_crypt_symmetric_encrypt_decrypt.c **** *
   7:D:/School/diseratie/SEMS/xmc4800_evaluation_kit/optiga-trust-m/examples/optiga\example_optiga_crypt_symmetric_encrypt_decrypt.c **** * Permission is hereby granted, free of charge, to any person obtaining a copy
   8:D:/School/diseratie/SEMS/xmc4800_evaluation_kit/optiga-trust-m/examples/optiga\example_optiga_crypt_symmetric_encrypt_decrypt.c **** * of this software and associated documentation files (the "Software"), to deal
   9:D:/School/diseratie/SEMS/xmc4800_evaluation_kit/optiga-trust-m/examples/optiga\example_optiga_crypt_symmetric_encrypt_decrypt.c **** * in the Software without restriction, including without limitation the rights
  10:D:/School/diseratie/SEMS/xmc4800_evaluation_kit/optiga-trust-m/examples/optiga\example_optiga_crypt_symmetric_encrypt_decrypt.c **** * to use, copy, modify, merge, publish, distribute, sublicense, and/or sell
  11:D:/School/diseratie/SEMS/xmc4800_evaluation_kit/optiga-trust-m/examples/optiga\example_optiga_crypt_symmetric_encrypt_decrypt.c **** * copies of the Software, and to permit persons to whom the Software is
  12:D:/School/diseratie/SEMS/xmc4800_evaluation_kit/optiga-trust-m/examples/optiga\example_optiga_crypt_symmetric_encrypt_decrypt.c **** * furnished to do so, subject to the following conditions:
  13:D:/School/diseratie/SEMS/xmc4800_evaluation_kit/optiga-trust-m/examples/optiga\example_optiga_crypt_symmetric_encrypt_decrypt.c **** *
  14:D:/School/diseratie/SEMS/xmc4800_evaluation_kit/optiga-trust-m/examples/optiga\example_optiga_crypt_symmetric_encrypt_decrypt.c **** * The above copyright notice and this permission notice shall be included in all
  15:D:/School/diseratie/SEMS/xmc4800_evaluation_kit/optiga-trust-m/examples/optiga\example_optiga_crypt_symmetric_encrypt_decrypt.c **** * copies or substantial portions of the Software.
  16:D:/School/diseratie/SEMS/xmc4800_evaluation_kit/optiga-trust-m/examples/optiga\example_optiga_crypt_symmetric_encrypt_decrypt.c **** *
  17:D:/School/diseratie/SEMS/xmc4800_evaluation_kit/optiga-trust-m/examples/optiga\example_optiga_crypt_symmetric_encrypt_decrypt.c **** * THE SOFTWARE IS PROVIDED "AS IS", WITHOUT WARRANTY OF ANY KIND, EXPRESS OR
  18:D:/School/diseratie/SEMS/xmc4800_evaluation_kit/optiga-trust-m/examples/optiga\example_optiga_crypt_symmetric_encrypt_decrypt.c **** * IMPLIED, INCLUDING BUT NOT LIMITED TO THE WARRANTIES OF MERCHANTABILITY,
  19:D:/School/diseratie/SEMS/xmc4800_evaluation_kit/optiga-trust-m/examples/optiga\example_optiga_crypt_symmetric_encrypt_decrypt.c **** * FITNESS FOR A PARTICULAR PURPOSE AND NONINFRINGEMENT. IN NO EVENT SHALL THE
  20:D:/School/diseratie/SEMS/xmc4800_evaluation_kit/optiga-trust-m/examples/optiga\example_optiga_crypt_symmetric_encrypt_decrypt.c **** * AUTHORS OR COPYRIGHT HOLDERS BE LIABLE FOR ANY CLAIM, DAMAGES OR OTHER
  21:D:/School/diseratie/SEMS/xmc4800_evaluation_kit/optiga-trust-m/examples/optiga\example_optiga_crypt_symmetric_encrypt_decrypt.c **** * LIABILITY, WHETHER IN AN ACTION OF CONTRACT, TORT OR OTHERWISE, ARISING FROM,
  22:D:/School/diseratie/SEMS/xmc4800_evaluation_kit/optiga-trust-m/examples/optiga\example_optiga_crypt_symmetric_encrypt_decrypt.c **** * OUT OF OR IN CONNECTION WITH THE SOFTWARE OR THE USE OR OTHER DEALINGS IN THE
  23:D:/School/diseratie/SEMS/xmc4800_evaluation_kit/optiga-trust-m/examples/optiga\example_optiga_crypt_symmetric_encrypt_decrypt.c **** * SOFTWARE
  24:D:/School/diseratie/SEMS/xmc4800_evaluation_kit/optiga-trust-m/examples/optiga\example_optiga_crypt_symmetric_encrypt_decrypt.c **** *
  25:D:/School/diseratie/SEMS/xmc4800_evaluation_kit/optiga-trust-m/examples/optiga\example_optiga_crypt_symmetric_encrypt_decrypt.c **** * \endcopyright
  26:D:/School/diseratie/SEMS/xmc4800_evaluation_kit/optiga-trust-m/examples/optiga\example_optiga_crypt_symmetric_encrypt_decrypt.c **** *
  27:D:/School/diseratie/SEMS/xmc4800_evaluation_kit/optiga-trust-m/examples/optiga\example_optiga_crypt_symmetric_encrypt_decrypt.c **** * \author Infineon Technologies AG
  28:D:/School/diseratie/SEMS/xmc4800_evaluation_kit/optiga-trust-m/examples/optiga\example_optiga_crypt_symmetric_encrypt_decrypt.c **** *
  29:D:/School/diseratie/SEMS/xmc4800_evaluation_kit/optiga-trust-m/examples/optiga\example_optiga_crypt_symmetric_encrypt_decrypt.c **** * \file example_optiga_crypt_symmetric_encrypt_decrypt.c
  30:D:/School/diseratie/SEMS/xmc4800_evaluation_kit/optiga-trust-m/examples/optiga\example_optiga_crypt_symmetric_encrypt_decrypt.c **** *
  31:D:/School/diseratie/SEMS/xmc4800_evaluation_kit/optiga-trust-m/examples/optiga\example_optiga_crypt_symmetric_encrypt_decrypt.c **** * \brief   This file provides the example for symmetric encryption and decryption for CBC mode usin
  32:D:/School/diseratie/SEMS/xmc4800_evaluation_kit/optiga-trust-m/examples/optiga\example_optiga_crypt_symmetric_encrypt_decrypt.c **** *          optiga_crypt_symmetric_encrypt_start, optiga_crypt_symmetric_encrypt_continue,
  33:D:/School/diseratie/SEMS/xmc4800_evaluation_kit/optiga-trust-m/examples/optiga\example_optiga_crypt_symmetric_encrypt_decrypt.c **** *          optiga_crypt_symmetric_encrypt_final, optiga_crypt_symmetric_decrypt_start,
  34:D:/School/diseratie/SEMS/xmc4800_evaluation_kit/optiga-trust-m/examples/optiga\example_optiga_crypt_symmetric_encrypt_decrypt.c **** *          optiga_crypt_symmetric_decrypt_continue and optiga_crypt_symmetric_decrypt_final APIs.
  35:D:/School/diseratie/SEMS/xmc4800_evaluation_kit/optiga-trust-m/examples/optiga\example_optiga_crypt_symmetric_encrypt_decrypt.c **** *          It also provides example for symmetric encryption for CBC MAC mode using optiga_crypt_sy
  36:D:/School/diseratie/SEMS/xmc4800_evaluation_kit/optiga-trust-m/examples/optiga\example_optiga_crypt_symmetric_encrypt_decrypt.c **** *
  37:D:/School/diseratie/SEMS/xmc4800_evaluation_kit/optiga-trust-m/examples/optiga\example_optiga_crypt_symmetric_encrypt_decrypt.c **** * \ingroup grOptigaExamples
  38:D:/School/diseratie/SEMS/xmc4800_evaluation_kit/optiga-trust-m/examples/optiga\example_optiga_crypt_symmetric_encrypt_decrypt.c **** *
  39:D:/School/diseratie/SEMS/xmc4800_evaluation_kit/optiga-trust-m/examples/optiga\example_optiga_crypt_symmetric_encrypt_decrypt.c **** * @{
  40:D:/School/diseratie/SEMS/xmc4800_evaluation_kit/optiga-trust-m/examples/optiga\example_optiga_crypt_symmetric_encrypt_decrypt.c **** */
  41:D:/School/diseratie/SEMS/xmc4800_evaluation_kit/optiga-trust-m/examples/optiga\example_optiga_crypt_symmetric_encrypt_decrypt.c **** 
  42:D:/School/diseratie/SEMS/xmc4800_evaluation_kit/optiga-trust-m/examples/optiga\example_optiga_crypt_symmetric_encrypt_decrypt.c **** #include "optiga/optiga_crypt.h"
  43:D:/School/diseratie/SEMS/xmc4800_evaluation_kit/optiga-trust-m/examples/optiga\example_optiga_crypt_symmetric_encrypt_decrypt.c **** #include "optiga_example.h"
  44:D:/School/diseratie/SEMS/xmc4800_evaluation_kit/optiga-trust-m/examples/optiga\example_optiga_crypt_symmetric_encrypt_decrypt.c **** 
  45:D:/School/diseratie/SEMS/xmc4800_evaluation_kit/optiga-trust-m/examples/optiga\example_optiga_crypt_symmetric_encrypt_decrypt.c **** #if defined (OPTIGA_CRYPT_SYM_ENCRYPT_ENABLED) && defined (OPTIGA_CRYPT_SYM_DECRYPT_ENABLED)
  46:D:/School/diseratie/SEMS/xmc4800_evaluation_kit/optiga-trust-m/examples/optiga\example_optiga_crypt_symmetric_encrypt_decrypt.c **** 
  47:D:/School/diseratie/SEMS/xmc4800_evaluation_kit/optiga-trust-m/examples/optiga\example_optiga_crypt_symmetric_encrypt_decrypt.c **** #ifndef OPTIGA_INIT_DEINIT_DONE_EXCLUSIVELY
  48:D:/School/diseratie/SEMS/xmc4800_evaluation_kit/optiga-trust-m/examples/optiga\example_optiga_crypt_symmetric_encrypt_decrypt.c **** extern void example_optiga_init(void);
  49:D:/School/diseratie/SEMS/xmc4800_evaluation_kit/optiga-trust-m/examples/optiga\example_optiga_crypt_symmetric_encrypt_decrypt.c **** extern void example_optiga_deinit(void);
  50:D:/School/diseratie/SEMS/xmc4800_evaluation_kit/optiga-trust-m/examples/optiga\example_optiga_crypt_symmetric_encrypt_decrypt.c **** #endif
  51:D:/School/diseratie/SEMS/xmc4800_evaluation_kit/optiga-trust-m/examples/optiga\example_optiga_crypt_symmetric_encrypt_decrypt.c **** 
  52:D:/School/diseratie/SEMS/xmc4800_evaluation_kit/optiga-trust-m/examples/optiga\example_optiga_crypt_symmetric_encrypt_decrypt.c **** extern optiga_lib_status_t generate_symmetric_key(void);
  53:D:/School/diseratie/SEMS/xmc4800_evaluation_kit/optiga-trust-m/examples/optiga\example_optiga_crypt_symmetric_encrypt_decrypt.c **** /**
  54:D:/School/diseratie/SEMS/xmc4800_evaluation_kit/optiga-trust-m/examples/optiga\example_optiga_crypt_symmetric_encrypt_decrypt.c ****  * Callback when optiga_crypt_xxxx operation is completed asynchronously
  55:D:/School/diseratie/SEMS/xmc4800_evaluation_kit/optiga-trust-m/examples/optiga\example_optiga_crypt_symmetric_encrypt_decrypt.c ****  */
  56:D:/School/diseratie/SEMS/xmc4800_evaluation_kit/optiga-trust-m/examples/optiga\example_optiga_crypt_symmetric_encrypt_decrypt.c **** static volatile optiga_lib_status_t optiga_lib_status;
  57:D:/School/diseratie/SEMS/xmc4800_evaluation_kit/optiga-trust-m/examples/optiga\example_optiga_crypt_symmetric_encrypt_decrypt.c **** //lint --e{818} suppress "argument "context" is not used in the sample provided"
  58:D:/School/diseratie/SEMS/xmc4800_evaluation_kit/optiga-trust-m/examples/optiga\example_optiga_crypt_symmetric_encrypt_decrypt.c **** static void optiga_util_crypt_callback(void * context, optiga_lib_status_t return_status)
  59:D:/School/diseratie/SEMS/xmc4800_evaluation_kit/optiga-trust-m/examples/optiga\example_optiga_crypt_symmetric_encrypt_decrypt.c **** {
  27              	 .loc 1 59 0
  28              	 .cfi_startproc
  29              	 
  30              	 
  31              	 
  32              	.LVL0:
  60:D:/School/diseratie/SEMS/xmc4800_evaluation_kit/optiga-trust-m/examples/optiga\example_optiga_crypt_symmetric_encrypt_decrypt.c ****     optiga_lib_status = return_status;
  33              	 .loc 1 60 0
  34 0000 014B     	 ldr r3,.L2
  35 0002 1980     	 strh r1,[r3]
  36 0004 7047     	 bx lr
  37              	.L3:
  38 0006 00BF     	 .align 2
  39              	.L2:
  40 0008 00000000 	 .word .LANCHOR0
  41              	 .cfi_endproc
  42              	.LFE6:
  44              	 .section .text.example_optiga_crypt_symmetric_encrypt_decrypt_cbc,"ax",%progbits
  45              	 .align 2
  46              	 .global example_optiga_crypt_symmetric_encrypt_decrypt_cbc
  47              	 .thumb
  48              	 .thumb_func
  50              	example_optiga_crypt_symmetric_encrypt_decrypt_cbc:
  51              	.LFB7:
  61:D:/School/diseratie/SEMS/xmc4800_evaluation_kit/optiga-trust-m/examples/optiga\example_optiga_crypt_symmetric_encrypt_decrypt.c ****     if (NULL != context)
  62:D:/School/diseratie/SEMS/xmc4800_evaluation_kit/optiga-trust-m/examples/optiga\example_optiga_crypt_symmetric_encrypt_decrypt.c ****     {
  63:D:/School/diseratie/SEMS/xmc4800_evaluation_kit/optiga-trust-m/examples/optiga\example_optiga_crypt_symmetric_encrypt_decrypt.c ****         // callback to upper layer here
  64:D:/School/diseratie/SEMS/xmc4800_evaluation_kit/optiga-trust-m/examples/optiga\example_optiga_crypt_symmetric_encrypt_decrypt.c ****     }
  65:D:/School/diseratie/SEMS/xmc4800_evaluation_kit/optiga-trust-m/examples/optiga\example_optiga_crypt_symmetric_encrypt_decrypt.c **** }
  66:D:/School/diseratie/SEMS/xmc4800_evaluation_kit/optiga-trust-m/examples/optiga\example_optiga_crypt_symmetric_encrypt_decrypt.c **** 
  67:D:/School/diseratie/SEMS/xmc4800_evaluation_kit/optiga-trust-m/examples/optiga\example_optiga_crypt_symmetric_encrypt_decrypt.c **** /**
  68:D:/School/diseratie/SEMS/xmc4800_evaluation_kit/optiga-trust-m/examples/optiga\example_optiga_crypt_symmetric_encrypt_decrypt.c ****  * The below example demonstrates the symmetric encryption and decryption for CBC mode using OPTIGA
  69:D:/School/diseratie/SEMS/xmc4800_evaluation_kit/optiga-trust-m/examples/optiga\example_optiga_crypt_symmetric_encrypt_decrypt.c ****  *
  70:D:/School/diseratie/SEMS/xmc4800_evaluation_kit/optiga-trust-m/examples/optiga\example_optiga_crypt_symmetric_encrypt_decrypt.c ****  * Example for 
  71:D:/School/diseratie/SEMS/xmc4800_evaluation_kit/optiga-trust-m/examples/optiga\example_optiga_crypt_symmetric_encrypt_decrypt.c ****  *  #optiga_crypt_symmetric_encrypt_start,
  72:D:/School/diseratie/SEMS/xmc4800_evaluation_kit/optiga-trust-m/examples/optiga\example_optiga_crypt_symmetric_encrypt_decrypt.c ****  *  #optiga_crypt_symmetric_encrypt_continue and 
  73:D:/School/diseratie/SEMS/xmc4800_evaluation_kit/optiga-trust-m/examples/optiga\example_optiga_crypt_symmetric_encrypt_decrypt.c ****  *  #optiga_crypt_symmetric_encrypt_final for symmetric encryption.
  74:D:/School/diseratie/SEMS/xmc4800_evaluation_kit/optiga-trust-m/examples/optiga\example_optiga_crypt_symmetric_encrypt_decrypt.c ****  *  #optiga_crypt_symmetric_decrypt_start,
  75:D:/School/diseratie/SEMS/xmc4800_evaluation_kit/optiga-trust-m/examples/optiga\example_optiga_crypt_symmetric_encrypt_decrypt.c ****  *  #optiga_crypt_symmetric_decrypt_continue and 
  76:D:/School/diseratie/SEMS/xmc4800_evaluation_kit/optiga-trust-m/examples/optiga\example_optiga_crypt_symmetric_encrypt_decrypt.c ****  *  #optiga_crypt_symmetric_decrypt_final for symmetric decryption.
  77:D:/School/diseratie/SEMS/xmc4800_evaluation_kit/optiga-trust-m/examples/optiga\example_optiga_crypt_symmetric_encrypt_decrypt.c ****  */
  78:D:/School/diseratie/SEMS/xmc4800_evaluation_kit/optiga-trust-m/examples/optiga\example_optiga_crypt_symmetric_encrypt_decrypt.c **** void example_optiga_crypt_symmetric_encrypt_decrypt_cbc(void)
  79:D:/School/diseratie/SEMS/xmc4800_evaluation_kit/optiga-trust-m/examples/optiga\example_optiga_crypt_symmetric_encrypt_decrypt.c **** {
  52              	 .loc 1 79 0
  53              	 .cfi_startproc
  54              	 
  55              	 
  56 0000 2DE9F041 	 push {r4,r5,r6,r7,r8,lr}
  57              	.LCFI0:
  58              	 .cfi_def_cfa_offset 24
  59              	 .cfi_offset 4,-24
  60              	 .cfi_offset 5,-20
  61              	 .cfi_offset 6,-16
  62              	 .cfi_offset 7,-12
  63              	 .cfi_offset 8,-8
  64              	 .cfi_offset 14,-4
  80:D:/School/diseratie/SEMS/xmc4800_evaluation_kit/optiga-trust-m/examples/optiga\example_optiga_crypt_symmetric_encrypt_decrypt.c ****     const uint8_t plain_data_buffer_start[] = {0x6b, 0xc1, 0xbe, 0xe2,
  65              	 .loc 1 80 0
  66 0004 9C4C     	 ldr r4,.L45
  79:D:/School/diseratie/SEMS/xmc4800_evaluation_kit/optiga-trust-m/examples/optiga\example_optiga_crypt_symmetric_encrypt_decrypt.c ****     const uint8_t plain_data_buffer_start[] = {0x6b, 0xc1, 0xbe, 0xe2,
  67              	 .loc 1 79 0
  68 0006 CCB0     	 sub sp,sp,#304
  69              	.LCFI1:
  70              	 .cfi_def_cfa_offset 328
  81:D:/School/diseratie/SEMS/xmc4800_evaluation_kit/optiga-trust-m/examples/optiga\example_optiga_crypt_symmetric_encrypt_decrypt.c ****                                                0x2e, 0x40, 0x9f, 0x96,
  82:D:/School/diseratie/SEMS/xmc4800_evaluation_kit/optiga-trust-m/examples/optiga\example_optiga_crypt_symmetric_encrypt_decrypt.c ****                                                0xe9, 0x3d, 0x7e, 0x11,
  83:D:/School/diseratie/SEMS/xmc4800_evaluation_kit/optiga-trust-m/examples/optiga\example_optiga_crypt_symmetric_encrypt_decrypt.c ****                                                0x73, 0x93, 0x17, 0x2a};
  84:D:/School/diseratie/SEMS/xmc4800_evaluation_kit/optiga-trust-m/examples/optiga\example_optiga_crypt_symmetric_encrypt_decrypt.c ****     const uint8_t plain_data_buffer_continue[] = {0x7c,0xd2,0xcf,0xf3,
  71              	 .loc 1 84 0
  72 0008 2646     	 mov r6,r4
  80:D:/School/diseratie/SEMS/xmc4800_evaluation_kit/optiga-trust-m/examples/optiga\example_optiga_crypt_symmetric_encrypt_decrypt.c ****                                                0x2e, 0x40, 0x9f, 0x96,
  73              	 .loc 1 80 0
  74 000a 2068     	 ldr r0,[r4]
  75 000c 6168     	 ldr r1,[r4,#4]
  76 000e A268     	 ldr r2,[r4,#8]
  77 0010 E368     	 ldr r3,[r4,#12]
  78 0012 10AD     	 add r5,sp,#64
  79 0014 0FC5     	 stmia r5!,{r0,r1,r2,r3}
  80              	 .loc 1 84 0
  81 0016 56F8100F 	 ldr r0,[r6,#16]!
  82 001a 7168     	 ldr r1,[r6,#4]
  83 001c B268     	 ldr r2,[r6,#8]
  84 001e F368     	 ldr r3,[r6,#12]
  85 0020 14AD     	 add r5,sp,#80
  86 0022 0FC5     	 stmia r5!,{r0,r1,r2,r3}
  85:D:/School/diseratie/SEMS/xmc4800_evaluation_kit/optiga-trust-m/examples/optiga\example_optiga_crypt_symmetric_encrypt_decrypt.c ****                                                   0x3f,0x51,0xa0,0xa7,
  86:D:/School/diseratie/SEMS/xmc4800_evaluation_kit/optiga-trust-m/examples/optiga\example_optiga_crypt_symmetric_encrypt_decrypt.c ****                                                   0xf0,0x4e,0x8f,0x22,
  87:D:/School/diseratie/SEMS/xmc4800_evaluation_kit/optiga-trust-m/examples/optiga\example_optiga_crypt_symmetric_encrypt_decrypt.c ****                                                   0x84,0xa4,0x28,0x3b};
  88:D:/School/diseratie/SEMS/xmc4800_evaluation_kit/optiga-trust-m/examples/optiga\example_optiga_crypt_symmetric_encrypt_decrypt.c ****     const uint8_t plain_data_buffer_final[] = {0x5a,0xb0,0xad,0xd1,
  87              	 .loc 1 88 0
  88 0024 54F8200F 	 ldr r0,[r4,#32]!
  89 0028 6168     	 ldr r1,[r4,#4]
  90 002a A268     	 ldr r2,[r4,#8]
  91 002c E368     	 ldr r3,[r4,#12]
  89:D:/School/diseratie/SEMS/xmc4800_evaluation_kit/optiga-trust-m/examples/optiga\example_optiga_crypt_symmetric_encrypt_decrypt.c ****                                                0x1d,0x3f,0x8e,0x85,
  90:D:/School/diseratie/SEMS/xmc4800_evaluation_kit/optiga-trust-m/examples/optiga\example_optiga_crypt_symmetric_encrypt_decrypt.c ****                                                0xd8,0x2c,0x6d,0xf1,
  91:D:/School/diseratie/SEMS/xmc4800_evaluation_kit/optiga-trust-m/examples/optiga\example_optiga_crypt_symmetric_encrypt_decrypt.c ****                                                0x62,0x82,0x06,0x19};
  92:D:/School/diseratie/SEMS/xmc4800_evaluation_kit/optiga-trust-m/examples/optiga\example_optiga_crypt_symmetric_encrypt_decrypt.c **** 
  93:D:/School/diseratie/SEMS/xmc4800_evaluation_kit/optiga-trust-m/examples/optiga\example_optiga_crypt_symmetric_encrypt_decrypt.c ****     uint8_t encrypted_data_buffer_start[32] = {0};
  94:D:/School/diseratie/SEMS/xmc4800_evaluation_kit/optiga-trust-m/examples/optiga\example_optiga_crypt_symmetric_encrypt_decrypt.c ****     uint32_t encrypted_data_length_start = sizeof(encrypted_data_buffer_start);
  92              	 .loc 1 94 0
  93 002e 2025     	 movs r5,#32
  93:D:/School/diseratie/SEMS/xmc4800_evaluation_kit/optiga-trust-m/examples/optiga\example_optiga_crypt_symmetric_encrypt_decrypt.c ****     uint32_t encrypted_data_length_start = sizeof(encrypted_data_buffer_start);
  94              	 .loc 1 93 0
  95 0030 0024     	 movs r4,#0
  88:D:/School/diseratie/SEMS/xmc4800_evaluation_kit/optiga-trust-m/examples/optiga\example_optiga_crypt_symmetric_encrypt_decrypt.c ****                                                0x1d,0x3f,0x8e,0x85,
  96              	 .loc 1 88 0
  97 0032 18AE     	 add r6,sp,#96
  98 0034 0FC6     	 stmia r6!,{r0,r1,r2,r3}
  93:D:/School/diseratie/SEMS/xmc4800_evaluation_kit/optiga-trust-m/examples/optiga\example_optiga_crypt_symmetric_encrypt_decrypt.c ****     uint32_t encrypted_data_length_start = sizeof(encrypted_data_buffer_start);
  99              	 .loc 1 93 0
 100 0036 1C94     	 str r4,[sp,#112]
 101 0038 1D94     	 str r4,[sp,#116]
 102 003a 1E94     	 str r4,[sp,#120]
 103 003c 1F94     	 str r4,[sp,#124]
 104 003e 2094     	 str r4,[sp,#128]
 105 0040 2194     	 str r4,[sp,#132]
 106 0042 2294     	 str r4,[sp,#136]
 107              	 .loc 1 94 0
 108 0044 0995     	 str r5,[sp,#36]
  93:D:/School/diseratie/SEMS/xmc4800_evaluation_kit/optiga-trust-m/examples/optiga\example_optiga_crypt_symmetric_encrypt_decrypt.c ****     uint32_t encrypted_data_length_start = sizeof(encrypted_data_buffer_start);
 109              	 .loc 1 93 0
 110 0046 2394     	 str r4,[sp,#140]
  95:D:/School/diseratie/SEMS/xmc4800_evaluation_kit/optiga-trust-m/examples/optiga\example_optiga_crypt_symmetric_encrypt_decrypt.c ****     uint8_t encrypted_data_buffer_continue[32] = {0};
 111              	 .loc 1 95 0
 112 0048 2494     	 str r4,[sp,#144]
 113 004a 2594     	 str r4,[sp,#148]
 114 004c 2694     	 str r4,[sp,#152]
 115 004e 2794     	 str r4,[sp,#156]
 116 0050 2894     	 str r4,[sp,#160]
 117 0052 2994     	 str r4,[sp,#164]
 118 0054 2A94     	 str r4,[sp,#168]
 119 0056 2B94     	 str r4,[sp,#172]
  96:D:/School/diseratie/SEMS/xmc4800_evaluation_kit/optiga-trust-m/examples/optiga\example_optiga_crypt_symmetric_encrypt_decrypt.c ****     uint32_t encrypted_data_length_continue = sizeof(encrypted_data_buffer_continue);
  97:D:/School/diseratie/SEMS/xmc4800_evaluation_kit/optiga-trust-m/examples/optiga\example_optiga_crypt_symmetric_encrypt_decrypt.c ****     uint8_t encrypted_data_buffer_final[32] = {0};
 120              	 .loc 1 97 0
 121 0058 2C94     	 str r4,[sp,#176]
 122 005a 2D94     	 str r4,[sp,#180]
 123 005c 2E94     	 str r4,[sp,#184]
 124 005e 2F94     	 str r4,[sp,#188]
 125 0060 3094     	 str r4,[sp,#192]
 126 0062 3194     	 str r4,[sp,#196]
 127 0064 3294     	 str r4,[sp,#200]
 128 0066 3394     	 str r4,[sp,#204]
  98:D:/School/diseratie/SEMS/xmc4800_evaluation_kit/optiga-trust-m/examples/optiga\example_optiga_crypt_symmetric_encrypt_decrypt.c ****     uint32_t encrypted_data_length_final = sizeof(encrypted_data_buffer_final);
  99:D:/School/diseratie/SEMS/xmc4800_evaluation_kit/optiga-trust-m/examples/optiga\example_optiga_crypt_symmetric_encrypt_decrypt.c ****     uint8_t decrypted_data_buffer_start[32] = {0};
 129              	 .loc 1 99 0
 130 0068 3494     	 str r4,[sp,#208]
 131 006a 3594     	 str r4,[sp,#212]
 132 006c 3694     	 str r4,[sp,#216]
 133 006e 3794     	 str r4,[sp,#220]
 134 0070 3894     	 str r4,[sp,#224]
 135 0072 3994     	 str r4,[sp,#228]
 136 0074 3A94     	 str r4,[sp,#232]
 137 0076 3B94     	 str r4,[sp,#236]
 100:D:/School/diseratie/SEMS/xmc4800_evaluation_kit/optiga-trust-m/examples/optiga\example_optiga_crypt_symmetric_encrypt_decrypt.c ****     uint32_t decrypted_data_length_start = sizeof(decrypted_data_buffer_start);
 101:D:/School/diseratie/SEMS/xmc4800_evaluation_kit/optiga-trust-m/examples/optiga\example_optiga_crypt_symmetric_encrypt_decrypt.c ****     uint8_t decrypted_data_buffer_continue[32] = {0};
 138              	 .loc 1 101 0
 139 0078 3C94     	 str r4,[sp,#240]
 140 007a 3D94     	 str r4,[sp,#244]
 141 007c 3E94     	 str r4,[sp,#248]
 142 007e 3F94     	 str r4,[sp,#252]
 143 0080 4094     	 str r4,[sp,#256]
 144 0082 4194     	 str r4,[sp,#260]
 145 0084 4294     	 str r4,[sp,#264]
  96:D:/School/diseratie/SEMS/xmc4800_evaluation_kit/optiga-trust-m/examples/optiga\example_optiga_crypt_symmetric_encrypt_decrypt.c ****     uint8_t encrypted_data_buffer_final[32] = {0};
 146              	 .loc 1 96 0
 147 0086 0A95     	 str r5,[sp,#40]
  98:D:/School/diseratie/SEMS/xmc4800_evaluation_kit/optiga-trust-m/examples/optiga\example_optiga_crypt_symmetric_encrypt_decrypt.c ****     uint32_t encrypted_data_length_final = sizeof(encrypted_data_buffer_final);
 148              	 .loc 1 98 0
 149 0088 0B95     	 str r5,[sp,#44]
 100:D:/School/diseratie/SEMS/xmc4800_evaluation_kit/optiga-trust-m/examples/optiga\example_optiga_crypt_symmetric_encrypt_decrypt.c ****     uint32_t decrypted_data_length_start = sizeof(decrypted_data_buffer_start);
 150              	 .loc 1 100 0
 151 008a 0C95     	 str r5,[sp,#48]
 152              	 .loc 1 101 0
 153 008c 4394     	 str r4,[sp,#268]
 102:D:/School/diseratie/SEMS/xmc4800_evaluation_kit/optiga-trust-m/examples/optiga\example_optiga_crypt_symmetric_encrypt_decrypt.c ****     uint32_t decrypted_data_length_continue = sizeof(decrypted_data_buffer_continue);
 103:D:/School/diseratie/SEMS/xmc4800_evaluation_kit/optiga-trust-m/examples/optiga\example_optiga_crypt_symmetric_encrypt_decrypt.c ****     uint8_t decrypted_data_buffer_final[32] = {0};
 154              	 .loc 1 103 0
 155 008e 4494     	 str r4,[sp,#272]
 156 0090 4594     	 str r4,[sp,#276]
 157 0092 4694     	 str r4,[sp,#280]
 158 0094 4794     	 str r4,[sp,#284]
 159 0096 4894     	 str r4,[sp,#288]
 160 0098 4994     	 str r4,[sp,#292]
 161 009a 4A94     	 str r4,[sp,#296]
 162 009c 4B94     	 str r4,[sp,#300]
 104:D:/School/diseratie/SEMS/xmc4800_evaluation_kit/optiga-trust-m/examples/optiga\example_optiga_crypt_symmetric_encrypt_decrypt.c ****     uint32_t decrypted_data_length_final = sizeof(decrypted_data_buffer_final);
 105:D:/School/diseratie/SEMS/xmc4800_evaluation_kit/optiga-trust-m/examples/optiga\example_optiga_crypt_symmetric_encrypt_decrypt.c ****     optiga_crypt_t * me = NULL;
 106:D:/School/diseratie/SEMS/xmc4800_evaluation_kit/optiga-trust-m/examples/optiga\example_optiga_crypt_symmetric_encrypt_decrypt.c ****     uint32_t time_taken = 0;
 163              	 .loc 1 106 0
 164 009e 0F94     	 str r4,[sp,#60]
 102:D:/School/diseratie/SEMS/xmc4800_evaluation_kit/optiga-trust-m/examples/optiga\example_optiga_crypt_symmetric_encrypt_decrypt.c ****     uint32_t decrypted_data_length_continue = sizeof(decrypted_data_buffer_continue);
 165              	 .loc 1 102 0
 166 00a0 0D95     	 str r5,[sp,#52]
 104:D:/School/diseratie/SEMS/xmc4800_evaluation_kit/optiga-trust-m/examples/optiga\example_optiga_crypt_symmetric_encrypt_decrypt.c ****     uint32_t decrypted_data_length_final = sizeof(decrypted_data_buffer_final);
 167              	 .loc 1 104 0
 168 00a2 0E95     	 str r5,[sp,#56]
 169              	.LVL1:
 107:D:/School/diseratie/SEMS/xmc4800_evaluation_kit/optiga-trust-m/examples/optiga\example_optiga_crypt_symmetric_encrypt_decrypt.c ****     optiga_lib_status_t return_status = !OPTIGA_LIB_SUCCESS;
 108:D:/School/diseratie/SEMS/xmc4800_evaluation_kit/optiga-trust-m/examples/optiga\example_optiga_crypt_symmetric_encrypt_decrypt.c **** 
 109:D:/School/diseratie/SEMS/xmc4800_evaluation_kit/optiga-trust-m/examples/optiga\example_optiga_crypt_symmetric_encrypt_decrypt.c ****     do
 110:D:/School/diseratie/SEMS/xmc4800_evaluation_kit/optiga-trust-m/examples/optiga\example_optiga_crypt_symmetric_encrypt_decrypt.c ****     {
 111:D:/School/diseratie/SEMS/xmc4800_evaluation_kit/optiga-trust-m/examples/optiga\example_optiga_crypt_symmetric_encrypt_decrypt.c ****         
 112:D:/School/diseratie/SEMS/xmc4800_evaluation_kit/optiga-trust-m/examples/optiga\example_optiga_crypt_symmetric_encrypt_decrypt.c **** #ifndef OPTIGA_INIT_DEINIT_DONE_EXCLUSIVELY
 113:D:/School/diseratie/SEMS/xmc4800_evaluation_kit/optiga-trust-m/examples/optiga\example_optiga_crypt_symmetric_encrypt_decrypt.c ****         /**
 114:D:/School/diseratie/SEMS/xmc4800_evaluation_kit/optiga-trust-m/examples/optiga\example_optiga_crypt_symmetric_encrypt_decrypt.c ****          * Open the application on OPTIGA which is a precondition to perform any other operations
 115:D:/School/diseratie/SEMS/xmc4800_evaluation_kit/optiga-trust-m/examples/optiga\example_optiga_crypt_symmetric_encrypt_decrypt.c ****          * using optiga_util_open_application
 116:D:/School/diseratie/SEMS/xmc4800_evaluation_kit/optiga-trust-m/examples/optiga\example_optiga_crypt_symmetric_encrypt_decrypt.c ****          */
 117:D:/School/diseratie/SEMS/xmc4800_evaluation_kit/optiga-trust-m/examples/optiga\example_optiga_crypt_symmetric_encrypt_decrypt.c ****         example_optiga_init();
 170              	 .loc 1 117 0
 171 00a4 FFF7FEFF 	 bl example_optiga_init
 172              	.LVL2:
 118:D:/School/diseratie/SEMS/xmc4800_evaluation_kit/optiga-trust-m/examples/optiga\example_optiga_crypt_symmetric_encrypt_decrypt.c **** #endif //OPTIGA_INIT_DEINIT_DONE_EXCLUSIVELY
 119:D:/School/diseratie/SEMS/xmc4800_evaluation_kit/optiga-trust-m/examples/optiga\example_optiga_crypt_symmetric_encrypt_decrypt.c ****         
 120:D:/School/diseratie/SEMS/xmc4800_evaluation_kit/optiga-trust-m/examples/optiga\example_optiga_crypt_symmetric_encrypt_decrypt.c ****         OPTIGA_EXAMPLE_LOG_MESSAGE(__FUNCTION__);
 121:D:/School/diseratie/SEMS/xmc4800_evaluation_kit/optiga-trust-m/examples/optiga\example_optiga_crypt_symmetric_encrypt_decrypt.c ****         
 122:D:/School/diseratie/SEMS/xmc4800_evaluation_kit/optiga-trust-m/examples/optiga\example_optiga_crypt_symmetric_encrypt_decrypt.c ****         /**
 123:D:/School/diseratie/SEMS/xmc4800_evaluation_kit/optiga-trust-m/examples/optiga\example_optiga_crypt_symmetric_encrypt_decrypt.c ****          * 1. Create OPTIGA Crypt Instance
 124:D:/School/diseratie/SEMS/xmc4800_evaluation_kit/optiga-trust-m/examples/optiga\example_optiga_crypt_symmetric_encrypt_decrypt.c ****          *
 125:D:/School/diseratie/SEMS/xmc4800_evaluation_kit/optiga-trust-m/examples/optiga\example_optiga_crypt_symmetric_encrypt_decrypt.c ****          */
 126:D:/School/diseratie/SEMS/xmc4800_evaluation_kit/optiga-trust-m/examples/optiga\example_optiga_crypt_symmetric_encrypt_decrypt.c ****         me = optiga_crypt_create(0, optiga_util_crypt_callback, NULL);
 173              	 .loc 1 126 0
 174 00a8 2046     	 mov r0,r4
 175 00aa 2246     	 mov r2,r4
 176 00ac 7349     	 ldr r1,.L45+4
 177 00ae FFF7FEFF 	 bl optiga_crypt_create
 178              	.LVL3:
 127:D:/School/diseratie/SEMS/xmc4800_evaluation_kit/optiga-trust-m/examples/optiga\example_optiga_crypt_symmetric_encrypt_decrypt.c ****         if (NULL == me)
 179              	 .loc 1 127 0
 180 00b2 0446     	 mov r4,r0
 181 00b4 0028     	 cmp r0,#0
 182 00b6 00F0DA80 	 beq .L5
 128:D:/School/diseratie/SEMS/xmc4800_evaluation_kit/optiga-trust-m/examples/optiga\example_optiga_crypt_symmetric_encrypt_decrypt.c ****         {
 129:D:/School/diseratie/SEMS/xmc4800_evaluation_kit/optiga-trust-m/examples/optiga\example_optiga_crypt_symmetric_encrypt_decrypt.c ****             break;
 130:D:/School/diseratie/SEMS/xmc4800_evaluation_kit/optiga-trust-m/examples/optiga\example_optiga_crypt_symmetric_encrypt_decrypt.c ****         }
 131:D:/School/diseratie/SEMS/xmc4800_evaluation_kit/optiga-trust-m/examples/optiga\example_optiga_crypt_symmetric_encrypt_decrypt.c **** 
 132:D:/School/diseratie/SEMS/xmc4800_evaluation_kit/optiga-trust-m/examples/optiga\example_optiga_crypt_symmetric_encrypt_decrypt.c ****         /**
 133:D:/School/diseratie/SEMS/xmc4800_evaluation_kit/optiga-trust-m/examples/optiga\example_optiga_crypt_symmetric_encrypt_decrypt.c ****          * 2. Update AES 128 symmetric key using secure key update
 134:D:/School/diseratie/SEMS/xmc4800_evaluation_kit/optiga-trust-m/examples/optiga\example_optiga_crypt_symmetric_encrypt_decrypt.c ****          *
 135:D:/School/diseratie/SEMS/xmc4800_evaluation_kit/optiga-trust-m/examples/optiga\example_optiga_crypt_symmetric_encrypt_decrypt.c ****          */
 136:D:/School/diseratie/SEMS/xmc4800_evaluation_kit/optiga-trust-m/examples/optiga\example_optiga_crypt_symmetric_encrypt_decrypt.c ****         OPTIGA_EXAMPLE_LOG_MESSAGE("Symmetric key generation");
 137:D:/School/diseratie/SEMS/xmc4800_evaluation_kit/optiga-trust-m/examples/optiga\example_optiga_crypt_symmetric_encrypt_decrypt.c ****         return_status = generate_symmetric_key();
 183              	 .loc 1 137 0
 184 00ba FFF7FEFF 	 bl generate_symmetric_key
 185              	.LVL4:
 138:D:/School/diseratie/SEMS/xmc4800_evaluation_kit/optiga-trust-m/examples/optiga\example_optiga_crypt_symmetric_encrypt_decrypt.c ****         if(OPTIGA_LIB_SUCCESS != return_status)
 186              	 .loc 1 138 0
 187 00be 0546     	 mov r5,r0
 188 00c0 38B1     	 cbz r0,.L44
 189              	.LVL5:
 190              	.L6:
 139:D:/School/diseratie/SEMS/xmc4800_evaluation_kit/optiga-trust-m/examples/optiga\example_optiga_crypt_symmetric_encrypt_decrypt.c ****         {
 140:D:/School/diseratie/SEMS/xmc4800_evaluation_kit/optiga-trust-m/examples/optiga\example_optiga_crypt_symmetric_encrypt_decrypt.c ****             break;
 141:D:/School/diseratie/SEMS/xmc4800_evaluation_kit/optiga-trust-m/examples/optiga\example_optiga_crypt_symmetric_encrypt_decrypt.c ****         }
 142:D:/School/diseratie/SEMS/xmc4800_evaluation_kit/optiga-trust-m/examples/optiga\example_optiga_crypt_symmetric_encrypt_decrypt.c ****         
 143:D:/School/diseratie/SEMS/xmc4800_evaluation_kit/optiga-trust-m/examples/optiga\example_optiga_crypt_symmetric_encrypt_decrypt.c ****         /**
 144:D:/School/diseratie/SEMS/xmc4800_evaluation_kit/optiga-trust-m/examples/optiga\example_optiga_crypt_symmetric_encrypt_decrypt.c ****          * 3. Start encryption sequence and encrypt the plain data 
 145:D:/School/diseratie/SEMS/xmc4800_evaluation_kit/optiga-trust-m/examples/optiga\example_optiga_crypt_symmetric_encrypt_decrypt.c ****          */
 146:D:/School/diseratie/SEMS/xmc4800_evaluation_kit/optiga-trust-m/examples/optiga\example_optiga_crypt_symmetric_encrypt_decrypt.c ****         optiga_lib_status = OPTIGA_LIB_BUSY;
 147:D:/School/diseratie/SEMS/xmc4800_evaluation_kit/optiga-trust-m/examples/optiga\example_optiga_crypt_symmetric_encrypt_decrypt.c ****         
 148:D:/School/diseratie/SEMS/xmc4800_evaluation_kit/optiga-trust-m/examples/optiga\example_optiga_crypt_symmetric_encrypt_decrypt.c ****         START_PERFORMANCE_MEASUREMENT(time_taken);
 149:D:/School/diseratie/SEMS/xmc4800_evaluation_kit/optiga-trust-m/examples/optiga\example_optiga_crypt_symmetric_encrypt_decrypt.c ****         
 150:D:/School/diseratie/SEMS/xmc4800_evaluation_kit/optiga-trust-m/examples/optiga\example_optiga_crypt_symmetric_encrypt_decrypt.c ****         return_status = optiga_crypt_symmetric_encrypt_start(me,
 151:D:/School/diseratie/SEMS/xmc4800_evaluation_kit/optiga-trust-m/examples/optiga\example_optiga_crypt_symmetric_encrypt_decrypt.c ****                                                              OPTIGA_SYMMETRIC_CBC,
 152:D:/School/diseratie/SEMS/xmc4800_evaluation_kit/optiga-trust-m/examples/optiga\example_optiga_crypt_symmetric_encrypt_decrypt.c ****                                                              OPTIGA_KEY_ID_SECRET_BASED,
 153:D:/School/diseratie/SEMS/xmc4800_evaluation_kit/optiga-trust-m/examples/optiga\example_optiga_crypt_symmetric_encrypt_decrypt.c ****                                                              plain_data_buffer_start,
 154:D:/School/diseratie/SEMS/xmc4800_evaluation_kit/optiga-trust-m/examples/optiga\example_optiga_crypt_symmetric_encrypt_decrypt.c ****                                                              sizeof(plain_data_buffer_start),
 155:D:/School/diseratie/SEMS/xmc4800_evaluation_kit/optiga-trust-m/examples/optiga\example_optiga_crypt_symmetric_encrypt_decrypt.c ****                                                              NULL,
 156:D:/School/diseratie/SEMS/xmc4800_evaluation_kit/optiga-trust-m/examples/optiga\example_optiga_crypt_symmetric_encrypt_decrypt.c ****                                                              0,
 157:D:/School/diseratie/SEMS/xmc4800_evaluation_kit/optiga-trust-m/examples/optiga\example_optiga_crypt_symmetric_encrypt_decrypt.c ****                                                              NULL,
 158:D:/School/diseratie/SEMS/xmc4800_evaluation_kit/optiga-trust-m/examples/optiga\example_optiga_crypt_symmetric_encrypt_decrypt.c ****                                                              0,
 159:D:/School/diseratie/SEMS/xmc4800_evaluation_kit/optiga-trust-m/examples/optiga\example_optiga_crypt_symmetric_encrypt_decrypt.c ****                                                              0,
 160:D:/School/diseratie/SEMS/xmc4800_evaluation_kit/optiga-trust-m/examples/optiga\example_optiga_crypt_symmetric_encrypt_decrypt.c ****                                                              encrypted_data_buffer_start,
 161:D:/School/diseratie/SEMS/xmc4800_evaluation_kit/optiga-trust-m/examples/optiga\example_optiga_crypt_symmetric_encrypt_decrypt.c ****                                                              &encrypted_data_length_start);
 162:D:/School/diseratie/SEMS/xmc4800_evaluation_kit/optiga-trust-m/examples/optiga\example_optiga_crypt_symmetric_encrypt_decrypt.c **** 
 163:D:/School/diseratie/SEMS/xmc4800_evaluation_kit/optiga-trust-m/examples/optiga\example_optiga_crypt_symmetric_encrypt_decrypt.c ****         WAIT_AND_CHECK_STATUS(return_status, optiga_lib_status);
 164:D:/School/diseratie/SEMS/xmc4800_evaluation_kit/optiga-trust-m/examples/optiga\example_optiga_crypt_symmetric_encrypt_decrypt.c ****         if (encrypted_data_length_start != sizeof(plain_data_buffer_start))
 165:D:/School/diseratie/SEMS/xmc4800_evaluation_kit/optiga-trust-m/examples/optiga\example_optiga_crypt_symmetric_encrypt_decrypt.c ****         {
 166:D:/School/diseratie/SEMS/xmc4800_evaluation_kit/optiga-trust-m/examples/optiga\example_optiga_crypt_symmetric_encrypt_decrypt.c ****             //Encrypted data length is incorrect
 167:D:/School/diseratie/SEMS/xmc4800_evaluation_kit/optiga-trust-m/examples/optiga\example_optiga_crypt_symmetric_encrypt_decrypt.c ****             return_status = !OPTIGA_LIB_SUCCESS;
 168:D:/School/diseratie/SEMS/xmc4800_evaluation_kit/optiga-trust-m/examples/optiga\example_optiga_crypt_symmetric_encrypt_decrypt.c ****             break;
 169:D:/School/diseratie/SEMS/xmc4800_evaluation_kit/optiga-trust-m/examples/optiga\example_optiga_crypt_symmetric_encrypt_decrypt.c ****         }
 170:D:/School/diseratie/SEMS/xmc4800_evaluation_kit/optiga-trust-m/examples/optiga\example_optiga_crypt_symmetric_encrypt_decrypt.c ****         /**
 171:D:/School/diseratie/SEMS/xmc4800_evaluation_kit/optiga-trust-m/examples/optiga\example_optiga_crypt_symmetric_encrypt_decrypt.c ****          * 4. Continue encrypting the plain data 
 172:D:/School/diseratie/SEMS/xmc4800_evaluation_kit/optiga-trust-m/examples/optiga\example_optiga_crypt_symmetric_encrypt_decrypt.c ****          */
 173:D:/School/diseratie/SEMS/xmc4800_evaluation_kit/optiga-trust-m/examples/optiga\example_optiga_crypt_symmetric_encrypt_decrypt.c ****         optiga_lib_status = OPTIGA_LIB_BUSY;
 174:D:/School/diseratie/SEMS/xmc4800_evaluation_kit/optiga-trust-m/examples/optiga\example_optiga_crypt_symmetric_encrypt_decrypt.c ****         return_status = optiga_crypt_symmetric_encrypt_continue(me,
 175:D:/School/diseratie/SEMS/xmc4800_evaluation_kit/optiga-trust-m/examples/optiga\example_optiga_crypt_symmetric_encrypt_decrypt.c ****                                                                 plain_data_buffer_continue,
 176:D:/School/diseratie/SEMS/xmc4800_evaluation_kit/optiga-trust-m/examples/optiga\example_optiga_crypt_symmetric_encrypt_decrypt.c ****                                                                 sizeof(plain_data_buffer_continue),
 177:D:/School/diseratie/SEMS/xmc4800_evaluation_kit/optiga-trust-m/examples/optiga\example_optiga_crypt_symmetric_encrypt_decrypt.c ****                                                                 encrypted_data_buffer_continue,
 178:D:/School/diseratie/SEMS/xmc4800_evaluation_kit/optiga-trust-m/examples/optiga\example_optiga_crypt_symmetric_encrypt_decrypt.c ****                                                                 &encrypted_data_length_continue);
 179:D:/School/diseratie/SEMS/xmc4800_evaluation_kit/optiga-trust-m/examples/optiga\example_optiga_crypt_symmetric_encrypt_decrypt.c **** 
 180:D:/School/diseratie/SEMS/xmc4800_evaluation_kit/optiga-trust-m/examples/optiga\example_optiga_crypt_symmetric_encrypt_decrypt.c ****         WAIT_AND_CHECK_STATUS(return_status, optiga_lib_status);
 181:D:/School/diseratie/SEMS/xmc4800_evaluation_kit/optiga-trust-m/examples/optiga\example_optiga_crypt_symmetric_encrypt_decrypt.c ****         if (encrypted_data_length_continue != sizeof(plain_data_buffer_continue))
 182:D:/School/diseratie/SEMS/xmc4800_evaluation_kit/optiga-trust-m/examples/optiga\example_optiga_crypt_symmetric_encrypt_decrypt.c ****         {
 183:D:/School/diseratie/SEMS/xmc4800_evaluation_kit/optiga-trust-m/examples/optiga\example_optiga_crypt_symmetric_encrypt_decrypt.c ****             //Encrypted data length is incorrect
 184:D:/School/diseratie/SEMS/xmc4800_evaluation_kit/optiga-trust-m/examples/optiga\example_optiga_crypt_symmetric_encrypt_decrypt.c ****             return_status = !OPTIGA_LIB_SUCCESS;
 185:D:/School/diseratie/SEMS/xmc4800_evaluation_kit/optiga-trust-m/examples/optiga\example_optiga_crypt_symmetric_encrypt_decrypt.c ****             break;
 186:D:/School/diseratie/SEMS/xmc4800_evaluation_kit/optiga-trust-m/examples/optiga\example_optiga_crypt_symmetric_encrypt_decrypt.c ****         }
 187:D:/School/diseratie/SEMS/xmc4800_evaluation_kit/optiga-trust-m/examples/optiga\example_optiga_crypt_symmetric_encrypt_decrypt.c ****         /**
 188:D:/School/diseratie/SEMS/xmc4800_evaluation_kit/optiga-trust-m/examples/optiga\example_optiga_crypt_symmetric_encrypt_decrypt.c ****          * 5. End encryption sequence and encrypt plain data 
 189:D:/School/diseratie/SEMS/xmc4800_evaluation_kit/optiga-trust-m/examples/optiga\example_optiga_crypt_symmetric_encrypt_decrypt.c ****          */
 190:D:/School/diseratie/SEMS/xmc4800_evaluation_kit/optiga-trust-m/examples/optiga\example_optiga_crypt_symmetric_encrypt_decrypt.c ****         optiga_lib_status = OPTIGA_LIB_BUSY;
 191:D:/School/diseratie/SEMS/xmc4800_evaluation_kit/optiga-trust-m/examples/optiga\example_optiga_crypt_symmetric_encrypt_decrypt.c ****         return_status = optiga_crypt_symmetric_encrypt_final(me,
 192:D:/School/diseratie/SEMS/xmc4800_evaluation_kit/optiga-trust-m/examples/optiga\example_optiga_crypt_symmetric_encrypt_decrypt.c ****                                                              plain_data_buffer_final,
 193:D:/School/diseratie/SEMS/xmc4800_evaluation_kit/optiga-trust-m/examples/optiga\example_optiga_crypt_symmetric_encrypt_decrypt.c ****                                                              sizeof(plain_data_buffer_final),
 194:D:/School/diseratie/SEMS/xmc4800_evaluation_kit/optiga-trust-m/examples/optiga\example_optiga_crypt_symmetric_encrypt_decrypt.c ****                                                              encrypted_data_buffer_final,
 195:D:/School/diseratie/SEMS/xmc4800_evaluation_kit/optiga-trust-m/examples/optiga\example_optiga_crypt_symmetric_encrypt_decrypt.c ****                                                              &encrypted_data_length_final);
 196:D:/School/diseratie/SEMS/xmc4800_evaluation_kit/optiga-trust-m/examples/optiga\example_optiga_crypt_symmetric_encrypt_decrypt.c **** 
 197:D:/School/diseratie/SEMS/xmc4800_evaluation_kit/optiga-trust-m/examples/optiga\example_optiga_crypt_symmetric_encrypt_decrypt.c ****         WAIT_AND_CHECK_STATUS(return_status, optiga_lib_status);
 198:D:/School/diseratie/SEMS/xmc4800_evaluation_kit/optiga-trust-m/examples/optiga\example_optiga_crypt_symmetric_encrypt_decrypt.c ****         if (encrypted_data_length_final != sizeof(plain_data_buffer_final))
 199:D:/School/diseratie/SEMS/xmc4800_evaluation_kit/optiga-trust-m/examples/optiga\example_optiga_crypt_symmetric_encrypt_decrypt.c ****         {
 200:D:/School/diseratie/SEMS/xmc4800_evaluation_kit/optiga-trust-m/examples/optiga\example_optiga_crypt_symmetric_encrypt_decrypt.c ****             //Encrypted data length is incorrect
 201:D:/School/diseratie/SEMS/xmc4800_evaluation_kit/optiga-trust-m/examples/optiga\example_optiga_crypt_symmetric_encrypt_decrypt.c ****             return_status = !OPTIGA_LIB_SUCCESS;
 202:D:/School/diseratie/SEMS/xmc4800_evaluation_kit/optiga-trust-m/examples/optiga\example_optiga_crypt_symmetric_encrypt_decrypt.c ****             break;
 203:D:/School/diseratie/SEMS/xmc4800_evaluation_kit/optiga-trust-m/examples/optiga\example_optiga_crypt_symmetric_encrypt_decrypt.c ****         }
 204:D:/School/diseratie/SEMS/xmc4800_evaluation_kit/optiga-trust-m/examples/optiga\example_optiga_crypt_symmetric_encrypt_decrypt.c ****         /**
 205:D:/School/diseratie/SEMS/xmc4800_evaluation_kit/optiga-trust-m/examples/optiga\example_optiga_crypt_symmetric_encrypt_decrypt.c ****          * 6. Start decryption sequence and decrypt the encrypted data from step 3
 206:D:/School/diseratie/SEMS/xmc4800_evaluation_kit/optiga-trust-m/examples/optiga\example_optiga_crypt_symmetric_encrypt_decrypt.c ****          */
 207:D:/School/diseratie/SEMS/xmc4800_evaluation_kit/optiga-trust-m/examples/optiga\example_optiga_crypt_symmetric_encrypt_decrypt.c ****         optiga_lib_status = OPTIGA_LIB_BUSY;
 208:D:/School/diseratie/SEMS/xmc4800_evaluation_kit/optiga-trust-m/examples/optiga\example_optiga_crypt_symmetric_encrypt_decrypt.c ****         return_status = optiga_crypt_symmetric_decrypt_start(me,
 209:D:/School/diseratie/SEMS/xmc4800_evaluation_kit/optiga-trust-m/examples/optiga\example_optiga_crypt_symmetric_encrypt_decrypt.c ****                                                              OPTIGA_SYMMETRIC_CBC,
 210:D:/School/diseratie/SEMS/xmc4800_evaluation_kit/optiga-trust-m/examples/optiga\example_optiga_crypt_symmetric_encrypt_decrypt.c ****                                                              OPTIGA_KEY_ID_SECRET_BASED,
 211:D:/School/diseratie/SEMS/xmc4800_evaluation_kit/optiga-trust-m/examples/optiga\example_optiga_crypt_symmetric_encrypt_decrypt.c ****                                                              encrypted_data_buffer_start,
 212:D:/School/diseratie/SEMS/xmc4800_evaluation_kit/optiga-trust-m/examples/optiga\example_optiga_crypt_symmetric_encrypt_decrypt.c ****                                                              encrypted_data_length_start,
 213:D:/School/diseratie/SEMS/xmc4800_evaluation_kit/optiga-trust-m/examples/optiga\example_optiga_crypt_symmetric_encrypt_decrypt.c ****                                                              NULL,
 214:D:/School/diseratie/SEMS/xmc4800_evaluation_kit/optiga-trust-m/examples/optiga\example_optiga_crypt_symmetric_encrypt_decrypt.c ****                                                              0,
 215:D:/School/diseratie/SEMS/xmc4800_evaluation_kit/optiga-trust-m/examples/optiga\example_optiga_crypt_symmetric_encrypt_decrypt.c ****                                                              NULL,
 216:D:/School/diseratie/SEMS/xmc4800_evaluation_kit/optiga-trust-m/examples/optiga\example_optiga_crypt_symmetric_encrypt_decrypt.c ****                                                              0,
 217:D:/School/diseratie/SEMS/xmc4800_evaluation_kit/optiga-trust-m/examples/optiga\example_optiga_crypt_symmetric_encrypt_decrypt.c ****                                                              0,
 218:D:/School/diseratie/SEMS/xmc4800_evaluation_kit/optiga-trust-m/examples/optiga\example_optiga_crypt_symmetric_encrypt_decrypt.c ****                                                              decrypted_data_buffer_start,
 219:D:/School/diseratie/SEMS/xmc4800_evaluation_kit/optiga-trust-m/examples/optiga\example_optiga_crypt_symmetric_encrypt_decrypt.c ****                                                              &decrypted_data_length_start);
 220:D:/School/diseratie/SEMS/xmc4800_evaluation_kit/optiga-trust-m/examples/optiga\example_optiga_crypt_symmetric_encrypt_decrypt.c **** 
 221:D:/School/diseratie/SEMS/xmc4800_evaluation_kit/optiga-trust-m/examples/optiga\example_optiga_crypt_symmetric_encrypt_decrypt.c ****         WAIT_AND_CHECK_STATUS(return_status, optiga_lib_status);
 222:D:/School/diseratie/SEMS/xmc4800_evaluation_kit/optiga-trust-m/examples/optiga\example_optiga_crypt_symmetric_encrypt_decrypt.c ****         // Compare the decrypted data with plain data
 223:D:/School/diseratie/SEMS/xmc4800_evaluation_kit/optiga-trust-m/examples/optiga\example_optiga_crypt_symmetric_encrypt_decrypt.c ****         if( OPTIGA_LIB_SUCCESS != memcmp(plain_data_buffer_start, decrypted_data_buffer_start, decr
 224:D:/School/diseratie/SEMS/xmc4800_evaluation_kit/optiga-trust-m/examples/optiga\example_optiga_crypt_symmetric_encrypt_decrypt.c ****         {
 225:D:/School/diseratie/SEMS/xmc4800_evaluation_kit/optiga-trust-m/examples/optiga\example_optiga_crypt_symmetric_encrypt_decrypt.c ****             return_status = !OPTIGA_LIB_SUCCESS;
 226:D:/School/diseratie/SEMS/xmc4800_evaluation_kit/optiga-trust-m/examples/optiga\example_optiga_crypt_symmetric_encrypt_decrypt.c ****             break;
 227:D:/School/diseratie/SEMS/xmc4800_evaluation_kit/optiga-trust-m/examples/optiga\example_optiga_crypt_symmetric_encrypt_decrypt.c ****         }
 228:D:/School/diseratie/SEMS/xmc4800_evaluation_kit/optiga-trust-m/examples/optiga\example_optiga_crypt_symmetric_encrypt_decrypt.c ****         if (decrypted_data_length_start != sizeof(plain_data_buffer_start))
 229:D:/School/diseratie/SEMS/xmc4800_evaluation_kit/optiga-trust-m/examples/optiga\example_optiga_crypt_symmetric_encrypt_decrypt.c ****         {
 230:D:/School/diseratie/SEMS/xmc4800_evaluation_kit/optiga-trust-m/examples/optiga\example_optiga_crypt_symmetric_encrypt_decrypt.c ****             //Decrypted data length is incorrect
 231:D:/School/diseratie/SEMS/xmc4800_evaluation_kit/optiga-trust-m/examples/optiga\example_optiga_crypt_symmetric_encrypt_decrypt.c ****             return_status = !OPTIGA_LIB_SUCCESS;
 232:D:/School/diseratie/SEMS/xmc4800_evaluation_kit/optiga-trust-m/examples/optiga\example_optiga_crypt_symmetric_encrypt_decrypt.c ****             break;
 233:D:/School/diseratie/SEMS/xmc4800_evaluation_kit/optiga-trust-m/examples/optiga\example_optiga_crypt_symmetric_encrypt_decrypt.c ****         }
 234:D:/School/diseratie/SEMS/xmc4800_evaluation_kit/optiga-trust-m/examples/optiga\example_optiga_crypt_symmetric_encrypt_decrypt.c ****         /**
 235:D:/School/diseratie/SEMS/xmc4800_evaluation_kit/optiga-trust-m/examples/optiga\example_optiga_crypt_symmetric_encrypt_decrypt.c ****          * 7. Continue to decrypt the encrypted data from step 4
 236:D:/School/diseratie/SEMS/xmc4800_evaluation_kit/optiga-trust-m/examples/optiga\example_optiga_crypt_symmetric_encrypt_decrypt.c ****          */
 237:D:/School/diseratie/SEMS/xmc4800_evaluation_kit/optiga-trust-m/examples/optiga\example_optiga_crypt_symmetric_encrypt_decrypt.c ****         optiga_lib_status = OPTIGA_LIB_BUSY;
 238:D:/School/diseratie/SEMS/xmc4800_evaluation_kit/optiga-trust-m/examples/optiga\example_optiga_crypt_symmetric_encrypt_decrypt.c ****         return_status = optiga_crypt_symmetric_decrypt_continue(me,
 239:D:/School/diseratie/SEMS/xmc4800_evaluation_kit/optiga-trust-m/examples/optiga\example_optiga_crypt_symmetric_encrypt_decrypt.c ****                                                                 encrypted_data_buffer_continue,
 240:D:/School/diseratie/SEMS/xmc4800_evaluation_kit/optiga-trust-m/examples/optiga\example_optiga_crypt_symmetric_encrypt_decrypt.c ****                                                                 encrypted_data_length_continue,
 241:D:/School/diseratie/SEMS/xmc4800_evaluation_kit/optiga-trust-m/examples/optiga\example_optiga_crypt_symmetric_encrypt_decrypt.c ****                                                                 decrypted_data_buffer_continue,
 242:D:/School/diseratie/SEMS/xmc4800_evaluation_kit/optiga-trust-m/examples/optiga\example_optiga_crypt_symmetric_encrypt_decrypt.c ****                                                                 &decrypted_data_length_continue);
 243:D:/School/diseratie/SEMS/xmc4800_evaluation_kit/optiga-trust-m/examples/optiga\example_optiga_crypt_symmetric_encrypt_decrypt.c **** 
 244:D:/School/diseratie/SEMS/xmc4800_evaluation_kit/optiga-trust-m/examples/optiga\example_optiga_crypt_symmetric_encrypt_decrypt.c ****         WAIT_AND_CHECK_STATUS(return_status, optiga_lib_status);
 245:D:/School/diseratie/SEMS/xmc4800_evaluation_kit/optiga-trust-m/examples/optiga\example_optiga_crypt_symmetric_encrypt_decrypt.c ****         // Compare the decrypted data with plain data
 246:D:/School/diseratie/SEMS/xmc4800_evaluation_kit/optiga-trust-m/examples/optiga\example_optiga_crypt_symmetric_encrypt_decrypt.c ****         if( OPTIGA_LIB_SUCCESS != memcmp(plain_data_buffer_continue, decrypted_data_buffer_continue
 247:D:/School/diseratie/SEMS/xmc4800_evaluation_kit/optiga-trust-m/examples/optiga\example_optiga_crypt_symmetric_encrypt_decrypt.c ****         {
 248:D:/School/diseratie/SEMS/xmc4800_evaluation_kit/optiga-trust-m/examples/optiga\example_optiga_crypt_symmetric_encrypt_decrypt.c ****             return_status = !OPTIGA_LIB_SUCCESS;
 249:D:/School/diseratie/SEMS/xmc4800_evaluation_kit/optiga-trust-m/examples/optiga\example_optiga_crypt_symmetric_encrypt_decrypt.c ****             break;
 250:D:/School/diseratie/SEMS/xmc4800_evaluation_kit/optiga-trust-m/examples/optiga\example_optiga_crypt_symmetric_encrypt_decrypt.c ****         }
 251:D:/School/diseratie/SEMS/xmc4800_evaluation_kit/optiga-trust-m/examples/optiga\example_optiga_crypt_symmetric_encrypt_decrypt.c ****         if (sizeof(plain_data_buffer_continue) != decrypted_data_length_continue)
 252:D:/School/diseratie/SEMS/xmc4800_evaluation_kit/optiga-trust-m/examples/optiga\example_optiga_crypt_symmetric_encrypt_decrypt.c ****         {
 253:D:/School/diseratie/SEMS/xmc4800_evaluation_kit/optiga-trust-m/examples/optiga\example_optiga_crypt_symmetric_encrypt_decrypt.c ****             //Decrypted data length is incorrect
 254:D:/School/diseratie/SEMS/xmc4800_evaluation_kit/optiga-trust-m/examples/optiga\example_optiga_crypt_symmetric_encrypt_decrypt.c ****             return_status = !OPTIGA_LIB_SUCCESS;
 255:D:/School/diseratie/SEMS/xmc4800_evaluation_kit/optiga-trust-m/examples/optiga\example_optiga_crypt_symmetric_encrypt_decrypt.c ****             break;
 256:D:/School/diseratie/SEMS/xmc4800_evaluation_kit/optiga-trust-m/examples/optiga\example_optiga_crypt_symmetric_encrypt_decrypt.c ****         }
 257:D:/School/diseratie/SEMS/xmc4800_evaluation_kit/optiga-trust-m/examples/optiga\example_optiga_crypt_symmetric_encrypt_decrypt.c ****         /**
 258:D:/School/diseratie/SEMS/xmc4800_evaluation_kit/optiga-trust-m/examples/optiga\example_optiga_crypt_symmetric_encrypt_decrypt.c ****          * 8. End decryption sequence and decrypt encrypted data from step 5
 259:D:/School/diseratie/SEMS/xmc4800_evaluation_kit/optiga-trust-m/examples/optiga\example_optiga_crypt_symmetric_encrypt_decrypt.c ****          */
 260:D:/School/diseratie/SEMS/xmc4800_evaluation_kit/optiga-trust-m/examples/optiga\example_optiga_crypt_symmetric_encrypt_decrypt.c ****         optiga_lib_status = OPTIGA_LIB_BUSY;
 261:D:/School/diseratie/SEMS/xmc4800_evaluation_kit/optiga-trust-m/examples/optiga\example_optiga_crypt_symmetric_encrypt_decrypt.c ****         return_status = optiga_crypt_symmetric_decrypt_final(me,
 262:D:/School/diseratie/SEMS/xmc4800_evaluation_kit/optiga-trust-m/examples/optiga\example_optiga_crypt_symmetric_encrypt_decrypt.c ****                                                              encrypted_data_buffer_final,
 263:D:/School/diseratie/SEMS/xmc4800_evaluation_kit/optiga-trust-m/examples/optiga\example_optiga_crypt_symmetric_encrypt_decrypt.c ****                                                              encrypted_data_length_final,
 264:D:/School/diseratie/SEMS/xmc4800_evaluation_kit/optiga-trust-m/examples/optiga\example_optiga_crypt_symmetric_encrypt_decrypt.c ****                                                              decrypted_data_buffer_final,
 265:D:/School/diseratie/SEMS/xmc4800_evaluation_kit/optiga-trust-m/examples/optiga\example_optiga_crypt_symmetric_encrypt_decrypt.c ****                                                              &decrypted_data_length_final);
 266:D:/School/diseratie/SEMS/xmc4800_evaluation_kit/optiga-trust-m/examples/optiga\example_optiga_crypt_symmetric_encrypt_decrypt.c **** 
 267:D:/School/diseratie/SEMS/xmc4800_evaluation_kit/optiga-trust-m/examples/optiga\example_optiga_crypt_symmetric_encrypt_decrypt.c ****         WAIT_AND_CHECK_STATUS(return_status, optiga_lib_status);
 268:D:/School/diseratie/SEMS/xmc4800_evaluation_kit/optiga-trust-m/examples/optiga\example_optiga_crypt_symmetric_encrypt_decrypt.c ****         
 269:D:/School/diseratie/SEMS/xmc4800_evaluation_kit/optiga-trust-m/examples/optiga\example_optiga_crypt_symmetric_encrypt_decrypt.c ****         READ_PERFORMANCE_MEASUREMENT(time_taken);
 270:D:/School/diseratie/SEMS/xmc4800_evaluation_kit/optiga-trust-m/examples/optiga\example_optiga_crypt_symmetric_encrypt_decrypt.c ****         
 271:D:/School/diseratie/SEMS/xmc4800_evaluation_kit/optiga-trust-m/examples/optiga\example_optiga_crypt_symmetric_encrypt_decrypt.c ****         // Compare the decrypted data with plain data
 272:D:/School/diseratie/SEMS/xmc4800_evaluation_kit/optiga-trust-m/examples/optiga\example_optiga_crypt_symmetric_encrypt_decrypt.c ****         if( OPTIGA_LIB_SUCCESS != memcmp(plain_data_buffer_final, decrypted_data_buffer_final, decr
 273:D:/School/diseratie/SEMS/xmc4800_evaluation_kit/optiga-trust-m/examples/optiga\example_optiga_crypt_symmetric_encrypt_decrypt.c ****         {
 274:D:/School/diseratie/SEMS/xmc4800_evaluation_kit/optiga-trust-m/examples/optiga\example_optiga_crypt_symmetric_encrypt_decrypt.c ****             return_status = !OPTIGA_LIB_SUCCESS;
 275:D:/School/diseratie/SEMS/xmc4800_evaluation_kit/optiga-trust-m/examples/optiga\example_optiga_crypt_symmetric_encrypt_decrypt.c ****             break;
 276:D:/School/diseratie/SEMS/xmc4800_evaluation_kit/optiga-trust-m/examples/optiga\example_optiga_crypt_symmetric_encrypt_decrypt.c ****         }
 277:D:/School/diseratie/SEMS/xmc4800_evaluation_kit/optiga-trust-m/examples/optiga\example_optiga_crypt_symmetric_encrypt_decrypt.c ****         if (sizeof(plain_data_buffer_final) != decrypted_data_length_final)
 278:D:/School/diseratie/SEMS/xmc4800_evaluation_kit/optiga-trust-m/examples/optiga\example_optiga_crypt_symmetric_encrypt_decrypt.c ****         {
 279:D:/School/diseratie/SEMS/xmc4800_evaluation_kit/optiga-trust-m/examples/optiga\example_optiga_crypt_symmetric_encrypt_decrypt.c ****             //Decrypted data length is incorrect
 280:D:/School/diseratie/SEMS/xmc4800_evaluation_kit/optiga-trust-m/examples/optiga\example_optiga_crypt_symmetric_encrypt_decrypt.c ****             return_status = !OPTIGA_LIB_SUCCESS;
 281:D:/School/diseratie/SEMS/xmc4800_evaluation_kit/optiga-trust-m/examples/optiga\example_optiga_crypt_symmetric_encrypt_decrypt.c ****             break;
 282:D:/School/diseratie/SEMS/xmc4800_evaluation_kit/optiga-trust-m/examples/optiga\example_optiga_crypt_symmetric_encrypt_decrypt.c ****         }
 283:D:/School/diseratie/SEMS/xmc4800_evaluation_kit/optiga-trust-m/examples/optiga\example_optiga_crypt_symmetric_encrypt_decrypt.c ****         return_status = OPTIGA_LIB_SUCCESS;
 284:D:/School/diseratie/SEMS/xmc4800_evaluation_kit/optiga-trust-m/examples/optiga\example_optiga_crypt_symmetric_encrypt_decrypt.c **** 
 285:D:/School/diseratie/SEMS/xmc4800_evaluation_kit/optiga-trust-m/examples/optiga\example_optiga_crypt_symmetric_encrypt_decrypt.c ****     } while (FALSE);
 286:D:/School/diseratie/SEMS/xmc4800_evaluation_kit/optiga-trust-m/examples/optiga\example_optiga_crypt_symmetric_encrypt_decrypt.c ****     OPTIGA_EXAMPLE_LOG_STATUS(return_status);
 287:D:/School/diseratie/SEMS/xmc4800_evaluation_kit/optiga-trust-m/examples/optiga\example_optiga_crypt_symmetric_encrypt_decrypt.c ****     
 288:D:/School/diseratie/SEMS/xmc4800_evaluation_kit/optiga-trust-m/examples/optiga\example_optiga_crypt_symmetric_encrypt_decrypt.c **** #ifndef OPTIGA_INIT_DEINIT_DONE_EXCLUSIVELY
 289:D:/School/diseratie/SEMS/xmc4800_evaluation_kit/optiga-trust-m/examples/optiga\example_optiga_crypt_symmetric_encrypt_decrypt.c ****     /**
 290:D:/School/diseratie/SEMS/xmc4800_evaluation_kit/optiga-trust-m/examples/optiga\example_optiga_crypt_symmetric_encrypt_decrypt.c ****      * Close the application on OPTIGA after all the operations are executed
 291:D:/School/diseratie/SEMS/xmc4800_evaluation_kit/optiga-trust-m/examples/optiga\example_optiga_crypt_symmetric_encrypt_decrypt.c ****      * using optiga_util_close_application
 292:D:/School/diseratie/SEMS/xmc4800_evaluation_kit/optiga-trust-m/examples/optiga\example_optiga_crypt_symmetric_encrypt_decrypt.c ****      */
 293:D:/School/diseratie/SEMS/xmc4800_evaluation_kit/optiga-trust-m/examples/optiga\example_optiga_crypt_symmetric_encrypt_decrypt.c ****     example_optiga_deinit();
 191              	 .loc 1 293 0
 192 00c2 FFF7FEFF 	 bl example_optiga_deinit
 193              	.LVL6:
 194              	.L23:
 294:D:/School/diseratie/SEMS/xmc4800_evaluation_kit/optiga-trust-m/examples/optiga\example_optiga_crypt_symmetric_encrypt_decrypt.c **** #endif //OPTIGA_INIT_DEINIT_DONE_EXCLUSIVELY
 295:D:/School/diseratie/SEMS/xmc4800_evaluation_kit/optiga-trust-m/examples/optiga\example_optiga_crypt_symmetric_encrypt_decrypt.c ****     
 296:D:/School/diseratie/SEMS/xmc4800_evaluation_kit/optiga-trust-m/examples/optiga\example_optiga_crypt_symmetric_encrypt_decrypt.c ****     OPTIGA_EXAMPLE_LOG_PERFORMANCE_VALUE(time_taken, return_status);
 297:D:/School/diseratie/SEMS/xmc4800_evaluation_kit/optiga-trust-m/examples/optiga\example_optiga_crypt_symmetric_encrypt_decrypt.c ****     
 298:D:/School/diseratie/SEMS/xmc4800_evaluation_kit/optiga-trust-m/examples/optiga\example_optiga_crypt_symmetric_encrypt_decrypt.c ****     if (me)
 299:D:/School/diseratie/SEMS/xmc4800_evaluation_kit/optiga-trust-m/examples/optiga\example_optiga_crypt_symmetric_encrypt_decrypt.c ****     {
 300:D:/School/diseratie/SEMS/xmc4800_evaluation_kit/optiga-trust-m/examples/optiga\example_optiga_crypt_symmetric_encrypt_decrypt.c ****         //Destroy the instance after the completion of usecase if not required.
 301:D:/School/diseratie/SEMS/xmc4800_evaluation_kit/optiga-trust-m/examples/optiga\example_optiga_crypt_symmetric_encrypt_decrypt.c ****         return_status = optiga_crypt_destroy(me);
 195              	 .loc 1 301 0
 196 00c6 2046     	 mov r0,r4
 197 00c8 FFF7FEFF 	 bl optiga_crypt_destroy
 198              	.LVL7:
 302:D:/School/diseratie/SEMS/xmc4800_evaluation_kit/optiga-trust-m/examples/optiga\example_optiga_crypt_symmetric_encrypt_decrypt.c ****         if(OPTIGA_LIB_SUCCESS != return_status)
 303:D:/School/diseratie/SEMS/xmc4800_evaluation_kit/optiga-trust-m/examples/optiga\example_optiga_crypt_symmetric_encrypt_decrypt.c ****         {
 304:D:/School/diseratie/SEMS/xmc4800_evaluation_kit/optiga-trust-m/examples/optiga\example_optiga_crypt_symmetric_encrypt_decrypt.c ****             //lint --e{774} suppress This is a generic macro
 305:D:/School/diseratie/SEMS/xmc4800_evaluation_kit/optiga-trust-m/examples/optiga\example_optiga_crypt_symmetric_encrypt_decrypt.c ****             OPTIGA_EXAMPLE_LOG_STATUS(return_status);
 306:D:/School/diseratie/SEMS/xmc4800_evaluation_kit/optiga-trust-m/examples/optiga\example_optiga_crypt_symmetric_encrypt_decrypt.c ****         }
 307:D:/School/diseratie/SEMS/xmc4800_evaluation_kit/optiga-trust-m/examples/optiga\example_optiga_crypt_symmetric_encrypt_decrypt.c ****     }
 308:D:/School/diseratie/SEMS/xmc4800_evaluation_kit/optiga-trust-m/examples/optiga\example_optiga_crypt_symmetric_encrypt_decrypt.c **** }
 199              	 .loc 1 308 0
 200 00cc 4CB0     	 add sp,sp,#304
 201              	.LCFI2:
 202              	 .cfi_remember_state
 203              	 .cfi_def_cfa_offset 24
 204              	 
 205 00ce BDE8F081 	 pop {r4,r5,r6,r7,r8,pc}
 206              	.LVL8:
 207              	.L44:
 208              	.LCFI3:
 209              	 .cfi_restore_state
 146:D:/School/diseratie/SEMS/xmc4800_evaluation_kit/optiga-trust-m/examples/optiga\example_optiga_crypt_symmetric_encrypt_decrypt.c ****         
 210              	 .loc 1 146 0
 211 00d2 0123     	 movs r3,#1
 212 00d4 6A4E     	 ldr r6,.L45+8
 148:D:/School/diseratie/SEMS/xmc4800_evaluation_kit/optiga-trust-m/examples/optiga\example_optiga_crypt_symmetric_encrypt_decrypt.c ****         
 213              	 .loc 1 148 0
 214 00d6 1946     	 mov r1,r3
 215 00d8 0FA8     	 add r0,sp,#60
 216              	.LVL9:
 146:D:/School/diseratie/SEMS/xmc4800_evaluation_kit/optiga-trust-m/examples/optiga\example_optiga_crypt_symmetric_encrypt_decrypt.c ****         
 217              	 .loc 1 146 0
 218 00da 3380     	 strh r3,[r6]
 150:D:/School/diseratie/SEMS/xmc4800_evaluation_kit/optiga-trust-m/examples/optiga\example_optiga_crypt_symmetric_encrypt_decrypt.c ****                                                              OPTIGA_SYMMETRIC_CBC,
 219              	 .loc 1 150 0
 220 00dc 1CAF     	 add r7,sp,#112
 148:D:/School/diseratie/SEMS/xmc4800_evaluation_kit/optiga-trust-m/examples/optiga\example_optiga_crypt_symmetric_encrypt_decrypt.c ****         
 221              	 .loc 1 148 0
 222 00de FFF7FEFF 	 bl example_performance_measurement
 223              	.LVL10:
 150:D:/School/diseratie/SEMS/xmc4800_evaluation_kit/optiga-trust-m/examples/optiga\example_optiga_crypt_symmetric_encrypt_decrypt.c ****                                                              OPTIGA_SYMMETRIC_CBC,
 224              	 .loc 1 150 0
 225 00e2 1023     	 movs r3,#16
 226 00e4 09AA     	 add r2,sp,#36
 227 00e6 0792     	 str r2,[sp,#28]
 228 00e8 0093     	 str r3,[sp]
 229 00ea 0195     	 str r5,[sp,#4]
 230 00ec 0295     	 str r5,[sp,#8]
 231 00ee 0395     	 str r5,[sp,#12]
 232 00f0 0495     	 str r5,[sp,#16]
 233 00f2 0595     	 str r5,[sp,#20]
 234 00f4 0697     	 str r7,[sp,#24]
 235 00f6 2046     	 mov r0,r4
 236 00f8 0921     	 movs r1,#9
 237 00fa 4FF46242 	 mov r2,#57856
 238 00fe 10AB     	 add r3,sp,#64
 239 0100 FFF7FEFF 	 bl optiga_crypt_symmetric_encrypt_start
 240              	.LVL11:
 163:D:/School/diseratie/SEMS/xmc4800_evaluation_kit/optiga-trust-m/examples/optiga\example_optiga_crypt_symmetric_encrypt_decrypt.c ****         if (encrypted_data_length_start != sizeof(plain_data_buffer_start))
 241              	 .loc 1 163 0
 242 0104 0028     	 cmp r0,#0
 243 0106 DCD1     	 bne .L6
 244              	.L7:
 163:D:/School/diseratie/SEMS/xmc4800_evaluation_kit/optiga-trust-m/examples/optiga\example_optiga_crypt_symmetric_encrypt_decrypt.c ****         if (encrypted_data_length_start != sizeof(plain_data_buffer_start))
 245              	 .loc 1 163 0 is_stmt 0 discriminator 1
 246 0108 3388     	 ldrh r3,[r6]
 247 010a 5D49     	 ldr r1,.L45+8
 248 010c 9BB2     	 uxth r3,r3
 249 010e 012B     	 cmp r3,#1
 250 0110 FAD0     	 beq .L7
 163:D:/School/diseratie/SEMS/xmc4800_evaluation_kit/optiga-trust-m/examples/optiga\example_optiga_crypt_symmetric_encrypt_decrypt.c ****         if (encrypted_data_length_start != sizeof(plain_data_buffer_start))
 251              	 .loc 1 163 0 discriminator 2
 252 0112 0B88     	 ldrh r3,[r1]
 253 0114 9BB2     	 uxth r3,r3
 254 0116 002B     	 cmp r3,#0
 255 0118 40F0B480 	 bne .L39
 164:D:/School/diseratie/SEMS/xmc4800_evaluation_kit/optiga-trust-m/examples/optiga\example_optiga_crypt_symmetric_encrypt_decrypt.c ****         {
 256              	 .loc 1 164 0 is_stmt 1
 257 011c 099A     	 ldr r2,[sp,#36]
 258 011e 102A     	 cmp r2,#16
 259 0120 CFD1     	 bne .L6
 174:D:/School/diseratie/SEMS/xmc4800_evaluation_kit/optiga-trust-m/examples/optiga\example_optiga_crypt_symmetric_encrypt_decrypt.c ****                                                                 plain_data_buffer_continue,
 260              	 .loc 1 174 0
 261 0122 0AAB     	 add r3,sp,#40
 173:D:/School/diseratie/SEMS/xmc4800_evaluation_kit/optiga-trust-m/examples/optiga\example_optiga_crypt_symmetric_encrypt_decrypt.c ****         return_status = optiga_crypt_symmetric_encrypt_continue(me,
 262              	 .loc 1 173 0
 263 0124 0125     	 movs r5,#1
 174:D:/School/diseratie/SEMS/xmc4800_evaluation_kit/optiga-trust-m/examples/optiga\example_optiga_crypt_symmetric_encrypt_decrypt.c ****                                                                 plain_data_buffer_continue,
 264              	 .loc 1 174 0
 265 0126 0093     	 str r3,[sp]
 266 0128 2046     	 mov r0,r4
 267              	.LVL12:
 173:D:/School/diseratie/SEMS/xmc4800_evaluation_kit/optiga-trust-m/examples/optiga\example_optiga_crypt_symmetric_encrypt_decrypt.c ****         return_status = optiga_crypt_symmetric_encrypt_continue(me,
 268              	 .loc 1 173 0
 269 012a 0D80     	 strh r5,[r1]
 174:D:/School/diseratie/SEMS/xmc4800_evaluation_kit/optiga-trust-m/examples/optiga\example_optiga_crypt_symmetric_encrypt_decrypt.c ****                                                                 plain_data_buffer_continue,
 270              	 .loc 1 174 0
 271 012c 24AB     	 add r3,sp,#144
 272 012e 14A9     	 add r1,sp,#80
 273 0130 FFF7FEFF 	 bl optiga_crypt_symmetric_encrypt_continue
 274              	.LVL13:
 180:D:/School/diseratie/SEMS/xmc4800_evaluation_kit/optiga-trust-m/examples/optiga\example_optiga_crypt_symmetric_encrypt_decrypt.c ****         if (encrypted_data_length_continue != sizeof(plain_data_buffer_continue))
 275              	 .loc 1 180 0
 276 0134 0028     	 cmp r0,#0
 277 0136 C4D1     	 bne .L6
 278              	.L10:
 180:D:/School/diseratie/SEMS/xmc4800_evaluation_kit/optiga-trust-m/examples/optiga\example_optiga_crypt_symmetric_encrypt_decrypt.c ****         if (encrypted_data_length_continue != sizeof(plain_data_buffer_continue))
 279              	 .loc 1 180 0 is_stmt 0 discriminator 1
 280 0138 3388     	 ldrh r3,[r6]
 281 013a 5149     	 ldr r1,.L45+8
 282 013c 9BB2     	 uxth r3,r3
 283 013e 012B     	 cmp r3,#1
 284 0140 FAD0     	 beq .L10
 180:D:/School/diseratie/SEMS/xmc4800_evaluation_kit/optiga-trust-m/examples/optiga\example_optiga_crypt_symmetric_encrypt_decrypt.c ****         if (encrypted_data_length_continue != sizeof(plain_data_buffer_continue))
 285              	 .loc 1 180 0 discriminator 2
 286 0142 0B88     	 ldrh r3,[r1]
 287 0144 9BB2     	 uxth r3,r3
 288 0146 002B     	 cmp r3,#0
 289 0148 40F09C80 	 bne .L39
 181:D:/School/diseratie/SEMS/xmc4800_evaluation_kit/optiga-trust-m/examples/optiga\example_optiga_crypt_symmetric_encrypt_decrypt.c ****         {
 290              	 .loc 1 181 0 is_stmt 1
 291 014c 0A9A     	 ldr r2,[sp,#40]
 292 014e 102A     	 cmp r2,#16
 293 0150 B7D1     	 bne .L6
 191:D:/School/diseratie/SEMS/xmc4800_evaluation_kit/optiga-trust-m/examples/optiga\example_optiga_crypt_symmetric_encrypt_decrypt.c ****                                                              plain_data_buffer_final,
 294              	 .loc 1 191 0
 295 0152 0BAB     	 add r3,sp,#44
 190:D:/School/diseratie/SEMS/xmc4800_evaluation_kit/optiga-trust-m/examples/optiga\example_optiga_crypt_symmetric_encrypt_decrypt.c ****         return_status = optiga_crypt_symmetric_encrypt_final(me,
 296              	 .loc 1 190 0
 297 0154 0125     	 movs r5,#1
 191:D:/School/diseratie/SEMS/xmc4800_evaluation_kit/optiga-trust-m/examples/optiga\example_optiga_crypt_symmetric_encrypt_decrypt.c ****                                                              plain_data_buffer_final,
 298              	 .loc 1 191 0
 299 0156 0093     	 str r3,[sp]
 300 0158 2046     	 mov r0,r4
 301              	.LVL14:
 190:D:/School/diseratie/SEMS/xmc4800_evaluation_kit/optiga-trust-m/examples/optiga\example_optiga_crypt_symmetric_encrypt_decrypt.c ****         return_status = optiga_crypt_symmetric_encrypt_final(me,
 302              	 .loc 1 190 0
 303 015a 0D80     	 strh r5,[r1]
 191:D:/School/diseratie/SEMS/xmc4800_evaluation_kit/optiga-trust-m/examples/optiga\example_optiga_crypt_symmetric_encrypt_decrypt.c ****                                                              plain_data_buffer_final,
 304              	 .loc 1 191 0
 305 015c 2CAB     	 add r3,sp,#176
 306 015e 18A9     	 add r1,sp,#96
 307 0160 FFF7FEFF 	 bl optiga_crypt_symmetric_encrypt_final
 308              	.LVL15:
 197:D:/School/diseratie/SEMS/xmc4800_evaluation_kit/optiga-trust-m/examples/optiga\example_optiga_crypt_symmetric_encrypt_decrypt.c ****         if (encrypted_data_length_final != sizeof(plain_data_buffer_final))
 309              	 .loc 1 197 0
 310 0164 0028     	 cmp r0,#0
 311 0166 ACD1     	 bne .L6
 312              	.L12:
 197:D:/School/diseratie/SEMS/xmc4800_evaluation_kit/optiga-trust-m/examples/optiga\example_optiga_crypt_symmetric_encrypt_decrypt.c ****         if (encrypted_data_length_final != sizeof(plain_data_buffer_final))
 313              	 .loc 1 197 0 is_stmt 0 discriminator 1
 314 0168 3388     	 ldrh r3,[r6]
 315 016a 454A     	 ldr r2,.L45+8
 316 016c 9BB2     	 uxth r3,r3
 317 016e 012B     	 cmp r3,#1
 318 0170 FAD0     	 beq .L12
 197:D:/School/diseratie/SEMS/xmc4800_evaluation_kit/optiga-trust-m/examples/optiga\example_optiga_crypt_symmetric_encrypt_decrypt.c ****         if (encrypted_data_length_final != sizeof(plain_data_buffer_final))
 319              	 .loc 1 197 0 discriminator 2
 320 0172 1388     	 ldrh r3,[r2]
 321 0174 9BB2     	 uxth r3,r3
 322 0176 002B     	 cmp r3,#0
 323 0178 40F09180 	 bne .L41
 198:D:/School/diseratie/SEMS/xmc4800_evaluation_kit/optiga-trust-m/examples/optiga\example_optiga_crypt_symmetric_encrypt_decrypt.c ****         {
 324              	 .loc 1 198 0 is_stmt 1
 325 017c 0B99     	 ldr r1,[sp,#44]
 326 017e 1029     	 cmp r1,#16
 327 0180 9FD1     	 bne .L6
 208:D:/School/diseratie/SEMS/xmc4800_evaluation_kit/optiga-trust-m/examples/optiga\example_optiga_crypt_symmetric_encrypt_decrypt.c ****                                                              OPTIGA_SYMMETRIC_CBC,
 328              	 .loc 1 208 0
 329 0182 0999     	 ldr r1,[sp,#36]
 330 0184 0193     	 str r3,[sp,#4]
 331 0186 0293     	 str r3,[sp,#8]
 332 0188 0393     	 str r3,[sp,#12]
 333 018a 0493     	 str r3,[sp,#16]
 334 018c 0593     	 str r3,[sp,#20]
 335 018e 0DF1D008 	 add r8,sp,#208
 336 0192 0CAB     	 add r3,sp,#48
 207:D:/School/diseratie/SEMS/xmc4800_evaluation_kit/optiga-trust-m/examples/optiga\example_optiga_crypt_symmetric_encrypt_decrypt.c ****         return_status = optiga_crypt_symmetric_decrypt_start(me,
 337              	 .loc 1 207 0
 338 0194 0125     	 movs r5,#1
 208:D:/School/diseratie/SEMS/xmc4800_evaluation_kit/optiga-trust-m/examples/optiga\example_optiga_crypt_symmetric_encrypt_decrypt.c ****                                                              OPTIGA_SYMMETRIC_CBC,
 339              	 .loc 1 208 0
 340 0196 0091     	 str r1,[sp]
 341 0198 0793     	 str r3,[sp,#28]
 342 019a CDF81880 	 str r8,[sp,#24]
 343 019e 3B46     	 mov r3,r7
 207:D:/School/diseratie/SEMS/xmc4800_evaluation_kit/optiga-trust-m/examples/optiga\example_optiga_crypt_symmetric_encrypt_decrypt.c ****         return_status = optiga_crypt_symmetric_decrypt_start(me,
 344              	 .loc 1 207 0
 345 01a0 1580     	 strh r5,[r2]
 208:D:/School/diseratie/SEMS/xmc4800_evaluation_kit/optiga-trust-m/examples/optiga\example_optiga_crypt_symmetric_encrypt_decrypt.c ****                                                              OPTIGA_SYMMETRIC_CBC,
 346              	 .loc 1 208 0
 347 01a2 2046     	 mov r0,r4
 348              	.LVL16:
 349 01a4 0921     	 movs r1,#9
 350 01a6 4FF46242 	 mov r2,#57856
 351 01aa FFF7FEFF 	 bl optiga_crypt_symmetric_decrypt_start
 352              	.LVL17:
 221:D:/School/diseratie/SEMS/xmc4800_evaluation_kit/optiga-trust-m/examples/optiga\example_optiga_crypt_symmetric_encrypt_decrypt.c ****         // Compare the decrypted data with plain data
 353              	 .loc 1 221 0
 354 01ae 0028     	 cmp r0,#0
 355 01b0 87D1     	 bne .L6
 356              	.L14:
 221:D:/School/diseratie/SEMS/xmc4800_evaluation_kit/optiga-trust-m/examples/optiga\example_optiga_crypt_symmetric_encrypt_decrypt.c ****         // Compare the decrypted data with plain data
 357              	 .loc 1 221 0 is_stmt 0 discriminator 1
 358 01b2 3388     	 ldrh r3,[r6]
 359 01b4 324D     	 ldr r5,.L45+8
 360 01b6 9BB2     	 uxth r3,r3
 361 01b8 012B     	 cmp r3,#1
 362 01ba FAD0     	 beq .L14
 221:D:/School/diseratie/SEMS/xmc4800_evaluation_kit/optiga-trust-m/examples/optiga\example_optiga_crypt_symmetric_encrypt_decrypt.c ****         // Compare the decrypted data with plain data
 363              	 .loc 1 221 0 discriminator 2
 364 01bc 2B88     	 ldrh r3,[r5]
 365 01be 9BB2     	 uxth r3,r3
 366 01c0 002B     	 cmp r3,#0
 367 01c2 6FD1     	 bne .L40
 223:D:/School/diseratie/SEMS/xmc4800_evaluation_kit/optiga-trust-m/examples/optiga\example_optiga_crypt_symmetric_encrypt_decrypt.c ****         {
 368              	 .loc 1 223 0 is_stmt 1
 369 01c4 0C9F     	 ldr r7,[sp,#48]
 370 01c6 10A8     	 add r0,sp,#64
 371              	.LVL18:
 372 01c8 4146     	 mov r1,r8
 373 01ca 3A46     	 mov r2,r7
 374 01cc FFF7FEFF 	 bl memcmp
 375              	.LVL19:
 376 01d0 0028     	 cmp r0,#0
 377 01d2 7FF476AF 	 bne .L6
 228:D:/School/diseratie/SEMS/xmc4800_evaluation_kit/optiga-trust-m/examples/optiga\example_optiga_crypt_symmetric_encrypt_decrypt.c ****         {
 378              	 .loc 1 228 0
 379 01d6 102F     	 cmp r7,#16
 380 01d8 7FF473AF 	 bne .L6
 238:D:/School/diseratie/SEMS/xmc4800_evaluation_kit/optiga-trust-m/examples/optiga\example_optiga_crypt_symmetric_encrypt_decrypt.c ****                                                                 encrypted_data_buffer_continue,
 381              	 .loc 1 238 0
 382 01dc 0DAB     	 add r3,sp,#52
 237:D:/School/diseratie/SEMS/xmc4800_evaluation_kit/optiga-trust-m/examples/optiga\example_optiga_crypt_symmetric_encrypt_decrypt.c ****         return_status = optiga_crypt_symmetric_decrypt_continue(me,
 383              	 .loc 1 237 0
 384 01de 0127     	 movs r7,#1
 238:D:/School/diseratie/SEMS/xmc4800_evaluation_kit/optiga-trust-m/examples/optiga\example_optiga_crypt_symmetric_encrypt_decrypt.c ****                                                                 encrypted_data_buffer_continue,
 385              	 .loc 1 238 0
 386 01e0 0093     	 str r3,[sp]
 387 01e2 24A9     	 add r1,sp,#144
 388 01e4 0A9A     	 ldr r2,[sp,#40]
 237:D:/School/diseratie/SEMS/xmc4800_evaluation_kit/optiga-trust-m/examples/optiga\example_optiga_crypt_symmetric_encrypt_decrypt.c ****         return_status = optiga_crypt_symmetric_decrypt_continue(me,
 389              	 .loc 1 237 0
 390 01e6 2F80     	 strh r7,[r5]
 238:D:/School/diseratie/SEMS/xmc4800_evaluation_kit/optiga-trust-m/examples/optiga\example_optiga_crypt_symmetric_encrypt_decrypt.c ****                                                                 encrypted_data_buffer_continue,
 391              	 .loc 1 238 0
 392 01e8 3CAB     	 add r3,sp,#240
 393 01ea 2046     	 mov r0,r4
 394 01ec FFF7FEFF 	 bl optiga_crypt_symmetric_decrypt_continue
 395              	.LVL20:
 244:D:/School/diseratie/SEMS/xmc4800_evaluation_kit/optiga-trust-m/examples/optiga\example_optiga_crypt_symmetric_encrypt_decrypt.c ****         // Compare the decrypted data with plain data
 396              	 .loc 1 244 0
 397 01f0 0028     	 cmp r0,#0
 398 01f2 7FF466AF 	 bne .L6
 399              	.L16:
 244:D:/School/diseratie/SEMS/xmc4800_evaluation_kit/optiga-trust-m/examples/optiga\example_optiga_crypt_symmetric_encrypt_decrypt.c ****         // Compare the decrypted data with plain data
 400              	 .loc 1 244 0 is_stmt 0 discriminator 1
 401 01f6 3388     	 ldrh r3,[r6]
 402 01f8 214D     	 ldr r5,.L45+8
 403 01fa 9BB2     	 uxth r3,r3
 404 01fc 012B     	 cmp r3,#1
 405 01fe FAD0     	 beq .L16
 244:D:/School/diseratie/SEMS/xmc4800_evaluation_kit/optiga-trust-m/examples/optiga\example_optiga_crypt_symmetric_encrypt_decrypt.c ****         // Compare the decrypted data with plain data
 406              	 .loc 1 244 0 discriminator 2
 407 0200 2B88     	 ldrh r3,[r5]
 408 0202 9BB2     	 uxth r3,r3
 409 0204 002B     	 cmp r3,#0
 410 0206 4DD1     	 bne .L40
 246:D:/School/diseratie/SEMS/xmc4800_evaluation_kit/optiga-trust-m/examples/optiga\example_optiga_crypt_symmetric_encrypt_decrypt.c ****         {
 411              	 .loc 1 246 0 is_stmt 1
 412 0208 0D9F     	 ldr r7,[sp,#52]
 413 020a 14A8     	 add r0,sp,#80
 414              	.LVL21:
 415 020c 3CA9     	 add r1,sp,#240
 416 020e 3A46     	 mov r2,r7
 417 0210 FFF7FEFF 	 bl memcmp
 418              	.LVL22:
 419 0214 0028     	 cmp r0,#0
 420 0216 7FF454AF 	 bne .L6
 251:D:/School/diseratie/SEMS/xmc4800_evaluation_kit/optiga-trust-m/examples/optiga\example_optiga_crypt_symmetric_encrypt_decrypt.c ****         {
 421              	 .loc 1 251 0
 422 021a 102F     	 cmp r7,#16
 423 021c 7FF451AF 	 bne .L6
 261:D:/School/diseratie/SEMS/xmc4800_evaluation_kit/optiga-trust-m/examples/optiga\example_optiga_crypt_symmetric_encrypt_decrypt.c ****                                                              encrypted_data_buffer_final,
 424              	 .loc 1 261 0
 425 0220 0EAB     	 add r3,sp,#56
 260:D:/School/diseratie/SEMS/xmc4800_evaluation_kit/optiga-trust-m/examples/optiga\example_optiga_crypt_symmetric_encrypt_decrypt.c ****         return_status = optiga_crypt_symmetric_decrypt_final(me,
 426              	 .loc 1 260 0
 427 0222 0127     	 movs r7,#1
 261:D:/School/diseratie/SEMS/xmc4800_evaluation_kit/optiga-trust-m/examples/optiga\example_optiga_crypt_symmetric_encrypt_decrypt.c ****                                                              encrypted_data_buffer_final,
 428              	 .loc 1 261 0
 429 0224 0093     	 str r3,[sp]
 430 0226 2CA9     	 add r1,sp,#176
 431 0228 0B9A     	 ldr r2,[sp,#44]
 260:D:/School/diseratie/SEMS/xmc4800_evaluation_kit/optiga-trust-m/examples/optiga\example_optiga_crypt_symmetric_encrypt_decrypt.c ****         return_status = optiga_crypt_symmetric_decrypt_final(me,
 432              	 .loc 1 260 0
 433 022a 2F80     	 strh r7,[r5]
 261:D:/School/diseratie/SEMS/xmc4800_evaluation_kit/optiga-trust-m/examples/optiga\example_optiga_crypt_symmetric_encrypt_decrypt.c ****                                                              encrypted_data_buffer_final,
 434              	 .loc 1 261 0
 435 022c 44AB     	 add r3,sp,#272
 436 022e 2046     	 mov r0,r4
 437 0230 FFF7FEFF 	 bl optiga_crypt_symmetric_decrypt_final
 438              	.LVL23:
 267:D:/School/diseratie/SEMS/xmc4800_evaluation_kit/optiga-trust-m/examples/optiga\example_optiga_crypt_symmetric_encrypt_decrypt.c ****         
 439              	 .loc 1 267 0
 440 0234 0028     	 cmp r0,#0
 441 0236 7FF444AF 	 bne .L6
 442              	.L18:
 267:D:/School/diseratie/SEMS/xmc4800_evaluation_kit/optiga-trust-m/examples/optiga\example_optiga_crypt_symmetric_encrypt_decrypt.c ****         
 443              	 .loc 1 267 0 is_stmt 0 discriminator 1
 444 023a 3388     	 ldrh r3,[r6]
 445 023c 104A     	 ldr r2,.L45+8
 446 023e 9BB2     	 uxth r3,r3
 447 0240 012B     	 cmp r3,#1
 448 0242 FAD0     	 beq .L18
 267:D:/School/diseratie/SEMS/xmc4800_evaluation_kit/optiga-trust-m/examples/optiga\example_optiga_crypt_symmetric_encrypt_decrypt.c ****         
 449              	 .loc 1 267 0 discriminator 2
 450 0244 1188     	 ldrh r1,[r2]
 451 0246 89B2     	 uxth r1,r1
 452 0248 49BB     	 cbnz r1,.L41
 269:D:/School/diseratie/SEMS/xmc4800_evaluation_kit/optiga-trust-m/examples/optiga\example_optiga_crypt_symmetric_encrypt_decrypt.c ****         
 453              	 .loc 1 269 0 is_stmt 1
 454 024a 0FA8     	 add r0,sp,#60
 455              	.LVL24:
 456 024c FFF7FEFF 	 bl example_performance_measurement
 457              	.LVL25:
 272:D:/School/diseratie/SEMS/xmc4800_evaluation_kit/optiga-trust-m/examples/optiga\example_optiga_crypt_symmetric_encrypt_decrypt.c ****         {
 458              	 .loc 1 272 0
 459 0250 0E9D     	 ldr r5,[sp,#56]
 460 0252 18A8     	 add r0,sp,#96
 461 0254 44A9     	 add r1,sp,#272
 462 0256 2A46     	 mov r2,r5
 463 0258 FFF7FEFF 	 bl memcmp
 464              	.LVL26:
 465 025c 0028     	 cmp r0,#0
 466 025e 7FF430AF 	 bne .L6
 277:D:/School/diseratie/SEMS/xmc4800_evaluation_kit/optiga-trust-m/examples/optiga\example_optiga_crypt_symmetric_encrypt_decrypt.c ****         {
 467              	 .loc 1 277 0
 468 0262 102D     	 cmp r5,#16
 469 0264 7FF42DAF 	 bne .L6
 470              	.LVL27:
 293:D:/School/diseratie/SEMS/xmc4800_evaluation_kit/optiga-trust-m/examples/optiga\example_optiga_crypt_symmetric_encrypt_decrypt.c **** #endif //OPTIGA_INIT_DEINIT_DONE_EXCLUSIVELY
 471              	 .loc 1 293 0
 472 0268 FFF7FEFF 	 bl example_optiga_deinit
 473              	.LVL28:
 474 026c 11E0     	 b .L22
 475              	.LVL29:
 476              	.L5:
 477 026e FFF7FEFF 	 bl example_optiga_deinit
 478              	.LVL30:
 479              	 .loc 1 308 0
 480 0272 4CB0     	 add sp,sp,#304
 481              	.LCFI4:
 482              	 .cfi_remember_state
 483              	 .cfi_def_cfa_offset 24
 484              	 
 485 0274 BDE8F081 	 pop {r4,r5,r6,r7,r8,pc}
 486              	.LVL31:
 487              	.L46:
 488              	 .align 2
 489              	.L45:
 490 0278 00000000 	 .word .LANCHOR1
 491 027c 00000000 	 .word optiga_util_crypt_callback
 492 0280 00000000 	 .word .LANCHOR0
 493              	.LVL32:
 494              	.L39:
 495              	.LCFI5:
 496              	 .cfi_restore_state
 180:D:/School/diseratie/SEMS/xmc4800_evaluation_kit/optiga-trust-m/examples/optiga\example_optiga_crypt_symmetric_encrypt_decrypt.c ****         if (encrypted_data_length_continue != sizeof(plain_data_buffer_continue))
 497              	 .loc 1 180 0 discriminator 3
 498 0284 0D88     	 ldrh r5,[r1]
 499 0286 ADB2     	 uxth r5,r5
 500              	.LVL33:
 501              	.L9:
 293:D:/School/diseratie/SEMS/xmc4800_evaluation_kit/optiga-trust-m/examples/optiga\example_optiga_crypt_symmetric_encrypt_decrypt.c **** #endif //OPTIGA_INIT_DEINIT_DONE_EXCLUSIVELY
 502              	 .loc 1 293 0
 503 0288 FFF7FEFF 	 bl example_optiga_deinit
 504              	.LVL34:
 296:D:/School/diseratie/SEMS/xmc4800_evaluation_kit/optiga-trust-m/examples/optiga\example_optiga_crypt_symmetric_encrypt_decrypt.c ****     
 505              	 .loc 1 296 0
 506 028c 002D     	 cmp r5,#0
 507 028e 7FF41AAF 	 bne .L23
 508              	.LVL35:
 509              	.L22:
 296:D:/School/diseratie/SEMS/xmc4800_evaluation_kit/optiga-trust-m/examples/optiga\example_optiga_crypt_symmetric_encrypt_decrypt.c ****     
 510              	 .loc 1 296 0 is_stmt 0 discriminator 1
 511 0292 0649     	 ldr r1,.L47
 512 0294 0F9A     	 ldr r2,[sp,#60]
 513 0296 0648     	 ldr r0,.L47+4
 514 0298 FFF7FEFF 	 bl sprintf
 515              	.LVL36:
 516 029c 13E7     	 b .L23
 517              	.LVL37:
 518              	.L41:
 267:D:/School/diseratie/SEMS/xmc4800_evaluation_kit/optiga-trust-m/examples/optiga\example_optiga_crypt_symmetric_encrypt_decrypt.c ****         
 519              	 .loc 1 267 0 is_stmt 1 discriminator 3
 520 029e 1588     	 ldrh r5,[r2]
 521 02a0 ADB2     	 uxth r5,r5
 522              	.LVL38:
 523 02a2 F1E7     	 b .L9
 524              	.LVL39:
 525              	.L40:
 244:D:/School/diseratie/SEMS/xmc4800_evaluation_kit/optiga-trust-m/examples/optiga\example_optiga_crypt_symmetric_encrypt_decrypt.c ****         // Compare the decrypted data with plain data
 526              	 .loc 1 244 0 discriminator 3
 527 02a4 2D88     	 ldrh r5,[r5]
 528 02a6 ADB2     	 uxth r5,r5
 529              	.LVL40:
 530 02a8 EEE7     	 b .L9
 531              	.L48:
 532 02aa 00BF     	 .align 2
 533              	.L47:
 534 02ac 00000000 	 .word .LC3
 535 02b0 00000000 	 .word performance_buffer_string
 536              	 .cfi_endproc
 537              	.LFE7:
 539              	 .section .text.example_optiga_crypt_symmetric_encrypt_cbcmac,"ax",%progbits
 540              	 .align 2
 541              	 .global example_optiga_crypt_symmetric_encrypt_cbcmac
 542              	 .thumb
 543              	 .thumb_func
 545              	example_optiga_crypt_symmetric_encrypt_cbcmac:
 546              	.LFB8:
 309:D:/School/diseratie/SEMS/xmc4800_evaluation_kit/optiga-trust-m/examples/optiga\example_optiga_crypt_symmetric_encrypt_decrypt.c **** 
 310:D:/School/diseratie/SEMS/xmc4800_evaluation_kit/optiga-trust-m/examples/optiga\example_optiga_crypt_symmetric_encrypt_decrypt.c **** /**
 311:D:/School/diseratie/SEMS/xmc4800_evaluation_kit/optiga-trust-m/examples/optiga\example_optiga_crypt_symmetric_encrypt_decrypt.c ****  * The below example demonstrates the symmetric encryption for CBC MAC mode using OPTIGA.
 312:D:/School/diseratie/SEMS/xmc4800_evaluation_kit/optiga-trust-m/examples/optiga\example_optiga_crypt_symmetric_encrypt_decrypt.c ****  *
 313:D:/School/diseratie/SEMS/xmc4800_evaluation_kit/optiga-trust-m/examples/optiga\example_optiga_crypt_symmetric_encrypt_decrypt.c ****  * Example for #optiga_crypt_symmetric_encrypt.
 314:D:/School/diseratie/SEMS/xmc4800_evaluation_kit/optiga-trust-m/examples/optiga\example_optiga_crypt_symmetric_encrypt_decrypt.c ****  *
 315:D:/School/diseratie/SEMS/xmc4800_evaluation_kit/optiga-trust-m/examples/optiga\example_optiga_crypt_symmetric_encrypt_decrypt.c ****  */
 316:D:/School/diseratie/SEMS/xmc4800_evaluation_kit/optiga-trust-m/examples/optiga\example_optiga_crypt_symmetric_encrypt_decrypt.c **** void example_optiga_crypt_symmetric_encrypt_cbcmac(void)
 317:D:/School/diseratie/SEMS/xmc4800_evaluation_kit/optiga-trust-m/examples/optiga\example_optiga_crypt_symmetric_encrypt_decrypt.c **** {
 547              	 .loc 1 317 0
 548              	 .cfi_startproc
 549              	 
 550              	 
 551 0000 70B5     	 push {r4,r5,r6,lr}
 552              	.LCFI6:
 553              	 .cfi_def_cfa_offset 16
 554              	 .cfi_offset 4,-16
 555              	 .cfi_offset 5,-12
 556              	 .cfi_offset 6,-8
 557              	 .cfi_offset 14,-4
 318:D:/School/diseratie/SEMS/xmc4800_evaluation_kit/optiga-trust-m/examples/optiga\example_optiga_crypt_symmetric_encrypt_decrypt.c ****     const uint8_t plain_data_buffer[] = {0x6b,0xc1,0xbe,0xe2,
 558              	 .loc 1 318 0
 559 0002 324B     	 ldr r3,.L68
 317:D:/School/diseratie/SEMS/xmc4800_evaluation_kit/optiga-trust-m/examples/optiga\example_optiga_crypt_symmetric_encrypt_decrypt.c ****     const uint8_t plain_data_buffer[] = {0x6b,0xc1,0xbe,0xe2,
 560              	 .loc 1 317 0
 561 0004 96B0     	 sub sp,sp,#88
 562              	.LCFI7:
 563              	 .cfi_def_cfa_offset 104
 564              	 .loc 1 318 0
 565 0006 1868     	 ldr r0,[r3]
 566 0008 5968     	 ldr r1,[r3,#4]
 567 000a 9A68     	 ldr r2,[r3,#8]
 568 000c DB68     	 ldr r3,[r3,#12]
 319:D:/School/diseratie/SEMS/xmc4800_evaluation_kit/optiga-trust-m/examples/optiga\example_optiga_crypt_symmetric_encrypt_decrypt.c ****                                          0x2e,0x40,0x9f,0x96,
 320:D:/School/diseratie/SEMS/xmc4800_evaluation_kit/optiga-trust-m/examples/optiga\example_optiga_crypt_symmetric_encrypt_decrypt.c ****                                          0xe9,0x3d,0x7e,0x11,
 321:D:/School/diseratie/SEMS/xmc4800_evaluation_kit/optiga-trust-m/examples/optiga\example_optiga_crypt_symmetric_encrypt_decrypt.c ****                                          0x73,0x93,0x17,0x2a};
 322:D:/School/diseratie/SEMS/xmc4800_evaluation_kit/optiga-trust-m/examples/optiga\example_optiga_crypt_symmetric_encrypt_decrypt.c ****     uint8_t encrypted_data_buffer[32] = {0};
 569              	 .loc 1 322 0
 570 000e 0024     	 movs r4,#0
 318:D:/School/diseratie/SEMS/xmc4800_evaluation_kit/optiga-trust-m/examples/optiga\example_optiga_crypt_symmetric_encrypt_decrypt.c ****                                          0x2e,0x40,0x9f,0x96,
 571              	 .loc 1 318 0
 572 0010 0AAD     	 add r5,sp,#40
 323:D:/School/diseratie/SEMS/xmc4800_evaluation_kit/optiga-trust-m/examples/optiga\example_optiga_crypt_symmetric_encrypt_decrypt.c ****     uint32_t encrypted_data_length = sizeof(encrypted_data_buffer);
 573              	 .loc 1 323 0
 574 0012 2026     	 movs r6,#32
 318:D:/School/diseratie/SEMS/xmc4800_evaluation_kit/optiga-trust-m/examples/optiga\example_optiga_crypt_symmetric_encrypt_decrypt.c ****                                          0x2e,0x40,0x9f,0x96,
 575              	 .loc 1 318 0
 576 0014 0FC5     	 stmia r5!,{r0,r1,r2,r3}
 322:D:/School/diseratie/SEMS/xmc4800_evaluation_kit/optiga-trust-m/examples/optiga\example_optiga_crypt_symmetric_encrypt_decrypt.c ****     uint32_t encrypted_data_length = sizeof(encrypted_data_buffer);
 577              	 .loc 1 322 0
 578 0016 0E94     	 str r4,[sp,#56]
 579 0018 0F94     	 str r4,[sp,#60]
 580 001a 1094     	 str r4,[sp,#64]
 581 001c 1194     	 str r4,[sp,#68]
 582 001e 1294     	 str r4,[sp,#72]
 583 0020 1394     	 str r4,[sp,#76]
 584 0022 1494     	 str r4,[sp,#80]
 585 0024 1594     	 str r4,[sp,#84]
 324:D:/School/diseratie/SEMS/xmc4800_evaluation_kit/optiga-trust-m/examples/optiga\example_optiga_crypt_symmetric_encrypt_decrypt.c ****     uint32_t expected_data_length = 0x10;
 325:D:/School/diseratie/SEMS/xmc4800_evaluation_kit/optiga-trust-m/examples/optiga\example_optiga_crypt_symmetric_encrypt_decrypt.c ****     uint32_t time_taken = 0;
 586              	 .loc 1 325 0
 587 0026 0994     	 str r4,[sp,#36]
 323:D:/School/diseratie/SEMS/xmc4800_evaluation_kit/optiga-trust-m/examples/optiga\example_optiga_crypt_symmetric_encrypt_decrypt.c ****     uint32_t expected_data_length = 0x10;
 588              	 .loc 1 323 0
 589 0028 0896     	 str r6,[sp,#32]
 590              	.LVL41:
 326:D:/School/diseratie/SEMS/xmc4800_evaluation_kit/optiga-trust-m/examples/optiga\example_optiga_crypt_symmetric_encrypt_decrypt.c ****     optiga_crypt_t * me = NULL;
 327:D:/School/diseratie/SEMS/xmc4800_evaluation_kit/optiga-trust-m/examples/optiga\example_optiga_crypt_symmetric_encrypt_decrypt.c ****     optiga_lib_status_t return_status = !OPTIGA_LIB_SUCCESS;
 328:D:/School/diseratie/SEMS/xmc4800_evaluation_kit/optiga-trust-m/examples/optiga\example_optiga_crypt_symmetric_encrypt_decrypt.c **** 
 329:D:/School/diseratie/SEMS/xmc4800_evaluation_kit/optiga-trust-m/examples/optiga\example_optiga_crypt_symmetric_encrypt_decrypt.c ****     do
 330:D:/School/diseratie/SEMS/xmc4800_evaluation_kit/optiga-trust-m/examples/optiga\example_optiga_crypt_symmetric_encrypt_decrypt.c ****     {
 331:D:/School/diseratie/SEMS/xmc4800_evaluation_kit/optiga-trust-m/examples/optiga\example_optiga_crypt_symmetric_encrypt_decrypt.c ****         
 332:D:/School/diseratie/SEMS/xmc4800_evaluation_kit/optiga-trust-m/examples/optiga\example_optiga_crypt_symmetric_encrypt_decrypt.c **** #ifndef OPTIGA_INIT_DEINIT_DONE_EXCLUSIVELY
 333:D:/School/diseratie/SEMS/xmc4800_evaluation_kit/optiga-trust-m/examples/optiga\example_optiga_crypt_symmetric_encrypt_decrypt.c ****         /**
 334:D:/School/diseratie/SEMS/xmc4800_evaluation_kit/optiga-trust-m/examples/optiga\example_optiga_crypt_symmetric_encrypt_decrypt.c ****          * Open the application on OPTIGA which is a precondition to perform any other operations
 335:D:/School/diseratie/SEMS/xmc4800_evaluation_kit/optiga-trust-m/examples/optiga\example_optiga_crypt_symmetric_encrypt_decrypt.c ****          * using optiga_util_open_application
 336:D:/School/diseratie/SEMS/xmc4800_evaluation_kit/optiga-trust-m/examples/optiga\example_optiga_crypt_symmetric_encrypt_decrypt.c ****          */
 337:D:/School/diseratie/SEMS/xmc4800_evaluation_kit/optiga-trust-m/examples/optiga\example_optiga_crypt_symmetric_encrypt_decrypt.c ****         example_optiga_init();
 591              	 .loc 1 337 0
 592 002a FFF7FEFF 	 bl example_optiga_init
 593              	.LVL42:
 338:D:/School/diseratie/SEMS/xmc4800_evaluation_kit/optiga-trust-m/examples/optiga\example_optiga_crypt_symmetric_encrypt_decrypt.c **** #endif //OPTIGA_INIT_DEINIT_DONE_EXCLUSIVELY
 339:D:/School/diseratie/SEMS/xmc4800_evaluation_kit/optiga-trust-m/examples/optiga\example_optiga_crypt_symmetric_encrypt_decrypt.c **** 
 340:D:/School/diseratie/SEMS/xmc4800_evaluation_kit/optiga-trust-m/examples/optiga\example_optiga_crypt_symmetric_encrypt_decrypt.c ****         OPTIGA_EXAMPLE_LOG_MESSAGE(__FUNCTION__);
 341:D:/School/diseratie/SEMS/xmc4800_evaluation_kit/optiga-trust-m/examples/optiga\example_optiga_crypt_symmetric_encrypt_decrypt.c ****         
 342:D:/School/diseratie/SEMS/xmc4800_evaluation_kit/optiga-trust-m/examples/optiga\example_optiga_crypt_symmetric_encrypt_decrypt.c ****         /**
 343:D:/School/diseratie/SEMS/xmc4800_evaluation_kit/optiga-trust-m/examples/optiga\example_optiga_crypt_symmetric_encrypt_decrypt.c ****          * 1. Create OPTIGA Crypt Instance
 344:D:/School/diseratie/SEMS/xmc4800_evaluation_kit/optiga-trust-m/examples/optiga\example_optiga_crypt_symmetric_encrypt_decrypt.c ****          *
 345:D:/School/diseratie/SEMS/xmc4800_evaluation_kit/optiga-trust-m/examples/optiga\example_optiga_crypt_symmetric_encrypt_decrypt.c ****          */
 346:D:/School/diseratie/SEMS/xmc4800_evaluation_kit/optiga-trust-m/examples/optiga\example_optiga_crypt_symmetric_encrypt_decrypt.c ****         me = optiga_crypt_create(0, optiga_util_crypt_callback, NULL);
 594              	 .loc 1 346 0
 595 002e 2046     	 mov r0,r4
 596 0030 2246     	 mov r2,r4
 597 0032 2749     	 ldr r1,.L68+4
 598 0034 FFF7FEFF 	 bl optiga_crypt_create
 599              	.LVL43:
 347:D:/School/diseratie/SEMS/xmc4800_evaluation_kit/optiga-trust-m/examples/optiga\example_optiga_crypt_symmetric_encrypt_decrypt.c ****         if (NULL == me)
 600              	 .loc 1 347 0
 601 0038 0446     	 mov r4,r0
 602 003a 0028     	 cmp r0,#0
 603 003c 38D0     	 beq .L50
 348:D:/School/diseratie/SEMS/xmc4800_evaluation_kit/optiga-trust-m/examples/optiga\example_optiga_crypt_symmetric_encrypt_decrypt.c ****         {
 349:D:/School/diseratie/SEMS/xmc4800_evaluation_kit/optiga-trust-m/examples/optiga\example_optiga_crypt_symmetric_encrypt_decrypt.c ****             break;
 350:D:/School/diseratie/SEMS/xmc4800_evaluation_kit/optiga-trust-m/examples/optiga\example_optiga_crypt_symmetric_encrypt_decrypt.c ****         }
 351:D:/School/diseratie/SEMS/xmc4800_evaluation_kit/optiga-trust-m/examples/optiga\example_optiga_crypt_symmetric_encrypt_decrypt.c **** 
 352:D:/School/diseratie/SEMS/xmc4800_evaluation_kit/optiga-trust-m/examples/optiga\example_optiga_crypt_symmetric_encrypt_decrypt.c ****         /**
 353:D:/School/diseratie/SEMS/xmc4800_evaluation_kit/optiga-trust-m/examples/optiga\example_optiga_crypt_symmetric_encrypt_decrypt.c ****          * 2. Update symmetric key using secure key update
 354:D:/School/diseratie/SEMS/xmc4800_evaluation_kit/optiga-trust-m/examples/optiga\example_optiga_crypt_symmetric_encrypt_decrypt.c ****          *
 355:D:/School/diseratie/SEMS/xmc4800_evaluation_kit/optiga-trust-m/examples/optiga\example_optiga_crypt_symmetric_encrypt_decrypt.c ****          */
 356:D:/School/diseratie/SEMS/xmc4800_evaluation_kit/optiga-trust-m/examples/optiga\example_optiga_crypt_symmetric_encrypt_decrypt.c ****         OPTIGA_EXAMPLE_LOG_MESSAGE("Symmetric key generation");
 357:D:/School/diseratie/SEMS/xmc4800_evaluation_kit/optiga-trust-m/examples/optiga\example_optiga_crypt_symmetric_encrypt_decrypt.c ****         return_status = generate_symmetric_key();
 604              	 .loc 1 357 0
 605 003e FFF7FEFF 	 bl generate_symmetric_key
 606              	.LVL44:
 358:D:/School/diseratie/SEMS/xmc4800_evaluation_kit/optiga-trust-m/examples/optiga\example_optiga_crypt_symmetric_encrypt_decrypt.c ****         if(OPTIGA_LIB_SUCCESS != return_status)
 607              	 .loc 1 358 0
 608 0042 0546     	 mov r5,r0
 609 0044 30B1     	 cbz r0,.L67
 610              	.LVL45:
 611              	.L51:
 359:D:/School/diseratie/SEMS/xmc4800_evaluation_kit/optiga-trust-m/examples/optiga\example_optiga_crypt_symmetric_encrypt_decrypt.c ****         {
 360:D:/School/diseratie/SEMS/xmc4800_evaluation_kit/optiga-trust-m/examples/optiga\example_optiga_crypt_symmetric_encrypt_decrypt.c ****             break;
 361:D:/School/diseratie/SEMS/xmc4800_evaluation_kit/optiga-trust-m/examples/optiga\example_optiga_crypt_symmetric_encrypt_decrypt.c ****         }
 362:D:/School/diseratie/SEMS/xmc4800_evaluation_kit/optiga-trust-m/examples/optiga\example_optiga_crypt_symmetric_encrypt_decrypt.c ****         
 363:D:/School/diseratie/SEMS/xmc4800_evaluation_kit/optiga-trust-m/examples/optiga\example_optiga_crypt_symmetric_encrypt_decrypt.c ****         /**
 364:D:/School/diseratie/SEMS/xmc4800_evaluation_kit/optiga-trust-m/examples/optiga\example_optiga_crypt_symmetric_encrypt_decrypt.c ****          * 3. Encrypt the plain data
 365:D:/School/diseratie/SEMS/xmc4800_evaluation_kit/optiga-trust-m/examples/optiga\example_optiga_crypt_symmetric_encrypt_decrypt.c ****          */
 366:D:/School/diseratie/SEMS/xmc4800_evaluation_kit/optiga-trust-m/examples/optiga\example_optiga_crypt_symmetric_encrypt_decrypt.c ****         optiga_lib_status = OPTIGA_LIB_BUSY;
 367:D:/School/diseratie/SEMS/xmc4800_evaluation_kit/optiga-trust-m/examples/optiga\example_optiga_crypt_symmetric_encrypt_decrypt.c ****         
 368:D:/School/diseratie/SEMS/xmc4800_evaluation_kit/optiga-trust-m/examples/optiga\example_optiga_crypt_symmetric_encrypt_decrypt.c ****         START_PERFORMANCE_MEASUREMENT(time_taken);
 369:D:/School/diseratie/SEMS/xmc4800_evaluation_kit/optiga-trust-m/examples/optiga\example_optiga_crypt_symmetric_encrypt_decrypt.c ****         
 370:D:/School/diseratie/SEMS/xmc4800_evaluation_kit/optiga-trust-m/examples/optiga\example_optiga_crypt_symmetric_encrypt_decrypt.c ****         return_status = optiga_crypt_symmetric_encrypt(me,
 371:D:/School/diseratie/SEMS/xmc4800_evaluation_kit/optiga-trust-m/examples/optiga\example_optiga_crypt_symmetric_encrypt_decrypt.c ****                                                        OPTIGA_SYMMETRIC_CBC,
 372:D:/School/diseratie/SEMS/xmc4800_evaluation_kit/optiga-trust-m/examples/optiga\example_optiga_crypt_symmetric_encrypt_decrypt.c ****                                                        OPTIGA_KEY_ID_SECRET_BASED,
 373:D:/School/diseratie/SEMS/xmc4800_evaluation_kit/optiga-trust-m/examples/optiga\example_optiga_crypt_symmetric_encrypt_decrypt.c ****                                                        plain_data_buffer,
 374:D:/School/diseratie/SEMS/xmc4800_evaluation_kit/optiga-trust-m/examples/optiga\example_optiga_crypt_symmetric_encrypt_decrypt.c ****                                                        sizeof(plain_data_buffer),
 375:D:/School/diseratie/SEMS/xmc4800_evaluation_kit/optiga-trust-m/examples/optiga\example_optiga_crypt_symmetric_encrypt_decrypt.c ****                                                        NULL,
 376:D:/School/diseratie/SEMS/xmc4800_evaluation_kit/optiga-trust-m/examples/optiga\example_optiga_crypt_symmetric_encrypt_decrypt.c ****                                                        0,
 377:D:/School/diseratie/SEMS/xmc4800_evaluation_kit/optiga-trust-m/examples/optiga\example_optiga_crypt_symmetric_encrypt_decrypt.c ****                                                        NULL,
 378:D:/School/diseratie/SEMS/xmc4800_evaluation_kit/optiga-trust-m/examples/optiga\example_optiga_crypt_symmetric_encrypt_decrypt.c ****                                                        0,
 379:D:/School/diseratie/SEMS/xmc4800_evaluation_kit/optiga-trust-m/examples/optiga\example_optiga_crypt_symmetric_encrypt_decrypt.c ****                                                        encrypted_data_buffer,
 380:D:/School/diseratie/SEMS/xmc4800_evaluation_kit/optiga-trust-m/examples/optiga\example_optiga_crypt_symmetric_encrypt_decrypt.c ****                                                        &encrypted_data_length);
 381:D:/School/diseratie/SEMS/xmc4800_evaluation_kit/optiga-trust-m/examples/optiga\example_optiga_crypt_symmetric_encrypt_decrypt.c **** 
 382:D:/School/diseratie/SEMS/xmc4800_evaluation_kit/optiga-trust-m/examples/optiga\example_optiga_crypt_symmetric_encrypt_decrypt.c ****         WAIT_AND_CHECK_STATUS(return_status, optiga_lib_status);
 383:D:/School/diseratie/SEMS/xmc4800_evaluation_kit/optiga-trust-m/examples/optiga\example_optiga_crypt_symmetric_encrypt_decrypt.c ****        
 384:D:/School/diseratie/SEMS/xmc4800_evaluation_kit/optiga-trust-m/examples/optiga\example_optiga_crypt_symmetric_encrypt_decrypt.c ****         READ_PERFORMANCE_MEASUREMENT(time_taken);
 385:D:/School/diseratie/SEMS/xmc4800_evaluation_kit/optiga-trust-m/examples/optiga\example_optiga_crypt_symmetric_encrypt_decrypt.c ****        
 386:D:/School/diseratie/SEMS/xmc4800_evaluation_kit/optiga-trust-m/examples/optiga\example_optiga_crypt_symmetric_encrypt_decrypt.c ****         if (encrypted_data_length != expected_data_length)
 387:D:/School/diseratie/SEMS/xmc4800_evaluation_kit/optiga-trust-m/examples/optiga\example_optiga_crypt_symmetric_encrypt_decrypt.c ****         {
 388:D:/School/diseratie/SEMS/xmc4800_evaluation_kit/optiga-trust-m/examples/optiga\example_optiga_crypt_symmetric_encrypt_decrypt.c ****             //Encrypted data length is incorrect
 389:D:/School/diseratie/SEMS/xmc4800_evaluation_kit/optiga-trust-m/examples/optiga\example_optiga_crypt_symmetric_encrypt_decrypt.c ****             return_status = !OPTIGA_LIB_SUCCESS;
 390:D:/School/diseratie/SEMS/xmc4800_evaluation_kit/optiga-trust-m/examples/optiga\example_optiga_crypt_symmetric_encrypt_decrypt.c ****             break;
 391:D:/School/diseratie/SEMS/xmc4800_evaluation_kit/optiga-trust-m/examples/optiga\example_optiga_crypt_symmetric_encrypt_decrypt.c ****         }
 392:D:/School/diseratie/SEMS/xmc4800_evaluation_kit/optiga-trust-m/examples/optiga\example_optiga_crypt_symmetric_encrypt_decrypt.c **** 
 393:D:/School/diseratie/SEMS/xmc4800_evaluation_kit/optiga-trust-m/examples/optiga\example_optiga_crypt_symmetric_encrypt_decrypt.c ****         return_status = OPTIGA_LIB_SUCCESS;
 394:D:/School/diseratie/SEMS/xmc4800_evaluation_kit/optiga-trust-m/examples/optiga\example_optiga_crypt_symmetric_encrypt_decrypt.c **** 
 395:D:/School/diseratie/SEMS/xmc4800_evaluation_kit/optiga-trust-m/examples/optiga\example_optiga_crypt_symmetric_encrypt_decrypt.c ****     } while (FALSE);
 396:D:/School/diseratie/SEMS/xmc4800_evaluation_kit/optiga-trust-m/examples/optiga\example_optiga_crypt_symmetric_encrypt_decrypt.c ****     OPTIGA_EXAMPLE_LOG_STATUS(return_status);
 397:D:/School/diseratie/SEMS/xmc4800_evaluation_kit/optiga-trust-m/examples/optiga\example_optiga_crypt_symmetric_encrypt_decrypt.c ****     
 398:D:/School/diseratie/SEMS/xmc4800_evaluation_kit/optiga-trust-m/examples/optiga\example_optiga_crypt_symmetric_encrypt_decrypt.c **** #ifndef OPTIGA_INIT_DEINIT_DONE_EXCLUSIVELY
 399:D:/School/diseratie/SEMS/xmc4800_evaluation_kit/optiga-trust-m/examples/optiga\example_optiga_crypt_symmetric_encrypt_decrypt.c ****     /**
 400:D:/School/diseratie/SEMS/xmc4800_evaluation_kit/optiga-trust-m/examples/optiga\example_optiga_crypt_symmetric_encrypt_decrypt.c ****      * Close the application on OPTIGA after all the operations are executed
 401:D:/School/diseratie/SEMS/xmc4800_evaluation_kit/optiga-trust-m/examples/optiga\example_optiga_crypt_symmetric_encrypt_decrypt.c ****      * using optiga_util_close_application
 402:D:/School/diseratie/SEMS/xmc4800_evaluation_kit/optiga-trust-m/examples/optiga\example_optiga_crypt_symmetric_encrypt_decrypt.c ****      */
 403:D:/School/diseratie/SEMS/xmc4800_evaluation_kit/optiga-trust-m/examples/optiga\example_optiga_crypt_symmetric_encrypt_decrypt.c ****     example_optiga_deinit();
 612              	 .loc 1 403 0
 613 0046 FFF7FEFF 	 bl example_optiga_deinit
 614              	.LVL46:
 615              	.L57:
 404:D:/School/diseratie/SEMS/xmc4800_evaluation_kit/optiga-trust-m/examples/optiga\example_optiga_crypt_symmetric_encrypt_decrypt.c **** #endif //OPTIGA_INIT_DEINIT_DONE_EXCLUSIVELY
 405:D:/School/diseratie/SEMS/xmc4800_evaluation_kit/optiga-trust-m/examples/optiga\example_optiga_crypt_symmetric_encrypt_decrypt.c ****     OPTIGA_EXAMPLE_LOG_PERFORMANCE_VALUE(time_taken, return_status); 
 406:D:/School/diseratie/SEMS/xmc4800_evaluation_kit/optiga-trust-m/examples/optiga\example_optiga_crypt_symmetric_encrypt_decrypt.c ****     
 407:D:/School/diseratie/SEMS/xmc4800_evaluation_kit/optiga-trust-m/examples/optiga\example_optiga_crypt_symmetric_encrypt_decrypt.c ****     if (me)
 408:D:/School/diseratie/SEMS/xmc4800_evaluation_kit/optiga-trust-m/examples/optiga\example_optiga_crypt_symmetric_encrypt_decrypt.c ****     {
 409:D:/School/diseratie/SEMS/xmc4800_evaluation_kit/optiga-trust-m/examples/optiga\example_optiga_crypt_symmetric_encrypt_decrypt.c ****         //Destroy the instance after the completion of usecase if not required.
 410:D:/School/diseratie/SEMS/xmc4800_evaluation_kit/optiga-trust-m/examples/optiga\example_optiga_crypt_symmetric_encrypt_decrypt.c ****         return_status = optiga_crypt_destroy(me);
 616              	 .loc 1 410 0
 617 004a 2046     	 mov r0,r4
 618 004c FFF7FEFF 	 bl optiga_crypt_destroy
 619              	.LVL47:
 411:D:/School/diseratie/SEMS/xmc4800_evaluation_kit/optiga-trust-m/examples/optiga\example_optiga_crypt_symmetric_encrypt_decrypt.c ****         if(OPTIGA_LIB_SUCCESS != return_status)
 412:D:/School/diseratie/SEMS/xmc4800_evaluation_kit/optiga-trust-m/examples/optiga\example_optiga_crypt_symmetric_encrypt_decrypt.c ****         {
 413:D:/School/diseratie/SEMS/xmc4800_evaluation_kit/optiga-trust-m/examples/optiga\example_optiga_crypt_symmetric_encrypt_decrypt.c ****             //lint --e{774} suppress This is a generic macro
 414:D:/School/diseratie/SEMS/xmc4800_evaluation_kit/optiga-trust-m/examples/optiga\example_optiga_crypt_symmetric_encrypt_decrypt.c ****             OPTIGA_EXAMPLE_LOG_STATUS(return_status);
 415:D:/School/diseratie/SEMS/xmc4800_evaluation_kit/optiga-trust-m/examples/optiga\example_optiga_crypt_symmetric_encrypt_decrypt.c ****         }
 416:D:/School/diseratie/SEMS/xmc4800_evaluation_kit/optiga-trust-m/examples/optiga\example_optiga_crypt_symmetric_encrypt_decrypt.c ****     }
 417:D:/School/diseratie/SEMS/xmc4800_evaluation_kit/optiga-trust-m/examples/optiga\example_optiga_crypt_symmetric_encrypt_decrypt.c ****     
 418:D:/School/diseratie/SEMS/xmc4800_evaluation_kit/optiga-trust-m/examples/optiga\example_optiga_crypt_symmetric_encrypt_decrypt.c **** }
 620              	 .loc 1 418 0
 621 0050 16B0     	 add sp,sp,#88
 622              	.LCFI8:
 623              	 .cfi_remember_state
 624              	 .cfi_def_cfa_offset 16
 625              	 
 626 0052 70BD     	 pop {r4,r5,r6,pc}
 627              	.LVL48:
 628              	.L67:
 629              	.LCFI9:
 630              	 .cfi_restore_state
 366:D:/School/diseratie/SEMS/xmc4800_evaluation_kit/optiga-trust-m/examples/optiga\example_optiga_crypt_symmetric_encrypt_decrypt.c ****         
 631              	 .loc 1 366 0
 632 0054 0123     	 movs r3,#1
 633 0056 1F4E     	 ldr r6,.L68+8
 368:D:/School/diseratie/SEMS/xmc4800_evaluation_kit/optiga-trust-m/examples/optiga\example_optiga_crypt_symmetric_encrypt_decrypt.c ****         
 634              	 .loc 1 368 0
 635 0058 1946     	 mov r1,r3
 636 005a 09A8     	 add r0,sp,#36
 637              	.LVL49:
 366:D:/School/diseratie/SEMS/xmc4800_evaluation_kit/optiga-trust-m/examples/optiga\example_optiga_crypt_symmetric_encrypt_decrypt.c ****         
 638              	 .loc 1 366 0
 639 005c 3380     	 strh r3,[r6]
 368:D:/School/diseratie/SEMS/xmc4800_evaluation_kit/optiga-trust-m/examples/optiga\example_optiga_crypt_symmetric_encrypt_decrypt.c ****         
 640              	 .loc 1 368 0
 641 005e FFF7FEFF 	 bl example_performance_measurement
 642              	.LVL50:
 370:D:/School/diseratie/SEMS/xmc4800_evaluation_kit/optiga-trust-m/examples/optiga\example_optiga_crypt_symmetric_encrypt_decrypt.c ****                                                        OPTIGA_SYMMETRIC_CBC,
 643              	 .loc 1 370 0
 644 0062 1020     	 movs r0,#16
 645 0064 0EA9     	 add r1,sp,#56
 646 0066 08AA     	 add r2,sp,#32
 647 0068 0090     	 str r0,[sp]
 648 006a 0591     	 str r1,[sp,#20]
 649 006c 0692     	 str r2,[sp,#24]
 650 006e 0195     	 str r5,[sp,#4]
 651 0070 0295     	 str r5,[sp,#8]
 652 0072 0395     	 str r5,[sp,#12]
 653 0074 0495     	 str r5,[sp,#16]
 654 0076 0AAB     	 add r3,sp,#40
 655 0078 2046     	 mov r0,r4
 656 007a 0921     	 movs r1,#9
 657 007c 4FF46242 	 mov r2,#57856
 658 0080 FFF7FEFF 	 bl optiga_crypt_symmetric_encrypt
 659              	.LVL51:
 382:D:/School/diseratie/SEMS/xmc4800_evaluation_kit/optiga-trust-m/examples/optiga\example_optiga_crypt_symmetric_encrypt_decrypt.c ****        
 660              	 .loc 1 382 0
 661 0084 0028     	 cmp r0,#0
 662 0086 DED1     	 bne .L51
 663              	.L52:
 382:D:/School/diseratie/SEMS/xmc4800_evaluation_kit/optiga-trust-m/examples/optiga\example_optiga_crypt_symmetric_encrypt_decrypt.c ****        
 664              	 .loc 1 382 0 is_stmt 0 discriminator 1
 665 0088 3388     	 ldrh r3,[r6]
 666 008a 124A     	 ldr r2,.L68+8
 667 008c 9BB2     	 uxth r3,r3
 668 008e 012B     	 cmp r3,#1
 669 0090 FAD0     	 beq .L52
 382:D:/School/diseratie/SEMS/xmc4800_evaluation_kit/optiga-trust-m/examples/optiga\example_optiga_crypt_symmetric_encrypt_decrypt.c ****        
 670              	 .loc 1 382 0 discriminator 2
 671 0092 1188     	 ldrh r1,[r2]
 672 0094 89B2     	 uxth r1,r1
 673 0096 79B1     	 cbz r1,.L53
 382:D:/School/diseratie/SEMS/xmc4800_evaluation_kit/optiga-trust-m/examples/optiga\example_optiga_crypt_symmetric_encrypt_decrypt.c ****        
 674              	 .loc 1 382 0 discriminator 3
 675 0098 1588     	 ldrh r5,[r2]
 676 009a ADB2     	 uxth r5,r5
 677              	.LVL52:
 403:D:/School/diseratie/SEMS/xmc4800_evaluation_kit/optiga-trust-m/examples/optiga\example_optiga_crypt_symmetric_encrypt_decrypt.c **** #endif //OPTIGA_INIT_DEINIT_DONE_EXCLUSIVELY
 678              	 .loc 1 403 0 is_stmt 1 discriminator 3
 679 009c FFF7FEFF 	 bl example_optiga_deinit
 680              	.LVL53:
 405:D:/School/diseratie/SEMS/xmc4800_evaluation_kit/optiga-trust-m/examples/optiga\example_optiga_crypt_symmetric_encrypt_decrypt.c ****     
 681              	 .loc 1 405 0 discriminator 3
 682 00a0 002D     	 cmp r5,#0
 683 00a2 D2D1     	 bne .L57
 684              	.LVL54:
 685              	.L54:
 405:D:/School/diseratie/SEMS/xmc4800_evaluation_kit/optiga-trust-m/examples/optiga\example_optiga_crypt_symmetric_encrypt_decrypt.c ****     
 686              	 .loc 1 405 0 is_stmt 0 discriminator 1
 687 00a4 0C49     	 ldr r1,.L68+12
 688 00a6 099A     	 ldr r2,[sp,#36]
 689 00a8 0C48     	 ldr r0,.L68+16
 690 00aa FFF7FEFF 	 bl sprintf
 691              	.LVL55:
 692 00ae CCE7     	 b .L57
 693              	.LVL56:
 694              	.L50:
 403:D:/School/diseratie/SEMS/xmc4800_evaluation_kit/optiga-trust-m/examples/optiga\example_optiga_crypt_symmetric_encrypt_decrypt.c **** #endif //OPTIGA_INIT_DEINIT_DONE_EXCLUSIVELY
 695              	 .loc 1 403 0 is_stmt 1
 696 00b0 FFF7FEFF 	 bl example_optiga_deinit
 697              	.LVL57:
 698              	 .loc 1 418 0
 699 00b4 16B0     	 add sp,sp,#88
 700              	.LCFI10:
 701              	 .cfi_remember_state
 702              	 .cfi_def_cfa_offset 16
 703              	 
 704 00b6 70BD     	 pop {r4,r5,r6,pc}
 705              	.LVL58:
 706              	.L53:
 707              	.LCFI11:
 708              	 .cfi_restore_state
 384:D:/School/diseratie/SEMS/xmc4800_evaluation_kit/optiga-trust-m/examples/optiga\example_optiga_crypt_symmetric_encrypt_decrypt.c ****        
 709              	 .loc 1 384 0
 710 00b8 09A8     	 add r0,sp,#36
 711              	.LVL59:
 712 00ba FFF7FEFF 	 bl example_performance_measurement
 713              	.LVL60:
 386:D:/School/diseratie/SEMS/xmc4800_evaluation_kit/optiga-trust-m/examples/optiga\example_optiga_crypt_symmetric_encrypt_decrypt.c ****         {
 714              	 .loc 1 386 0
 715 00be 089B     	 ldr r3,[sp,#32]
 716 00c0 102B     	 cmp r3,#16
 717 00c2 C0D1     	 bne .L51
 718              	.LVL61:
 403:D:/School/diseratie/SEMS/xmc4800_evaluation_kit/optiga-trust-m/examples/optiga\example_optiga_crypt_symmetric_encrypt_decrypt.c **** #endif //OPTIGA_INIT_DEINIT_DONE_EXCLUSIVELY
 719              	 .loc 1 403 0
 720 00c4 FFF7FEFF 	 bl example_optiga_deinit
 721              	.LVL62:
 722 00c8 ECE7     	 b .L54
 723              	.L69:
 724 00ca 00BF     	 .align 2
 725              	.L68:
 726 00cc 00000000 	 .word .LANCHOR1
 727 00d0 00000000 	 .word optiga_util_crypt_callback
 728 00d4 00000000 	 .word .LANCHOR0
 729 00d8 00000000 	 .word .LC3
 730 00dc 00000000 	 .word performance_buffer_string
 731              	 .cfi_endproc
 732              	.LFE8:
 734              	 .section .rodata
 735              	 .align 2
 736              	 .set .LANCHOR1,.+0
 737              	.LC0:
 738 0000 6B       	 .byte 107
 739 0001 C1       	 .byte -63
 740 0002 BE       	 .byte -66
 741 0003 E2       	 .byte -30
 742 0004 2E       	 .byte 46
 743 0005 40       	 .byte 64
 744 0006 9F       	 .byte -97
 745 0007 96       	 .byte -106
 746 0008 E9       	 .byte -23
 747 0009 3D       	 .byte 61
 748 000a 7E       	 .byte 126
 749 000b 11       	 .byte 17
 750 000c 73       	 .byte 115
 751 000d 93       	 .byte -109
 752 000e 17       	 .byte 23
 753 000f 2A       	 .byte 42
 754              	.LC1:
 755 0010 7C       	 .byte 124
 756 0011 D2       	 .byte -46
 757 0012 CF       	 .byte -49
 758 0013 F3       	 .byte -13
 759 0014 3F       	 .byte 63
 760 0015 51       	 .byte 81
 761 0016 A0       	 .byte -96
 762 0017 A7       	 .byte -89
 763 0018 F0       	 .byte -16
 764 0019 4E       	 .byte 78
 765 001a 8F       	 .byte -113
 766 001b 22       	 .byte 34
 767 001c 84       	 .byte -124
 768 001d A4       	 .byte -92
 769 001e 28       	 .byte 40
 770 001f 3B       	 .byte 59
 771              	.LC2:
 772 0020 5A       	 .byte 90
 773 0021 B0       	 .byte -80
 774 0022 AD       	 .byte -83
 775 0023 D1       	 .byte -47
 776 0024 1D       	 .byte 29
 777 0025 3F       	 .byte 63
 778 0026 8E       	 .byte -114
 779 0027 85       	 .byte -123
 780 0028 D8       	 .byte -40
 781 0029 2C       	 .byte 44
 782 002a 6D       	 .byte 109
 783 002b F1       	 .byte -15
 784 002c 62       	 .byte 98
 785 002d 82       	 .byte -126
 786 002e 06       	 .byte 6
 787 002f 19       	 .byte 25
 788              	 .section .rodata.str1.4,"aMS",%progbits,1
 789              	 .align 2
 790              	.LC3:
 791 0000 4578616D 	 .ascii "Example takes %d msec\000"
 791      706C6520 
 791      74616B65 
 791      73202564 
 791      206D7365 
 792 0016 0000     	 .section .bss.optiga_lib_status,"aw",%nobits
 793              	 .align 1
 794              	 .set .LANCHOR0,.+0
 797              	optiga_lib_status:
 798 0000 0000     	 .space 2
 799              	 .text
 800              	.Letext0:
 801              	 .file 2 "c:\\infineon\\tools\\dave ide\\4.5.0.202105191637\\eclipse\\arm-gcc-49\\arm-none-eabi\\include\\machine\\_default_types.h"
 802              	 .file 3 "c:\\infineon\\tools\\dave ide\\4.5.0.202105191637\\eclipse\\arm-gcc-49\\lib\\gcc\\arm-none-eabi\\4.9.3\\include\\stddef.h"
 803              	 .file 4 "c:\\infineon\\tools\\dave ide\\4.5.0.202105191637\\eclipse\\arm-gcc-49\\arm-none-eabi\\include\\stdint.h"
 804              	 .file 5 "D:/School/diseratie/SEMS/xmc4800_evaluation_kit/optiga-trust-m/optiga/include/optiga/common/optiga_lib_types.h"
 805              	 .file 6 "D:/School/diseratie/SEMS/xmc4800_evaluation_kit/optiga-trust-m/optiga/include/optiga/common/optiga_lib_common.h"
 806              	 .file 7 "D:/School/diseratie/SEMS/xmc4800_evaluation_kit/optiga-trust-m/optiga/include/optiga/cmd/optiga_cmd.h"
 807              	 .file 8 "D:/School/diseratie/SEMS/xmc4800_evaluation_kit/optiga-trust-m/optiga/include/optiga/optiga_crypt.h"
 808              	 .file 9 "c:\\infineon\\tools\\dave ide\\4.5.0.202105191637\\eclipse\\arm-gcc-49\\arm-none-eabi\\include\\string.h"
 809              	 .file 10 "c:\\infineon\\tools\\dave ide\\4.5.0.202105191637\\eclipse\\arm-gcc-49\\arm-none-eabi\\include\\stdio.h"
 810              	 .file 11 "D:/School/diseratie/SEMS/xmc4800_evaluation_kit/optiga-trust-m/examples/optiga/include/optiga_example.h"