   1              	 .syntax unified
   2              	 .cpu cortex-m4
   3              	 .eabi_attribute 27,3
   4              	 .fpu fpv4-sp-d16
   5              	 .eabi_attribute 20,1
   6              	 .eabi_attribute 21,1
   7              	 .eabi_attribute 23,3
   8              	 .eabi_attribute 24,1
   9              	 .eabi_attribute 25,1
  10              	 .eabi_attribute 26,1
  11              	 .eabi_attribute 30,2
  12              	 .eabi_attribute 34,1
  13              	 .eabi_attribute 18,4
  14              	 .thumb
  15              	 .file "example_optiga_crypt_ecc_generate_keypair.c"
  16              	 .text
  17              	.Ltext0:
  18              	 .cfi_sections .debug_frame
  19              	 .section .text.optiga_crypt_callback,"ax",%progbits
  20              	 .align 2
  21              	 .thumb
  22              	 .thumb_func
  24              	optiga_crypt_callback:
  25              	.LFB1:
  26              	 .file 1 "D:/School/diseratie/SEMS/xmc4800_evaluation_kit/optiga-trust-m/examples/optiga/example_optiga_crypt_ecc_generate_keypair.c"
   1:D:/School/diseratie/SEMS/xmc4800_evaluation_kit/optiga-trust-m/examples/optiga\example_optiga_crypt_ecc_generate_keypair.c **** /**
   2:D:/School/diseratie/SEMS/xmc4800_evaluation_kit/optiga-trust-m/examples/optiga\example_optiga_crypt_ecc_generate_keypair.c **** * \copyright
   3:D:/School/diseratie/SEMS/xmc4800_evaluation_kit/optiga-trust-m/examples/optiga\example_optiga_crypt_ecc_generate_keypair.c **** * MIT License
   4:D:/School/diseratie/SEMS/xmc4800_evaluation_kit/optiga-trust-m/examples/optiga\example_optiga_crypt_ecc_generate_keypair.c **** *
   5:D:/School/diseratie/SEMS/xmc4800_evaluation_kit/optiga-trust-m/examples/optiga\example_optiga_crypt_ecc_generate_keypair.c **** * Copyright (c) 2020 Infineon Technologies AG
   6:D:/School/diseratie/SEMS/xmc4800_evaluation_kit/optiga-trust-m/examples/optiga\example_optiga_crypt_ecc_generate_keypair.c **** *
   7:D:/School/diseratie/SEMS/xmc4800_evaluation_kit/optiga-trust-m/examples/optiga\example_optiga_crypt_ecc_generate_keypair.c **** * Permission is hereby granted, free of charge, to any person obtaining a copy
   8:D:/School/diseratie/SEMS/xmc4800_evaluation_kit/optiga-trust-m/examples/optiga\example_optiga_crypt_ecc_generate_keypair.c **** * of this software and associated documentation files (the "Software"), to deal
   9:D:/School/diseratie/SEMS/xmc4800_evaluation_kit/optiga-trust-m/examples/optiga\example_optiga_crypt_ecc_generate_keypair.c **** * in the Software without restriction, including without limitation the rights
  10:D:/School/diseratie/SEMS/xmc4800_evaluation_kit/optiga-trust-m/examples/optiga\example_optiga_crypt_ecc_generate_keypair.c **** * to use, copy, modify, merge, publish, distribute, sublicense, and/or sell
  11:D:/School/diseratie/SEMS/xmc4800_evaluation_kit/optiga-trust-m/examples/optiga\example_optiga_crypt_ecc_generate_keypair.c **** * copies of the Software, and to permit persons to whom the Software is
  12:D:/School/diseratie/SEMS/xmc4800_evaluation_kit/optiga-trust-m/examples/optiga\example_optiga_crypt_ecc_generate_keypair.c **** * furnished to do so, subject to the following conditions:
  13:D:/School/diseratie/SEMS/xmc4800_evaluation_kit/optiga-trust-m/examples/optiga\example_optiga_crypt_ecc_generate_keypair.c **** *
  14:D:/School/diseratie/SEMS/xmc4800_evaluation_kit/optiga-trust-m/examples/optiga\example_optiga_crypt_ecc_generate_keypair.c **** * The above copyright notice and this permission notice shall be included in all
  15:D:/School/diseratie/SEMS/xmc4800_evaluation_kit/optiga-trust-m/examples/optiga\example_optiga_crypt_ecc_generate_keypair.c **** * copies or substantial portions of the Software.
  16:D:/School/diseratie/SEMS/xmc4800_evaluation_kit/optiga-trust-m/examples/optiga\example_optiga_crypt_ecc_generate_keypair.c **** *
  17:D:/School/diseratie/SEMS/xmc4800_evaluation_kit/optiga-trust-m/examples/optiga\example_optiga_crypt_ecc_generate_keypair.c **** * THE SOFTWARE IS PROVIDED "AS IS", WITHOUT WARRANTY OF ANY KIND, EXPRESS OR
  18:D:/School/diseratie/SEMS/xmc4800_evaluation_kit/optiga-trust-m/examples/optiga\example_optiga_crypt_ecc_generate_keypair.c **** * IMPLIED, INCLUDING BUT NOT LIMITED TO THE WARRANTIES OF MERCHANTABILITY,
  19:D:/School/diseratie/SEMS/xmc4800_evaluation_kit/optiga-trust-m/examples/optiga\example_optiga_crypt_ecc_generate_keypair.c **** * FITNESS FOR A PARTICULAR PURPOSE AND NONINFRINGEMENT. IN NO EVENT SHALL THE
  20:D:/School/diseratie/SEMS/xmc4800_evaluation_kit/optiga-trust-m/examples/optiga\example_optiga_crypt_ecc_generate_keypair.c **** * AUTHORS OR COPYRIGHT HOLDERS BE LIABLE FOR ANY CLAIM, DAMAGES OR OTHER
  21:D:/School/diseratie/SEMS/xmc4800_evaluation_kit/optiga-trust-m/examples/optiga\example_optiga_crypt_ecc_generate_keypair.c **** * LIABILITY, WHETHER IN AN ACTION OF CONTRACT, TORT OR OTHERWISE, ARISING FROM,
  22:D:/School/diseratie/SEMS/xmc4800_evaluation_kit/optiga-trust-m/examples/optiga\example_optiga_crypt_ecc_generate_keypair.c **** * OUT OF OR IN CONNECTION WITH THE SOFTWARE OR THE USE OR OTHER DEALINGS IN THE
  23:D:/School/diseratie/SEMS/xmc4800_evaluation_kit/optiga-trust-m/examples/optiga\example_optiga_crypt_ecc_generate_keypair.c **** * SOFTWARE
  24:D:/School/diseratie/SEMS/xmc4800_evaluation_kit/optiga-trust-m/examples/optiga\example_optiga_crypt_ecc_generate_keypair.c **** *
  25:D:/School/diseratie/SEMS/xmc4800_evaluation_kit/optiga-trust-m/examples/optiga\example_optiga_crypt_ecc_generate_keypair.c **** * \endcopyright
  26:D:/School/diseratie/SEMS/xmc4800_evaluation_kit/optiga-trust-m/examples/optiga\example_optiga_crypt_ecc_generate_keypair.c **** *
  27:D:/School/diseratie/SEMS/xmc4800_evaluation_kit/optiga-trust-m/examples/optiga\example_optiga_crypt_ecc_generate_keypair.c **** * \author Infineon Technologies AG
  28:D:/School/diseratie/SEMS/xmc4800_evaluation_kit/optiga-trust-m/examples/optiga\example_optiga_crypt_ecc_generate_keypair.c **** *
  29:D:/School/diseratie/SEMS/xmc4800_evaluation_kit/optiga-trust-m/examples/optiga\example_optiga_crypt_ecc_generate_keypair.c **** * \file example_optiga_crypt_ecc_generate_keypair.c
  30:D:/School/diseratie/SEMS/xmc4800_evaluation_kit/optiga-trust-m/examples/optiga\example_optiga_crypt_ecc_generate_keypair.c **** *
  31:D:/School/diseratie/SEMS/xmc4800_evaluation_kit/optiga-trust-m/examples/optiga\example_optiga_crypt_ecc_generate_keypair.c **** * \brief   This file provides the example for generation of ecc keypair using
  32:D:/School/diseratie/SEMS/xmc4800_evaluation_kit/optiga-trust-m/examples/optiga\example_optiga_crypt_ecc_generate_keypair.c **** *          optiga_crypt_ecc_generate_keypair.
  33:D:/School/diseratie/SEMS/xmc4800_evaluation_kit/optiga-trust-m/examples/optiga\example_optiga_crypt_ecc_generate_keypair.c **** *
  34:D:/School/diseratie/SEMS/xmc4800_evaluation_kit/optiga-trust-m/examples/optiga\example_optiga_crypt_ecc_generate_keypair.c **** * \ingroup grOptigaExamples
  35:D:/School/diseratie/SEMS/xmc4800_evaluation_kit/optiga-trust-m/examples/optiga\example_optiga_crypt_ecc_generate_keypair.c **** *
  36:D:/School/diseratie/SEMS/xmc4800_evaluation_kit/optiga-trust-m/examples/optiga\example_optiga_crypt_ecc_generate_keypair.c **** * @{
  37:D:/School/diseratie/SEMS/xmc4800_evaluation_kit/optiga-trust-m/examples/optiga\example_optiga_crypt_ecc_generate_keypair.c **** */
  38:D:/School/diseratie/SEMS/xmc4800_evaluation_kit/optiga-trust-m/examples/optiga\example_optiga_crypt_ecc_generate_keypair.c **** #include "optiga/optiga_util.h"
  39:D:/School/diseratie/SEMS/xmc4800_evaluation_kit/optiga-trust-m/examples/optiga\example_optiga_crypt_ecc_generate_keypair.c **** #include "optiga/optiga_crypt.h"
  40:D:/School/diseratie/SEMS/xmc4800_evaluation_kit/optiga-trust-m/examples/optiga\example_optiga_crypt_ecc_generate_keypair.c **** #include "optiga_example.h"
  41:D:/School/diseratie/SEMS/xmc4800_evaluation_kit/optiga-trust-m/examples/optiga\example_optiga_crypt_ecc_generate_keypair.c **** 
  42:D:/School/diseratie/SEMS/xmc4800_evaluation_kit/optiga-trust-m/examples/optiga\example_optiga_crypt_ecc_generate_keypair.c **** #ifdef OPTIGA_CRYPT_ECC_GENERATE_KEYPAIR_ENABLED
  43:D:/School/diseratie/SEMS/xmc4800_evaluation_kit/optiga-trust-m/examples/optiga\example_optiga_crypt_ecc_generate_keypair.c **** 
  44:D:/School/diseratie/SEMS/xmc4800_evaluation_kit/optiga-trust-m/examples/optiga\example_optiga_crypt_ecc_generate_keypair.c **** #ifndef OPTIGA_INIT_DEINIT_DONE_EXCLUSIVELY
  45:D:/School/diseratie/SEMS/xmc4800_evaluation_kit/optiga-trust-m/examples/optiga\example_optiga_crypt_ecc_generate_keypair.c **** extern void example_optiga_init(void);
  46:D:/School/diseratie/SEMS/xmc4800_evaluation_kit/optiga-trust-m/examples/optiga\example_optiga_crypt_ecc_generate_keypair.c **** extern void example_optiga_deinit(void);
  47:D:/School/diseratie/SEMS/xmc4800_evaluation_kit/optiga-trust-m/examples/optiga\example_optiga_crypt_ecc_generate_keypair.c **** #endif
  48:D:/School/diseratie/SEMS/xmc4800_evaluation_kit/optiga-trust-m/examples/optiga\example_optiga_crypt_ecc_generate_keypair.c **** 
  49:D:/School/diseratie/SEMS/xmc4800_evaluation_kit/optiga-trust-m/examples/optiga\example_optiga_crypt_ecc_generate_keypair.c **** /**
  50:D:/School/diseratie/SEMS/xmc4800_evaluation_kit/optiga-trust-m/examples/optiga\example_optiga_crypt_ecc_generate_keypair.c ****  * Callback when optiga_crypt_xxxx operation is completed asynchronously
  51:D:/School/diseratie/SEMS/xmc4800_evaluation_kit/optiga-trust-m/examples/optiga\example_optiga_crypt_ecc_generate_keypair.c ****  */
  52:D:/School/diseratie/SEMS/xmc4800_evaluation_kit/optiga-trust-m/examples/optiga\example_optiga_crypt_ecc_generate_keypair.c **** static volatile optiga_lib_status_t optiga_lib_status;
  53:D:/School/diseratie/SEMS/xmc4800_evaluation_kit/optiga-trust-m/examples/optiga\example_optiga_crypt_ecc_generate_keypair.c **** //lint --e{818} suppress "argument "context" is not used in the sample provided"
  54:D:/School/diseratie/SEMS/xmc4800_evaluation_kit/optiga-trust-m/examples/optiga\example_optiga_crypt_ecc_generate_keypair.c **** static void optiga_crypt_callback(void * context, optiga_lib_status_t return_status)
  55:D:/School/diseratie/SEMS/xmc4800_evaluation_kit/optiga-trust-m/examples/optiga\example_optiga_crypt_ecc_generate_keypair.c **** {
  27              	 .loc 1 55 0
  28              	 .cfi_startproc
  29              	 
  30              	 
  31              	 
  32              	.LVL0:
  56:D:/School/diseratie/SEMS/xmc4800_evaluation_kit/optiga-trust-m/examples/optiga\example_optiga_crypt_ecc_generate_keypair.c ****     optiga_lib_status = return_status;
  33              	 .loc 1 56 0
  34 0000 014B     	 ldr r3,.L2
  35 0002 1980     	 strh r1,[r3]
  36 0004 7047     	 bx lr
  37              	.L3:
  38 0006 00BF     	 .align 2
  39              	.L2:
  40 0008 00000000 	 .word .LANCHOR0
  41              	 .cfi_endproc
  42              	.LFE1:
  44              	 .section .text.optiga_util_callback,"ax",%progbits
  45              	 .align 2
  46              	 .thumb
  47              	 .thumb_func
  49              	optiga_util_callback:
  50              	.LFB2:
  57:D:/School/diseratie/SEMS/xmc4800_evaluation_kit/optiga-trust-m/examples/optiga\example_optiga_crypt_ecc_generate_keypair.c ****     if (NULL != context)
  58:D:/School/diseratie/SEMS/xmc4800_evaluation_kit/optiga-trust-m/examples/optiga\example_optiga_crypt_ecc_generate_keypair.c ****     {
  59:D:/School/diseratie/SEMS/xmc4800_evaluation_kit/optiga-trust-m/examples/optiga\example_optiga_crypt_ecc_generate_keypair.c ****         // callback to upper layer here
  60:D:/School/diseratie/SEMS/xmc4800_evaluation_kit/optiga-trust-m/examples/optiga\example_optiga_crypt_ecc_generate_keypair.c ****     }
  61:D:/School/diseratie/SEMS/xmc4800_evaluation_kit/optiga-trust-m/examples/optiga\example_optiga_crypt_ecc_generate_keypair.c **** }
  62:D:/School/diseratie/SEMS/xmc4800_evaluation_kit/optiga-trust-m/examples/optiga\example_optiga_crypt_ecc_generate_keypair.c **** //lint --e{818} suppress "argument "context" is not used in the sample provided"
  63:D:/School/diseratie/SEMS/xmc4800_evaluation_kit/optiga-trust-m/examples/optiga\example_optiga_crypt_ecc_generate_keypair.c **** static void optiga_util_callback(void * context, optiga_lib_status_t return_status)
  64:D:/School/diseratie/SEMS/xmc4800_evaluation_kit/optiga-trust-m/examples/optiga\example_optiga_crypt_ecc_generate_keypair.c **** {
  51              	 .loc 1 64 0
  52              	 .cfi_startproc
  53              	 
  54              	 
  55              	 
  56              	.LVL1:
  65:D:/School/diseratie/SEMS/xmc4800_evaluation_kit/optiga-trust-m/examples/optiga\example_optiga_crypt_ecc_generate_keypair.c ****     optiga_lib_status = return_status;
  57              	 .loc 1 65 0
  58 0000 014B     	 ldr r3,.L5
  59 0002 1980     	 strh r1,[r3]
  60 0004 7047     	 bx lr
  61              	.L6:
  62 0006 00BF     	 .align 2
  63              	.L5:
  64 0008 00000000 	 .word .LANCHOR0
  65              	 .cfi_endproc
  66              	.LFE2:
  68              	 .section .text.example_optiga_crypt_ecc_generate_keypair,"ax",%progbits
  69              	 .align 2
  70              	 .global example_optiga_crypt_ecc_generate_keypair
  71              	 .thumb
  72              	 .thumb_func
  74              	example_optiga_crypt_ecc_generate_keypair:
  75              	.LFB3:
  66:D:/School/diseratie/SEMS/xmc4800_evaluation_kit/optiga-trust-m/examples/optiga\example_optiga_crypt_ecc_generate_keypair.c ****     if (NULL != context)
  67:D:/School/diseratie/SEMS/xmc4800_evaluation_kit/optiga-trust-m/examples/optiga\example_optiga_crypt_ecc_generate_keypair.c ****     {
  68:D:/School/diseratie/SEMS/xmc4800_evaluation_kit/optiga-trust-m/examples/optiga\example_optiga_crypt_ecc_generate_keypair.c ****         // callback to upper layer here
  69:D:/School/diseratie/SEMS/xmc4800_evaluation_kit/optiga-trust-m/examples/optiga\example_optiga_crypt_ecc_generate_keypair.c ****     }
  70:D:/School/diseratie/SEMS/xmc4800_evaluation_kit/optiga-trust-m/examples/optiga\example_optiga_crypt_ecc_generate_keypair.c **** }
  71:D:/School/diseratie/SEMS/xmc4800_evaluation_kit/optiga-trust-m/examples/optiga\example_optiga_crypt_ecc_generate_keypair.c **** /**
  72:D:/School/diseratie/SEMS/xmc4800_evaluation_kit/optiga-trust-m/examples/optiga\example_optiga_crypt_ecc_generate_keypair.c ****  * Sample metadata of 0xE0F1 
  73:D:/School/diseratie/SEMS/xmc4800_evaluation_kit/optiga-trust-m/examples/optiga\example_optiga_crypt_ecc_generate_keypair.c ****  */
  74:D:/School/diseratie/SEMS/xmc4800_evaluation_kit/optiga-trust-m/examples/optiga\example_optiga_crypt_ecc_generate_keypair.c **** const uint8_t E0F1_metadata[] = { 0x20, 0x06, 0xD0, 0x01, 0x00, 0xD3, 0x01, 0x00 };
  75:D:/School/diseratie/SEMS/xmc4800_evaluation_kit/optiga-trust-m/examples/optiga\example_optiga_crypt_ecc_generate_keypair.c **** 
  76:D:/School/diseratie/SEMS/xmc4800_evaluation_kit/optiga-trust-m/examples/optiga\example_optiga_crypt_ecc_generate_keypair.c **** /**
  77:D:/School/diseratie/SEMS/xmc4800_evaluation_kit/optiga-trust-m/examples/optiga\example_optiga_crypt_ecc_generate_keypair.c ****  * The below example demonstrates the generation of
  78:D:/School/diseratie/SEMS/xmc4800_evaluation_kit/optiga-trust-m/examples/optiga\example_optiga_crypt_ecc_generate_keypair.c ****  * ECC Key pair using #optiga_crypt_ecc_generate_keypair.
  79:D:/School/diseratie/SEMS/xmc4800_evaluation_kit/optiga-trust-m/examples/optiga\example_optiga_crypt_ecc_generate_keypair.c ****  *
  80:D:/School/diseratie/SEMS/xmc4800_evaluation_kit/optiga-trust-m/examples/optiga\example_optiga_crypt_ecc_generate_keypair.c ****  */
  81:D:/School/diseratie/SEMS/xmc4800_evaluation_kit/optiga-trust-m/examples/optiga\example_optiga_crypt_ecc_generate_keypair.c **** void example_optiga_crypt_ecc_generate_keypair(void)
  82:D:/School/diseratie/SEMS/xmc4800_evaluation_kit/optiga-trust-m/examples/optiga\example_optiga_crypt_ecc_generate_keypair.c **** {
  76              	 .loc 1 82 0
  77              	 .cfi_startproc
  78              	 
  79              	 
  80              	.LVL2:
  81 0000 2DE9F041 	 push {r4,r5,r6,r7,r8,lr}
  82              	.LCFI0:
  83              	 .cfi_def_cfa_offset 24
  84              	 .cfi_offset 4,-24
  85              	 .cfi_offset 5,-20
  86              	 .cfi_offset 6,-16
  87              	 .cfi_offset 7,-12
  88              	 .cfi_offset 8,-8
  89              	 .cfi_offset 14,-4
  90 0004 A0B0     	 sub sp,sp,#128
  91              	.LCFI1:
  92              	 .cfi_def_cfa_offset 152
  83:D:/School/diseratie/SEMS/xmc4800_evaluation_kit/optiga-trust-m/examples/optiga\example_optiga_crypt_ecc_generate_keypair.c ****     optiga_lib_status_t return_status = !OPTIGA_LIB_SUCCESS;
  84:D:/School/diseratie/SEMS/xmc4800_evaluation_kit/optiga-trust-m/examples/optiga\example_optiga_crypt_ecc_generate_keypair.c ****     optiga_key_id_t optiga_key_id;
  85:D:/School/diseratie/SEMS/xmc4800_evaluation_kit/optiga-trust-m/examples/optiga\example_optiga_crypt_ecc_generate_keypair.c ****     uint32_t time_taken = 0;
  93              	 .loc 1 85 0
  94 0006 0024     	 movs r4,#0
  86:D:/School/diseratie/SEMS/xmc4800_evaluation_kit/optiga-trust-m/examples/optiga\example_optiga_crypt_ecc_generate_keypair.c ****     //To store the generated public key as part of Generate key pair
  87:D:/School/diseratie/SEMS/xmc4800_evaluation_kit/optiga-trust-m/examples/optiga\example_optiga_crypt_ecc_generate_keypair.c ****     uint8_t public_key [100];
  88:D:/School/diseratie/SEMS/xmc4800_evaluation_kit/optiga-trust-m/examples/optiga\example_optiga_crypt_ecc_generate_keypair.c ****     uint16_t public_key_length = sizeof(public_key);
  95              	 .loc 1 88 0
  96 0008 6423     	 movs r3,#100
  97 000a ADF81630 	 strh r3,[sp,#22]
  98              	.LVL3:
  85:D:/School/diseratie/SEMS/xmc4800_evaluation_kit/optiga-trust-m/examples/optiga\example_optiga_crypt_ecc_generate_keypair.c ****     //To store the generated public key as part of Generate key pair
  99              	 .loc 1 85 0
 100 000e 0694     	 str r4,[sp,#24]
  89:D:/School/diseratie/SEMS/xmc4800_evaluation_kit/optiga-trust-m/examples/optiga\example_optiga_crypt_ecc_generate_keypair.c ****     uint16_t optiga_oid;
  90:D:/School/diseratie/SEMS/xmc4800_evaluation_kit/optiga-trust-m/examples/optiga\example_optiga_crypt_ecc_generate_keypair.c ****     
  91:D:/School/diseratie/SEMS/xmc4800_evaluation_kit/optiga-trust-m/examples/optiga\example_optiga_crypt_ecc_generate_keypair.c ****     optiga_crypt_t * crypt_me = NULL;
  92:D:/School/diseratie/SEMS/xmc4800_evaluation_kit/optiga-trust-m/examples/optiga\example_optiga_crypt_ecc_generate_keypair.c ****     optiga_util_t * util_me = NULL;    
  93:D:/School/diseratie/SEMS/xmc4800_evaluation_kit/optiga-trust-m/examples/optiga\example_optiga_crypt_ecc_generate_keypair.c **** 
  94:D:/School/diseratie/SEMS/xmc4800_evaluation_kit/optiga-trust-m/examples/optiga\example_optiga_crypt_ecc_generate_keypair.c ****     do
  95:D:/School/diseratie/SEMS/xmc4800_evaluation_kit/optiga-trust-m/examples/optiga\example_optiga_crypt_ecc_generate_keypair.c ****     {
  96:D:/School/diseratie/SEMS/xmc4800_evaluation_kit/optiga-trust-m/examples/optiga\example_optiga_crypt_ecc_generate_keypair.c ****         
  97:D:/School/diseratie/SEMS/xmc4800_evaluation_kit/optiga-trust-m/examples/optiga\example_optiga_crypt_ecc_generate_keypair.c **** #ifndef OPTIGA_INIT_DEINIT_DONE_EXCLUSIVELY
  98:D:/School/diseratie/SEMS/xmc4800_evaluation_kit/optiga-trust-m/examples/optiga\example_optiga_crypt_ecc_generate_keypair.c ****         /**
  99:D:/School/diseratie/SEMS/xmc4800_evaluation_kit/optiga-trust-m/examples/optiga\example_optiga_crypt_ecc_generate_keypair.c ****          * Open the application on OPTIGA which is a precondition to perform any other operations
 100:D:/School/diseratie/SEMS/xmc4800_evaluation_kit/optiga-trust-m/examples/optiga\example_optiga_crypt_ecc_generate_keypair.c ****          * using optiga_util_open_application
 101:D:/School/diseratie/SEMS/xmc4800_evaluation_kit/optiga-trust-m/examples/optiga\example_optiga_crypt_ecc_generate_keypair.c ****          */
 102:D:/School/diseratie/SEMS/xmc4800_evaluation_kit/optiga-trust-m/examples/optiga\example_optiga_crypt_ecc_generate_keypair.c ****         example_optiga_init();
 101              	 .loc 1 102 0
 102 0010 FFF7FEFF 	 bl example_optiga_init
 103              	.LVL4:
 103:D:/School/diseratie/SEMS/xmc4800_evaluation_kit/optiga-trust-m/examples/optiga\example_optiga_crypt_ecc_generate_keypair.c **** #endif //OPTIGA_INIT_DEINIT_DONE_EXCLUSIVELY
 104:D:/School/diseratie/SEMS/xmc4800_evaluation_kit/optiga-trust-m/examples/optiga\example_optiga_crypt_ecc_generate_keypair.c ****         
 105:D:/School/diseratie/SEMS/xmc4800_evaluation_kit/optiga-trust-m/examples/optiga\example_optiga_crypt_ecc_generate_keypair.c ****         OPTIGA_EXAMPLE_LOG_MESSAGE(__FUNCTION__);
 106:D:/School/diseratie/SEMS/xmc4800_evaluation_kit/optiga-trust-m/examples/optiga\example_optiga_crypt_ecc_generate_keypair.c ****         /**
 107:D:/School/diseratie/SEMS/xmc4800_evaluation_kit/optiga-trust-m/examples/optiga\example_optiga_crypt_ecc_generate_keypair.c ****          * 1. Create OPTIGA Crypt Instance
 108:D:/School/diseratie/SEMS/xmc4800_evaluation_kit/optiga-trust-m/examples/optiga\example_optiga_crypt_ecc_generate_keypair.c ****          */
 109:D:/School/diseratie/SEMS/xmc4800_evaluation_kit/optiga-trust-m/examples/optiga\example_optiga_crypt_ecc_generate_keypair.c ****         crypt_me = optiga_crypt_create(0, optiga_crypt_callback, NULL);
 104              	 .loc 1 109 0
 105 0014 2046     	 mov r0,r4
 106 0016 2246     	 mov r2,r4
 107 0018 3949     	 ldr r1,.L26
 108 001a FFF7FEFF 	 bl optiga_crypt_create
 109              	.LVL5:
 110:D:/School/diseratie/SEMS/xmc4800_evaluation_kit/optiga-trust-m/examples/optiga\example_optiga_crypt_ecc_generate_keypair.c ****         if (NULL == crypt_me)
 110              	 .loc 1 110 0
 111 001e 0646     	 mov r6,r0
 112 0020 0028     	 cmp r0,#0
 113 0022 3BD0     	 beq .L8
 111:D:/School/diseratie/SEMS/xmc4800_evaluation_kit/optiga-trust-m/examples/optiga\example_optiga_crypt_ecc_generate_keypair.c ****         {
 112:D:/School/diseratie/SEMS/xmc4800_evaluation_kit/optiga-trust-m/examples/optiga\example_optiga_crypt_ecc_generate_keypair.c ****             break;
 113:D:/School/diseratie/SEMS/xmc4800_evaluation_kit/optiga-trust-m/examples/optiga\example_optiga_crypt_ecc_generate_keypair.c ****         }
 114:D:/School/diseratie/SEMS/xmc4800_evaluation_kit/optiga-trust-m/examples/optiga\example_optiga_crypt_ecc_generate_keypair.c **** 
 115:D:/School/diseratie/SEMS/xmc4800_evaluation_kit/optiga-trust-m/examples/optiga\example_optiga_crypt_ecc_generate_keypair.c ****         util_me = optiga_util_create(0, optiga_util_callback, NULL);
 114              	 .loc 1 115 0
 115 0024 2046     	 mov r0,r4
 116              	.LVL6:
 117 0026 2246     	 mov r2,r4
 118 0028 3649     	 ldr r1,.L26+4
 119 002a FFF7FEFF 	 bl optiga_util_create
 120              	.LVL7:
 116:D:/School/diseratie/SEMS/xmc4800_evaluation_kit/optiga-trust-m/examples/optiga\example_optiga_crypt_ecc_generate_keypair.c ****         if (NULL == util_me)
 121              	 .loc 1 116 0
 122 002e 0746     	 mov r7,r0
 123 0030 60B3     	 cbz r0,.L9
 117:D:/School/diseratie/SEMS/xmc4800_evaluation_kit/optiga-trust-m/examples/optiga\example_optiga_crypt_ecc_generate_keypair.c ****         {
 118:D:/School/diseratie/SEMS/xmc4800_evaluation_kit/optiga-trust-m/examples/optiga\example_optiga_crypt_ecc_generate_keypair.c ****             break;
 119:D:/School/diseratie/SEMS/xmc4800_evaluation_kit/optiga-trust-m/examples/optiga\example_optiga_crypt_ecc_generate_keypair.c ****         }
 120:D:/School/diseratie/SEMS/xmc4800_evaluation_kit/optiga-trust-m/examples/optiga\example_optiga_crypt_ecc_generate_keypair.c ****         
 121:D:/School/diseratie/SEMS/xmc4800_evaluation_kit/optiga-trust-m/examples/optiga\example_optiga_crypt_ecc_generate_keypair.c ****         optiga_lib_status = OPTIGA_LIB_BUSY;
 124              	 .loc 1 121 0
 125 0032 354C     	 ldr r4,.L26+8
 122:D:/School/diseratie/SEMS/xmc4800_evaluation_kit/optiga-trust-m/examples/optiga\example_optiga_crypt_ecc_generate_keypair.c ****         optiga_oid = 0xE0F1;
 123:D:/School/diseratie/SEMS/xmc4800_evaluation_kit/optiga-trust-m/examples/optiga\example_optiga_crypt_ecc_generate_keypair.c ****         return_status = optiga_util_write_metadata(util_me,
 126              	 .loc 1 123 0
 127 0034 354A     	 ldr r2,.L26+12
 121:D:/School/diseratie/SEMS/xmc4800_evaluation_kit/optiga-trust-m/examples/optiga\example_optiga_crypt_ecc_generate_keypair.c ****         optiga_oid = 0xE0F1;
 128              	 .loc 1 121 0
 129 0036 0125     	 movs r5,#1
 130              	 .loc 1 123 0
 131 0038 4EF2F101 	 movw r1,#57585
 132 003c 0823     	 movs r3,#8
 121:D:/School/diseratie/SEMS/xmc4800_evaluation_kit/optiga-trust-m/examples/optiga\example_optiga_crypt_ecc_generate_keypair.c ****         optiga_oid = 0xE0F1;
 133              	 .loc 1 121 0
 134 003e 2580     	 strh r5,[r4]
 135              	.LVL8:
 136              	 .loc 1 123 0
 137 0040 FFF7FEFF 	 bl optiga_util_write_metadata
 138              	.LVL9:
 124:D:/School/diseratie/SEMS/xmc4800_evaluation_kit/optiga-trust-m/examples/optiga\example_optiga_crypt_ecc_generate_keypair.c ****                                                    optiga_oid,
 125:D:/School/diseratie/SEMS/xmc4800_evaluation_kit/optiga-trust-m/examples/optiga\example_optiga_crypt_ecc_generate_keypair.c ****                                                    E0F1_metadata,
 126:D:/School/diseratie/SEMS/xmc4800_evaluation_kit/optiga-trust-m/examples/optiga\example_optiga_crypt_ecc_generate_keypair.c ****                                                    sizeof(E0F1_metadata));
 127:D:/School/diseratie/SEMS/xmc4800_evaluation_kit/optiga-trust-m/examples/optiga\example_optiga_crypt_ecc_generate_keypair.c **** 
 128:D:/School/diseratie/SEMS/xmc4800_evaluation_kit/optiga-trust-m/examples/optiga\example_optiga_crypt_ecc_generate_keypair.c ****         WAIT_AND_CHECK_STATUS(return_status, optiga_lib_status);
 139              	 .loc 1 128 0
 140 0044 50B1     	 cbz r0,.L11
 141              	.L10:
 142              	.LVL10:
 129:D:/School/diseratie/SEMS/xmc4800_evaluation_kit/optiga-trust-m/examples/optiga\example_optiga_crypt_ecc_generate_keypair.c ****         
 130:D:/School/diseratie/SEMS/xmc4800_evaluation_kit/optiga-trust-m/examples/optiga\example_optiga_crypt_ecc_generate_keypair.c ****         START_PERFORMANCE_MEASUREMENT(time_taken);
 131:D:/School/diseratie/SEMS/xmc4800_evaluation_kit/optiga-trust-m/examples/optiga\example_optiga_crypt_ecc_generate_keypair.c ****         
 132:D:/School/diseratie/SEMS/xmc4800_evaluation_kit/optiga-trust-m/examples/optiga\example_optiga_crypt_ecc_generate_keypair.c ****         /**
 133:D:/School/diseratie/SEMS/xmc4800_evaluation_kit/optiga-trust-m/examples/optiga\example_optiga_crypt_ecc_generate_keypair.c ****          * 2. Generate ECC Key pair
 134:D:/School/diseratie/SEMS/xmc4800_evaluation_kit/optiga-trust-m/examples/optiga\example_optiga_crypt_ecc_generate_keypair.c ****          *       - Use ECC NIST P 256 Curve
 135:D:/School/diseratie/SEMS/xmc4800_evaluation_kit/optiga-trust-m/examples/optiga\example_optiga_crypt_ecc_generate_keypair.c ****          *       - Specify the Key Usage (Key Agreement or Sign based on requirement)
 136:D:/School/diseratie/SEMS/xmc4800_evaluation_kit/optiga-trust-m/examples/optiga\example_optiga_crypt_ecc_generate_keypair.c ****          *       - Store the Private key in OPTIGA Key store
 137:D:/School/diseratie/SEMS/xmc4800_evaluation_kit/optiga-trust-m/examples/optiga\example_optiga_crypt_ecc_generate_keypair.c ****          *       - Export Public Key
 138:D:/School/diseratie/SEMS/xmc4800_evaluation_kit/optiga-trust-m/examples/optiga\example_optiga_crypt_ecc_generate_keypair.c ****          */
 139:D:/School/diseratie/SEMS/xmc4800_evaluation_kit/optiga-trust-m/examples/optiga\example_optiga_crypt_ecc_generate_keypair.c ****         optiga_lib_status = OPTIGA_LIB_BUSY;
 140:D:/School/diseratie/SEMS/xmc4800_evaluation_kit/optiga-trust-m/examples/optiga\example_optiga_crypt_ecc_generate_keypair.c ****         optiga_key_id = OPTIGA_KEY_ID_E0F1;
 141:D:/School/diseratie/SEMS/xmc4800_evaluation_kit/optiga-trust-m/examples/optiga\example_optiga_crypt_ecc_generate_keypair.c ****         //for Session based, use OPTIGA_KEY_ID_SESSION_BASED as key id as shown below.
 142:D:/School/diseratie/SEMS/xmc4800_evaluation_kit/optiga-trust-m/examples/optiga\example_optiga_crypt_ecc_generate_keypair.c ****         //optiga_key_id = OPTIGA_KEY_ID_SESSION_BASED;
 143:D:/School/diseratie/SEMS/xmc4800_evaluation_kit/optiga-trust-m/examples/optiga\example_optiga_crypt_ecc_generate_keypair.c ****         return_status = optiga_crypt_ecc_generate_keypair(crypt_me,
 144:D:/School/diseratie/SEMS/xmc4800_evaluation_kit/optiga-trust-m/examples/optiga\example_optiga_crypt_ecc_generate_keypair.c ****                                                           OPTIGA_ECC_CURVE_NIST_P_256,
 145:D:/School/diseratie/SEMS/xmc4800_evaluation_kit/optiga-trust-m/examples/optiga\example_optiga_crypt_ecc_generate_keypair.c ****                                                           (uint8_t)OPTIGA_KEY_USAGE_SIGN,
 146:D:/School/diseratie/SEMS/xmc4800_evaluation_kit/optiga-trust-m/examples/optiga\example_optiga_crypt_ecc_generate_keypair.c ****                                                           FALSE,
 147:D:/School/diseratie/SEMS/xmc4800_evaluation_kit/optiga-trust-m/examples/optiga\example_optiga_crypt_ecc_generate_keypair.c ****                                                           &optiga_key_id,
 148:D:/School/diseratie/SEMS/xmc4800_evaluation_kit/optiga-trust-m/examples/optiga\example_optiga_crypt_ecc_generate_keypair.c ****                                                           public_key,
 149:D:/School/diseratie/SEMS/xmc4800_evaluation_kit/optiga-trust-m/examples/optiga\example_optiga_crypt_ecc_generate_keypair.c ****                                                           &public_key_length);
 150:D:/School/diseratie/SEMS/xmc4800_evaluation_kit/optiga-trust-m/examples/optiga\example_optiga_crypt_ecc_generate_keypair.c ****         WAIT_AND_CHECK_STATUS(return_status, optiga_lib_status);
 151:D:/School/diseratie/SEMS/xmc4800_evaluation_kit/optiga-trust-m/examples/optiga\example_optiga_crypt_ecc_generate_keypair.c ****         
 152:D:/School/diseratie/SEMS/xmc4800_evaluation_kit/optiga-trust-m/examples/optiga\example_optiga_crypt_ecc_generate_keypair.c ****         READ_PERFORMANCE_MEASUREMENT(time_taken);
 153:D:/School/diseratie/SEMS/xmc4800_evaluation_kit/optiga-trust-m/examples/optiga\example_optiga_crypt_ecc_generate_keypair.c ****         
 154:D:/School/diseratie/SEMS/xmc4800_evaluation_kit/optiga-trust-m/examples/optiga\example_optiga_crypt_ecc_generate_keypair.c ****         return_status = OPTIGA_LIB_SUCCESS;
 155:D:/School/diseratie/SEMS/xmc4800_evaluation_kit/optiga-trust-m/examples/optiga\example_optiga_crypt_ecc_generate_keypair.c ****     } while (FALSE);
 156:D:/School/diseratie/SEMS/xmc4800_evaluation_kit/optiga-trust-m/examples/optiga\example_optiga_crypt_ecc_generate_keypair.c ****     OPTIGA_EXAMPLE_LOG_STATUS(return_status);
 157:D:/School/diseratie/SEMS/xmc4800_evaluation_kit/optiga-trust-m/examples/optiga\example_optiga_crypt_ecc_generate_keypair.c **** 
 158:D:/School/diseratie/SEMS/xmc4800_evaluation_kit/optiga-trust-m/examples/optiga\example_optiga_crypt_ecc_generate_keypair.c **** #ifndef OPTIGA_INIT_DEINIT_DONE_EXCLUSIVELY
 159:D:/School/diseratie/SEMS/xmc4800_evaluation_kit/optiga-trust-m/examples/optiga\example_optiga_crypt_ecc_generate_keypair.c ****     /**
 160:D:/School/diseratie/SEMS/xmc4800_evaluation_kit/optiga-trust-m/examples/optiga\example_optiga_crypt_ecc_generate_keypair.c ****      * Close the application on OPTIGA after all the operations are executed
 161:D:/School/diseratie/SEMS/xmc4800_evaluation_kit/optiga-trust-m/examples/optiga\example_optiga_crypt_ecc_generate_keypair.c ****      * using optiga_util_close_application
 162:D:/School/diseratie/SEMS/xmc4800_evaluation_kit/optiga-trust-m/examples/optiga\example_optiga_crypt_ecc_generate_keypair.c ****      */
 163:D:/School/diseratie/SEMS/xmc4800_evaluation_kit/optiga-trust-m/examples/optiga\example_optiga_crypt_ecc_generate_keypair.c ****     example_optiga_deinit();
 143              	 .loc 1 163 0
 144 0046 FFF7FEFF 	 bl example_optiga_deinit
 145              	.LVL11:
 146              	.L18:
 164:D:/School/diseratie/SEMS/xmc4800_evaluation_kit/optiga-trust-m/examples/optiga\example_optiga_crypt_ecc_generate_keypair.c **** #endif //OPTIGA_INIT_DEINIT_DONE_EXCLUSIVELY
 165:D:/School/diseratie/SEMS/xmc4800_evaluation_kit/optiga-trust-m/examples/optiga\example_optiga_crypt_ecc_generate_keypair.c ****     OPTIGA_EXAMPLE_LOG_PERFORMANCE_VALUE(time_taken, return_status);
 166:D:/School/diseratie/SEMS/xmc4800_evaluation_kit/optiga-trust-m/examples/optiga\example_optiga_crypt_ecc_generate_keypair.c ****     
 167:D:/School/diseratie/SEMS/xmc4800_evaluation_kit/optiga-trust-m/examples/optiga\example_optiga_crypt_ecc_generate_keypair.c ****     if (crypt_me)
 168:D:/School/diseratie/SEMS/xmc4800_evaluation_kit/optiga-trust-m/examples/optiga\example_optiga_crypt_ecc_generate_keypair.c ****     {
 169:D:/School/diseratie/SEMS/xmc4800_evaluation_kit/optiga-trust-m/examples/optiga\example_optiga_crypt_ecc_generate_keypair.c ****         //Destroy the instance after the completion of usecase if not required.
 170:D:/School/diseratie/SEMS/xmc4800_evaluation_kit/optiga-trust-m/examples/optiga\example_optiga_crypt_ecc_generate_keypair.c ****         return_status = optiga_crypt_destroy(crypt_me);
 147              	 .loc 1 170 0
 148 004a 3046     	 mov r0,r6
 149 004c FFF7FEFF 	 bl optiga_crypt_destroy
 150              	.LVL12:
 171:D:/School/diseratie/SEMS/xmc4800_evaluation_kit/optiga-trust-m/examples/optiga\example_optiga_crypt_ecc_generate_keypair.c ****         if(OPTIGA_LIB_SUCCESS != return_status)
 172:D:/School/diseratie/SEMS/xmc4800_evaluation_kit/optiga-trust-m/examples/optiga\example_optiga_crypt_ecc_generate_keypair.c ****         {
 173:D:/School/diseratie/SEMS/xmc4800_evaluation_kit/optiga-trust-m/examples/optiga\example_optiga_crypt_ecc_generate_keypair.c ****             //lint --e{774} suppress This is a generic macro
 174:D:/School/diseratie/SEMS/xmc4800_evaluation_kit/optiga-trust-m/examples/optiga\example_optiga_crypt_ecc_generate_keypair.c ****             OPTIGA_EXAMPLE_LOG_STATUS(return_status);
 175:D:/School/diseratie/SEMS/xmc4800_evaluation_kit/optiga-trust-m/examples/optiga\example_optiga_crypt_ecc_generate_keypair.c ****         }
 176:D:/School/diseratie/SEMS/xmc4800_evaluation_kit/optiga-trust-m/examples/optiga\example_optiga_crypt_ecc_generate_keypair.c ****     }
 177:D:/School/diseratie/SEMS/xmc4800_evaluation_kit/optiga-trust-m/examples/optiga\example_optiga_crypt_ecc_generate_keypair.c ****     if (util_me)
 178:D:/School/diseratie/SEMS/xmc4800_evaluation_kit/optiga-trust-m/examples/optiga\example_optiga_crypt_ecc_generate_keypair.c ****     {
 179:D:/School/diseratie/SEMS/xmc4800_evaluation_kit/optiga-trust-m/examples/optiga\example_optiga_crypt_ecc_generate_keypair.c ****         //Destroy the instance after the completion of usecase if not required.
 180:D:/School/diseratie/SEMS/xmc4800_evaluation_kit/optiga-trust-m/examples/optiga\example_optiga_crypt_ecc_generate_keypair.c ****         return_status = optiga_util_destroy(util_me);
 151              	 .loc 1 180 0
 152 0050 3846     	 mov r0,r7
 153 0052 FFF7FEFF 	 bl optiga_util_destroy
 154              	.LVL13:
 181:D:/School/diseratie/SEMS/xmc4800_evaluation_kit/optiga-trust-m/examples/optiga\example_optiga_crypt_ecc_generate_keypair.c ****         if(OPTIGA_LIB_SUCCESS != return_status)
 182:D:/School/diseratie/SEMS/xmc4800_evaluation_kit/optiga-trust-m/examples/optiga\example_optiga_crypt_ecc_generate_keypair.c ****         {
 183:D:/School/diseratie/SEMS/xmc4800_evaluation_kit/optiga-trust-m/examples/optiga\example_optiga_crypt_ecc_generate_keypair.c ****             //lint --e{774} suppress This is a generic macro
 184:D:/School/diseratie/SEMS/xmc4800_evaluation_kit/optiga-trust-m/examples/optiga\example_optiga_crypt_ecc_generate_keypair.c ****             OPTIGA_EXAMPLE_LOG_STATUS(return_status);
 185:D:/School/diseratie/SEMS/xmc4800_evaluation_kit/optiga-trust-m/examples/optiga\example_optiga_crypt_ecc_generate_keypair.c ****         }
 186:D:/School/diseratie/SEMS/xmc4800_evaluation_kit/optiga-trust-m/examples/optiga\example_optiga_crypt_ecc_generate_keypair.c ****     }    
 187:D:/School/diseratie/SEMS/xmc4800_evaluation_kit/optiga-trust-m/examples/optiga\example_optiga_crypt_ecc_generate_keypair.c **** 
 188:D:/School/diseratie/SEMS/xmc4800_evaluation_kit/optiga-trust-m/examples/optiga\example_optiga_crypt_ecc_generate_keypair.c **** }
 155              	 .loc 1 188 0
 156 0056 20B0     	 add sp,sp,#128
 157              	.LCFI2:
 158              	 .cfi_remember_state
 159              	 .cfi_def_cfa_offset 24
 160              	 
 161 0058 BDE8F081 	 pop {r4,r5,r6,r7,r8,pc}
 162              	.LVL14:
 163              	.L11:
 164              	.LCFI3:
 165              	 .cfi_restore_state
 128:D:/School/diseratie/SEMS/xmc4800_evaluation_kit/optiga-trust-m/examples/optiga\example_optiga_crypt_ecc_generate_keypair.c ****         
 166              	 .loc 1 128 0 discriminator 1
 167 005c 2388     	 ldrh r3,[r4]
 168 005e 2A4D     	 ldr r5,.L26+8
 169 0060 9BB2     	 uxth r3,r3
 170 0062 012B     	 cmp r3,#1
 171 0064 FAD0     	 beq .L11
 128:D:/School/diseratie/SEMS/xmc4800_evaluation_kit/optiga-trust-m/examples/optiga\example_optiga_crypt_ecc_generate_keypair.c ****         
 172              	 .loc 1 128 0 is_stmt 0 discriminator 2
 173 0066 B5F80080 	 ldrh r8,[r5]
 174 006a 1FFA88F8 	 uxth r8,r8
 175 006e B8F1000F 	 cmp r8,#0
 176 0072 18D0     	 beq .L12
 128:D:/School/diseratie/SEMS/xmc4800_evaluation_kit/optiga-trust-m/examples/optiga\example_optiga_crypt_ecc_generate_keypair.c ****         
 177              	 .loc 1 128 0 discriminator 3
 178 0074 2C88     	 ldrh r4,[r5]
 179 0076 A4B2     	 uxth r4,r4
 180              	.LVL15:
 181              	.L13:
 163:D:/School/diseratie/SEMS/xmc4800_evaluation_kit/optiga-trust-m/examples/optiga\example_optiga_crypt_ecc_generate_keypair.c **** #endif //OPTIGA_INIT_DEINIT_DONE_EXCLUSIVELY
 182              	 .loc 1 163 0 is_stmt 1
 183 0078 FFF7FEFF 	 bl example_optiga_deinit
 184              	.LVL16:
 165:D:/School/diseratie/SEMS/xmc4800_evaluation_kit/optiga-trust-m/examples/optiga\example_optiga_crypt_ecc_generate_keypair.c ****     
 185              	 .loc 1 165 0
 186 007c 002C     	 cmp r4,#0
 187 007e E4D1     	 bne .L18
 188              	.LVL17:
 189              	.L16:
 165:D:/School/diseratie/SEMS/xmc4800_evaluation_kit/optiga-trust-m/examples/optiga\example_optiga_crypt_ecc_generate_keypair.c ****     
 190              	 .loc 1 165 0 is_stmt 0 discriminator 1
 191 0080 2349     	 ldr r1,.L26+16
 192 0082 069A     	 ldr r2,[sp,#24]
 193 0084 2348     	 ldr r0,.L26+20
 194 0086 FFF7FEFF 	 bl sprintf
 195              	.LVL18:
 196 008a DEE7     	 b .L18
 197              	.LVL19:
 198              	.L9:
 163:D:/School/diseratie/SEMS/xmc4800_evaluation_kit/optiga-trust-m/examples/optiga\example_optiga_crypt_ecc_generate_keypair.c **** #endif //OPTIGA_INIT_DEINIT_DONE_EXCLUSIVELY
 199              	 .loc 1 163 0 is_stmt 1
 200 008c FFF7FEFF 	 bl example_optiga_deinit
 201              	.LVL20:
 170:D:/School/diseratie/SEMS/xmc4800_evaluation_kit/optiga-trust-m/examples/optiga\example_optiga_crypt_ecc_generate_keypair.c ****         if(OPTIGA_LIB_SUCCESS != return_status)
 202              	 .loc 1 170 0
 203 0090 3046     	 mov r0,r6
 204 0092 FFF7FEFF 	 bl optiga_crypt_destroy
 205              	.LVL21:
 206              	 .loc 1 188 0
 207 0096 20B0     	 add sp,sp,#128
 208              	.LCFI4:
 209              	 .cfi_remember_state
 210              	 .cfi_def_cfa_offset 24
 211              	 
 212 0098 BDE8F081 	 pop {r4,r5,r6,r7,r8,pc}
 213              	.LVL22:
 214              	.L8:
 215              	.LCFI5:
 216              	 .cfi_restore_state
 163:D:/School/diseratie/SEMS/xmc4800_evaluation_kit/optiga-trust-m/examples/optiga\example_optiga_crypt_ecc_generate_keypair.c **** #endif //OPTIGA_INIT_DEINIT_DONE_EXCLUSIVELY
 217              	 .loc 1 163 0
 218 009c FFF7FEFF 	 bl example_optiga_deinit
 219              	.LVL23:
 220              	 .loc 1 188 0
 221 00a0 20B0     	 add sp,sp,#128
 222              	.LCFI6:
 223              	 .cfi_remember_state
 224              	 .cfi_def_cfa_offset 24
 225              	 
 226 00a2 BDE8F081 	 pop {r4,r5,r6,r7,r8,pc}
 227              	.LVL24:
 228              	.L12:
 229              	.LCFI7:
 230              	 .cfi_restore_state
 130:D:/School/diseratie/SEMS/xmc4800_evaluation_kit/optiga-trust-m/examples/optiga\example_optiga_crypt_ecc_generate_keypair.c ****         
 231              	 .loc 1 130 0
 232 00a6 06A8     	 add r0,sp,#24
 233              	.LVL25:
 234 00a8 0121     	 movs r1,#1
 235 00aa FFF7FEFF 	 bl example_performance_measurement
 236              	.LVL26:
 140:D:/School/diseratie/SEMS/xmc4800_evaluation_kit/optiga-trust-m/examples/optiga\example_optiga_crypt_ecc_generate_keypair.c ****         //for Session based, use OPTIGA_KEY_ID_SESSION_BASED as key id as shown below.
 237              	 .loc 1 140 0
 238 00ae 20AA     	 add r2,sp,#128
 239 00b0 4EF2F103 	 movw r3,#57585
 240 00b4 22F86C3D 	 strh r3,[r2,#-108]!
 143:D:/School/diseratie/SEMS/xmc4800_evaluation_kit/optiga-trust-m/examples/optiga\example_optiga_crypt_ecc_generate_keypair.c ****                                                           OPTIGA_ECC_CURVE_NIST_P_256,
 241              	 .loc 1 143 0
 242 00b8 07A8     	 add r0,sp,#28
 243 00ba 0DF11601 	 add r1,sp,#22
 139:D:/School/diseratie/SEMS/xmc4800_evaluation_kit/optiga-trust-m/examples/optiga\example_optiga_crypt_ecc_generate_keypair.c ****         optiga_key_id = OPTIGA_KEY_ID_E0F1;
 244              	 .loc 1 139 0
 245 00be 4FF0010E 	 mov lr,#1
 143:D:/School/diseratie/SEMS/xmc4800_evaluation_kit/optiga-trust-m/examples/optiga\example_optiga_crypt_ecc_generate_keypair.c ****                                                           OPTIGA_ECC_CURVE_NIST_P_256,
 246              	 .loc 1 143 0
 247 00c2 0092     	 str r2,[sp]
 248 00c4 0190     	 str r0,[sp,#4]
 249 00c6 0291     	 str r1,[sp,#8]
 250 00c8 4346     	 mov r3,r8
 251 00ca 3046     	 mov r0,r6
 252 00cc 0321     	 movs r1,#3
 253 00ce 1022     	 movs r2,#16
 139:D:/School/diseratie/SEMS/xmc4800_evaluation_kit/optiga-trust-m/examples/optiga\example_optiga_crypt_ecc_generate_keypair.c ****         optiga_key_id = OPTIGA_KEY_ID_E0F1;
 254              	 .loc 1 139 0
 255 00d0 A5F800E0 	 strh lr,[r5]
 143:D:/School/diseratie/SEMS/xmc4800_evaluation_kit/optiga-trust-m/examples/optiga\example_optiga_crypt_ecc_generate_keypair.c ****                                                           OPTIGA_ECC_CURVE_NIST_P_256,
 256              	 .loc 1 143 0
 257 00d4 FFF7FEFF 	 bl optiga_crypt_ecc_generate_keypair
 258              	.LVL27:
 150:D:/School/diseratie/SEMS/xmc4800_evaluation_kit/optiga-trust-m/examples/optiga\example_optiga_crypt_ecc_generate_keypair.c ****         
 259              	 .loc 1 150 0
 260 00d8 0028     	 cmp r0,#0
 261 00da B4D1     	 bne .L10
 262              	.L14:
 150:D:/School/diseratie/SEMS/xmc4800_evaluation_kit/optiga-trust-m/examples/optiga\example_optiga_crypt_ecc_generate_keypair.c ****         
 263              	 .loc 1 150 0 is_stmt 0 discriminator 1
 264 00dc 2388     	 ldrh r3,[r4]
 265 00de 0A4A     	 ldr r2,.L26+8
 266 00e0 9BB2     	 uxth r3,r3
 267 00e2 012B     	 cmp r3,#1
 268 00e4 FAD0     	 beq .L14
 150:D:/School/diseratie/SEMS/xmc4800_evaluation_kit/optiga-trust-m/examples/optiga\example_optiga_crypt_ecc_generate_keypair.c ****         
 269              	 .loc 1 150 0 discriminator 2
 270 00e6 1188     	 ldrh r1,[r2]
 271 00e8 89B2     	 uxth r1,r1
 272 00ea 11B1     	 cbz r1,.L15
 150:D:/School/diseratie/SEMS/xmc4800_evaluation_kit/optiga-trust-m/examples/optiga\example_optiga_crypt_ecc_generate_keypair.c ****         
 273              	 .loc 1 150 0 discriminator 3
 274 00ec 1488     	 ldrh r4,[r2]
 275 00ee A4B2     	 uxth r4,r4
 276              	.LVL28:
 277 00f0 C2E7     	 b .L13
 278              	.LVL29:
 279              	.L15:
 152:D:/School/diseratie/SEMS/xmc4800_evaluation_kit/optiga-trust-m/examples/optiga\example_optiga_crypt_ecc_generate_keypair.c ****         
 280              	 .loc 1 152 0 is_stmt 1
 281 00f2 06A8     	 add r0,sp,#24
 282              	.LVL30:
 283 00f4 FFF7FEFF 	 bl example_performance_measurement
 284              	.LVL31:
 163:D:/School/diseratie/SEMS/xmc4800_evaluation_kit/optiga-trust-m/examples/optiga\example_optiga_crypt_ecc_generate_keypair.c **** #endif //OPTIGA_INIT_DEINIT_DONE_EXCLUSIVELY
 285              	 .loc 1 163 0
 286 00f8 FFF7FEFF 	 bl example_optiga_deinit
 287              	.LVL32:
 288 00fc C0E7     	 b .L16
 289              	.L27:
 290 00fe 00BF     	 .align 2
 291              	.L26:
 292 0100 00000000 	 .word optiga_crypt_callback
 293 0104 00000000 	 .word optiga_util_callback
 294 0108 00000000 	 .word .LANCHOR0
 295 010c 00000000 	 .word .LANCHOR1
 296 0110 00000000 	 .word .LC0
 297 0114 00000000 	 .word performance_buffer_string
 298              	 .cfi_endproc
 299              	.LFE3:
 301              	 .global E0F1_metadata
 302              	 .section .rodata.E0F1_metadata,"a",%progbits
 303              	 .align 2
 304              	 .set .LANCHOR1,.+0
 307              	E0F1_metadata:
 308 0000 20       	 .byte 32
 309 0001 06       	 .byte 6
 310 0002 D0       	 .byte -48
 311 0003 01       	 .byte 1
 312 0004 00       	 .byte 0
 313 0005 D3       	 .byte -45
 314 0006 01       	 .byte 1
 315 0007 00       	 .byte 0
 316              	 .section .rodata.str1.4,"aMS",%progbits,1
 317              	 .align 2
 318              	.LC0:
 319 0000 4578616D 	 .ascii "Example takes %d msec\000"
 319      706C6520 
 319      74616B65 
 319      73202564 
 319      206D7365 
 320 0016 0000     	 .section .bss.optiga_lib_status,"aw",%nobits
 321              	 .align 1
 322              	 .set .LANCHOR0,.+0
 325              	optiga_lib_status:
 326 0000 0000     	 .space 2
 327              	 .text
 328              	.Letext0:
 329              	 .file 2 "c:\\infineon\\tools\\dave ide\\4.5.0.202105191637\\eclipse\\arm-gcc-49\\arm-none-eabi\\include\\machine\\_default_types.h"
 330              	 .file 3 "c:\\infineon\\tools\\dave ide\\4.5.0.202105191637\\eclipse\\arm-gcc-49\\arm-none-eabi\\include\\stdint.h"
 331              	 .file 4 "D:/School/diseratie/SEMS/xmc4800_evaluation_kit/optiga-trust-m/optiga/include/optiga/common/optiga_lib_types.h"
 332              	 .file 5 "D:/School/diseratie/SEMS/xmc4800_evaluation_kit/optiga-trust-m/optiga/include/optiga/common/optiga_lib_common.h"
 333              	 .file 6 "D:/School/diseratie/SEMS/xmc4800_evaluation_kit/optiga-trust-m/optiga/include/optiga/cmd/optiga_cmd.h"
 334              	 .file 7 "D:/School/diseratie/SEMS/xmc4800_evaluation_kit/optiga-trust-m/optiga/include/optiga/optiga_util.h"
 335              	 .file 8 "D:/School/diseratie/SEMS/xmc4800_evaluation_kit/optiga-trust-m/optiga/include/optiga/optiga_crypt.h"
 336              	 .file 9 "D:/School/diseratie/SEMS/xmc4800_evaluation_kit/optiga-trust-m/examples/optiga/include/optiga_example.h"
 337              	 .file 10 "c:\\infineon\\tools\\dave ide\\4.5.0.202105191637\\eclipse\\arm-gcc-49\\arm-none-eabi\\include\\stdio.h"