   1              	 .syntax unified
   2              	 .cpu cortex-m4
   3              	 .eabi_attribute 27,3
   4              	 .fpu fpv4-sp-d16
   5              	 .eabi_attribute 20,1
   6              	 .eabi_attribute 21,1
   7              	 .eabi_attribute 23,3
   8              	 .eabi_attribute 24,1
   9              	 .eabi_attribute 25,1
  10              	 .eabi_attribute 26,1
  11              	 .eabi_attribute 30,2
  12              	 .eabi_attribute 34,1
  13              	 .eabi_attribute 18,4
  14              	 .thumb
  15              	 .file "example_optiga_hmac_verify_with_authorization_reference.c"
  16              	 .text
  17              	.Ltext0:
  18              	 .cfi_sections .debug_frame
  19              	 .section .text.optiga_lib_callback,"ax",%progbits
  20              	 .align 2
  21              	 .thumb
  22              	 .thumb_func
  24              	optiga_lib_callback:
  25              	.LFB18:
  26              	 .file 1 "D:/School/diseratie/SEMS/xmc4800_evaluation_kit/optiga-trust-m/examples/optiga/usecases/example_optiga_hmac_verify_with_authorization_reference.c"
   1:D:/School/diseratie/SEMS/xmc4800_evaluation_kit/optiga-trust-m/examples/optiga/usecases\example_optiga_hmac_verify_with_authorization_reference.c **** /**
   2:D:/School/diseratie/SEMS/xmc4800_evaluation_kit/optiga-trust-m/examples/optiga/usecases\example_optiga_hmac_verify_with_authorization_reference.c **** * \copyright
   3:D:/School/diseratie/SEMS/xmc4800_evaluation_kit/optiga-trust-m/examples/optiga/usecases\example_optiga_hmac_verify_with_authorization_reference.c **** * MIT License
   4:D:/School/diseratie/SEMS/xmc4800_evaluation_kit/optiga-trust-m/examples/optiga/usecases\example_optiga_hmac_verify_with_authorization_reference.c **** *
   5:D:/School/diseratie/SEMS/xmc4800_evaluation_kit/optiga-trust-m/examples/optiga/usecases\example_optiga_hmac_verify_with_authorization_reference.c **** * Copyright (c) 2020 Infineon Technologies AG
   6:D:/School/diseratie/SEMS/xmc4800_evaluation_kit/optiga-trust-m/examples/optiga/usecases\example_optiga_hmac_verify_with_authorization_reference.c **** *
   7:D:/School/diseratie/SEMS/xmc4800_evaluation_kit/optiga-trust-m/examples/optiga/usecases\example_optiga_hmac_verify_with_authorization_reference.c **** * Permission is hereby granted, free of charge, to any person obtaining a copy
   8:D:/School/diseratie/SEMS/xmc4800_evaluation_kit/optiga-trust-m/examples/optiga/usecases\example_optiga_hmac_verify_with_authorization_reference.c **** * of this software and associated documentation files (the "Software"), to deal
   9:D:/School/diseratie/SEMS/xmc4800_evaluation_kit/optiga-trust-m/examples/optiga/usecases\example_optiga_hmac_verify_with_authorization_reference.c **** * in the Software without restriction, including without limitation the rights
  10:D:/School/diseratie/SEMS/xmc4800_evaluation_kit/optiga-trust-m/examples/optiga/usecases\example_optiga_hmac_verify_with_authorization_reference.c **** * to use, copy, modify, merge, publish, distribute, sublicense, and/or sell
  11:D:/School/diseratie/SEMS/xmc4800_evaluation_kit/optiga-trust-m/examples/optiga/usecases\example_optiga_hmac_verify_with_authorization_reference.c **** * copies of the Software, and to permit persons to whom the Software is
  12:D:/School/diseratie/SEMS/xmc4800_evaluation_kit/optiga-trust-m/examples/optiga/usecases\example_optiga_hmac_verify_with_authorization_reference.c **** * furnished to do so, subject to the following conditions:
  13:D:/School/diseratie/SEMS/xmc4800_evaluation_kit/optiga-trust-m/examples/optiga/usecases\example_optiga_hmac_verify_with_authorization_reference.c **** *
  14:D:/School/diseratie/SEMS/xmc4800_evaluation_kit/optiga-trust-m/examples/optiga/usecases\example_optiga_hmac_verify_with_authorization_reference.c **** * The above copyright notice and this permission notice shall be included in all
  15:D:/School/diseratie/SEMS/xmc4800_evaluation_kit/optiga-trust-m/examples/optiga/usecases\example_optiga_hmac_verify_with_authorization_reference.c **** * copies or substantial portions of the Software.
  16:D:/School/diseratie/SEMS/xmc4800_evaluation_kit/optiga-trust-m/examples/optiga/usecases\example_optiga_hmac_verify_with_authorization_reference.c **** *
  17:D:/School/diseratie/SEMS/xmc4800_evaluation_kit/optiga-trust-m/examples/optiga/usecases\example_optiga_hmac_verify_with_authorization_reference.c **** * THE SOFTWARE IS PROVIDED "AS IS", WITHOUT WARRANTY OF ANY KIND, EXPRESS OR
  18:D:/School/diseratie/SEMS/xmc4800_evaluation_kit/optiga-trust-m/examples/optiga/usecases\example_optiga_hmac_verify_with_authorization_reference.c **** * IMPLIED, INCLUDING BUT NOT LIMITED TO THE WARRANTIES OF MERCHANTABILITY,
  19:D:/School/diseratie/SEMS/xmc4800_evaluation_kit/optiga-trust-m/examples/optiga/usecases\example_optiga_hmac_verify_with_authorization_reference.c **** * FITNESS FOR A PARTICULAR PURPOSE AND NONINFRINGEMENT. IN NO EVENT SHALL THE
  20:D:/School/diseratie/SEMS/xmc4800_evaluation_kit/optiga-trust-m/examples/optiga/usecases\example_optiga_hmac_verify_with_authorization_reference.c **** * AUTHORS OR COPYRIGHT HOLDERS BE LIABLE FOR ANY CLAIM, DAMAGES OR OTHER
  21:D:/School/diseratie/SEMS/xmc4800_evaluation_kit/optiga-trust-m/examples/optiga/usecases\example_optiga_hmac_verify_with_authorization_reference.c **** * LIABILITY, WHETHER IN AN ACTION OF CONTRACT, TORT OR OTHERWISE, ARISING FROM,
  22:D:/School/diseratie/SEMS/xmc4800_evaluation_kit/optiga-trust-m/examples/optiga/usecases\example_optiga_hmac_verify_with_authorization_reference.c **** * OUT OF OR IN CONNECTION WITH THE SOFTWARE OR THE USE OR OTHER DEALINGS IN THE
  23:D:/School/diseratie/SEMS/xmc4800_evaluation_kit/optiga-trust-m/examples/optiga/usecases\example_optiga_hmac_verify_with_authorization_reference.c **** * SOFTWARE
  24:D:/School/diseratie/SEMS/xmc4800_evaluation_kit/optiga-trust-m/examples/optiga/usecases\example_optiga_hmac_verify_with_authorization_reference.c **** *
  25:D:/School/diseratie/SEMS/xmc4800_evaluation_kit/optiga-trust-m/examples/optiga/usecases\example_optiga_hmac_verify_with_authorization_reference.c **** * \endcopyright
  26:D:/School/diseratie/SEMS/xmc4800_evaluation_kit/optiga-trust-m/examples/optiga/usecases\example_optiga_hmac_verify_with_authorization_reference.c **** *
  27:D:/School/diseratie/SEMS/xmc4800_evaluation_kit/optiga-trust-m/examples/optiga/usecases\example_optiga_hmac_verify_with_authorization_reference.c **** * \author Infineon Technologies AG
  28:D:/School/diseratie/SEMS/xmc4800_evaluation_kit/optiga-trust-m/examples/optiga/usecases\example_optiga_hmac_verify_with_authorization_reference.c **** *
  29:D:/School/diseratie/SEMS/xmc4800_evaluation_kit/optiga-trust-m/examples/optiga/usecases\example_optiga_hmac_verify_with_authorization_reference.c **** * \file example_optiga_hmac_verify_with_authorization_reference.c
  30:D:/School/diseratie/SEMS/xmc4800_evaluation_kit/optiga-trust-m/examples/optiga/usecases\example_optiga_hmac_verify_with_authorization_reference.c **** *
  31:D:/School/diseratie/SEMS/xmc4800_evaluation_kit/optiga-trust-m/examples/optiga/usecases\example_optiga_hmac_verify_with_authorization_reference.c **** * \brief   This file provides an example for HMAC verify with authorization reference.
  32:D:/School/diseratie/SEMS/xmc4800_evaluation_kit/optiga-trust-m/examples/optiga/usecases\example_optiga_hmac_verify_with_authorization_reference.c **** *
  33:D:/School/diseratie/SEMS/xmc4800_evaluation_kit/optiga-trust-m/examples/optiga/usecases\example_optiga_hmac_verify_with_authorization_reference.c **** * \ingroup grUseCases
  34:D:/School/diseratie/SEMS/xmc4800_evaluation_kit/optiga-trust-m/examples/optiga/usecases\example_optiga_hmac_verify_with_authorization_reference.c **** *
  35:D:/School/diseratie/SEMS/xmc4800_evaluation_kit/optiga-trust-m/examples/optiga/usecases\example_optiga_hmac_verify_with_authorization_reference.c **** * @{
  36:D:/School/diseratie/SEMS/xmc4800_evaluation_kit/optiga-trust-m/examples/optiga/usecases\example_optiga_hmac_verify_with_authorization_reference.c **** */
  37:D:/School/diseratie/SEMS/xmc4800_evaluation_kit/optiga-trust-m/examples/optiga/usecases\example_optiga_hmac_verify_with_authorization_reference.c **** 
  38:D:/School/diseratie/SEMS/xmc4800_evaluation_kit/optiga-trust-m/examples/optiga/usecases\example_optiga_hmac_verify_with_authorization_reference.c **** #include "optiga/optiga_util.h"
  39:D:/School/diseratie/SEMS/xmc4800_evaluation_kit/optiga-trust-m/examples/optiga/usecases\example_optiga_hmac_verify_with_authorization_reference.c **** #include "optiga/optiga_crypt.h"
  40:D:/School/diseratie/SEMS/xmc4800_evaluation_kit/optiga-trust-m/examples/optiga/usecases\example_optiga_hmac_verify_with_authorization_reference.c **** 
  41:D:/School/diseratie/SEMS/xmc4800_evaluation_kit/optiga-trust-m/examples/optiga/usecases\example_optiga_hmac_verify_with_authorization_reference.c **** #include "optiga/pal/pal_os_memory.h"
  42:D:/School/diseratie/SEMS/xmc4800_evaluation_kit/optiga-trust-m/examples/optiga/usecases\example_optiga_hmac_verify_with_authorization_reference.c **** #include "optiga/pal/pal_crypt.h"
  43:D:/School/diseratie/SEMS/xmc4800_evaluation_kit/optiga-trust-m/examples/optiga/usecases\example_optiga_hmac_verify_with_authorization_reference.c **** #include "optiga_example.h"
  44:D:/School/diseratie/SEMS/xmc4800_evaluation_kit/optiga-trust-m/examples/optiga/usecases\example_optiga_hmac_verify_with_authorization_reference.c **** #include "mbedtls/ccm.h"
  45:D:/School/diseratie/SEMS/xmc4800_evaluation_kit/optiga-trust-m/examples/optiga/usecases\example_optiga_hmac_verify_with_authorization_reference.c **** #include "mbedtls/md.h"
  46:D:/School/diseratie/SEMS/xmc4800_evaluation_kit/optiga-trust-m/examples/optiga/usecases\example_optiga_hmac_verify_with_authorization_reference.c **** #include "mbedtls/ssl.h"
  47:D:/School/diseratie/SEMS/xmc4800_evaluation_kit/optiga-trust-m/examples/optiga/usecases\example_optiga_hmac_verify_with_authorization_reference.c **** #if defined (OPTIGA_CRYPT_GENERATE_AUTH_CODE_ENABLED) && defined (OPTIGA_CRYPT_HMAC_VERIFY_ENABLED)
  48:D:/School/diseratie/SEMS/xmc4800_evaluation_kit/optiga-trust-m/examples/optiga/usecases\example_optiga_hmac_verify_with_authorization_reference.c **** 
  49:D:/School/diseratie/SEMS/xmc4800_evaluation_kit/optiga-trust-m/examples/optiga/usecases\example_optiga_hmac_verify_with_authorization_reference.c **** #ifndef OPTIGA_INIT_DEINIT_DONE_EXCLUSIVELY
  50:D:/School/diseratie/SEMS/xmc4800_evaluation_kit/optiga-trust-m/examples/optiga/usecases\example_optiga_hmac_verify_with_authorization_reference.c **** extern void example_optiga_init(void);
  51:D:/School/diseratie/SEMS/xmc4800_evaluation_kit/optiga-trust-m/examples/optiga/usecases\example_optiga_hmac_verify_with_authorization_reference.c **** extern void example_optiga_deinit(void);
  52:D:/School/diseratie/SEMS/xmc4800_evaluation_kit/optiga-trust-m/examples/optiga/usecases\example_optiga_hmac_verify_with_authorization_reference.c **** #endif
  53:D:/School/diseratie/SEMS/xmc4800_evaluation_kit/optiga-trust-m/examples/optiga/usecases\example_optiga_hmac_verify_with_authorization_reference.c **** 
  54:D:/School/diseratie/SEMS/xmc4800_evaluation_kit/optiga-trust-m/examples/optiga/usecases\example_optiga_hmac_verify_with_authorization_reference.c **** /**
  55:D:/School/diseratie/SEMS/xmc4800_evaluation_kit/optiga-trust-m/examples/optiga/usecases\example_optiga_hmac_verify_with_authorization_reference.c ****  * Metadata for Secret OID :
  56:D:/School/diseratie/SEMS/xmc4800_evaluation_kit/optiga-trust-m/examples/optiga/usecases\example_optiga_hmac_verify_with_authorization_reference.c ****  * Execute access condition = Always
  57:D:/School/diseratie/SEMS/xmc4800_evaluation_kit/optiga-trust-m/examples/optiga/usecases\example_optiga_hmac_verify_with_authorization_reference.c ****  * Data object type  =  Auto Ref
  58:D:/School/diseratie/SEMS/xmc4800_evaluation_kit/optiga-trust-m/examples/optiga/usecases\example_optiga_hmac_verify_with_authorization_reference.c ****  */
  59:D:/School/diseratie/SEMS/xmc4800_evaluation_kit/optiga-trust-m/examples/optiga/usecases\example_optiga_hmac_verify_with_authorization_reference.c **** const uint8_t secret_oid_metadata[] = 
  60:D:/School/diseratie/SEMS/xmc4800_evaluation_kit/optiga-trust-m/examples/optiga/usecases\example_optiga_hmac_verify_with_authorization_reference.c **** {
  61:D:/School/diseratie/SEMS/xmc4800_evaluation_kit/optiga-trust-m/examples/optiga/usecases\example_optiga_hmac_verify_with_authorization_reference.c ****     0x20, 0x06,
  62:D:/School/diseratie/SEMS/xmc4800_evaluation_kit/optiga-trust-m/examples/optiga/usecases\example_optiga_hmac_verify_with_authorization_reference.c ****           0xD3, 0x01, 0x00,
  63:D:/School/diseratie/SEMS/xmc4800_evaluation_kit/optiga-trust-m/examples/optiga/usecases\example_optiga_hmac_verify_with_authorization_reference.c ****           0xE8, 0x01, 0x31
  64:D:/School/diseratie/SEMS/xmc4800_evaluation_kit/optiga-trust-m/examples/optiga/usecases\example_optiga_hmac_verify_with_authorization_reference.c **** };
  65:D:/School/diseratie/SEMS/xmc4800_evaluation_kit/optiga-trust-m/examples/optiga/usecases\example_optiga_hmac_verify_with_authorization_reference.c **** 
  66:D:/School/diseratie/SEMS/xmc4800_evaluation_kit/optiga-trust-m/examples/optiga/usecases\example_optiga_hmac_verify_with_authorization_reference.c **** /**
  67:D:/School/diseratie/SEMS/xmc4800_evaluation_kit/optiga-trust-m/examples/optiga/usecases\example_optiga_hmac_verify_with_authorization_reference.c ****  * Metadata for arbitrary OID :
  68:D:/School/diseratie/SEMS/xmc4800_evaluation_kit/optiga-trust-m/examples/optiga/usecases\example_optiga_hmac_verify_with_authorization_reference.c ****  * Read access condition = Auto Ref
  69:D:/School/diseratie/SEMS/xmc4800_evaluation_kit/optiga-trust-m/examples/optiga/usecases\example_optiga_hmac_verify_with_authorization_reference.c ****  * Data object type  =  Auto Ref
  70:D:/School/diseratie/SEMS/xmc4800_evaluation_kit/optiga-trust-m/examples/optiga/usecases\example_optiga_hmac_verify_with_authorization_reference.c ****  */
  71:D:/School/diseratie/SEMS/xmc4800_evaluation_kit/optiga-trust-m/examples/optiga/usecases\example_optiga_hmac_verify_with_authorization_reference.c **** const uint8_t arbitrary_oid_metadata[] = 
  72:D:/School/diseratie/SEMS/xmc4800_evaluation_kit/optiga-trust-m/examples/optiga/usecases\example_optiga_hmac_verify_with_authorization_reference.c **** {
  73:D:/School/diseratie/SEMS/xmc4800_evaluation_kit/optiga-trust-m/examples/optiga/usecases\example_optiga_hmac_verify_with_authorization_reference.c ****     0x20, 0x05,
  74:D:/School/diseratie/SEMS/xmc4800_evaluation_kit/optiga-trust-m/examples/optiga/usecases\example_optiga_hmac_verify_with_authorization_reference.c ****           0xD1, 0x03, 0x23, 0xF1, 0xD0
  75:D:/School/diseratie/SEMS/xmc4800_evaluation_kit/optiga-trust-m/examples/optiga/usecases\example_optiga_hmac_verify_with_authorization_reference.c **** };
  76:D:/School/diseratie/SEMS/xmc4800_evaluation_kit/optiga-trust-m/examples/optiga/usecases\example_optiga_hmac_verify_with_authorization_reference.c **** 
  77:D:/School/diseratie/SEMS/xmc4800_evaluation_kit/optiga-trust-m/examples/optiga/usecases\example_optiga_hmac_verify_with_authorization_reference.c **** /**
  78:D:/School/diseratie/SEMS/xmc4800_evaluation_kit/optiga-trust-m/examples/optiga/usecases\example_optiga_hmac_verify_with_authorization_reference.c ****  * Metadata for arbitrary OID :
  79:D:/School/diseratie/SEMS/xmc4800_evaluation_kit/optiga-trust-m/examples/optiga/usecases\example_optiga_hmac_verify_with_authorization_reference.c ****  * Read access condition = Always
  80:D:/School/diseratie/SEMS/xmc4800_evaluation_kit/optiga-trust-m/examples/optiga/usecases\example_optiga_hmac_verify_with_authorization_reference.c ****  */
  81:D:/School/diseratie/SEMS/xmc4800_evaluation_kit/optiga-trust-m/examples/optiga/usecases\example_optiga_hmac_verify_with_authorization_reference.c **** const uint8_t arbitrary_oid_metadata_default[] = 
  82:D:/School/diseratie/SEMS/xmc4800_evaluation_kit/optiga-trust-m/examples/optiga/usecases\example_optiga_hmac_verify_with_authorization_reference.c **** {
  83:D:/School/diseratie/SEMS/xmc4800_evaluation_kit/optiga-trust-m/examples/optiga/usecases\example_optiga_hmac_verify_with_authorization_reference.c ****     0x20, 0x03,
  84:D:/School/diseratie/SEMS/xmc4800_evaluation_kit/optiga-trust-m/examples/optiga/usecases\example_optiga_hmac_verify_with_authorization_reference.c ****           0xD1, 0x01, 0x00
  85:D:/School/diseratie/SEMS/xmc4800_evaluation_kit/optiga-trust-m/examples/optiga/usecases\example_optiga_hmac_verify_with_authorization_reference.c **** };
  86:D:/School/diseratie/SEMS/xmc4800_evaluation_kit/optiga-trust-m/examples/optiga/usecases\example_optiga_hmac_verify_with_authorization_reference.c **** 
  87:D:/School/diseratie/SEMS/xmc4800_evaluation_kit/optiga-trust-m/examples/optiga/usecases\example_optiga_hmac_verify_with_authorization_reference.c **** /**
  88:D:/School/diseratie/SEMS/xmc4800_evaluation_kit/optiga-trust-m/examples/optiga/usecases\example_optiga_hmac_verify_with_authorization_reference.c ****  * Shared secret data
  89:D:/School/diseratie/SEMS/xmc4800_evaluation_kit/optiga-trust-m/examples/optiga/usecases\example_optiga_hmac_verify_with_authorization_reference.c ****  */
  90:D:/School/diseratie/SEMS/xmc4800_evaluation_kit/optiga-trust-m/examples/optiga/usecases\example_optiga_hmac_verify_with_authorization_reference.c **** const uint8_t user_secret[] = 
  91:D:/School/diseratie/SEMS/xmc4800_evaluation_kit/optiga-trust-m/examples/optiga/usecases\example_optiga_hmac_verify_with_authorization_reference.c **** {
  92:D:/School/diseratie/SEMS/xmc4800_evaluation_kit/optiga-trust-m/examples/optiga/usecases\example_optiga_hmac_verify_with_authorization_reference.c ****     0x49, 0xC9, 0xF4, 0x92, 0xA9, 0x92, 0xF6, 0xD4, 0xC5, 0x4F, 0x5B, 0x12, 0xC5, 0x7E, 0xDB, 0x27,
  93:D:/School/diseratie/SEMS/xmc4800_evaluation_kit/optiga-trust-m/examples/optiga/usecases\example_optiga_hmac_verify_with_authorization_reference.c ****     0xCE, 0xD2, 0x24, 0x04, 0x8F, 0x25, 0x48, 0x2A, 0xA1, 0x49, 0xC9, 0xF4, 0x92, 0xA9, 0x92, 0xF6,
  94:D:/School/diseratie/SEMS/xmc4800_evaluation_kit/optiga-trust-m/examples/optiga/usecases\example_optiga_hmac_verify_with_authorization_reference.c ****     0x49, 0xC9, 0xF4, 0x92, 0xA9, 0x92, 0xF6, 0xD4, 0xC5, 0x4F, 0x5B, 0x12, 0xC5, 0x7E, 0xDB, 0x27,
  95:D:/School/diseratie/SEMS/xmc4800_evaluation_kit/optiga-trust-m/examples/optiga/usecases\example_optiga_hmac_verify_with_authorization_reference.c ****     0xCE, 0xD2, 0x24, 0x04, 0x8F, 0x25, 0x48, 0x2A, 0xA1, 0x49, 0xC9, 0xF4, 0x92, 0xA9, 0x92, 0xF6
  96:D:/School/diseratie/SEMS/xmc4800_evaluation_kit/optiga-trust-m/examples/optiga/usecases\example_optiga_hmac_verify_with_authorization_reference.c **** };
  97:D:/School/diseratie/SEMS/xmc4800_evaluation_kit/optiga-trust-m/examples/optiga/usecases\example_optiga_hmac_verify_with_authorization_reference.c **** 
  98:D:/School/diseratie/SEMS/xmc4800_evaluation_kit/optiga-trust-m/examples/optiga/usecases\example_optiga_hmac_verify_with_authorization_reference.c **** /**
  99:D:/School/diseratie/SEMS/xmc4800_evaluation_kit/optiga-trust-m/examples/optiga/usecases\example_optiga_hmac_verify_with_authorization_reference.c ****  * Read OID data
 100:D:/School/diseratie/SEMS/xmc4800_evaluation_kit/optiga-trust-m/examples/optiga/usecases\example_optiga_hmac_verify_with_authorization_reference.c ****  */
 101:D:/School/diseratie/SEMS/xmc4800_evaluation_kit/optiga-trust-m/examples/optiga/usecases\example_optiga_hmac_verify_with_authorization_reference.c **** const uint8_t read_oid_data[] = 
 102:D:/School/diseratie/SEMS/xmc4800_evaluation_kit/optiga-trust-m/examples/optiga/usecases\example_optiga_hmac_verify_with_authorization_reference.c **** {
 103:D:/School/diseratie/SEMS/xmc4800_evaluation_kit/optiga-trust-m/examples/optiga/usecases\example_optiga_hmac_verify_with_authorization_reference.c ****     0x49, 0xC9, 0xF4, 0x92, 0xA9, 0x92, 0xF6, 0xD4, 0xC5, 0x4F, 0x5B, 0x12, 0xC5, 0x7E, 0xDB, 0x27,
 104:D:/School/diseratie/SEMS/xmc4800_evaluation_kit/optiga-trust-m/examples/optiga/usecases\example_optiga_hmac_verify_with_authorization_reference.c ****     0xCE, 0xD2, 0x24, 0x04, 0x8F, 0x25, 0x48, 0x2A, 0xA1, 0x49, 0xC9, 0xF4, 0x92, 0xA9, 0x92, 0xF6 
 105:D:/School/diseratie/SEMS/xmc4800_evaluation_kit/optiga-trust-m/examples/optiga/usecases\example_optiga_hmac_verify_with_authorization_reference.c **** };
 106:D:/School/diseratie/SEMS/xmc4800_evaluation_kit/optiga-trust-m/examples/optiga/usecases\example_optiga_hmac_verify_with_authorization_reference.c **** 
 107:D:/School/diseratie/SEMS/xmc4800_evaluation_kit/optiga-trust-m/examples/optiga/usecases\example_optiga_hmac_verify_with_authorization_reference.c **** /**
 108:D:/School/diseratie/SEMS/xmc4800_evaluation_kit/optiga-trust-m/examples/optiga/usecases\example_optiga_hmac_verify_with_authorization_reference.c ****  * Optional data
 109:D:/School/diseratie/SEMS/xmc4800_evaluation_kit/optiga-trust-m/examples/optiga/usecases\example_optiga_hmac_verify_with_authorization_reference.c ****  */
 110:D:/School/diseratie/SEMS/xmc4800_evaluation_kit/optiga-trust-m/examples/optiga/usecases\example_optiga_hmac_verify_with_authorization_reference.c **** const uint8_t optional_data[] = 
 111:D:/School/diseratie/SEMS/xmc4800_evaluation_kit/optiga-trust-m/examples/optiga/usecases\example_optiga_hmac_verify_with_authorization_reference.c **** {
 112:D:/School/diseratie/SEMS/xmc4800_evaluation_kit/optiga-trust-m/examples/optiga/usecases\example_optiga_hmac_verify_with_authorization_reference.c ****     0x01, 0x02, 0x03, 0x04, 0x05, 0x06, 0x07, 0x08, 0x09, 0x0A, 0x0B, 0x0C, 0x0D, 0x0E, 0x0F, 0x10 
 113:D:/School/diseratie/SEMS/xmc4800_evaluation_kit/optiga-trust-m/examples/optiga/usecases\example_optiga_hmac_verify_with_authorization_reference.c **** };
 114:D:/School/diseratie/SEMS/xmc4800_evaluation_kit/optiga-trust-m/examples/optiga/usecases\example_optiga_hmac_verify_with_authorization_reference.c **** 
 115:D:/School/diseratie/SEMS/xmc4800_evaluation_kit/optiga-trust-m/examples/optiga/usecases\example_optiga_hmac_verify_with_authorization_reference.c **** /**
 116:D:/School/diseratie/SEMS/xmc4800_evaluation_kit/optiga-trust-m/examples/optiga/usecases\example_optiga_hmac_verify_with_authorization_reference.c ****  * random data
 117:D:/School/diseratie/SEMS/xmc4800_evaluation_kit/optiga-trust-m/examples/optiga/usecases\example_optiga_hmac_verify_with_authorization_reference.c ****  */
 118:D:/School/diseratie/SEMS/xmc4800_evaluation_kit/optiga-trust-m/examples/optiga/usecases\example_optiga_hmac_verify_with_authorization_reference.c **** uint8_t random_data[32] = {0x00};
 119:D:/School/diseratie/SEMS/xmc4800_evaluation_kit/optiga-trust-m/examples/optiga/usecases\example_optiga_hmac_verify_with_authorization_reference.c **** 
 120:D:/School/diseratie/SEMS/xmc4800_evaluation_kit/optiga-trust-m/examples/optiga/usecases\example_optiga_hmac_verify_with_authorization_reference.c **** /**
 121:D:/School/diseratie/SEMS/xmc4800_evaluation_kit/optiga-trust-m/examples/optiga/usecases\example_optiga_hmac_verify_with_authorization_reference.c ****  * Arbitrary data
 122:D:/School/diseratie/SEMS/xmc4800_evaluation_kit/optiga-trust-m/examples/optiga/usecases\example_optiga_hmac_verify_with_authorization_reference.c ****  */
 123:D:/School/diseratie/SEMS/xmc4800_evaluation_kit/optiga-trust-m/examples/optiga/usecases\example_optiga_hmac_verify_with_authorization_reference.c **** const uint8_t arbitrary_data[] = 
 124:D:/School/diseratie/SEMS/xmc4800_evaluation_kit/optiga-trust-m/examples/optiga/usecases\example_optiga_hmac_verify_with_authorization_reference.c **** {
 125:D:/School/diseratie/SEMS/xmc4800_evaluation_kit/optiga-trust-m/examples/optiga/usecases\example_optiga_hmac_verify_with_authorization_reference.c ****     0xF0, 0xF1, 0xF2, 0xF3, 0xF4, 0xF5, 0xF6, 0xF7, 0xF8, 0xF9, 0xFA, 0xFB, 0xFC, 0xFD, 0xFE, 0xFF 
 126:D:/School/diseratie/SEMS/xmc4800_evaluation_kit/optiga-trust-m/examples/optiga/usecases\example_optiga_hmac_verify_with_authorization_reference.c **** };
 127:D:/School/diseratie/SEMS/xmc4800_evaluation_kit/optiga-trust-m/examples/optiga/usecases\example_optiga_hmac_verify_with_authorization_reference.c **** 
 128:D:/School/diseratie/SEMS/xmc4800_evaluation_kit/optiga-trust-m/examples/optiga/usecases\example_optiga_hmac_verify_with_authorization_reference.c **** /**
 129:D:/School/diseratie/SEMS/xmc4800_evaluation_kit/optiga-trust-m/examples/optiga/usecases\example_optiga_hmac_verify_with_authorization_reference.c ****  * Input data
 130:D:/School/diseratie/SEMS/xmc4800_evaluation_kit/optiga-trust-m/examples/optiga/usecases\example_optiga_hmac_verify_with_authorization_reference.c ****  */
 131:D:/School/diseratie/SEMS/xmc4800_evaluation_kit/optiga-trust-m/examples/optiga/usecases\example_optiga_hmac_verify_with_authorization_reference.c **** uint8_t input_data_buffer[64] = {0x00};
 132:D:/School/diseratie/SEMS/xmc4800_evaluation_kit/optiga-trust-m/examples/optiga/usecases\example_optiga_hmac_verify_with_authorization_reference.c **** 
 133:D:/School/diseratie/SEMS/xmc4800_evaluation_kit/optiga-trust-m/examples/optiga/usecases\example_optiga_hmac_verify_with_authorization_reference.c **** /**
 134:D:/School/diseratie/SEMS/xmc4800_evaluation_kit/optiga-trust-m/examples/optiga/usecases\example_optiga_hmac_verify_with_authorization_reference.c ****  * Generated hmac
 135:D:/School/diseratie/SEMS/xmc4800_evaluation_kit/optiga-trust-m/examples/optiga/usecases\example_optiga_hmac_verify_with_authorization_reference.c ****  */
 136:D:/School/diseratie/SEMS/xmc4800_evaluation_kit/optiga-trust-m/examples/optiga/usecases\example_optiga_hmac_verify_with_authorization_reference.c **** uint8_t hmac_buffer[32] = {0x00};
 137:D:/School/diseratie/SEMS/xmc4800_evaluation_kit/optiga-trust-m/examples/optiga/usecases\example_optiga_hmac_verify_with_authorization_reference.c **** 
 138:D:/School/diseratie/SEMS/xmc4800_evaluation_kit/optiga-trust-m/examples/optiga/usecases\example_optiga_hmac_verify_with_authorization_reference.c **** /**
 139:D:/School/diseratie/SEMS/xmc4800_evaluation_kit/optiga-trust-m/examples/optiga/usecases\example_optiga_hmac_verify_with_authorization_reference.c ****  * Callback when optiga_util_xxxx/optiga_crypt_xxxx operation is completed asynchronously
 140:D:/School/diseratie/SEMS/xmc4800_evaluation_kit/optiga-trust-m/examples/optiga/usecases\example_optiga_hmac_verify_with_authorization_reference.c ****  */
 141:D:/School/diseratie/SEMS/xmc4800_evaluation_kit/optiga-trust-m/examples/optiga/usecases\example_optiga_hmac_verify_with_authorization_reference.c **** static volatile optiga_lib_status_t optiga_lib_status;
 142:D:/School/diseratie/SEMS/xmc4800_evaluation_kit/optiga-trust-m/examples/optiga/usecases\example_optiga_hmac_verify_with_authorization_reference.c **** //lint --e{818} suppress "argument "context" is not used in the sample provided"
 143:D:/School/diseratie/SEMS/xmc4800_evaluation_kit/optiga-trust-m/examples/optiga/usecases\example_optiga_hmac_verify_with_authorization_reference.c **** static void optiga_lib_callback(void * context, optiga_lib_status_t return_status)
 144:D:/School/diseratie/SEMS/xmc4800_evaluation_kit/optiga-trust-m/examples/optiga/usecases\example_optiga_hmac_verify_with_authorization_reference.c **** {
  27              	 .loc 1 144 0
  28              	 .cfi_startproc
  29              	 
  30              	 
  31              	 
  32              	.LVL0:
 145:D:/School/diseratie/SEMS/xmc4800_evaluation_kit/optiga-trust-m/examples/optiga/usecases\example_optiga_hmac_verify_with_authorization_reference.c ****     optiga_lib_status = return_status;
  33              	 .loc 1 145 0
  34 0000 014B     	 ldr r3,.L2
  35 0002 1980     	 strh r1,[r3]
  36 0004 7047     	 bx lr
  37              	.L3:
  38 0006 00BF     	 .align 2
  39              	.L2:
  40 0008 00000000 	 .word .LANCHOR0
  41              	 .cfi_endproc
  42              	.LFE18:
  44              	 .section .text.CalcHMAC,"ax",%progbits
  45              	 .align 2
  46              	 .global CalcHMAC
  47              	 .thumb
  48              	 .thumb_func
  50              	CalcHMAC:
  51              	.LFB20:
 146:D:/School/diseratie/SEMS/xmc4800_evaluation_kit/optiga-trust-m/examples/optiga/usecases\example_optiga_hmac_verify_with_authorization_reference.c ****     if (NULL != context)
 147:D:/School/diseratie/SEMS/xmc4800_evaluation_kit/optiga-trust-m/examples/optiga/usecases\example_optiga_hmac_verify_with_authorization_reference.c ****     {
 148:D:/School/diseratie/SEMS/xmc4800_evaluation_kit/optiga-trust-m/examples/optiga/usecases\example_optiga_hmac_verify_with_authorization_reference.c ****         // callback to upper layer here
 149:D:/School/diseratie/SEMS/xmc4800_evaluation_kit/optiga-trust-m/examples/optiga/usecases\example_optiga_hmac_verify_with_authorization_reference.c ****     }
 150:D:/School/diseratie/SEMS/xmc4800_evaluation_kit/optiga-trust-m/examples/optiga/usecases\example_optiga_hmac_verify_with_authorization_reference.c **** }
 151:D:/School/diseratie/SEMS/xmc4800_evaluation_kit/optiga-trust-m/examples/optiga/usecases\example_optiga_hmac_verify_with_authorization_reference.c **** 
 152:D:/School/diseratie/SEMS/xmc4800_evaluation_kit/optiga-trust-m/examples/optiga/usecases\example_optiga_hmac_verify_with_authorization_reference.c **** //lint --e{818, 715, 830} suppress "argument "p_pal_crypt" is not used in the implementation but ke
 153:D:/School/diseratie/SEMS/xmc4800_evaluation_kit/optiga-trust-m/examples/optiga/usecases\example_optiga_hmac_verify_with_authorization_reference.c **** /**
 154:D:/School/diseratie/SEMS/xmc4800_evaluation_kit/optiga-trust-m/examples/optiga/usecases\example_optiga_hmac_verify_with_authorization_reference.c ****  * \brief Calculates the HMAC on the input data with the provided secret key.
 155:D:/School/diseratie/SEMS/xmc4800_evaluation_kit/optiga-trust-m/examples/optiga/usecases\example_optiga_hmac_verify_with_authorization_reference.c ****  *
 156:D:/School/diseratie/SEMS/xmc4800_evaluation_kit/optiga-trust-m/examples/optiga/usecases\example_optiga_hmac_verify_with_authorization_reference.c ****  * \details
 157:D:/School/diseratie/SEMS/xmc4800_evaluation_kit/optiga-trust-m/examples/optiga/usecases\example_optiga_hmac_verify_with_authorization_reference.c ****  * Calculates the HMAC on the input data with the provided secret key and returns HMAC.
 158:D:/School/diseratie/SEMS/xmc4800_evaluation_kit/optiga-trust-m/examples/optiga/usecases\example_optiga_hmac_verify_with_authorization_reference.c ****  *
 159:D:/School/diseratie/SEMS/xmc4800_evaluation_kit/optiga-trust-m/examples/optiga/usecases\example_optiga_hmac_verify_with_authorization_reference.c ****  * \pre
 160:D:/School/diseratie/SEMS/xmc4800_evaluation_kit/optiga-trust-m/examples/optiga/usecases\example_optiga_hmac_verify_with_authorization_reference.c ****  * - None
 161:D:/School/diseratie/SEMS/xmc4800_evaluation_kit/optiga-trust-m/examples/optiga/usecases\example_optiga_hmac_verify_with_authorization_reference.c ****  *
 162:D:/School/diseratie/SEMS/xmc4800_evaluation_kit/optiga-trust-m/examples/optiga/usecases\example_optiga_hmac_verify_with_authorization_reference.c ****  * \note
 163:D:/School/diseratie/SEMS/xmc4800_evaluation_kit/optiga-trust-m/examples/optiga/usecases\example_optiga_hmac_verify_with_authorization_reference.c ****  * - None
 164:D:/School/diseratie/SEMS/xmc4800_evaluation_kit/optiga-trust-m/examples/optiga/usecases\example_optiga_hmac_verify_with_authorization_reference.c ****  *
 165:D:/School/diseratie/SEMS/xmc4800_evaluation_kit/optiga-trust-m/examples/optiga/usecases\example_optiga_hmac_verify_with_authorization_reference.c ****  * \param[in]           p_pal_crypt                 Crypt context
 166:D:/School/diseratie/SEMS/xmc4800_evaluation_kit/optiga-trust-m/examples/optiga/usecases\example_optiga_hmac_verify_with_authorization_reference.c ****  * \param[in]           hmac_type                   HMAC of type #optiga_hmac_type_t.
 167:D:/School/diseratie/SEMS/xmc4800_evaluation_kit/optiga-trust-m/examples/optiga/usecases\example_optiga_hmac_verify_with_authorization_reference.c ****  * \param[in]           secret_key                  HMAC secret key.
 168:D:/School/diseratie/SEMS/xmc4800_evaluation_kit/optiga-trust-m/examples/optiga/usecases\example_optiga_hmac_verify_with_authorization_reference.c ****  * \param[in]           secret_key_len              Length of HMAC secret key.
 169:D:/School/diseratie/SEMS/xmc4800_evaluation_kit/optiga-trust-m/examples/optiga/usecases\example_optiga_hmac_verify_with_authorization_reference.c ****  * \param[in]           input_data                  Pointer to input data for HMAC generation .
 170:D:/School/diseratie/SEMS/xmc4800_evaluation_kit/optiga-trust-m/examples/optiga/usecases\example_optiga_hmac_verify_with_authorization_reference.c ****  * \param[in]           input_data_length           Length of input data for HMAC generation.
 171:D:/School/diseratie/SEMS/xmc4800_evaluation_kit/optiga-trust-m/examples/optiga/usecases\example_optiga_hmac_verify_with_authorization_reference.c ****  * \param[in,out]       hmac                        Pointer to buffer to store generated HMAC.
 172:D:/School/diseratie/SEMS/xmc4800_evaluation_kit/optiga-trust-m/examples/optiga/usecases\example_optiga_hmac_verify_with_authorization_reference.c ****  *
 173:D:/School/diseratie/SEMS/xmc4800_evaluation_kit/optiga-trust-m/examples/optiga/usecases\example_optiga_hmac_verify_with_authorization_reference.c ****  * \retval              PAL_STATUS_SUCCESS          In case of success
 174:D:/School/diseratie/SEMS/xmc4800_evaluation_kit/optiga-trust-m/examples/optiga/usecases\example_optiga_hmac_verify_with_authorization_reference.c ****  * \retval              PAL_STATUS_FAILURE          In case of failure
 175:D:/School/diseratie/SEMS/xmc4800_evaluation_kit/optiga-trust-m/examples/optiga/usecases\example_optiga_hmac_verify_with_authorization_reference.c ****  */ 
 176:D:/School/diseratie/SEMS/xmc4800_evaluation_kit/optiga-trust-m/examples/optiga/usecases\example_optiga_hmac_verify_with_authorization_reference.c **** static pal_status_t pal_crypt_hmac(pal_crypt_t* p_pal_crypt,
 177:D:/School/diseratie/SEMS/xmc4800_evaluation_kit/optiga-trust-m/examples/optiga/usecases\example_optiga_hmac_verify_with_authorization_reference.c ****                                    uint16_t hmac_type,
 178:D:/School/diseratie/SEMS/xmc4800_evaluation_kit/optiga-trust-m/examples/optiga/usecases\example_optiga_hmac_verify_with_authorization_reference.c ****                                    const uint8_t * secret_key,
 179:D:/School/diseratie/SEMS/xmc4800_evaluation_kit/optiga-trust-m/examples/optiga/usecases\example_optiga_hmac_verify_with_authorization_reference.c ****                                    uint16_t secret_key_len,
 180:D:/School/diseratie/SEMS/xmc4800_evaluation_kit/optiga-trust-m/examples/optiga/usecases\example_optiga_hmac_verify_with_authorization_reference.c ****                                    const uint8_t * input_data,
 181:D:/School/diseratie/SEMS/xmc4800_evaluation_kit/optiga-trust-m/examples/optiga/usecases\example_optiga_hmac_verify_with_authorization_reference.c ****                                    uint32_t input_data_length,
 182:D:/School/diseratie/SEMS/xmc4800_evaluation_kit/optiga-trust-m/examples/optiga/usecases\example_optiga_hmac_verify_with_authorization_reference.c ****                                    uint8_t * hmac)
 183:D:/School/diseratie/SEMS/xmc4800_evaluation_kit/optiga-trust-m/examples/optiga/usecases\example_optiga_hmac_verify_with_authorization_reference.c **** {
 184:D:/School/diseratie/SEMS/xmc4800_evaluation_kit/optiga-trust-m/examples/optiga/usecases\example_optiga_hmac_verify_with_authorization_reference.c ****     pal_status_t return_value = PAL_STATUS_FAILURE;
 185:D:/School/diseratie/SEMS/xmc4800_evaluation_kit/optiga-trust-m/examples/optiga/usecases\example_optiga_hmac_verify_with_authorization_reference.c **** 
 186:D:/School/diseratie/SEMS/xmc4800_evaluation_kit/optiga-trust-m/examples/optiga/usecases\example_optiga_hmac_verify_with_authorization_reference.c ****     const mbedtls_md_info_t * hmac_info;
 187:D:/School/diseratie/SEMS/xmc4800_evaluation_kit/optiga-trust-m/examples/optiga/usecases\example_optiga_hmac_verify_with_authorization_reference.c ****     mbedtls_md_type_t digest_type;
 188:D:/School/diseratie/SEMS/xmc4800_evaluation_kit/optiga-trust-m/examples/optiga/usecases\example_optiga_hmac_verify_with_authorization_reference.c ****     
 189:D:/School/diseratie/SEMS/xmc4800_evaluation_kit/optiga-trust-m/examples/optiga/usecases\example_optiga_hmac_verify_with_authorization_reference.c ****     do
 190:D:/School/diseratie/SEMS/xmc4800_evaluation_kit/optiga-trust-m/examples/optiga/usecases\example_optiga_hmac_verify_with_authorization_reference.c ****     {
 191:D:/School/diseratie/SEMS/xmc4800_evaluation_kit/optiga-trust-m/examples/optiga/usecases\example_optiga_hmac_verify_with_authorization_reference.c **** #ifdef OPTIGA_LIB_DEBUG_NULL_CHECK
 192:D:/School/diseratie/SEMS/xmc4800_evaluation_kit/optiga-trust-m/examples/optiga/usecases\example_optiga_hmac_verify_with_authorization_reference.c ****         if ((NULL == input_data) || (NULL == hmac))
 193:D:/School/diseratie/SEMS/xmc4800_evaluation_kit/optiga-trust-m/examples/optiga/usecases\example_optiga_hmac_verify_with_authorization_reference.c ****         {
 194:D:/School/diseratie/SEMS/xmc4800_evaluation_kit/optiga-trust-m/examples/optiga/usecases\example_optiga_hmac_verify_with_authorization_reference.c ****             break;
 195:D:/School/diseratie/SEMS/xmc4800_evaluation_kit/optiga-trust-m/examples/optiga/usecases\example_optiga_hmac_verify_with_authorization_reference.c ****         }
 196:D:/School/diseratie/SEMS/xmc4800_evaluation_kit/optiga-trust-m/examples/optiga/usecases\example_optiga_hmac_verify_with_authorization_reference.c **** #endif  //OPTIGA_LIB_DEBUG_NULL_CHECK
 197:D:/School/diseratie/SEMS/xmc4800_evaluation_kit/optiga-trust-m/examples/optiga/usecases\example_optiga_hmac_verify_with_authorization_reference.c **** 
 198:D:/School/diseratie/SEMS/xmc4800_evaluation_kit/optiga-trust-m/examples/optiga/usecases\example_optiga_hmac_verify_with_authorization_reference.c ****         digest_type = (((uint16_t)OPTIGA_HMAC_SHA_256 == hmac_type)? MBEDTLS_MD_SHA256: MBEDTLS_MD_
 199:D:/School/diseratie/SEMS/xmc4800_evaluation_kit/optiga-trust-m/examples/optiga/usecases\example_optiga_hmac_verify_with_authorization_reference.c ****         
 200:D:/School/diseratie/SEMS/xmc4800_evaluation_kit/optiga-trust-m/examples/optiga/usecases\example_optiga_hmac_verify_with_authorization_reference.c ****         hmac_info = mbedtls_md_info_from_type(digest_type);
 201:D:/School/diseratie/SEMS/xmc4800_evaluation_kit/optiga-trust-m/examples/optiga/usecases\example_optiga_hmac_verify_with_authorization_reference.c **** 
 202:D:/School/diseratie/SEMS/xmc4800_evaluation_kit/optiga-trust-m/examples/optiga/usecases\example_optiga_hmac_verify_with_authorization_reference.c ****         if (0 != mbedtls_md_hmac(hmac_info, secret_key, secret_key_len, input_data, input_data_leng
 203:D:/School/diseratie/SEMS/xmc4800_evaluation_kit/optiga-trust-m/examples/optiga/usecases\example_optiga_hmac_verify_with_authorization_reference.c ****         {
 204:D:/School/diseratie/SEMS/xmc4800_evaluation_kit/optiga-trust-m/examples/optiga/usecases\example_optiga_hmac_verify_with_authorization_reference.c ****             break;
 205:D:/School/diseratie/SEMS/xmc4800_evaluation_kit/optiga-trust-m/examples/optiga/usecases\example_optiga_hmac_verify_with_authorization_reference.c ****         }
 206:D:/School/diseratie/SEMS/xmc4800_evaluation_kit/optiga-trust-m/examples/optiga/usecases\example_optiga_hmac_verify_with_authorization_reference.c ****         
 207:D:/School/diseratie/SEMS/xmc4800_evaluation_kit/optiga-trust-m/examples/optiga/usecases\example_optiga_hmac_verify_with_authorization_reference.c ****         return_value = PAL_STATUS_SUCCESS;
 208:D:/School/diseratie/SEMS/xmc4800_evaluation_kit/optiga-trust-m/examples/optiga/usecases\example_optiga_hmac_verify_with_authorization_reference.c **** 
 209:D:/School/diseratie/SEMS/xmc4800_evaluation_kit/optiga-trust-m/examples/optiga/usecases\example_optiga_hmac_verify_with_authorization_reference.c ****     } while (FALSE);
 210:D:/School/diseratie/SEMS/xmc4800_evaluation_kit/optiga-trust-m/examples/optiga/usecases\example_optiga_hmac_verify_with_authorization_reference.c **** 
 211:D:/School/diseratie/SEMS/xmc4800_evaluation_kit/optiga-trust-m/examples/optiga/usecases\example_optiga_hmac_verify_with_authorization_reference.c ****     return return_value;
 212:D:/School/diseratie/SEMS/xmc4800_evaluation_kit/optiga-trust-m/examples/optiga/usecases\example_optiga_hmac_verify_with_authorization_reference.c **** }
 213:D:/School/diseratie/SEMS/xmc4800_evaluation_kit/optiga-trust-m/examples/optiga/usecases\example_optiga_hmac_verify_with_authorization_reference.c **** 
 214:D:/School/diseratie/SEMS/xmc4800_evaluation_kit/optiga-trust-m/examples/optiga/usecases\example_optiga_hmac_verify_with_authorization_reference.c **** pal_status_t CalcHMAC(const uint8_t * secret_key,
 215:D:/School/diseratie/SEMS/xmc4800_evaluation_kit/optiga-trust-m/examples/optiga/usecases\example_optiga_hmac_verify_with_authorization_reference.c ****                            uint16_t secret_key_len,
 216:D:/School/diseratie/SEMS/xmc4800_evaluation_kit/optiga-trust-m/examples/optiga/usecases\example_optiga_hmac_verify_with_authorization_reference.c ****                            const uint8_t * input_data,
 217:D:/School/diseratie/SEMS/xmc4800_evaluation_kit/optiga-trust-m/examples/optiga/usecases\example_optiga_hmac_verify_with_authorization_reference.c ****                            uint32_t input_data_length,
 218:D:/School/diseratie/SEMS/xmc4800_evaluation_kit/optiga-trust-m/examples/optiga/usecases\example_optiga_hmac_verify_with_authorization_reference.c ****                            uint8_t * hmac)
 219:D:/School/diseratie/SEMS/xmc4800_evaluation_kit/optiga-trust-m/examples/optiga/usecases\example_optiga_hmac_verify_with_authorization_reference.c **** {
  52              	 .loc 1 219 0
  53              	 .cfi_startproc
  54              	 
  55              	 
  56              	.LVL1:
  57 0000 2DE9F041 	 push {r4,r5,r6,r7,r8,lr}
  58              	.LCFI0:
  59              	 .cfi_def_cfa_offset 24
  60              	 .cfi_offset 4,-24
  61              	 .cfi_offset 5,-20
  62              	 .cfi_offset 6,-16
  63              	 .cfi_offset 7,-12
  64              	 .cfi_offset 8,-8
  65              	 .cfi_offset 14,-4
  66 0004 82B0     	 sub sp,sp,#8
  67              	.LCFI1:
  68              	 .cfi_def_cfa_offset 32
  69              	 .loc 1 219 0
  70 0006 089F     	 ldr r7,[sp,#32]
  71              	.LVL2:
  72              	.LBB6:
  73              	.LBB7:
 192:D:/School/diseratie/SEMS/xmc4800_evaluation_kit/optiga-trust-m/examples/optiga/usecases\example_optiga_hmac_verify_with_authorization_reference.c ****         {
  74              	 .loc 1 192 0
  75 0008 AAB1     	 cbz r2,.L7
  76 000a A7B1     	 cbz r7,.L7
  77              	.LVL3:
  78 000c 1446     	 mov r4,r2
  79 000e 9846     	 mov r8,r3
  80 0010 0D46     	 mov r5,r1
  81 0012 0646     	 mov r6,r0
 200:D:/School/diseratie/SEMS/xmc4800_evaluation_kit/optiga-trust-m/examples/optiga/usecases\example_optiga_hmac_verify_with_authorization_reference.c **** 
  82              	 .loc 1 200 0
  83 0014 0620     	 movs r0,#6
  84              	.LVL4:
  85 0016 FFF7FEFF 	 bl mbedtls_md_info_from_type
  86              	.LVL5:
 202:D:/School/diseratie/SEMS/xmc4800_evaluation_kit/optiga-trust-m/examples/optiga/usecases\example_optiga_hmac_verify_with_authorization_reference.c ****         {
  87              	 .loc 1 202 0
  88 001a CDF80080 	 str r8,[sp]
  89 001e 0197     	 str r7,[sp,#4]
  90 0020 3146     	 mov r1,r6
  91 0022 2A46     	 mov r2,r5
  92 0024 2346     	 mov r3,r4
  93 0026 FFF7FEFF 	 bl mbedtls_md_hmac
  94              	.LVL6:
 184:D:/School/diseratie/SEMS/xmc4800_evaluation_kit/optiga-trust-m/examples/optiga/usecases\example_optiga_hmac_verify_with_authorization_reference.c **** 
  95              	 .loc 1 184 0
  96 002a 0030     	 adds r0,r0,#0
  97 002c 18BF     	 it ne
  98 002e 0120     	 movne r0,#1
  99              	.LVL7:
 100              	.LBE7:
 101              	.LBE6:
 220:D:/School/diseratie/SEMS/xmc4800_evaluation_kit/optiga-trust-m/examples/optiga/usecases\example_optiga_hmac_verify_with_authorization_reference.c ****     return(pal_crypt_hmac(NULL,
 221:D:/School/diseratie/SEMS/xmc4800_evaluation_kit/optiga-trust-m/examples/optiga/usecases\example_optiga_hmac_verify_with_authorization_reference.c ****                           (uint16_t)OPTIGA_HMAC_SHA_256,
 222:D:/School/diseratie/SEMS/xmc4800_evaluation_kit/optiga-trust-m/examples/optiga/usecases\example_optiga_hmac_verify_with_authorization_reference.c ****                           secret_key,
 223:D:/School/diseratie/SEMS/xmc4800_evaluation_kit/optiga-trust-m/examples/optiga/usecases\example_optiga_hmac_verify_with_authorization_reference.c ****                           secret_key_len,
 224:D:/School/diseratie/SEMS/xmc4800_evaluation_kit/optiga-trust-m/examples/optiga/usecases\example_optiga_hmac_verify_with_authorization_reference.c ****                           input_data,
 225:D:/School/diseratie/SEMS/xmc4800_evaluation_kit/optiga-trust-m/examples/optiga/usecases\example_optiga_hmac_verify_with_authorization_reference.c ****                           input_data_length,
 226:D:/School/diseratie/SEMS/xmc4800_evaluation_kit/optiga-trust-m/examples/optiga/usecases\example_optiga_hmac_verify_with_authorization_reference.c ****                           hmac));
 227:D:/School/diseratie/SEMS/xmc4800_evaluation_kit/optiga-trust-m/examples/optiga/usecases\example_optiga_hmac_verify_with_authorization_reference.c **** }
 102              	 .loc 1 227 0
 103 0030 02B0     	 add sp,sp,#8
 104              	.LCFI2:
 105              	 .cfi_remember_state
 106              	 .cfi_def_cfa_offset 24
 107              	 
 108 0032 BDE8F081 	 pop {r4,r5,r6,r7,r8,pc}
 109              	.LVL8:
 110              	.L7:
 111              	.LCFI3:
 112              	 .cfi_restore_state
 113              	.LBB9:
 114              	.LBB8:
 184:D:/School/diseratie/SEMS/xmc4800_evaluation_kit/optiga-trust-m/examples/optiga/usecases\example_optiga_hmac_verify_with_authorization_reference.c **** 
 115              	 .loc 1 184 0
 116 0036 0120     	 movs r0,#1
 117              	.LVL9:
 118              	.LBE8:
 119              	.LBE9:
 120              	 .loc 1 227 0
 121 0038 02B0     	 add sp,sp,#8
 122              	.LCFI4:
 123              	 .cfi_def_cfa_offset 24
 124              	 
 125 003a BDE8F081 	 pop {r4,r5,r6,r7,r8,pc}
 126              	 .cfi_endproc
 127              	.LFE20:
 129 003e 00BF     	 .section .text.example_optiga_hmac_verify_with_authorization_reference,"ax",%progbits
 130              	 .align 2
 131              	 .global example_optiga_hmac_verify_with_authorization_reference
 132              	 .thumb
 133              	 .thumb_func
 135              	example_optiga_hmac_verify_with_authorization_reference:
 136              	.LFB22:
 228:D:/School/diseratie/SEMS/xmc4800_evaluation_kit/optiga-trust-m/examples/optiga/usecases\example_optiga_hmac_verify_with_authorization_reference.c **** 
 229:D:/School/diseratie/SEMS/xmc4800_evaluation_kit/optiga-trust-m/examples/optiga/usecases\example_optiga_hmac_verify_with_authorization_reference.c **** static pal_status_t GetAutoValue(optiga_util_t * me_util, uint16_t secret_oid)
 230:D:/School/diseratie/SEMS/xmc4800_evaluation_kit/optiga-trust-m/examples/optiga/usecases\example_optiga_hmac_verify_with_authorization_reference.c **** {
 231:D:/School/diseratie/SEMS/xmc4800_evaluation_kit/optiga-trust-m/examples/optiga/usecases\example_optiga_hmac_verify_with_authorization_reference.c ****     optiga_lib_status_t return_status = !OPTIGA_LIB_SUCCESS;
 232:D:/School/diseratie/SEMS/xmc4800_evaluation_kit/optiga-trust-m/examples/optiga/usecases\example_optiga_hmac_verify_with_authorization_reference.c ****     
 233:D:/School/diseratie/SEMS/xmc4800_evaluation_kit/optiga-trust-m/examples/optiga/usecases\example_optiga_hmac_verify_with_authorization_reference.c ****     do
 234:D:/School/diseratie/SEMS/xmc4800_evaluation_kit/optiga-trust-m/examples/optiga/usecases\example_optiga_hmac_verify_with_authorization_reference.c ****     {
 235:D:/School/diseratie/SEMS/xmc4800_evaluation_kit/optiga-trust-m/examples/optiga/usecases\example_optiga_hmac_verify_with_authorization_reference.c ****         /**
 236:D:/School/diseratie/SEMS/xmc4800_evaluation_kit/optiga-trust-m/examples/optiga/usecases\example_optiga_hmac_verify_with_authorization_reference.c ****          * 1. Set the metadata of secret OID(0xF1D0) using optiga_util_write_metadata.
 237:D:/School/diseratie/SEMS/xmc4800_evaluation_kit/optiga-trust-m/examples/optiga/usecases\example_optiga_hmac_verify_with_authorization_reference.c ****          */
 238:D:/School/diseratie/SEMS/xmc4800_evaluation_kit/optiga-trust-m/examples/optiga/usecases\example_optiga_hmac_verify_with_authorization_reference.c ****         optiga_lib_status = OPTIGA_LIB_BUSY;
 239:D:/School/diseratie/SEMS/xmc4800_evaluation_kit/optiga-trust-m/examples/optiga/usecases\example_optiga_hmac_verify_with_authorization_reference.c ****         return_status = optiga_util_write_metadata(me_util,
 240:D:/School/diseratie/SEMS/xmc4800_evaluation_kit/optiga-trust-m/examples/optiga/usecases\example_optiga_hmac_verify_with_authorization_reference.c ****                                                    secret_oid,
 241:D:/School/diseratie/SEMS/xmc4800_evaluation_kit/optiga-trust-m/examples/optiga/usecases\example_optiga_hmac_verify_with_authorization_reference.c ****                                                    secret_oid_metadata,
 242:D:/School/diseratie/SEMS/xmc4800_evaluation_kit/optiga-trust-m/examples/optiga/usecases\example_optiga_hmac_verify_with_authorization_reference.c ****                                                    sizeof(secret_oid_metadata));
 243:D:/School/diseratie/SEMS/xmc4800_evaluation_kit/optiga-trust-m/examples/optiga/usecases\example_optiga_hmac_verify_with_authorization_reference.c **** 
 244:D:/School/diseratie/SEMS/xmc4800_evaluation_kit/optiga-trust-m/examples/optiga/usecases\example_optiga_hmac_verify_with_authorization_reference.c ****         WAIT_AND_CHECK_STATUS(return_status, optiga_lib_status);
 245:D:/School/diseratie/SEMS/xmc4800_evaluation_kit/optiga-trust-m/examples/optiga/usecases\example_optiga_hmac_verify_with_authorization_reference.c **** 
 246:D:/School/diseratie/SEMS/xmc4800_evaluation_kit/optiga-trust-m/examples/optiga/usecases\example_optiga_hmac_verify_with_authorization_reference.c ****         /**
 247:D:/School/diseratie/SEMS/xmc4800_evaluation_kit/optiga-trust-m/examples/optiga/usecases\example_optiga_hmac_verify_with_authorization_reference.c ****         *  2. Write shared secret in OID 0xF1D0
 248:D:/School/diseratie/SEMS/xmc4800_evaluation_kit/optiga-trust-m/examples/optiga/usecases\example_optiga_hmac_verify_with_authorization_reference.c ****         */
 249:D:/School/diseratie/SEMS/xmc4800_evaluation_kit/optiga-trust-m/examples/optiga/usecases\example_optiga_hmac_verify_with_authorization_reference.c ****         optiga_lib_status = OPTIGA_LIB_BUSY;
 250:D:/School/diseratie/SEMS/xmc4800_evaluation_kit/optiga-trust-m/examples/optiga/usecases\example_optiga_hmac_verify_with_authorization_reference.c ****         return_status = optiga_util_write_data(me_util,
 251:D:/School/diseratie/SEMS/xmc4800_evaluation_kit/optiga-trust-m/examples/optiga/usecases\example_optiga_hmac_verify_with_authorization_reference.c ****                                                secret_oid,
 252:D:/School/diseratie/SEMS/xmc4800_evaluation_kit/optiga-trust-m/examples/optiga/usecases\example_optiga_hmac_verify_with_authorization_reference.c ****                                                OPTIGA_UTIL_ERASE_AND_WRITE,
 253:D:/School/diseratie/SEMS/xmc4800_evaluation_kit/optiga-trust-m/examples/optiga/usecases\example_optiga_hmac_verify_with_authorization_reference.c ****                                                0,
 254:D:/School/diseratie/SEMS/xmc4800_evaluation_kit/optiga-trust-m/examples/optiga/usecases\example_optiga_hmac_verify_with_authorization_reference.c ****                                                user_secret,
 255:D:/School/diseratie/SEMS/xmc4800_evaluation_kit/optiga-trust-m/examples/optiga/usecases\example_optiga_hmac_verify_with_authorization_reference.c ****                                                sizeof(user_secret));
 256:D:/School/diseratie/SEMS/xmc4800_evaluation_kit/optiga-trust-m/examples/optiga/usecases\example_optiga_hmac_verify_with_authorization_reference.c **** 
 257:D:/School/diseratie/SEMS/xmc4800_evaluation_kit/optiga-trust-m/examples/optiga/usecases\example_optiga_hmac_verify_with_authorization_reference.c ****         WAIT_AND_CHECK_STATUS(return_status, optiga_lib_status);
 258:D:/School/diseratie/SEMS/xmc4800_evaluation_kit/optiga-trust-m/examples/optiga/usecases\example_optiga_hmac_verify_with_authorization_reference.c ****     } while(FALSE);
 259:D:/School/diseratie/SEMS/xmc4800_evaluation_kit/optiga-trust-m/examples/optiga/usecases\example_optiga_hmac_verify_with_authorization_reference.c ****     
 260:D:/School/diseratie/SEMS/xmc4800_evaluation_kit/optiga-trust-m/examples/optiga/usecases\example_optiga_hmac_verify_with_authorization_reference.c ****     return return_status;
 261:D:/School/diseratie/SEMS/xmc4800_evaluation_kit/optiga-trust-m/examples/optiga/usecases\example_optiga_hmac_verify_with_authorization_reference.c **** }
 262:D:/School/diseratie/SEMS/xmc4800_evaluation_kit/optiga-trust-m/examples/optiga/usecases\example_optiga_hmac_verify_with_authorization_reference.c **** 
 263:D:/School/diseratie/SEMS/xmc4800_evaluation_kit/optiga-trust-m/examples/optiga/usecases\example_optiga_hmac_verify_with_authorization_reference.c **** /**
 264:D:/School/diseratie/SEMS/xmc4800_evaluation_kit/optiga-trust-m/examples/optiga/usecases\example_optiga_hmac_verify_with_authorization_reference.c ****  * The below example demonstrates HMAC verify with authorization reference.
 265:D:/School/diseratie/SEMS/xmc4800_evaluation_kit/optiga-trust-m/examples/optiga/usecases\example_optiga_hmac_verify_with_authorization_reference.c ****  */
 266:D:/School/diseratie/SEMS/xmc4800_evaluation_kit/optiga-trust-m/examples/optiga/usecases\example_optiga_hmac_verify_with_authorization_reference.c **** void example_optiga_hmac_verify_with_authorization_reference(void)
 267:D:/School/diseratie/SEMS/xmc4800_evaluation_kit/optiga-trust-m/examples/optiga/usecases\example_optiga_hmac_verify_with_authorization_reference.c **** {
 137              	 .loc 1 267 0
 138              	 .cfi_startproc
 139              	 
 140              	 
 141              	.LVL10:
 142 0000 2DE9F047 	 push {r4,r5,r6,r7,r8,r9,r10,lr}
 143              	.LCFI5:
 144              	 .cfi_def_cfa_offset 32
 145              	 .cfi_offset 4,-32
 146              	 .cfi_offset 5,-28
 147              	 .cfi_offset 6,-24
 148              	 .cfi_offset 7,-20
 149              	 .cfi_offset 8,-16
 150              	 .cfi_offset 9,-12
 151              	 .cfi_offset 10,-8
 152              	 .cfi_offset 14,-4
 153 0004 A0B0     	 sub sp,sp,#128
 154              	.LCFI6:
 155              	 .cfi_def_cfa_offset 160
 268:D:/School/diseratie/SEMS/xmc4800_evaluation_kit/optiga-trust-m/examples/optiga/usecases\example_optiga_hmac_verify_with_authorization_reference.c ****     optiga_lib_status_t return_status = !OPTIGA_LIB_SUCCESS;
 269:D:/School/diseratie/SEMS/xmc4800_evaluation_kit/optiga-trust-m/examples/optiga/usecases\example_optiga_hmac_verify_with_authorization_reference.c ****     pal_status_t pal_return_status;
 270:D:/School/diseratie/SEMS/xmc4800_evaluation_kit/optiga-trust-m/examples/optiga/usecases\example_optiga_hmac_verify_with_authorization_reference.c ****     uint32_t time_taken = 0;
 156              	 .loc 1 270 0
 157 0006 0024     	 movs r4,#0
 158 0008 0694     	 str r4,[sp,#24]
 159              	.LVL11:
 271:D:/School/diseratie/SEMS/xmc4800_evaluation_kit/optiga-trust-m/examples/optiga/usecases\example_optiga_hmac_verify_with_authorization_reference.c ****     uint16_t offset, bytes_to_read;
 272:D:/School/diseratie/SEMS/xmc4800_evaluation_kit/optiga-trust-m/examples/optiga/usecases\example_optiga_hmac_verify_with_authorization_reference.c ****     uint8_t read_data_buffer[100];
 273:D:/School/diseratie/SEMS/xmc4800_evaluation_kit/optiga-trust-m/examples/optiga/usecases\example_optiga_hmac_verify_with_authorization_reference.c ****     optiga_util_t * me_util = NULL;
 274:D:/School/diseratie/SEMS/xmc4800_evaluation_kit/optiga-trust-m/examples/optiga/usecases\example_optiga_hmac_verify_with_authorization_reference.c ****     optiga_crypt_t * me_crypt = NULL;
 275:D:/School/diseratie/SEMS/xmc4800_evaluation_kit/optiga-trust-m/examples/optiga/usecases\example_optiga_hmac_verify_with_authorization_reference.c **** 
 276:D:/School/diseratie/SEMS/xmc4800_evaluation_kit/optiga-trust-m/examples/optiga/usecases\example_optiga_hmac_verify_with_authorization_reference.c ****     do
 277:D:/School/diseratie/SEMS/xmc4800_evaluation_kit/optiga-trust-m/examples/optiga/usecases\example_optiga_hmac_verify_with_authorization_reference.c ****     {
 278:D:/School/diseratie/SEMS/xmc4800_evaluation_kit/optiga-trust-m/examples/optiga/usecases\example_optiga_hmac_verify_with_authorization_reference.c ****         
 279:D:/School/diseratie/SEMS/xmc4800_evaluation_kit/optiga-trust-m/examples/optiga/usecases\example_optiga_hmac_verify_with_authorization_reference.c **** #ifndef OPTIGA_INIT_DEINIT_DONE_EXCLUSIVELY
 280:D:/School/diseratie/SEMS/xmc4800_evaluation_kit/optiga-trust-m/examples/optiga/usecases\example_optiga_hmac_verify_with_authorization_reference.c ****         /**
 281:D:/School/diseratie/SEMS/xmc4800_evaluation_kit/optiga-trust-m/examples/optiga/usecases\example_optiga_hmac_verify_with_authorization_reference.c ****          * Open the application on OPTIGA which is a precondition to perform any other operations
 282:D:/School/diseratie/SEMS/xmc4800_evaluation_kit/optiga-trust-m/examples/optiga/usecases\example_optiga_hmac_verify_with_authorization_reference.c ****          * using optiga_util_open_application
 283:D:/School/diseratie/SEMS/xmc4800_evaluation_kit/optiga-trust-m/examples/optiga/usecases\example_optiga_hmac_verify_with_authorization_reference.c ****          */
 284:D:/School/diseratie/SEMS/xmc4800_evaluation_kit/optiga-trust-m/examples/optiga/usecases\example_optiga_hmac_verify_with_authorization_reference.c ****         example_optiga_init();
 160              	 .loc 1 284 0
 161 000a FFF7FEFF 	 bl example_optiga_init
 162              	.LVL12:
 285:D:/School/diseratie/SEMS/xmc4800_evaluation_kit/optiga-trust-m/examples/optiga/usecases\example_optiga_hmac_verify_with_authorization_reference.c **** #endif //OPTIGA_INIT_DEINIT_DONE_EXCLUSIVELY
 286:D:/School/diseratie/SEMS/xmc4800_evaluation_kit/optiga-trust-m/examples/optiga/usecases\example_optiga_hmac_verify_with_authorization_reference.c **** 
 287:D:/School/diseratie/SEMS/xmc4800_evaluation_kit/optiga-trust-m/examples/optiga/usecases\example_optiga_hmac_verify_with_authorization_reference.c ****         OPTIGA_EXAMPLE_LOG_MESSAGE(__FUNCTION__);
 288:D:/School/diseratie/SEMS/xmc4800_evaluation_kit/optiga-trust-m/examples/optiga/usecases\example_optiga_hmac_verify_with_authorization_reference.c ****         /**
 289:D:/School/diseratie/SEMS/xmc4800_evaluation_kit/optiga-trust-m/examples/optiga/usecases\example_optiga_hmac_verify_with_authorization_reference.c ****          * Create OPTIGA util and crypt Instances
 290:D:/School/diseratie/SEMS/xmc4800_evaluation_kit/optiga-trust-m/examples/optiga/usecases\example_optiga_hmac_verify_with_authorization_reference.c ****          */
 291:D:/School/diseratie/SEMS/xmc4800_evaluation_kit/optiga-trust-m/examples/optiga/usecases\example_optiga_hmac_verify_with_authorization_reference.c ****         me_util = optiga_util_create(0, optiga_lib_callback, NULL);
 163              	 .loc 1 291 0
 164 000e 2046     	 mov r0,r4
 165 0010 2246     	 mov r2,r4
 166 0012 AC49     	 ldr r1,.L63
 167 0014 FFF7FEFF 	 bl optiga_util_create
 168              	.LVL13:
 292:D:/School/diseratie/SEMS/xmc4800_evaluation_kit/optiga-trust-m/examples/optiga/usecases\example_optiga_hmac_verify_with_authorization_reference.c ****         if (NULL == me_util)
 169              	 .loc 1 292 0
 170 0018 0546     	 mov r5,r0
 171 001a 0028     	 cmp r0,#0
 172 001c 6CD0     	 beq .L11
 293:D:/School/diseratie/SEMS/xmc4800_evaluation_kit/optiga-trust-m/examples/optiga/usecases\example_optiga_hmac_verify_with_authorization_reference.c ****         {
 294:D:/School/diseratie/SEMS/xmc4800_evaluation_kit/optiga-trust-m/examples/optiga/usecases\example_optiga_hmac_verify_with_authorization_reference.c ****             break;
 295:D:/School/diseratie/SEMS/xmc4800_evaluation_kit/optiga-trust-m/examples/optiga/usecases\example_optiga_hmac_verify_with_authorization_reference.c ****         }
 296:D:/School/diseratie/SEMS/xmc4800_evaluation_kit/optiga-trust-m/examples/optiga/usecases\example_optiga_hmac_verify_with_authorization_reference.c **** 
 297:D:/School/diseratie/SEMS/xmc4800_evaluation_kit/optiga-trust-m/examples/optiga/usecases\example_optiga_hmac_verify_with_authorization_reference.c ****         me_crypt = optiga_crypt_create(0, optiga_lib_callback, NULL);
 173              	 .loc 1 297 0
 174 001e 2046     	 mov r0,r4
 175              	.LVL14:
 176 0020 A849     	 ldr r1,.L63
 177 0022 2246     	 mov r2,r4
 178 0024 FFF7FEFF 	 bl optiga_crypt_create
 179              	.LVL15:
 298:D:/School/diseratie/SEMS/xmc4800_evaluation_kit/optiga-trust-m/examples/optiga/usecases\example_optiga_hmac_verify_with_authorization_reference.c ****         if (NULL == me_crypt)
 180              	 .loc 1 298 0
 181 0028 0746     	 mov r7,r0
 182 002a 0028     	 cmp r0,#0
 183 002c 51D0     	 beq .L12
 299:D:/School/diseratie/SEMS/xmc4800_evaluation_kit/optiga-trust-m/examples/optiga/usecases\example_optiga_hmac_verify_with_authorization_reference.c ****         {
 300:D:/School/diseratie/SEMS/xmc4800_evaluation_kit/optiga-trust-m/examples/optiga/usecases\example_optiga_hmac_verify_with_authorization_reference.c ****             break;
 301:D:/School/diseratie/SEMS/xmc4800_evaluation_kit/optiga-trust-m/examples/optiga/usecases\example_optiga_hmac_verify_with_authorization_reference.c ****         }
 302:D:/School/diseratie/SEMS/xmc4800_evaluation_kit/optiga-trust-m/examples/optiga/usecases\example_optiga_hmac_verify_with_authorization_reference.c **** 
 303:D:/School/diseratie/SEMS/xmc4800_evaluation_kit/optiga-trust-m/examples/optiga/usecases\example_optiga_hmac_verify_with_authorization_reference.c ****         /**
 304:D:/School/diseratie/SEMS/xmc4800_evaluation_kit/optiga-trust-m/examples/optiga/usecases\example_optiga_hmac_verify_with_authorization_reference.c ****          * Initialize the protection level and protocol version for the instances
 305:D:/School/diseratie/SEMS/xmc4800_evaluation_kit/optiga-trust-m/examples/optiga/usecases\example_optiga_hmac_verify_with_authorization_reference.c ****          */
 306:D:/School/diseratie/SEMS/xmc4800_evaluation_kit/optiga-trust-m/examples/optiga/usecases\example_optiga_hmac_verify_with_authorization_reference.c ****         OPTIGA_UTIL_SET_COMMS_PROTECTION_LEVEL(me_util,OPTIGA_COMMS_NO_PROTECTION);
 184              	 .loc 1 306 0
 185 002e 2246     	 mov r2,r4
 186 0030 2846     	 mov r0,r5
 187              	.LVL16:
 188 0032 0121     	 movs r1,#1
 189 0034 FFF7FEFF 	 bl optiga_util_set_comms_params
 190              	.LVL17:
 307:D:/School/diseratie/SEMS/xmc4800_evaluation_kit/optiga-trust-m/examples/optiga/usecases\example_optiga_hmac_verify_with_authorization_reference.c ****         OPTIGA_UTIL_SET_COMMS_PROTOCOL_VERSION(me_util,OPTIGA_COMMS_PROTOCOL_VERSION_PRE_SHARED_SEC
 191              	 .loc 1 307 0
 192 0038 2846     	 mov r0,r5
 193 003a 0221     	 movs r1,#2
 194 003c 0122     	 movs r2,#1
 195 003e FFF7FEFF 	 bl optiga_util_set_comms_params
 196              	.LVL18:
 308:D:/School/diseratie/SEMS/xmc4800_evaluation_kit/optiga-trust-m/examples/optiga/usecases\example_optiga_hmac_verify_with_authorization_reference.c **** 
 309:D:/School/diseratie/SEMS/xmc4800_evaluation_kit/optiga-trust-m/examples/optiga/usecases\example_optiga_hmac_verify_with_authorization_reference.c ****         OPTIGA_CRYPT_SET_COMMS_PROTECTION_LEVEL(me_crypt,OPTIGA_COMMS_NO_PROTECTION);
 197              	 .loc 1 309 0
 198 0042 2246     	 mov r2,r4
 199 0044 3846     	 mov r0,r7
 200 0046 0121     	 movs r1,#1
 201 0048 FFF7FEFF 	 bl optiga_crypt_set_comms_params
 202              	.LVL19:
 310:D:/School/diseratie/SEMS/xmc4800_evaluation_kit/optiga-trust-m/examples/optiga/usecases\example_optiga_hmac_verify_with_authorization_reference.c ****         OPTIGA_CRYPT_SET_COMMS_PROTOCOL_VERSION(me_crypt,OPTIGA_COMMS_PROTOCOL_VERSION_PRE_SHARED_S
 203              	 .loc 1 310 0
 204 004c 0122     	 movs r2,#1
 205 004e 3846     	 mov r0,r7
 206 0050 0221     	 movs r1,#2
 207 0052 FFF7FEFF 	 bl optiga_crypt_set_comms_params
 208              	.LVL20:
 209              	.LBB16:
 210              	.LBB17:
 238:D:/School/diseratie/SEMS/xmc4800_evaluation_kit/optiga-trust-m/examples/optiga/usecases\example_optiga_hmac_verify_with_authorization_reference.c ****         return_status = optiga_util_write_metadata(me_util,
 211              	 .loc 1 238 0
 212 0056 9C4C     	 ldr r4,.L63+4
 213              	.LBE17:
 214              	.LBE16:
 311:D:/School/diseratie/SEMS/xmc4800_evaluation_kit/optiga-trust-m/examples/optiga/usecases\example_optiga_hmac_verify_with_authorization_reference.c ****         
 312:D:/School/diseratie/SEMS/xmc4800_evaluation_kit/optiga-trust-m/examples/optiga/usecases\example_optiga_hmac_verify_with_authorization_reference.c ****         START_PERFORMANCE_MEASUREMENT(time_taken);
 215              	 .loc 1 312 0
 216 0058 06A8     	 add r0,sp,#24
 217 005a 0121     	 movs r1,#1
 218 005c FFF7FEFF 	 bl example_performance_measurement
 219              	.LVL21:
 220              	.LBB20:
 221              	.LBB18:
 238:D:/School/diseratie/SEMS/xmc4800_evaluation_kit/optiga-trust-m/examples/optiga/usecases\example_optiga_hmac_verify_with_authorization_reference.c ****         return_status = optiga_util_write_metadata(me_util,
 222              	 .loc 1 238 0
 223 0060 0123     	 movs r3,#1
 224 0062 2380     	 strh r3,[r4]
 239:D:/School/diseratie/SEMS/xmc4800_evaluation_kit/optiga-trust-m/examples/optiga/usecases\example_optiga_hmac_verify_with_authorization_reference.c ****                                                    secret_oid,
 225              	 .loc 1 239 0
 226 0064 2846     	 mov r0,r5
 227 0066 4FF2D011 	 movw r1,#61904
 228 006a 984A     	 ldr r2,.L63+8
 229 006c 0823     	 movs r3,#8
 230 006e FFF7FEFF 	 bl optiga_util_write_metadata
 231              	.LVL22:
 244:D:/School/diseratie/SEMS/xmc4800_evaluation_kit/optiga-trust-m/examples/optiga/usecases\example_optiga_hmac_verify_with_authorization_reference.c **** 
 232              	 .loc 1 244 0
 233 0072 0028     	 cmp r0,#0
 234 0074 35D1     	 bne .L19
 235              	.L14:
 236 0076 2388     	 ldrh r3,[r4]
 237 0078 934E     	 ldr r6,.L63+4
 238 007a 9BB2     	 uxth r3,r3
 239 007c 012B     	 cmp r3,#1
 240 007e FAD0     	 beq .L14
 241 0080 3388     	 ldrh r3,[r6]
 242 0082 9BB2     	 uxth r3,r3
 243 0084 002B     	 cmp r3,#0
 244 0086 3CD0     	 beq .L15
 245 0088 3388     	 ldrh r3,[r6]
 246 008a 9BB2     	 uxth r3,r3
 247              	.LVL23:
 248              	.L16:
 249              	.LBE18:
 250              	.LBE20:
 313:D:/School/diseratie/SEMS/xmc4800_evaluation_kit/optiga-trust-m/examples/optiga/usecases\example_optiga_hmac_verify_with_authorization_reference.c ****         
 314:D:/School/diseratie/SEMS/xmc4800_evaluation_kit/optiga-trust-m/examples/optiga/usecases\example_optiga_hmac_verify_with_authorization_reference.c ****         /**
 315:D:/School/diseratie/SEMS/xmc4800_evaluation_kit/optiga-trust-m/examples/optiga/usecases\example_optiga_hmac_verify_with_authorization_reference.c ****          * Precondition : Get the User Secret and store it in OID
 316:D:/School/diseratie/SEMS/xmc4800_evaluation_kit/optiga-trust-m/examples/optiga/usecases\example_optiga_hmac_verify_with_authorization_reference.c ****          */
 317:D:/School/diseratie/SEMS/xmc4800_evaluation_kit/optiga-trust-m/examples/optiga/usecases\example_optiga_hmac_verify_with_authorization_reference.c ****         // Function name in line with SRM
 318:D:/School/diseratie/SEMS/xmc4800_evaluation_kit/optiga-trust-m/examples/optiga/usecases\example_optiga_hmac_verify_with_authorization_reference.c ****         return_status = GetAutoValue(me_util, 0xF1D0);
 319:D:/School/diseratie/SEMS/xmc4800_evaluation_kit/optiga-trust-m/examples/optiga/usecases\example_optiga_hmac_verify_with_authorization_reference.c ****         if (OPTIGA_LIB_SUCCESS != return_status)
 251              	 .loc 1 319 0
 252 008c 4BBB     	 cbnz r3,.L19
 253              	.LVL24:
 254              	.L21:
 320:D:/School/diseratie/SEMS/xmc4800_evaluation_kit/optiga-trust-m/examples/optiga/usecases\example_optiga_hmac_verify_with_authorization_reference.c ****         {
 321:D:/School/diseratie/SEMS/xmc4800_evaluation_kit/optiga-trust-m/examples/optiga/usecases\example_optiga_hmac_verify_with_authorization_reference.c ****             break;
 322:D:/School/diseratie/SEMS/xmc4800_evaluation_kit/optiga-trust-m/examples/optiga/usecases\example_optiga_hmac_verify_with_authorization_reference.c ****         }
 323:D:/School/diseratie/SEMS/xmc4800_evaluation_kit/optiga-trust-m/examples/optiga/usecases\example_optiga_hmac_verify_with_authorization_reference.c ****         
 324:D:/School/diseratie/SEMS/xmc4800_evaluation_kit/optiga-trust-m/examples/optiga/usecases\example_optiga_hmac_verify_with_authorization_reference.c ****         /**
 325:D:/School/diseratie/SEMS/xmc4800_evaluation_kit/optiga-trust-m/examples/optiga/usecases\example_optiga_hmac_verify_with_authorization_reference.c ****          * Set the data to 0xF1E0.
 326:D:/School/diseratie/SEMS/xmc4800_evaluation_kit/optiga-trust-m/examples/optiga/usecases\example_optiga_hmac_verify_with_authorization_reference.c ****          */
 327:D:/School/diseratie/SEMS/xmc4800_evaluation_kit/optiga-trust-m/examples/optiga/usecases\example_optiga_hmac_verify_with_authorization_reference.c ****         optiga_lib_status = OPTIGA_LIB_BUSY;
 328:D:/School/diseratie/SEMS/xmc4800_evaluation_kit/optiga-trust-m/examples/optiga/usecases\example_optiga_hmac_verify_with_authorization_reference.c ****         return_status = optiga_util_write_data(me_util,
 255              	 .loc 1 328 0
 256 008e 904B     	 ldr r3,.L63+12
 257 0090 0093     	 str r3,[sp]
 327:D:/School/diseratie/SEMS/xmc4800_evaluation_kit/optiga-trust-m/examples/optiga/usecases\example_optiga_hmac_verify_with_authorization_reference.c ****         return_status = optiga_util_write_data(me_util,
 258              	 .loc 1 327 0
 259 0092 0126     	 movs r6,#1
 260              	 .loc 1 328 0
 261 0094 2023     	 movs r3,#32
 262 0096 0193     	 str r3,[sp,#4]
 263 0098 2846     	 mov r0,r5
 264 009a 4FF2E011 	 movw r1,#61920
 265 009e 4022     	 movs r2,#64
 266 00a0 0023     	 movs r3,#0
 327:D:/School/diseratie/SEMS/xmc4800_evaluation_kit/optiga-trust-m/examples/optiga/usecases\example_optiga_hmac_verify_with_authorization_reference.c ****         return_status = optiga_util_write_data(me_util,
 267              	 .loc 1 327 0
 268 00a2 2680     	 strh r6,[r4]
 269              	 .loc 1 328 0
 270 00a4 FFF7FEFF 	 bl optiga_util_write_data
 271              	.LVL25:
 329:D:/School/diseratie/SEMS/xmc4800_evaluation_kit/optiga-trust-m/examples/optiga/usecases\example_optiga_hmac_verify_with_authorization_reference.c ****                                                0xF1E0,
 330:D:/School/diseratie/SEMS/xmc4800_evaluation_kit/optiga-trust-m/examples/optiga/usecases\example_optiga_hmac_verify_with_authorization_reference.c ****                                                OPTIGA_UTIL_ERASE_AND_WRITE,
 331:D:/School/diseratie/SEMS/xmc4800_evaluation_kit/optiga-trust-m/examples/optiga/usecases\example_optiga_hmac_verify_with_authorization_reference.c ****                                                0,
 332:D:/School/diseratie/SEMS/xmc4800_evaluation_kit/optiga-trust-m/examples/optiga/usecases\example_optiga_hmac_verify_with_authorization_reference.c ****                                                read_oid_data,
 333:D:/School/diseratie/SEMS/xmc4800_evaluation_kit/optiga-trust-m/examples/optiga/usecases\example_optiga_hmac_verify_with_authorization_reference.c ****                                                sizeof(read_oid_data));
 334:D:/School/diseratie/SEMS/xmc4800_evaluation_kit/optiga-trust-m/examples/optiga/usecases\example_optiga_hmac_verify_with_authorization_reference.c **** 
 335:D:/School/diseratie/SEMS/xmc4800_evaluation_kit/optiga-trust-m/examples/optiga/usecases\example_optiga_hmac_verify_with_authorization_reference.c ****         WAIT_AND_CHECK_STATUS(return_status, optiga_lib_status);
 272              	 .loc 1 335 0
 273 00a8 D8B9     	 cbnz r0,.L19
 274              	.L20:
 275              	 .loc 1 335 0 is_stmt 0 discriminator 1
 276 00aa 2388     	 ldrh r3,[r4]
 277 00ac 864E     	 ldr r6,.L63+4
 278 00ae 9BB2     	 uxth r3,r3
 279 00b0 012B     	 cmp r3,#1
 280 00b2 FAD0     	 beq .L20
 281              	 .loc 1 335 0 discriminator 2
 282 00b4 3388     	 ldrh r3,[r6]
 283 00b6 9BB2     	 uxth r3,r3
 284 00b8 002B     	 cmp r3,#0
 285 00ba 3DD0     	 beq .L62
 286              	.L61:
 336:D:/School/diseratie/SEMS/xmc4800_evaluation_kit/optiga-trust-m/examples/optiga/usecases\example_optiga_hmac_verify_with_authorization_reference.c ****         
 337:D:/School/diseratie/SEMS/xmc4800_evaluation_kit/optiga-trust-m/examples/optiga/usecases\example_optiga_hmac_verify_with_authorization_reference.c ****         /**
 338:D:/School/diseratie/SEMS/xmc4800_evaluation_kit/optiga-trust-m/examples/optiga/usecases\example_optiga_hmac_verify_with_authorization_reference.c ****          * Set the metadata of 0xF1E0 to Auto with 0xF1D0.
 339:D:/School/diseratie/SEMS/xmc4800_evaluation_kit/optiga-trust-m/examples/optiga/usecases\example_optiga_hmac_verify_with_authorization_reference.c ****          */
 340:D:/School/diseratie/SEMS/xmc4800_evaluation_kit/optiga-trust-m/examples/optiga/usecases\example_optiga_hmac_verify_with_authorization_reference.c ****         optiga_lib_status = OPTIGA_LIB_BUSY;
 341:D:/School/diseratie/SEMS/xmc4800_evaluation_kit/optiga-trust-m/examples/optiga/usecases\example_optiga_hmac_verify_with_authorization_reference.c ****         return_status = optiga_util_write_metadata(me_util,
 342:D:/School/diseratie/SEMS/xmc4800_evaluation_kit/optiga-trust-m/examples/optiga/usecases\example_optiga_hmac_verify_with_authorization_reference.c ****                                                    0xF1E0,
 343:D:/School/diseratie/SEMS/xmc4800_evaluation_kit/optiga-trust-m/examples/optiga/usecases\example_optiga_hmac_verify_with_authorization_reference.c ****                                                    arbitrary_oid_metadata,
 344:D:/School/diseratie/SEMS/xmc4800_evaluation_kit/optiga-trust-m/examples/optiga/usecases\example_optiga_hmac_verify_with_authorization_reference.c ****                                                    sizeof(arbitrary_oid_metadata));
 345:D:/School/diseratie/SEMS/xmc4800_evaluation_kit/optiga-trust-m/examples/optiga/usecases\example_optiga_hmac_verify_with_authorization_reference.c **** 
 346:D:/School/diseratie/SEMS/xmc4800_evaluation_kit/optiga-trust-m/examples/optiga/usecases\example_optiga_hmac_verify_with_authorization_reference.c ****         WAIT_AND_CHECK_STATUS(return_status, optiga_lib_status);
 287              	 .loc 1 346 0 is_stmt 1 discriminator 3
 288 00bc 3488     	 ldrh r4,[r6]
 289 00be A4B2     	 uxth r4,r4
 290              	.LVL26:
 291              	.L23:
 347:D:/School/diseratie/SEMS/xmc4800_evaluation_kit/optiga-trust-m/examples/optiga/usecases\example_optiga_hmac_verify_with_authorization_reference.c ****         
 348:D:/School/diseratie/SEMS/xmc4800_evaluation_kit/optiga-trust-m/examples/optiga/usecases\example_optiga_hmac_verify_with_authorization_reference.c ****         /**
 349:D:/School/diseratie/SEMS/xmc4800_evaluation_kit/optiga-trust-m/examples/optiga/usecases\example_optiga_hmac_verify_with_authorization_reference.c ****          * Read data from a data object using optiga_util_read_data.
 350:D:/School/diseratie/SEMS/xmc4800_evaluation_kit/optiga-trust-m/examples/optiga/usecases\example_optiga_hmac_verify_with_authorization_reference.c ****          * Read returns failure as there is auto reference condition is not met
 351:D:/School/diseratie/SEMS/xmc4800_evaluation_kit/optiga-trust-m/examples/optiga/usecases\example_optiga_hmac_verify_with_authorization_reference.c ****          */
 352:D:/School/diseratie/SEMS/xmc4800_evaluation_kit/optiga-trust-m/examples/optiga/usecases\example_optiga_hmac_verify_with_authorization_reference.c ****         offset = 0x00;
 353:D:/School/diseratie/SEMS/xmc4800_evaluation_kit/optiga-trust-m/examples/optiga/usecases\example_optiga_hmac_verify_with_authorization_reference.c ****         bytes_to_read = sizeof(read_data_buffer);        
 354:D:/School/diseratie/SEMS/xmc4800_evaluation_kit/optiga-trust-m/examples/optiga/usecases\example_optiga_hmac_verify_with_authorization_reference.c ****         optiga_lib_status = OPTIGA_LIB_BUSY;
 355:D:/School/diseratie/SEMS/xmc4800_evaluation_kit/optiga-trust-m/examples/optiga/usecases\example_optiga_hmac_verify_with_authorization_reference.c ****         return_status = optiga_util_read_data(me_util,
 356:D:/School/diseratie/SEMS/xmc4800_evaluation_kit/optiga-trust-m/examples/optiga/usecases\example_optiga_hmac_verify_with_authorization_reference.c ****                                               0xF1E0,
 357:D:/School/diseratie/SEMS/xmc4800_evaluation_kit/optiga-trust-m/examples/optiga/usecases\example_optiga_hmac_verify_with_authorization_reference.c ****                                               offset,
 358:D:/School/diseratie/SEMS/xmc4800_evaluation_kit/optiga-trust-m/examples/optiga/usecases\example_optiga_hmac_verify_with_authorization_reference.c ****                                               read_data_buffer,
 359:D:/School/diseratie/SEMS/xmc4800_evaluation_kit/optiga-trust-m/examples/optiga/usecases\example_optiga_hmac_verify_with_authorization_reference.c ****                                               &bytes_to_read);
 360:D:/School/diseratie/SEMS/xmc4800_evaluation_kit/optiga-trust-m/examples/optiga/usecases\example_optiga_hmac_verify_with_authorization_reference.c **** 
 361:D:/School/diseratie/SEMS/xmc4800_evaluation_kit/optiga-trust-m/examples/optiga/usecases\example_optiga_hmac_verify_with_authorization_reference.c ****         if (OPTIGA_LIB_SUCCESS != return_status)
 362:D:/School/diseratie/SEMS/xmc4800_evaluation_kit/optiga-trust-m/examples/optiga/usecases\example_optiga_hmac_verify_with_authorization_reference.c ****         {
 363:D:/School/diseratie/SEMS/xmc4800_evaluation_kit/optiga-trust-m/examples/optiga/usecases\example_optiga_hmac_verify_with_authorization_reference.c ****             break;
 364:D:/School/diseratie/SEMS/xmc4800_evaluation_kit/optiga-trust-m/examples/optiga/usecases\example_optiga_hmac_verify_with_authorization_reference.c ****         }
 365:D:/School/diseratie/SEMS/xmc4800_evaluation_kit/optiga-trust-m/examples/optiga/usecases\example_optiga_hmac_verify_with_authorization_reference.c **** 
 366:D:/School/diseratie/SEMS/xmc4800_evaluation_kit/optiga-trust-m/examples/optiga/usecases\example_optiga_hmac_verify_with_authorization_reference.c ****         while (OPTIGA_LIB_BUSY == optiga_lib_status)
 367:D:/School/diseratie/SEMS/xmc4800_evaluation_kit/optiga-trust-m/examples/optiga/usecases\example_optiga_hmac_verify_with_authorization_reference.c ****         {
 368:D:/School/diseratie/SEMS/xmc4800_evaluation_kit/optiga-trust-m/examples/optiga/usecases\example_optiga_hmac_verify_with_authorization_reference.c ****             //Wait until the optiga_util_read_data operation is completed
 369:D:/School/diseratie/SEMS/xmc4800_evaluation_kit/optiga-trust-m/examples/optiga/usecases\example_optiga_hmac_verify_with_authorization_reference.c ****         }
 370:D:/School/diseratie/SEMS/xmc4800_evaluation_kit/optiga-trust-m/examples/optiga/usecases\example_optiga_hmac_verify_with_authorization_reference.c **** 
 371:D:/School/diseratie/SEMS/xmc4800_evaluation_kit/optiga-trust-m/examples/optiga/usecases\example_optiga_hmac_verify_with_authorization_reference.c ****         if ((OPTIGA_LIB_SUCCESS == optiga_lib_status) && (0 != bytes_to_read))
 372:D:/School/diseratie/SEMS/xmc4800_evaluation_kit/optiga-trust-m/examples/optiga/usecases\example_optiga_hmac_verify_with_authorization_reference.c ****         {
 373:D:/School/diseratie/SEMS/xmc4800_evaluation_kit/optiga-trust-m/examples/optiga/usecases\example_optiga_hmac_verify_with_authorization_reference.c ****             //Reading successed
 374:D:/School/diseratie/SEMS/xmc4800_evaluation_kit/optiga-trust-m/examples/optiga/usecases\example_optiga_hmac_verify_with_authorization_reference.c ****             return_status = !OPTIGA_LIB_SUCCESS;
 375:D:/School/diseratie/SEMS/xmc4800_evaluation_kit/optiga-trust-m/examples/optiga/usecases\example_optiga_hmac_verify_with_authorization_reference.c ****             break;
 376:D:/School/diseratie/SEMS/xmc4800_evaluation_kit/optiga-trust-m/examples/optiga/usecases\example_optiga_hmac_verify_with_authorization_reference.c ****         }
 377:D:/School/diseratie/SEMS/xmc4800_evaluation_kit/optiga-trust-m/examples/optiga/usecases\example_optiga_hmac_verify_with_authorization_reference.c ****         
 378:D:/School/diseratie/SEMS/xmc4800_evaluation_kit/optiga-trust-m/examples/optiga/usecases\example_optiga_hmac_verify_with_authorization_reference.c ****         /**
 379:D:/School/diseratie/SEMS/xmc4800_evaluation_kit/optiga-trust-m/examples/optiga/usecases\example_optiga_hmac_verify_with_authorization_reference.c ****          * Generate authorization code with optional data
 380:D:/School/diseratie/SEMS/xmc4800_evaluation_kit/optiga-trust-m/examples/optiga/usecases\example_optiga_hmac_verify_with_authorization_reference.c ****          */
 381:D:/School/diseratie/SEMS/xmc4800_evaluation_kit/optiga-trust-m/examples/optiga/usecases\example_optiga_hmac_verify_with_authorization_reference.c ****         optiga_lib_status = OPTIGA_LIB_BUSY;
 382:D:/School/diseratie/SEMS/xmc4800_evaluation_kit/optiga-trust-m/examples/optiga/usecases\example_optiga_hmac_verify_with_authorization_reference.c ****         return_status = optiga_crypt_generate_auth_code(me_crypt,
 383:D:/School/diseratie/SEMS/xmc4800_evaluation_kit/optiga-trust-m/examples/optiga/usecases\example_optiga_hmac_verify_with_authorization_reference.c ****                                                         OPTIGA_RNG_TYPE_TRNG,
 384:D:/School/diseratie/SEMS/xmc4800_evaluation_kit/optiga-trust-m/examples/optiga/usecases\example_optiga_hmac_verify_with_authorization_reference.c ****                                                         optional_data,
 385:D:/School/diseratie/SEMS/xmc4800_evaluation_kit/optiga-trust-m/examples/optiga/usecases\example_optiga_hmac_verify_with_authorization_reference.c ****                                                         sizeof(optional_data),
 386:D:/School/diseratie/SEMS/xmc4800_evaluation_kit/optiga-trust-m/examples/optiga/usecases\example_optiga_hmac_verify_with_authorization_reference.c ****                                                         random_data,
 387:D:/School/diseratie/SEMS/xmc4800_evaluation_kit/optiga-trust-m/examples/optiga/usecases\example_optiga_hmac_verify_with_authorization_reference.c ****                                                         sizeof(random_data));
 388:D:/School/diseratie/SEMS/xmc4800_evaluation_kit/optiga-trust-m/examples/optiga/usecases\example_optiga_hmac_verify_with_authorization_reference.c **** 
 389:D:/School/diseratie/SEMS/xmc4800_evaluation_kit/optiga-trust-m/examples/optiga/usecases\example_optiga_hmac_verify_with_authorization_reference.c ****         WAIT_AND_CHECK_STATUS(return_status, optiga_lib_status);
 390:D:/School/diseratie/SEMS/xmc4800_evaluation_kit/optiga-trust-m/examples/optiga/usecases\example_optiga_hmac_verify_with_authorization_reference.c **** 
 391:D:/School/diseratie/SEMS/xmc4800_evaluation_kit/optiga-trust-m/examples/optiga/usecases\example_optiga_hmac_verify_with_authorization_reference.c ****         /**
 392:D:/School/diseratie/SEMS/xmc4800_evaluation_kit/optiga-trust-m/examples/optiga/usecases\example_optiga_hmac_verify_with_authorization_reference.c ****          * Calculate HMAC on host
 393:D:/School/diseratie/SEMS/xmc4800_evaluation_kit/optiga-trust-m/examples/optiga/usecases\example_optiga_hmac_verify_with_authorization_reference.c ****          */
 394:D:/School/diseratie/SEMS/xmc4800_evaluation_kit/optiga-trust-m/examples/optiga/usecases\example_optiga_hmac_verify_with_authorization_reference.c ****         pal_os_memcpy(input_data_buffer, optional_data, sizeof(optional_data));
 395:D:/School/diseratie/SEMS/xmc4800_evaluation_kit/optiga-trust-m/examples/optiga/usecases\example_optiga_hmac_verify_with_authorization_reference.c ****         pal_os_memcpy(&input_data_buffer[sizeof(optional_data)], random_data, sizeof(random_data));
 396:D:/School/diseratie/SEMS/xmc4800_evaluation_kit/optiga-trust-m/examples/optiga/usecases\example_optiga_hmac_verify_with_authorization_reference.c ****         pal_os_memcpy(&input_data_buffer[sizeof(optional_data) + sizeof(random_data)], arbitrary_da
 397:D:/School/diseratie/SEMS/xmc4800_evaluation_kit/optiga-trust-m/examples/optiga/usecases\example_optiga_hmac_verify_with_authorization_reference.c ****         
 398:D:/School/diseratie/SEMS/xmc4800_evaluation_kit/optiga-trust-m/examples/optiga/usecases\example_optiga_hmac_verify_with_authorization_reference.c ****         // Function name in line with SRM
 399:D:/School/diseratie/SEMS/xmc4800_evaluation_kit/optiga-trust-m/examples/optiga/usecases\example_optiga_hmac_verify_with_authorization_reference.c ****         pal_return_status = CalcHMAC(user_secret,
 400:D:/School/diseratie/SEMS/xmc4800_evaluation_kit/optiga-trust-m/examples/optiga/usecases\example_optiga_hmac_verify_with_authorization_reference.c ****                                    sizeof(user_secret),
 401:D:/School/diseratie/SEMS/xmc4800_evaluation_kit/optiga-trust-m/examples/optiga/usecases\example_optiga_hmac_verify_with_authorization_reference.c ****                                    input_data_buffer,
 402:D:/School/diseratie/SEMS/xmc4800_evaluation_kit/optiga-trust-m/examples/optiga/usecases\example_optiga_hmac_verify_with_authorization_reference.c ****                                    sizeof(input_data_buffer),
 403:D:/School/diseratie/SEMS/xmc4800_evaluation_kit/optiga-trust-m/examples/optiga/usecases\example_optiga_hmac_verify_with_authorization_reference.c ****                                    hmac_buffer);
 404:D:/School/diseratie/SEMS/xmc4800_evaluation_kit/optiga-trust-m/examples/optiga/usecases\example_optiga_hmac_verify_with_authorization_reference.c **** 
 405:D:/School/diseratie/SEMS/xmc4800_evaluation_kit/optiga-trust-m/examples/optiga/usecases\example_optiga_hmac_verify_with_authorization_reference.c ****         if (PAL_STATUS_SUCCESS != pal_return_status)
 406:D:/School/diseratie/SEMS/xmc4800_evaluation_kit/optiga-trust-m/examples/optiga/usecases\example_optiga_hmac_verify_with_authorization_reference.c ****         {
 407:D:/School/diseratie/SEMS/xmc4800_evaluation_kit/optiga-trust-m/examples/optiga/usecases\example_optiga_hmac_verify_with_authorization_reference.c ****             // HMAC calculation on host failed
 408:D:/School/diseratie/SEMS/xmc4800_evaluation_kit/optiga-trust-m/examples/optiga/usecases\example_optiga_hmac_verify_with_authorization_reference.c ****             return_status = pal_return_status;
 409:D:/School/diseratie/SEMS/xmc4800_evaluation_kit/optiga-trust-m/examples/optiga/usecases\example_optiga_hmac_verify_with_authorization_reference.c ****             break;
 410:D:/School/diseratie/SEMS/xmc4800_evaluation_kit/optiga-trust-m/examples/optiga/usecases\example_optiga_hmac_verify_with_authorization_reference.c ****         }
 411:D:/School/diseratie/SEMS/xmc4800_evaluation_kit/optiga-trust-m/examples/optiga/usecases\example_optiga_hmac_verify_with_authorization_reference.c ****         
 412:D:/School/diseratie/SEMS/xmc4800_evaluation_kit/optiga-trust-m/examples/optiga/usecases\example_optiga_hmac_verify_with_authorization_reference.c ****         /**
 413:D:/School/diseratie/SEMS/xmc4800_evaluation_kit/optiga-trust-m/examples/optiga/usecases\example_optiga_hmac_verify_with_authorization_reference.c ****          * Perform HMAC verification using OPTIGA
 414:D:/School/diseratie/SEMS/xmc4800_evaluation_kit/optiga-trust-m/examples/optiga/usecases\example_optiga_hmac_verify_with_authorization_reference.c ****          */
 415:D:/School/diseratie/SEMS/xmc4800_evaluation_kit/optiga-trust-m/examples/optiga/usecases\example_optiga_hmac_verify_with_authorization_reference.c ****         optiga_lib_status = OPTIGA_LIB_BUSY;
 416:D:/School/diseratie/SEMS/xmc4800_evaluation_kit/optiga-trust-m/examples/optiga/usecases\example_optiga_hmac_verify_with_authorization_reference.c ****         return_status = optiga_crypt_hmac_verify(me_crypt,
 417:D:/School/diseratie/SEMS/xmc4800_evaluation_kit/optiga-trust-m/examples/optiga/usecases\example_optiga_hmac_verify_with_authorization_reference.c ****                                                  OPTIGA_HMAC_SHA_256,
 418:D:/School/diseratie/SEMS/xmc4800_evaluation_kit/optiga-trust-m/examples/optiga/usecases\example_optiga_hmac_verify_with_authorization_reference.c ****                                                  0xF1D0,
 419:D:/School/diseratie/SEMS/xmc4800_evaluation_kit/optiga-trust-m/examples/optiga/usecases\example_optiga_hmac_verify_with_authorization_reference.c ****                                                  input_data_buffer,
 420:D:/School/diseratie/SEMS/xmc4800_evaluation_kit/optiga-trust-m/examples/optiga/usecases\example_optiga_hmac_verify_with_authorization_reference.c ****                                                  sizeof(input_data_buffer),
 421:D:/School/diseratie/SEMS/xmc4800_evaluation_kit/optiga-trust-m/examples/optiga/usecases\example_optiga_hmac_verify_with_authorization_reference.c ****                                                  hmac_buffer,
 422:D:/School/diseratie/SEMS/xmc4800_evaluation_kit/optiga-trust-m/examples/optiga/usecases\example_optiga_hmac_verify_with_authorization_reference.c ****                                                  sizeof(hmac_buffer));
 423:D:/School/diseratie/SEMS/xmc4800_evaluation_kit/optiga-trust-m/examples/optiga/usecases\example_optiga_hmac_verify_with_authorization_reference.c ****         WAIT_AND_CHECK_STATUS(return_status, optiga_lib_status);
 424:D:/School/diseratie/SEMS/xmc4800_evaluation_kit/optiga-trust-m/examples/optiga/usecases\example_optiga_hmac_verify_with_authorization_reference.c **** 
 425:D:/School/diseratie/SEMS/xmc4800_evaluation_kit/optiga-trust-m/examples/optiga/usecases\example_optiga_hmac_verify_with_authorization_reference.c ****         /**
 426:D:/School/diseratie/SEMS/xmc4800_evaluation_kit/optiga-trust-m/examples/optiga/usecases\example_optiga_hmac_verify_with_authorization_reference.c ****         * PostCondition : Read data from a data object using optiga_util_read_data.
 427:D:/School/diseratie/SEMS/xmc4800_evaluation_kit/optiga-trust-m/examples/optiga/usecases\example_optiga_hmac_verify_with_authorization_reference.c ****         * Read data returns SUCCESS
 428:D:/School/diseratie/SEMS/xmc4800_evaluation_kit/optiga-trust-m/examples/optiga/usecases\example_optiga_hmac_verify_with_authorization_reference.c ****          */
 429:D:/School/diseratie/SEMS/xmc4800_evaluation_kit/optiga-trust-m/examples/optiga/usecases\example_optiga_hmac_verify_with_authorization_reference.c ****         offset = 0x00;
 430:D:/School/diseratie/SEMS/xmc4800_evaluation_kit/optiga-trust-m/examples/optiga/usecases\example_optiga_hmac_verify_with_authorization_reference.c ****         bytes_to_read = sizeof(read_data_buffer);        
 431:D:/School/diseratie/SEMS/xmc4800_evaluation_kit/optiga-trust-m/examples/optiga/usecases\example_optiga_hmac_verify_with_authorization_reference.c ****         
 432:D:/School/diseratie/SEMS/xmc4800_evaluation_kit/optiga-trust-m/examples/optiga/usecases\example_optiga_hmac_verify_with_authorization_reference.c ****         optiga_lib_status = OPTIGA_LIB_BUSY;
 433:D:/School/diseratie/SEMS/xmc4800_evaluation_kit/optiga-trust-m/examples/optiga/usecases\example_optiga_hmac_verify_with_authorization_reference.c ****         return_status = optiga_util_read_data(me_util,
 434:D:/School/diseratie/SEMS/xmc4800_evaluation_kit/optiga-trust-m/examples/optiga/usecases\example_optiga_hmac_verify_with_authorization_reference.c ****                                               0xF1E0,
 435:D:/School/diseratie/SEMS/xmc4800_evaluation_kit/optiga-trust-m/examples/optiga/usecases\example_optiga_hmac_verify_with_authorization_reference.c ****                                               offset,
 436:D:/School/diseratie/SEMS/xmc4800_evaluation_kit/optiga-trust-m/examples/optiga/usecases\example_optiga_hmac_verify_with_authorization_reference.c ****                                               read_data_buffer,
 437:D:/School/diseratie/SEMS/xmc4800_evaluation_kit/optiga-trust-m/examples/optiga/usecases\example_optiga_hmac_verify_with_authorization_reference.c ****                                               &bytes_to_read);
 438:D:/School/diseratie/SEMS/xmc4800_evaluation_kit/optiga-trust-m/examples/optiga/usecases\example_optiga_hmac_verify_with_authorization_reference.c **** 
 439:D:/School/diseratie/SEMS/xmc4800_evaluation_kit/optiga-trust-m/examples/optiga/usecases\example_optiga_hmac_verify_with_authorization_reference.c ****         WAIT_AND_CHECK_STATUS(return_status, optiga_lib_status);
 440:D:/School/diseratie/SEMS/xmc4800_evaluation_kit/optiga-trust-m/examples/optiga/usecases\example_optiga_hmac_verify_with_authorization_reference.c ****         
 441:D:/School/diseratie/SEMS/xmc4800_evaluation_kit/optiga-trust-m/examples/optiga/usecases\example_optiga_hmac_verify_with_authorization_reference.c ****         /**
 442:D:/School/diseratie/SEMS/xmc4800_evaluation_kit/optiga-trust-m/examples/optiga/usecases\example_optiga_hmac_verify_with_authorization_reference.c ****          * Reset the metadata of 0xF1E0 to default.
 443:D:/School/diseratie/SEMS/xmc4800_evaluation_kit/optiga-trust-m/examples/optiga/usecases\example_optiga_hmac_verify_with_authorization_reference.c ****          */
 444:D:/School/diseratie/SEMS/xmc4800_evaluation_kit/optiga-trust-m/examples/optiga/usecases\example_optiga_hmac_verify_with_authorization_reference.c ****         optiga_lib_status = OPTIGA_LIB_BUSY;
 445:D:/School/diseratie/SEMS/xmc4800_evaluation_kit/optiga-trust-m/examples/optiga/usecases\example_optiga_hmac_verify_with_authorization_reference.c ****         return_status = optiga_util_write_metadata(me_util,
 446:D:/School/diseratie/SEMS/xmc4800_evaluation_kit/optiga-trust-m/examples/optiga/usecases\example_optiga_hmac_verify_with_authorization_reference.c ****                                                    0xF1E0,
 447:D:/School/diseratie/SEMS/xmc4800_evaluation_kit/optiga-trust-m/examples/optiga/usecases\example_optiga_hmac_verify_with_authorization_reference.c ****                                                    arbitrary_oid_metadata_default,
 448:D:/School/diseratie/SEMS/xmc4800_evaluation_kit/optiga-trust-m/examples/optiga/usecases\example_optiga_hmac_verify_with_authorization_reference.c ****                                                    sizeof(arbitrary_oid_metadata_default));
 449:D:/School/diseratie/SEMS/xmc4800_evaluation_kit/optiga-trust-m/examples/optiga/usecases\example_optiga_hmac_verify_with_authorization_reference.c **** 
 450:D:/School/diseratie/SEMS/xmc4800_evaluation_kit/optiga-trust-m/examples/optiga/usecases\example_optiga_hmac_verify_with_authorization_reference.c ****         WAIT_AND_CHECK_STATUS(return_status, optiga_lib_status);
 451:D:/School/diseratie/SEMS/xmc4800_evaluation_kit/optiga-trust-m/examples/optiga/usecases\example_optiga_hmac_verify_with_authorization_reference.c ****         
 452:D:/School/diseratie/SEMS/xmc4800_evaluation_kit/optiga-trust-m/examples/optiga/usecases\example_optiga_hmac_verify_with_authorization_reference.c ****         READ_PERFORMANCE_MEASUREMENT(time_taken);
 453:D:/School/diseratie/SEMS/xmc4800_evaluation_kit/optiga-trust-m/examples/optiga/usecases\example_optiga_hmac_verify_with_authorization_reference.c ****         
 454:D:/School/diseratie/SEMS/xmc4800_evaluation_kit/optiga-trust-m/examples/optiga/usecases\example_optiga_hmac_verify_with_authorization_reference.c ****         return_status = OPTIGA_LIB_SUCCESS;
 455:D:/School/diseratie/SEMS/xmc4800_evaluation_kit/optiga-trust-m/examples/optiga/usecases\example_optiga_hmac_verify_with_authorization_reference.c **** 
 456:D:/School/diseratie/SEMS/xmc4800_evaluation_kit/optiga-trust-m/examples/optiga/usecases\example_optiga_hmac_verify_with_authorization_reference.c ****     } while(FALSE);
 457:D:/School/diseratie/SEMS/xmc4800_evaluation_kit/optiga-trust-m/examples/optiga/usecases\example_optiga_hmac_verify_with_authorization_reference.c ****     OPTIGA_EXAMPLE_LOG_STATUS(return_status);
 458:D:/School/diseratie/SEMS/xmc4800_evaluation_kit/optiga-trust-m/examples/optiga/usecases\example_optiga_hmac_verify_with_authorization_reference.c ****     
 459:D:/School/diseratie/SEMS/xmc4800_evaluation_kit/optiga-trust-m/examples/optiga/usecases\example_optiga_hmac_verify_with_authorization_reference.c **** #ifndef OPTIGA_INIT_DEINIT_DONE_EXCLUSIVELY
 460:D:/School/diseratie/SEMS/xmc4800_evaluation_kit/optiga-trust-m/examples/optiga/usecases\example_optiga_hmac_verify_with_authorization_reference.c ****     /**
 461:D:/School/diseratie/SEMS/xmc4800_evaluation_kit/optiga-trust-m/examples/optiga/usecases\example_optiga_hmac_verify_with_authorization_reference.c ****      * Close the application on OPTIGA after all the operations are executed
 462:D:/School/diseratie/SEMS/xmc4800_evaluation_kit/optiga-trust-m/examples/optiga/usecases\example_optiga_hmac_verify_with_authorization_reference.c ****      * using optiga_util_close_application
 463:D:/School/diseratie/SEMS/xmc4800_evaluation_kit/optiga-trust-m/examples/optiga/usecases\example_optiga_hmac_verify_with_authorization_reference.c ****      */
 464:D:/School/diseratie/SEMS/xmc4800_evaluation_kit/optiga-trust-m/examples/optiga/usecases\example_optiga_hmac_verify_with_authorization_reference.c ****     example_optiga_deinit();
 292              	 .loc 1 464 0
 293 00c0 FFF7FEFF 	 bl example_optiga_deinit
 294              	.LVL27:
 465:D:/School/diseratie/SEMS/xmc4800_evaluation_kit/optiga-trust-m/examples/optiga/usecases\example_optiga_hmac_verify_with_authorization_reference.c **** #endif //OPTIGA_INIT_DEINIT_DONE_EXCLUSIVELY
 466:D:/School/diseratie/SEMS/xmc4800_evaluation_kit/optiga-trust-m/examples/optiga/usecases\example_optiga_hmac_verify_with_authorization_reference.c ****     OPTIGA_EXAMPLE_LOG_PERFORMANCE_VALUE(time_taken, return_status);
 295              	 .loc 1 466 0
 296 00c4 7CB9     	 cbnz r4,.L39
 297              	.LVL28:
 298              	.L37:
 299              	 .loc 1 466 0 is_stmt 0 discriminator 1
 300 00c6 8349     	 ldr r1,.L63+16
 301 00c8 069A     	 ldr r2,[sp,#24]
 302 00ca 8348     	 ldr r0,.L63+20
 303 00cc FFF7FEFF 	 bl sprintf
 304              	.LVL29:
 305 00d0 09E0     	 b .L39
 306              	.LVL30:
 307              	.L12:
 464:D:/School/diseratie/SEMS/xmc4800_evaluation_kit/optiga-trust-m/examples/optiga/usecases\example_optiga_hmac_verify_with_authorization_reference.c **** #endif //OPTIGA_INIT_DEINIT_DONE_EXCLUSIVELY
 308              	 .loc 1 464 0 is_stmt 1
 309 00d2 FFF7FEFF 	 bl example_optiga_deinit
 310              	.LVL31:
 467:D:/School/diseratie/SEMS/xmc4800_evaluation_kit/optiga-trust-m/examples/optiga/usecases\example_optiga_hmac_verify_with_authorization_reference.c ****     
 468:D:/School/diseratie/SEMS/xmc4800_evaluation_kit/optiga-trust-m/examples/optiga/usecases\example_optiga_hmac_verify_with_authorization_reference.c ****     if(me_util)
 469:D:/School/diseratie/SEMS/xmc4800_evaluation_kit/optiga-trust-m/examples/optiga/usecases\example_optiga_hmac_verify_with_authorization_reference.c ****     {
 470:D:/School/diseratie/SEMS/xmc4800_evaluation_kit/optiga-trust-m/examples/optiga/usecases\example_optiga_hmac_verify_with_authorization_reference.c ****         //Destroy the instance after the completion of usecase if not required.
 471:D:/School/diseratie/SEMS/xmc4800_evaluation_kit/optiga-trust-m/examples/optiga/usecases\example_optiga_hmac_verify_with_authorization_reference.c ****         return_status = optiga_util_destroy(me_util);
 311              	 .loc 1 471 0
 312 00d6 2846     	 mov r0,r5
 313 00d8 FFF7FEFF 	 bl optiga_util_destroy
 314              	.LVL32:
 472:D:/School/diseratie/SEMS/xmc4800_evaluation_kit/optiga-trust-m/examples/optiga/usecases\example_optiga_hmac_verify_with_authorization_reference.c ****         if(OPTIGA_LIB_SUCCESS != return_status)
 473:D:/School/diseratie/SEMS/xmc4800_evaluation_kit/optiga-trust-m/examples/optiga/usecases\example_optiga_hmac_verify_with_authorization_reference.c ****         {
 474:D:/School/diseratie/SEMS/xmc4800_evaluation_kit/optiga-trust-m/examples/optiga/usecases\example_optiga_hmac_verify_with_authorization_reference.c ****             //lint --e{774} suppress This is a generic macro
 475:D:/School/diseratie/SEMS/xmc4800_evaluation_kit/optiga-trust-m/examples/optiga/usecases\example_optiga_hmac_verify_with_authorization_reference.c ****             OPTIGA_EXAMPLE_LOG_STATUS(return_status);
 476:D:/School/diseratie/SEMS/xmc4800_evaluation_kit/optiga-trust-m/examples/optiga/usecases\example_optiga_hmac_verify_with_authorization_reference.c ****         }
 477:D:/School/diseratie/SEMS/xmc4800_evaluation_kit/optiga-trust-m/examples/optiga/usecases\example_optiga_hmac_verify_with_authorization_reference.c ****     }
 478:D:/School/diseratie/SEMS/xmc4800_evaluation_kit/optiga-trust-m/examples/optiga/usecases\example_optiga_hmac_verify_with_authorization_reference.c ****     if(me_crypt)
 479:D:/School/diseratie/SEMS/xmc4800_evaluation_kit/optiga-trust-m/examples/optiga/usecases\example_optiga_hmac_verify_with_authorization_reference.c ****     {
 480:D:/School/diseratie/SEMS/xmc4800_evaluation_kit/optiga-trust-m/examples/optiga/usecases\example_optiga_hmac_verify_with_authorization_reference.c ****         //Destroy the instance after the completion of usecase if not required.
 481:D:/School/diseratie/SEMS/xmc4800_evaluation_kit/optiga-trust-m/examples/optiga/usecases\example_optiga_hmac_verify_with_authorization_reference.c ****         return_status = optiga_crypt_destroy(me_crypt);
 482:D:/School/diseratie/SEMS/xmc4800_evaluation_kit/optiga-trust-m/examples/optiga/usecases\example_optiga_hmac_verify_with_authorization_reference.c ****         if(OPTIGA_LIB_SUCCESS != return_status)
 483:D:/School/diseratie/SEMS/xmc4800_evaluation_kit/optiga-trust-m/examples/optiga/usecases\example_optiga_hmac_verify_with_authorization_reference.c ****         {
 484:D:/School/diseratie/SEMS/xmc4800_evaluation_kit/optiga-trust-m/examples/optiga/usecases\example_optiga_hmac_verify_with_authorization_reference.c ****             //lint --e{774} suppress This is a generic macro
 485:D:/School/diseratie/SEMS/xmc4800_evaluation_kit/optiga-trust-m/examples/optiga/usecases\example_optiga_hmac_verify_with_authorization_reference.c ****             OPTIGA_EXAMPLE_LOG_STATUS(return_status);
 486:D:/School/diseratie/SEMS/xmc4800_evaluation_kit/optiga-trust-m/examples/optiga/usecases\example_optiga_hmac_verify_with_authorization_reference.c ****         }
 487:D:/School/diseratie/SEMS/xmc4800_evaluation_kit/optiga-trust-m/examples/optiga/usecases\example_optiga_hmac_verify_with_authorization_reference.c ****     }
 488:D:/School/diseratie/SEMS/xmc4800_evaluation_kit/optiga-trust-m/examples/optiga/usecases\example_optiga_hmac_verify_with_authorization_reference.c ****     
 489:D:/School/diseratie/SEMS/xmc4800_evaluation_kit/optiga-trust-m/examples/optiga/usecases\example_optiga_hmac_verify_with_authorization_reference.c **** }
 315              	 .loc 1 489 0
 316 00dc 20B0     	 add sp,sp,#128
 317              	.LCFI7:
 318              	 .cfi_remember_state
 319              	 .cfi_def_cfa_offset 32
 320              	 
 321 00de BDE8F087 	 pop {r4,r5,r6,r7,r8,r9,r10,pc}
 322              	.LVL33:
 323              	.L19:
 324              	.LCFI8:
 325              	 .cfi_restore_state
 464:D:/School/diseratie/SEMS/xmc4800_evaluation_kit/optiga-trust-m/examples/optiga/usecases\example_optiga_hmac_verify_with_authorization_reference.c **** #endif //OPTIGA_INIT_DEINIT_DONE_EXCLUSIVELY
 326              	 .loc 1 464 0
 327 00e2 FFF7FEFF 	 bl example_optiga_deinit
 328              	.LVL34:
 329              	.L39:
 471:D:/School/diseratie/SEMS/xmc4800_evaluation_kit/optiga-trust-m/examples/optiga/usecases\example_optiga_hmac_verify_with_authorization_reference.c ****         if(OPTIGA_LIB_SUCCESS != return_status)
 330              	 .loc 1 471 0
 331 00e6 2846     	 mov r0,r5
 332 00e8 FFF7FEFF 	 bl optiga_util_destroy
 333              	.LVL35:
 481:D:/School/diseratie/SEMS/xmc4800_evaluation_kit/optiga-trust-m/examples/optiga/usecases\example_optiga_hmac_verify_with_authorization_reference.c ****         if(OPTIGA_LIB_SUCCESS != return_status)
 334              	 .loc 1 481 0
 335 00ec 3846     	 mov r0,r7
 336 00ee FFF7FEFF 	 bl optiga_crypt_destroy
 337              	.LVL36:
 338              	 .loc 1 489 0
 339 00f2 20B0     	 add sp,sp,#128
 340              	.LCFI9:
 341              	 .cfi_remember_state
 342              	 .cfi_def_cfa_offset 32
 343              	 
 344 00f4 BDE8F087 	 pop {r4,r5,r6,r7,r8,r9,r10,pc}
 345              	.LVL37:
 346              	.L11:
 347              	.LCFI10:
 348              	 .cfi_restore_state
 464:D:/School/diseratie/SEMS/xmc4800_evaluation_kit/optiga-trust-m/examples/optiga/usecases\example_optiga_hmac_verify_with_authorization_reference.c **** #endif //OPTIGA_INIT_DEINIT_DONE_EXCLUSIVELY
 349              	 .loc 1 464 0
 350 00f8 FFF7FEFF 	 bl example_optiga_deinit
 351              	.LVL38:
 352              	 .loc 1 489 0
 353 00fc 20B0     	 add sp,sp,#128
 354              	.LCFI11:
 355              	 .cfi_remember_state
 356              	 .cfi_def_cfa_offset 32
 357              	 
 358 00fe BDE8F087 	 pop {r4,r5,r6,r7,r8,r9,r10,pc}
 359              	.LVL39:
 360              	.L15:
 361              	.LCFI12:
 362              	 .cfi_restore_state
 363              	.LBB21:
 364              	.LBB19:
 250:D:/School/diseratie/SEMS/xmc4800_evaluation_kit/optiga-trust-m/examples/optiga/usecases\example_optiga_hmac_verify_with_authorization_reference.c ****                                                secret_oid,
 365              	 .loc 1 250 0
 366 0102 764A     	 ldr r2,.L63+24
 367 0104 0092     	 str r2,[sp]
 249:D:/School/diseratie/SEMS/xmc4800_evaluation_kit/optiga-trust-m/examples/optiga/usecases\example_optiga_hmac_verify_with_authorization_reference.c ****         return_status = optiga_util_write_data(me_util,
 368              	 .loc 1 249 0
 369 0106 4FF0010E 	 mov lr,#1
 250:D:/School/diseratie/SEMS/xmc4800_evaluation_kit/optiga-trust-m/examples/optiga/usecases\example_optiga_hmac_verify_with_authorization_reference.c ****                                                secret_oid,
 370              	 .loc 1 250 0
 371 010a 4022     	 movs r2,#64
 372 010c 0192     	 str r2,[sp,#4]
 373 010e 2846     	 mov r0,r5
 374              	.LVL40:
 375 0110 4FF2D011 	 movw r1,#61904
 249:D:/School/diseratie/SEMS/xmc4800_evaluation_kit/optiga-trust-m/examples/optiga/usecases\example_optiga_hmac_verify_with_authorization_reference.c ****         return_status = optiga_util_write_data(me_util,
 376              	 .loc 1 249 0
 377 0114 A6F800E0 	 strh lr,[r6]
 250:D:/School/diseratie/SEMS/xmc4800_evaluation_kit/optiga-trust-m/examples/optiga/usecases\example_optiga_hmac_verify_with_authorization_reference.c ****                                                secret_oid,
 378              	 .loc 1 250 0
 379 0118 FFF7FEFF 	 bl optiga_util_write_data
 380              	.LVL41:
 257:D:/School/diseratie/SEMS/xmc4800_evaluation_kit/optiga-trust-m/examples/optiga/usecases\example_optiga_hmac_verify_with_authorization_reference.c ****     } while(FALSE);
 381              	 .loc 1 257 0
 382 011c 0028     	 cmp r0,#0
 383 011e E0D1     	 bne .L19
 384              	.L17:
 385 0120 2388     	 ldrh r3,[r4]
 386 0122 694A     	 ldr r2,.L63+4
 387 0124 9BB2     	 uxth r3,r3
 388 0126 012B     	 cmp r3,#1
 389 0128 FAD0     	 beq .L17
 390 012a 1388     	 ldrh r3,[r2]
 391 012c 9BB2     	 uxth r3,r3
 392 012e 002B     	 cmp r3,#0
 393 0130 ADD0     	 beq .L21
 394 0132 1388     	 ldrh r3,[r2]
 395 0134 9BB2     	 uxth r3,r3
 396              	.LVL42:
 397 0136 A9E7     	 b .L16
 398              	.LVL43:
 399              	.L62:
 400              	.LBE19:
 401              	.LBE21:
 340:D:/School/diseratie/SEMS/xmc4800_evaluation_kit/optiga-trust-m/examples/optiga/usecases\example_optiga_hmac_verify_with_authorization_reference.c ****         return_status = optiga_util_write_metadata(me_util,
 402              	 .loc 1 340 0
 403 0138 0123     	 movs r3,#1
 404 013a 3380     	 strh r3,[r6]
 341:D:/School/diseratie/SEMS/xmc4800_evaluation_kit/optiga-trust-m/examples/optiga/usecases\example_optiga_hmac_verify_with_authorization_reference.c ****                                                    0xF1E0,
 405              	 .loc 1 341 0
 406 013c 2846     	 mov r0,r5
 407              	.LVL44:
 408 013e 4FF2E011 	 movw r1,#61920
 409 0142 674A     	 ldr r2,.L63+28
 410 0144 0723     	 movs r3,#7
 411 0146 FFF7FEFF 	 bl optiga_util_write_metadata
 412              	.LVL45:
 346:D:/School/diseratie/SEMS/xmc4800_evaluation_kit/optiga-trust-m/examples/optiga/usecases\example_optiga_hmac_verify_with_authorization_reference.c ****         
 413              	 .loc 1 346 0
 414 014a 0028     	 cmp r0,#0
 415 014c C9D1     	 bne .L19
 416              	.L24:
 346:D:/School/diseratie/SEMS/xmc4800_evaluation_kit/optiga-trust-m/examples/optiga/usecases\example_optiga_hmac_verify_with_authorization_reference.c ****         
 417              	 .loc 1 346 0 is_stmt 0 discriminator 1
 418 014e 2388     	 ldrh r3,[r4]
 419 0150 5D4E     	 ldr r6,.L63+4
 420 0152 9BB2     	 uxth r3,r3
 421 0154 012B     	 cmp r3,#1
 422 0156 FAD0     	 beq .L24
 346:D:/School/diseratie/SEMS/xmc4800_evaluation_kit/optiga-trust-m/examples/optiga/usecases\example_optiga_hmac_verify_with_authorization_reference.c ****         
 423              	 .loc 1 346 0 discriminator 2
 424 0158 3288     	 ldrh r2,[r6]
 425 015a 92B2     	 uxth r2,r2
 426 015c 002A     	 cmp r2,#0
 427 015e ADD1     	 bne .L61
 428              	.LVL46:
 355:D:/School/diseratie/SEMS/xmc4800_evaluation_kit/optiga-trust-m/examples/optiga/usecases\example_optiga_hmac_verify_with_authorization_reference.c ****                                               0xF1E0,
 429              	 .loc 1 355 0 is_stmt 1
 430 0160 0DF11601 	 add r1,sp,#22
 354:D:/School/diseratie/SEMS/xmc4800_evaluation_kit/optiga-trust-m/examples/optiga/usecases\example_optiga_hmac_verify_with_authorization_reference.c ****         return_status = optiga_util_read_data(me_util,
 431              	 .loc 1 354 0
 432 0164 4FF0010C 	 mov ip,#1
 355:D:/School/diseratie/SEMS/xmc4800_evaluation_kit/optiga-trust-m/examples/optiga/usecases\example_optiga_hmac_verify_with_authorization_reference.c ****                                               0xF1E0,
 433              	 .loc 1 355 0
 434 0168 0091     	 str r1,[sp]
 353:D:/School/diseratie/SEMS/xmc4800_evaluation_kit/optiga-trust-m/examples/optiga/usecases\example_optiga_hmac_verify_with_authorization_reference.c ****         optiga_lib_status = OPTIGA_LIB_BUSY;
 435              	 .loc 1 353 0
 436 016a 4FF06408 	 mov r8,#100
 355:D:/School/diseratie/SEMS/xmc4800_evaluation_kit/optiga-trust-m/examples/optiga/usecases\example_optiga_hmac_verify_with_authorization_reference.c ****                                               0xF1E0,
 437              	 .loc 1 355 0
 438 016e 07AB     	 add r3,sp,#28
 439 0170 2846     	 mov r0,r5
 440              	.LVL47:
 441 0172 4FF2E011 	 movw r1,#61920
 354:D:/School/diseratie/SEMS/xmc4800_evaluation_kit/optiga-trust-m/examples/optiga/usecases\example_optiga_hmac_verify_with_authorization_reference.c ****         return_status = optiga_util_read_data(me_util,
 442              	 .loc 1 354 0
 443 0176 A6F800C0 	 strh ip,[r6]
 353:D:/School/diseratie/SEMS/xmc4800_evaluation_kit/optiga-trust-m/examples/optiga/usecases\example_optiga_hmac_verify_with_authorization_reference.c ****         optiga_lib_status = OPTIGA_LIB_BUSY;
 444              	 .loc 1 353 0
 445 017a ADF81680 	 strh r8,[sp,#22]
 355:D:/School/diseratie/SEMS/xmc4800_evaluation_kit/optiga-trust-m/examples/optiga/usecases\example_optiga_hmac_verify_with_authorization_reference.c ****                                               0xF1E0,
 446              	 .loc 1 355 0
 447 017e FFF7FEFF 	 bl optiga_util_read_data
 448              	.LVL48:
 361:D:/School/diseratie/SEMS/xmc4800_evaluation_kit/optiga-trust-m/examples/optiga/usecases\example_optiga_hmac_verify_with_authorization_reference.c ****         {
 449              	 .loc 1 361 0
 450 0182 0028     	 cmp r0,#0
 451 0184 ADD1     	 bne .L19
 452              	.L26:
 366:D:/School/diseratie/SEMS/xmc4800_evaluation_kit/optiga-trust-m/examples/optiga/usecases\example_optiga_hmac_verify_with_authorization_reference.c ****         {
 453              	 .loc 1 366 0 discriminator 1
 454 0186 2388     	 ldrh r3,[r4]
 455 0188 4F4A     	 ldr r2,.L63+4
 456 018a 9BB2     	 uxth r3,r3
 457 018c 012B     	 cmp r3,#1
 458 018e FAD0     	 beq .L26
 371:D:/School/diseratie/SEMS/xmc4800_evaluation_kit/optiga-trust-m/examples/optiga/usecases\example_optiga_hmac_verify_with_authorization_reference.c ****         {
 459              	 .loc 1 371 0
 460 0190 1388     	 ldrh r3,[r2]
 461 0192 9BB2     	 uxth r3,r3
 462 0194 1BB9     	 cbnz r3,.L27
 371:D:/School/diseratie/SEMS/xmc4800_evaluation_kit/optiga-trust-m/examples/optiga/usecases\example_optiga_hmac_verify_with_authorization_reference.c ****         {
 463              	 .loc 1 371 0 is_stmt 0 discriminator 1
 464 0196 BDF81630 	 ldrh r3,[sp,#22]
 465 019a 002B     	 cmp r3,#0
 466 019c A1D1     	 bne .L19
 467              	.L27:
 382:D:/School/diseratie/SEMS/xmc4800_evaluation_kit/optiga-trust-m/examples/optiga/usecases\example_optiga_hmac_verify_with_authorization_reference.c ****                                                         OPTIGA_RNG_TYPE_TRNG,
 468              	 .loc 1 382 0 is_stmt 1
 469 019e 514B     	 ldr r3,.L63+32
 470 01a0 0093     	 str r3,[sp]
 471 01a2 2023     	 movs r3,#32
 472 01a4 0193     	 str r3,[sp,#4]
 381:D:/School/diseratie/SEMS/xmc4800_evaluation_kit/optiga-trust-m/examples/optiga/usecases\example_optiga_hmac_verify_with_authorization_reference.c ****         return_status = optiga_crypt_generate_auth_code(me_crypt,
 473              	 .loc 1 381 0
 474 01a6 0123     	 movs r3,#1
 475 01a8 2380     	 strh r3,[r4]
 382:D:/School/diseratie/SEMS/xmc4800_evaluation_kit/optiga-trust-m/examples/optiga/usecases\example_optiga_hmac_verify_with_authorization_reference.c ****                                                         OPTIGA_RNG_TYPE_TRNG,
 476              	 .loc 1 382 0
 477 01aa 3846     	 mov r0,r7
 478              	.LVL49:
 479 01ac 0021     	 movs r1,#0
 480 01ae 4E4A     	 ldr r2,.L63+36
 481 01b0 1023     	 movs r3,#16
 482 01b2 FFF7FEFF 	 bl optiga_crypt_generate_auth_code
 483              	.LVL50:
 389:D:/School/diseratie/SEMS/xmc4800_evaluation_kit/optiga-trust-m/examples/optiga/usecases\example_optiga_hmac_verify_with_authorization_reference.c **** 
 484              	 .loc 1 389 0
 485 01b6 0028     	 cmp r0,#0
 486 01b8 93D1     	 bne .L19
 487              	.L28:
 389:D:/School/diseratie/SEMS/xmc4800_evaluation_kit/optiga-trust-m/examples/optiga/usecases\example_optiga_hmac_verify_with_authorization_reference.c **** 
 488              	 .loc 1 389 0 is_stmt 0 discriminator 1
 489 01ba 2388     	 ldrh r3,[r4]
 490 01bc DFF80881 	 ldr r8,.L63+4
 491 01c0 9BB2     	 uxth r3,r3
 492 01c2 012B     	 cmp r3,#1
 493 01c4 F9D0     	 beq .L28
 389:D:/School/diseratie/SEMS/xmc4800_evaluation_kit/optiga-trust-m/examples/optiga/usecases\example_optiga_hmac_verify_with_authorization_reference.c **** 
 494              	 .loc 1 389 0 discriminator 2
 495 01c6 B8F80030 	 ldrh r3,[r8]
 496 01ca 9BB2     	 uxth r3,r3
 497 01cc 1BB1     	 cbz r3,.L29
 389:D:/School/diseratie/SEMS/xmc4800_evaluation_kit/optiga-trust-m/examples/optiga/usecases\example_optiga_hmac_verify_with_authorization_reference.c **** 
 498              	 .loc 1 389 0 discriminator 3
 499 01ce B8F80040 	 ldrh r4,[r8]
 500 01d2 A4B2     	 uxth r4,r4
 501              	.LVL51:
 502 01d4 74E7     	 b .L23
 503              	.LVL52:
 504              	.L29:
 394:D:/School/diseratie/SEMS/xmc4800_evaluation_kit/optiga-trust-m/examples/optiga/usecases\example_optiga_hmac_verify_with_authorization_reference.c ****         pal_os_memcpy(&input_data_buffer[sizeof(optional_data)], random_data, sizeof(random_data));
 505              	 .loc 1 394 0 is_stmt 1
 506 01d6 4548     	 ldr r0,.L63+40
 507              	.LVL53:
 508 01d8 4349     	 ldr r1,.L63+36
 509              	.LBB22:
 510              	.LBB23:
 511              	.LBB24:
 202:D:/School/diseratie/SEMS/xmc4800_evaluation_kit/optiga-trust-m/examples/optiga/usecases\example_optiga_hmac_verify_with_authorization_reference.c ****         {
 512              	 .loc 1 202 0
 513 01da DFF824A1 	 ldr r10,.L63+60
 514              	.LBE24:
 515              	.LBE23:
 516              	.LBE22:
 394:D:/School/diseratie/SEMS/xmc4800_evaluation_kit/optiga-trust-m/examples/optiga/usecases\example_optiga_hmac_verify_with_authorization_reference.c ****         pal_os_memcpy(&input_data_buffer[sizeof(optional_data)], random_data, sizeof(random_data));
 517              	 .loc 1 394 0
 518 01de 1022     	 movs r2,#16
 519 01e0 FFF7FEFF 	 bl pal_os_memcpy
 520              	.LVL54:
 395:D:/School/diseratie/SEMS/xmc4800_evaluation_kit/optiga-trust-m/examples/optiga/usecases\example_optiga_hmac_verify_with_authorization_reference.c ****         pal_os_memcpy(&input_data_buffer[sizeof(optional_data) + sizeof(random_data)], arbitrary_da
 521              	 .loc 1 395 0
 522 01e4 4248     	 ldr r0,.L63+44
 523 01e6 3F49     	 ldr r1,.L63+32
 524 01e8 2022     	 movs r2,#32
 525 01ea FFF7FEFF 	 bl pal_os_memcpy
 526              	.LVL55:
 396:D:/School/diseratie/SEMS/xmc4800_evaluation_kit/optiga-trust-m/examples/optiga/usecases\example_optiga_hmac_verify_with_authorization_reference.c ****         
 527              	 .loc 1 396 0
 528 01ee 4149     	 ldr r1,.L63+48
 529 01f0 4148     	 ldr r0,.L63+52
 530 01f2 1022     	 movs r2,#16
 531 01f4 FFF7FEFF 	 bl pal_os_memcpy
 532              	.LVL56:
 533              	.LBB27:
 534              	.LBB26:
 535              	.LBB25:
 202:D:/School/diseratie/SEMS/xmc4800_evaluation_kit/optiga-trust-m/examples/optiga/usecases\example_optiga_hmac_verify_with_authorization_reference.c ****         {
 536              	 .loc 1 202 0
 537 01f8 4FF04009 	 mov r9,#64
 200:D:/School/diseratie/SEMS/xmc4800_evaluation_kit/optiga-trust-m/examples/optiga/usecases\example_optiga_hmac_verify_with_authorization_reference.c **** 
 538              	 .loc 1 200 0
 539 01fc 0620     	 movs r0,#6
 540 01fe FFF7FEFF 	 bl mbedtls_md_info_from_type
 541              	.LVL57:
 202:D:/School/diseratie/SEMS/xmc4800_evaluation_kit/optiga-trust-m/examples/optiga/usecases\example_optiga_hmac_verify_with_authorization_reference.c ****         {
 542              	 .loc 1 202 0
 543 0202 CDF80090 	 str r9,[sp]
 544 0206 4A46     	 mov r2,r9
 545 0208 CDF804A0 	 str r10,[sp,#4]
 546 020c 3349     	 ldr r1,.L63+24
 547 020e 374B     	 ldr r3,.L63+40
 548 0210 FFF7FEFF 	 bl mbedtls_md_hmac
 549              	.LVL58:
 550 0214 0028     	 cmp r0,#0
 551 0216 7FF464AF 	 bne .L19
 552              	.LVL59:
 553              	.LBE25:
 554              	.LBE26:
 555              	.LBE27:
 416:D:/School/diseratie/SEMS/xmc4800_evaluation_kit/optiga-trust-m/examples/optiga/usecases\example_optiga_hmac_verify_with_authorization_reference.c ****                                                  OPTIGA_HMAC_SHA_256,
 556              	 .loc 1 416 0
 557 021a 2021     	 movs r1,#32
 415:D:/School/diseratie/SEMS/xmc4800_evaluation_kit/optiga-trust-m/examples/optiga/usecases\example_optiga_hmac_verify_with_authorization_reference.c ****         return_status = optiga_crypt_hmac_verify(me_crypt,
 558              	 .loc 1 415 0
 559 021c 4FF0010E 	 mov lr,#1
 416:D:/School/diseratie/SEMS/xmc4800_evaluation_kit/optiga-trust-m/examples/optiga/usecases\example_optiga_hmac_verify_with_authorization_reference.c ****                                                  OPTIGA_HMAC_SHA_256,
 560              	 .loc 1 416 0
 561 0220 8DE80006 	 stmia sp,{r9,r10}
 562 0224 0291     	 str r1,[sp,#8]
 563 0226 3846     	 mov r0,r7
 564 0228 4FF2D012 	 movw r2,#61904
 565 022c 2F4B     	 ldr r3,.L63+40
 415:D:/School/diseratie/SEMS/xmc4800_evaluation_kit/optiga-trust-m/examples/optiga/usecases\example_optiga_hmac_verify_with_authorization_reference.c ****         return_status = optiga_crypt_hmac_verify(me_crypt,
 566              	 .loc 1 415 0
 567 022e A8F800E0 	 strh lr,[r8]
 416:D:/School/diseratie/SEMS/xmc4800_evaluation_kit/optiga-trust-m/examples/optiga/usecases\example_optiga_hmac_verify_with_authorization_reference.c ****                                                  OPTIGA_HMAC_SHA_256,
 568              	 .loc 1 416 0
 569 0232 FFF7FEFF 	 bl optiga_crypt_hmac_verify
 570              	.LVL60:
 423:D:/School/diseratie/SEMS/xmc4800_evaluation_kit/optiga-trust-m/examples/optiga/usecases\example_optiga_hmac_verify_with_authorization_reference.c **** 
 571              	 .loc 1 423 0
 572 0236 0028     	 cmp r0,#0
 573 0238 7FF453AF 	 bne .L19
 574              	.L31:
 423:D:/School/diseratie/SEMS/xmc4800_evaluation_kit/optiga-trust-m/examples/optiga/usecases\example_optiga_hmac_verify_with_authorization_reference.c **** 
 575              	 .loc 1 423 0 is_stmt 0 discriminator 1
 576 023c 2388     	 ldrh r3,[r4]
 577 023e DFF888E0 	 ldr lr,.L63+4
 578 0242 9BB2     	 uxth r3,r3
 579 0244 012B     	 cmp r3,#1
 580 0246 F9D0     	 beq .L31
 423:D:/School/diseratie/SEMS/xmc4800_evaluation_kit/optiga-trust-m/examples/optiga/usecases\example_optiga_hmac_verify_with_authorization_reference.c **** 
 581              	 .loc 1 423 0 discriminator 2
 582 0248 BEF80020 	 ldrh r2,[lr]
 583 024c 92B2     	 uxth r2,r2
 584 024e 1AB1     	 cbz r2,.L32
 423:D:/School/diseratie/SEMS/xmc4800_evaluation_kit/optiga-trust-m/examples/optiga/usecases\example_optiga_hmac_verify_with_authorization_reference.c **** 
 585              	 .loc 1 423 0 discriminator 3
 586 0250 BEF80040 	 ldrh r4,[lr]
 587 0254 A4B2     	 uxth r4,r4
 588              	.LVL61:
 589 0256 33E7     	 b .L23
 590              	.LVL62:
 591              	.L32:
 433:D:/School/diseratie/SEMS/xmc4800_evaluation_kit/optiga-trust-m/examples/optiga/usecases\example_optiga_hmac_verify_with_authorization_reference.c ****                                               0xF1E0,
 592              	 .loc 1 433 0 is_stmt 1
 593 0258 0DF11603 	 add r3,sp,#22
 432:D:/School/diseratie/SEMS/xmc4800_evaluation_kit/optiga-trust-m/examples/optiga/usecases\example_optiga_hmac_verify_with_authorization_reference.c ****         return_status = optiga_util_read_data(me_util,
 594              	 .loc 1 432 0
 595 025c 0126     	 movs r6,#1
 433:D:/School/diseratie/SEMS/xmc4800_evaluation_kit/optiga-trust-m/examples/optiga/usecases\example_optiga_hmac_verify_with_authorization_reference.c ****                                               0xF1E0,
 596              	 .loc 1 433 0
 597 025e 0093     	 str r3,[sp]
 430:D:/School/diseratie/SEMS/xmc4800_evaluation_kit/optiga-trust-m/examples/optiga/usecases\example_optiga_hmac_verify_with_authorization_reference.c ****         
 598              	 .loc 1 430 0
 599 0260 4FF0640C 	 mov ip,#100
 433:D:/School/diseratie/SEMS/xmc4800_evaluation_kit/optiga-trust-m/examples/optiga/usecases\example_optiga_hmac_verify_with_authorization_reference.c ****                                               0xF1E0,
 600              	 .loc 1 433 0
 601 0264 07AB     	 add r3,sp,#28
 602 0266 2846     	 mov r0,r5
 603              	.LVL63:
 604 0268 4FF2E011 	 movw r1,#61920
 432:D:/School/diseratie/SEMS/xmc4800_evaluation_kit/optiga-trust-m/examples/optiga/usecases\example_optiga_hmac_verify_with_authorization_reference.c ****         return_status = optiga_util_read_data(me_util,
 605              	 .loc 1 432 0
 606 026c AEF80060 	 strh r6,[lr]
 430:D:/School/diseratie/SEMS/xmc4800_evaluation_kit/optiga-trust-m/examples/optiga/usecases\example_optiga_hmac_verify_with_authorization_reference.c ****         
 607              	 .loc 1 430 0
 608 0270 ADF816C0 	 strh ip,[sp,#22]
 433:D:/School/diseratie/SEMS/xmc4800_evaluation_kit/optiga-trust-m/examples/optiga/usecases\example_optiga_hmac_verify_with_authorization_reference.c ****                                               0xF1E0,
 609              	 .loc 1 433 0
 610 0274 FFF7FEFF 	 bl optiga_util_read_data
 611              	.LVL64:
 439:D:/School/diseratie/SEMS/xmc4800_evaluation_kit/optiga-trust-m/examples/optiga/usecases\example_optiga_hmac_verify_with_authorization_reference.c ****         
 612              	 .loc 1 439 0
 613 0278 0028     	 cmp r0,#0
 614 027a 7FF432AF 	 bne .L19
 615              	.L33:
 439:D:/School/diseratie/SEMS/xmc4800_evaluation_kit/optiga-trust-m/examples/optiga/usecases\example_optiga_hmac_verify_with_authorization_reference.c ****         
 616              	 .loc 1 439 0 is_stmt 0 discriminator 1
 617 027e 2288     	 ldrh r2,[r4]
 618 0280 114B     	 ldr r3,.L63+4
 619 0282 92B2     	 uxth r2,r2
 620 0284 012A     	 cmp r2,#1
 621 0286 FAD0     	 beq .L33
 439:D:/School/diseratie/SEMS/xmc4800_evaluation_kit/optiga-trust-m/examples/optiga/usecases\example_optiga_hmac_verify_with_authorization_reference.c ****         
 622              	 .loc 1 439 0 discriminator 2
 623 0288 1A88     	 ldrh r2,[r3]
 624 028a 92B2     	 uxth r2,r2
 625 028c 12B1     	 cbz r2,.L34
 439:D:/School/diseratie/SEMS/xmc4800_evaluation_kit/optiga-trust-m/examples/optiga/usecases\example_optiga_hmac_verify_with_authorization_reference.c ****         
 626              	 .loc 1 439 0 discriminator 3
 627 028e 1C88     	 ldrh r4,[r3]
 628 0290 A4B2     	 uxth r4,r4
 629              	.LVL65:
 630 0292 15E7     	 b .L23
 631              	.LVL66:
 632              	.L34:
 444:D:/School/diseratie/SEMS/xmc4800_evaluation_kit/optiga-trust-m/examples/optiga/usecases\example_optiga_hmac_verify_with_authorization_reference.c ****         return_status = optiga_util_write_metadata(me_util,
 633              	 .loc 1 444 0 is_stmt 1
 634 0294 0126     	 movs r6,#1
 635 0296 1E80     	 strh r6,[r3]
 445:D:/School/diseratie/SEMS/xmc4800_evaluation_kit/optiga-trust-m/examples/optiga/usecases\example_optiga_hmac_verify_with_authorization_reference.c ****                                                    0xF1E0,
 636              	 .loc 1 445 0
 637 0298 2846     	 mov r0,r5
 638              	.LVL67:
 639 029a 4FF2E011 	 movw r1,#61920
 640 029e 174A     	 ldr r2,.L63+56
 641 02a0 0523     	 movs r3,#5
 642 02a2 FFF7FEFF 	 bl optiga_util_write_metadata
 643              	.LVL68:
 450:D:/School/diseratie/SEMS/xmc4800_evaluation_kit/optiga-trust-m/examples/optiga/usecases\example_optiga_hmac_verify_with_authorization_reference.c ****         
 644              	 .loc 1 450 0
 645 02a6 0028     	 cmp r0,#0
 646 02a8 7FF41BAF 	 bne .L19
 647              	.L35:
 450:D:/School/diseratie/SEMS/xmc4800_evaluation_kit/optiga-trust-m/examples/optiga/usecases\example_optiga_hmac_verify_with_authorization_reference.c ****         
 648              	 .loc 1 450 0 is_stmt 0 discriminator 1
 649 02ac 2388     	 ldrh r3,[r4]
 650 02ae 064A     	 ldr r2,.L63+4
 651 02b0 9BB2     	 uxth r3,r3
 652 02b2 012B     	 cmp r3,#1
 653 02b4 FAD0     	 beq .L35
 450:D:/School/diseratie/SEMS/xmc4800_evaluation_kit/optiga-trust-m/examples/optiga/usecases\example_optiga_hmac_verify_with_authorization_reference.c ****         
 654              	 .loc 1 450 0 discriminator 2
 655 02b6 1188     	 ldrh r1,[r2]
 656 02b8 89B2     	 uxth r1,r1
 657 02ba 19B3     	 cbz r1,.L36
 450:D:/School/diseratie/SEMS/xmc4800_evaluation_kit/optiga-trust-m/examples/optiga/usecases\example_optiga_hmac_verify_with_authorization_reference.c ****         
 658              	 .loc 1 450 0 discriminator 3
 659 02bc 1488     	 ldrh r4,[r2]
 660 02be A4B2     	 uxth r4,r4
 661              	.LVL69:
 662 02c0 FEE6     	 b .L23
 663              	.L64:
 664 02c2 00BF     	 .align 2
 665              	.L63:
 666 02c4 00000000 	 .word optiga_lib_callback
 667 02c8 00000000 	 .word .LANCHOR0
 668 02cc 00000000 	 .word .LANCHOR1
 669 02d0 00000000 	 .word .LANCHOR3
 670 02d4 00000000 	 .word .LC0
 671 02d8 00000000 	 .word performance_buffer_string
 672 02dc 00000000 	 .word .LANCHOR2
 673 02e0 00000000 	 .word .LANCHOR4
 674 02e4 00000000 	 .word .LANCHOR6
 675 02e8 00000000 	 .word .LANCHOR5
 676 02ec 00000000 	 .word .LANCHOR7
 677 02f0 10000000 	 .word .LANCHOR7+16
 678 02f4 00000000 	 .word .LANCHOR8
 679 02f8 30000000 	 .word .LANCHOR7+48
 680 02fc 00000000 	 .word .LANCHOR10
 681 0300 00000000 	 .word .LANCHOR9
 682              	.LVL70:
 683              	.L36:
 452:D:/School/diseratie/SEMS/xmc4800_evaluation_kit/optiga-trust-m/examples/optiga/usecases\example_optiga_hmac_verify_with_authorization_reference.c ****         
 684              	 .loc 1 452 0 is_stmt 1
 685 0304 06A8     	 add r0,sp,#24
 686              	.LVL71:
 687 0306 FFF7FEFF 	 bl example_performance_measurement
 688              	.LVL72:
 464:D:/School/diseratie/SEMS/xmc4800_evaluation_kit/optiga-trust-m/examples/optiga/usecases\example_optiga_hmac_verify_with_authorization_reference.c **** #endif //OPTIGA_INIT_DEINIT_DONE_EXCLUSIVELY
 689              	 .loc 1 464 0
 690 030a FFF7FEFF 	 bl example_optiga_deinit
 691              	.LVL73:
 692 030e DAE6     	 b .L37
 693              	 .cfi_endproc
 694              	.LFE22:
 696              	 .global hmac_buffer
 697              	 .global input_data_buffer
 698              	 .global arbitrary_data
 699              	 .global random_data
 700              	 .global optional_data
 701              	 .global read_oid_data
 702              	 .global user_secret
 703              	 .global arbitrary_oid_metadata_default
 704              	 .global arbitrary_oid_metadata
 705              	 .global secret_oid_metadata
 706              	 .section .rodata.user_secret,"a",%progbits
 707              	 .align 2
 708              	 .set .LANCHOR2,.+0
 711              	user_secret:
 712 0000 49       	 .byte 73
 713 0001 C9       	 .byte -55
 714 0002 F4       	 .byte -12
 715 0003 92       	 .byte -110
 716 0004 A9       	 .byte -87
 717 0005 92       	 .byte -110
 718 0006 F6       	 .byte -10
 719 0007 D4       	 .byte -44
 720 0008 C5       	 .byte -59
 721 0009 4F       	 .byte 79
 722 000a 5B       	 .byte 91
 723 000b 12       	 .byte 18
 724 000c C5       	 .byte -59
 725 000d 7E       	 .byte 126
 726 000e DB       	 .byte -37
 727 000f 27       	 .byte 39
 728 0010 CE       	 .byte -50
 729 0011 D2       	 .byte -46
 730 0012 24       	 .byte 36
 731 0013 04       	 .byte 4
 732 0014 8F       	 .byte -113
 733 0015 25       	 .byte 37
 734 0016 48       	 .byte 72
 735 0017 2A       	 .byte 42
 736 0018 A1       	 .byte -95
 737 0019 49       	 .byte 73
 738 001a C9       	 .byte -55
 739 001b F4       	 .byte -12
 740 001c 92       	 .byte -110
 741 001d A9       	 .byte -87
 742 001e 92       	 .byte -110
 743 001f F6       	 .byte -10
 744 0020 49       	 .byte 73
 745 0021 C9       	 .byte -55
 746 0022 F4       	 .byte -12
 747 0023 92       	 .byte -110
 748 0024 A9       	 .byte -87
 749 0025 92       	 .byte -110
 750 0026 F6       	 .byte -10
 751 0027 D4       	 .byte -44
 752 0028 C5       	 .byte -59
 753 0029 4F       	 .byte 79
 754 002a 5B       	 .byte 91
 755 002b 12       	 .byte 18
 756 002c C5       	 .byte -59
 757 002d 7E       	 .byte 126
 758 002e DB       	 .byte -37
 759 002f 27       	 .byte 39
 760 0030 CE       	 .byte -50
 761 0031 D2       	 .byte -46
 762 0032 24       	 .byte 36
 763 0033 04       	 .byte 4
 764 0034 8F       	 .byte -113
 765 0035 25       	 .byte 37
 766 0036 48       	 .byte 72
 767 0037 2A       	 .byte 42
 768 0038 A1       	 .byte -95
 769 0039 49       	 .byte 73
 770 003a C9       	 .byte -55
 771 003b F4       	 .byte -12
 772 003c 92       	 .byte -110
 773 003d A9       	 .byte -87
 774 003e 92       	 .byte -110
 775 003f F6       	 .byte -10
 776              	 .section .bss.random_data,"aw",%nobits
 777              	 .align 2
 778              	 .set .LANCHOR6,.+0
 781              	random_data:
 782 0000 00000000 	 .space 32
 782      00000000 
 782      00000000 
 782      00000000 
 782      00000000 
 783              	 .section .rodata.secret_oid_metadata,"a",%progbits
 784              	 .align 2
 785              	 .set .LANCHOR1,.+0
 788              	secret_oid_metadata:
 789 0000 20       	 .byte 32
 790 0001 06       	 .byte 6
 791 0002 D3       	 .byte -45
 792 0003 01       	 .byte 1
 793 0004 00       	 .byte 0
 794 0005 E8       	 .byte -24
 795 0006 01       	 .byte 1
 796 0007 31       	 .byte 49
 797              	 .section .bss.hmac_buffer,"aw",%nobits
 798              	 .align 2
 799              	 .set .LANCHOR9,.+0
 802              	hmac_buffer:
 803 0000 00000000 	 .space 32
 803      00000000 
 803      00000000 
 803      00000000 
 803      00000000 
 804              	 .section .rodata.arbitrary_oid_metadata_default,"a",%progbits
 805              	 .align 2
 806              	 .set .LANCHOR10,.+0
 809              	arbitrary_oid_metadata_default:
 810 0000 20       	 .byte 32
 811 0001 03       	 .byte 3
 812 0002 D1       	 .byte -47
 813 0003 01       	 .byte 1
 814 0004 00       	 .byte 0
 815 0005 000000   	 .section .rodata.str1.4,"aMS",%progbits,1
 816              	 .align 2
 817              	.LC0:
 818 0000 4578616D 	 .ascii "Example takes %d msec\000"
 818      706C6520 
 818      74616B65 
 818      73202564 
 818      206D7365 
 819 0016 0000     	 .section .rodata.read_oid_data,"a",%progbits
 820              	 .align 2
 821              	 .set .LANCHOR3,.+0
 824              	read_oid_data:
 825 0000 49       	 .byte 73
 826 0001 C9       	 .byte -55
 827 0002 F4       	 .byte -12
 828 0003 92       	 .byte -110
 829 0004 A9       	 .byte -87
 830 0005 92       	 .byte -110
 831 0006 F6       	 .byte -10
 832 0007 D4       	 .byte -44
 833 0008 C5       	 .byte -59
 834 0009 4F       	 .byte 79
 835 000a 5B       	 .byte 91
 836 000b 12       	 .byte 18
 837 000c C5       	 .byte -59
 838 000d 7E       	 .byte 126
 839 000e DB       	 .byte -37
 840 000f 27       	 .byte 39
 841 0010 CE       	 .byte -50
 842 0011 D2       	 .byte -46
 843 0012 24       	 .byte 36
 844 0013 04       	 .byte 4
 845 0014 8F       	 .byte -113
 846 0015 25       	 .byte 37
 847 0016 48       	 .byte 72
 848 0017 2A       	 .byte 42
 849 0018 A1       	 .byte -95
 850 0019 49       	 .byte 73
 851 001a C9       	 .byte -55
 852 001b F4       	 .byte -12
 853 001c 92       	 .byte -110
 854 001d A9       	 .byte -87
 855 001e 92       	 .byte -110
 856 001f F6       	 .byte -10
 857              	 .section .bss.input_data_buffer,"aw",%nobits
 858              	 .align 2
 859              	 .set .LANCHOR7,.+0
 862              	input_data_buffer:
 863 0000 00000000 	 .space 64
 863      00000000 
 863      00000000 
 863      00000000 
 863      00000000 
 864              	 .section .rodata.optional_data,"a",%progbits
 865              	 .align 2
 866              	 .set .LANCHOR5,.+0
 869              	optional_data:
 870 0000 01       	 .byte 1
 871 0001 02       	 .byte 2
 872 0002 03       	 .byte 3
 873 0003 04       	 .byte 4
 874 0004 05       	 .byte 5
 875 0005 06       	 .byte 6
 876 0006 07       	 .byte 7
 877 0007 08       	 .byte 8
 878 0008 09       	 .byte 9
 879 0009 0A       	 .byte 10
 880 000a 0B       	 .byte 11
 881 000b 0C       	 .byte 12
 882 000c 0D       	 .byte 13
 883 000d 0E       	 .byte 14
 884 000e 0F       	 .byte 15
 885 000f 10       	 .byte 16
 886              	 .section .rodata.arbitrary_data,"a",%progbits
 887              	 .align 2
 888              	 .set .LANCHOR8,.+0
 891              	arbitrary_data:
 892 0000 F0       	 .byte -16
 893 0001 F1       	 .byte -15
 894 0002 F2       	 .byte -14
 895 0003 F3       	 .byte -13
 896 0004 F4       	 .byte -12
 897 0005 F5       	 .byte -11
 898 0006 F6       	 .byte -10
 899 0007 F7       	 .byte -9
 900 0008 F8       	 .byte -8
 901 0009 F9       	 .byte -7
 902 000a FA       	 .byte -6
 903 000b FB       	 .byte -5
 904 000c FC       	 .byte -4
 905 000d FD       	 .byte -3
 906 000e FE       	 .byte -2
 907 000f FF       	 .byte -1
 908              	 .section .bss.optiga_lib_status,"aw",%nobits
 909              	 .align 1
 910              	 .set .LANCHOR0,.+0
 913              	optiga_lib_status:
 914 0000 0000     	 .space 2
 915              	 .section .rodata.arbitrary_oid_metadata,"a",%progbits
 916              	 .align 2
 917              	 .set .LANCHOR4,.+0
 920              	arbitrary_oid_metadata:
 921 0000 20       	 .byte 32
 922 0001 05       	 .byte 5
 923 0002 D1       	 .byte -47
 924 0003 03       	 .byte 3
 925 0004 23       	 .byte 35
 926 0005 F1       	 .byte -15
 927 0006 D0       	 .byte -48
 928 0007 00       	 .text
 929              	.Letext0:
 930              	 .file 2 "c:\\infineon\\tools\\dave ide\\4.5.0.202105191637\\eclipse\\arm-gcc-49\\arm-none-eabi\\include\\machine\\_default_types.h"
 931              	 .file 3 "c:\\infineon\\tools\\dave ide\\4.5.0.202105191637\\eclipse\\arm-gcc-49\\lib\\gcc\\arm-none-eabi\\4.9.3\\include\\stddef.h"
 932              	 .file 4 "c:\\infineon\\tools\\dave ide\\4.5.0.202105191637\\eclipse\\arm-gcc-49\\arm-none-eabi\\include\\stdint.h"
 933              	 .file 5 "D:/School/diseratie/SEMS/xmc4800_evaluation_kit/optiga-trust-m/optiga/include/optiga/common/optiga_lib_types.h"
 934              	 .file 6 "D:/School/diseratie/SEMS/xmc4800_evaluation_kit/optiga-trust-m/optiga/include/optiga/common/optiga_lib_common.h"
 935              	 .file 7 "D:/School/diseratie/SEMS/xmc4800_evaluation_kit/optiga-trust-m/optiga/include/optiga/cmd/optiga_cmd.h"
 936              	 .file 8 "D:/School/diseratie/SEMS/xmc4800_evaluation_kit/optiga-trust-m/optiga/include/optiga/optiga_util.h"
 937              	 .file 9 "D:/School/diseratie/SEMS/xmc4800_evaluation_kit/optiga-trust-m/optiga/include/optiga/optiga_crypt.h"
 938              	 .file 10 "D:/School/diseratie/SEMS/xmc4800_evaluation_kit/optiga-trust-m/optiga/include/optiga/pal/pal.h"
 939              	 .file 11 "D:/School/diseratie/SEMS/xmc4800_evaluation_kit/optiga-trust-m/optiga/include/optiga/pal/pal_crypt.h"
 940              	 .file 12 "D:/School/diseratie/SEMS/xmc4800_evaluation_kit/optiga-trust-m/externals/mbedtls/include/mbedtls/md.h"
 941              	 .file 13 "D:/School/diseratie/SEMS/xmc4800_evaluation_kit/optiga-trust-m/examples/optiga/include/optiga_example.h"
 942              	 .file 14 "c:\\infineon\\tools\\dave ide\\4.5.0.202105191637\\eclipse\\arm-gcc-49\\arm-none-eabi\\include\\stdio.h"
 943              	 .file 15 "D:/School/diseratie/SEMS/xmc4800_evaluation_kit/optiga-trust-m/optiga/include/optiga/pal/pal_os_memory.h"