   1              	 .syntax unified
   2              	 .cpu cortex-m4
   3              	 .eabi_attribute 27,3
   4              	 .fpu fpv4-sp-d16
   5              	 .eabi_attribute 20,1
   6              	 .eabi_attribute 21,1
   7              	 .eabi_attribute 23,3
   8              	 .eabi_attribute 24,1
   9              	 .eabi_attribute 25,1
  10              	 .eabi_attribute 26,1
  11              	 .eabi_attribute 30,2
  12              	 .eabi_attribute 34,1
  13              	 .eabi_attribute 18,4
  14              	 .thumb
  15              	 .file "example_optiga_crypt_clear_auto_state.c"
  16              	 .text
  17              	.Ltext0:
  18              	 .cfi_sections .debug_frame
  19              	 .section .text.optiga_lib_callback,"ax",%progbits
  20              	 .align 2
  21              	 .thumb
  22              	 .thumb_func
  24              	optiga_lib_callback:
  25              	.LFB18:
  26              	 .file 1 "D:/School/diseratie/SEMS/xmc4800_evaluation_kit/optiga-trust-m/examples/optiga/example_optiga_crypt_clear_auto_state.c"
   1:D:/School/diseratie/SEMS/xmc4800_evaluation_kit/optiga-trust-m/examples/optiga\example_optiga_crypt_clear_auto_state.c **** /**
   2:D:/School/diseratie/SEMS/xmc4800_evaluation_kit/optiga-trust-m/examples/optiga\example_optiga_crypt_clear_auto_state.c **** * \copyright
   3:D:/School/diseratie/SEMS/xmc4800_evaluation_kit/optiga-trust-m/examples/optiga\example_optiga_crypt_clear_auto_state.c **** * MIT License
   4:D:/School/diseratie/SEMS/xmc4800_evaluation_kit/optiga-trust-m/examples/optiga\example_optiga_crypt_clear_auto_state.c **** *
   5:D:/School/diseratie/SEMS/xmc4800_evaluation_kit/optiga-trust-m/examples/optiga\example_optiga_crypt_clear_auto_state.c **** * Copyright (c) 2020 Infineon Technologies AG
   6:D:/School/diseratie/SEMS/xmc4800_evaluation_kit/optiga-trust-m/examples/optiga\example_optiga_crypt_clear_auto_state.c **** *
   7:D:/School/diseratie/SEMS/xmc4800_evaluation_kit/optiga-trust-m/examples/optiga\example_optiga_crypt_clear_auto_state.c **** * Permission is hereby granted, free of charge, to any person obtaining a copy
   8:D:/School/diseratie/SEMS/xmc4800_evaluation_kit/optiga-trust-m/examples/optiga\example_optiga_crypt_clear_auto_state.c **** * of this software and associated documentation files (the "Software"), to deal
   9:D:/School/diseratie/SEMS/xmc4800_evaluation_kit/optiga-trust-m/examples/optiga\example_optiga_crypt_clear_auto_state.c **** * in the Software without restriction, including without limitation the rights
  10:D:/School/diseratie/SEMS/xmc4800_evaluation_kit/optiga-trust-m/examples/optiga\example_optiga_crypt_clear_auto_state.c **** * to use, copy, modify, merge, publish, distribute, sublicense, and/or sell
  11:D:/School/diseratie/SEMS/xmc4800_evaluation_kit/optiga-trust-m/examples/optiga\example_optiga_crypt_clear_auto_state.c **** * copies of the Software, and to permit persons to whom the Software is
  12:D:/School/diseratie/SEMS/xmc4800_evaluation_kit/optiga-trust-m/examples/optiga\example_optiga_crypt_clear_auto_state.c **** * furnished to do so, subject to the following conditions:
  13:D:/School/diseratie/SEMS/xmc4800_evaluation_kit/optiga-trust-m/examples/optiga\example_optiga_crypt_clear_auto_state.c **** *
  14:D:/School/diseratie/SEMS/xmc4800_evaluation_kit/optiga-trust-m/examples/optiga\example_optiga_crypt_clear_auto_state.c **** * The above copyright notice and this permission notice shall be included in all
  15:D:/School/diseratie/SEMS/xmc4800_evaluation_kit/optiga-trust-m/examples/optiga\example_optiga_crypt_clear_auto_state.c **** * copies or substantial portions of the Software.
  16:D:/School/diseratie/SEMS/xmc4800_evaluation_kit/optiga-trust-m/examples/optiga\example_optiga_crypt_clear_auto_state.c **** *
  17:D:/School/diseratie/SEMS/xmc4800_evaluation_kit/optiga-trust-m/examples/optiga\example_optiga_crypt_clear_auto_state.c **** * THE SOFTWARE IS PROVIDED "AS IS", WITHOUT WARRANTY OF ANY KIND, EXPRESS OR
  18:D:/School/diseratie/SEMS/xmc4800_evaluation_kit/optiga-trust-m/examples/optiga\example_optiga_crypt_clear_auto_state.c **** * IMPLIED, INCLUDING BUT NOT LIMITED TO THE WARRANTIES OF MERCHANTABILITY,
  19:D:/School/diseratie/SEMS/xmc4800_evaluation_kit/optiga-trust-m/examples/optiga\example_optiga_crypt_clear_auto_state.c **** * FITNESS FOR A PARTICULAR PURPOSE AND NONINFRINGEMENT. IN NO EVENT SHALL THE
  20:D:/School/diseratie/SEMS/xmc4800_evaluation_kit/optiga-trust-m/examples/optiga\example_optiga_crypt_clear_auto_state.c **** * AUTHORS OR COPYRIGHT HOLDERS BE LIABLE FOR ANY CLAIM, DAMAGES OR OTHER
  21:D:/School/diseratie/SEMS/xmc4800_evaluation_kit/optiga-trust-m/examples/optiga\example_optiga_crypt_clear_auto_state.c **** * LIABILITY, WHETHER IN AN ACTION OF CONTRACT, TORT OR OTHERWISE, ARISING FROM,
  22:D:/School/diseratie/SEMS/xmc4800_evaluation_kit/optiga-trust-m/examples/optiga\example_optiga_crypt_clear_auto_state.c **** * OUT OF OR IN CONNECTION WITH THE SOFTWARE OR THE USE OR OTHER DEALINGS IN THE
  23:D:/School/diseratie/SEMS/xmc4800_evaluation_kit/optiga-trust-m/examples/optiga\example_optiga_crypt_clear_auto_state.c **** * SOFTWARE
  24:D:/School/diseratie/SEMS/xmc4800_evaluation_kit/optiga-trust-m/examples/optiga\example_optiga_crypt_clear_auto_state.c **** *
  25:D:/School/diseratie/SEMS/xmc4800_evaluation_kit/optiga-trust-m/examples/optiga\example_optiga_crypt_clear_auto_state.c **** * \endcopyright
  26:D:/School/diseratie/SEMS/xmc4800_evaluation_kit/optiga-trust-m/examples/optiga\example_optiga_crypt_clear_auto_state.c **** *
  27:D:/School/diseratie/SEMS/xmc4800_evaluation_kit/optiga-trust-m/examples/optiga\example_optiga_crypt_clear_auto_state.c **** * \author Infineon Technologies AG
  28:D:/School/diseratie/SEMS/xmc4800_evaluation_kit/optiga-trust-m/examples/optiga\example_optiga_crypt_clear_auto_state.c **** *
  29:D:/School/diseratie/SEMS/xmc4800_evaluation_kit/optiga-trust-m/examples/optiga\example_optiga_crypt_clear_auto_state.c **** * \file example_optiga_crypt_clear_auto_state.c
  30:D:/School/diseratie/SEMS/xmc4800_evaluation_kit/optiga-trust-m/examples/optiga\example_optiga_crypt_clear_auto_state.c **** *
  31:D:/School/diseratie/SEMS/xmc4800_evaluation_kit/optiga-trust-m/examples/optiga\example_optiga_crypt_clear_auto_state.c **** * \brief   This file provides an example for clear auto state.
  32:D:/School/diseratie/SEMS/xmc4800_evaluation_kit/optiga-trust-m/examples/optiga\example_optiga_crypt_clear_auto_state.c **** *
  33:D:/School/diseratie/SEMS/xmc4800_evaluation_kit/optiga-trust-m/examples/optiga\example_optiga_crypt_clear_auto_state.c **** * \ingroup grUseCases
  34:D:/School/diseratie/SEMS/xmc4800_evaluation_kit/optiga-trust-m/examples/optiga\example_optiga_crypt_clear_auto_state.c **** *
  35:D:/School/diseratie/SEMS/xmc4800_evaluation_kit/optiga-trust-m/examples/optiga\example_optiga_crypt_clear_auto_state.c **** * @{
  36:D:/School/diseratie/SEMS/xmc4800_evaluation_kit/optiga-trust-m/examples/optiga\example_optiga_crypt_clear_auto_state.c **** */
  37:D:/School/diseratie/SEMS/xmc4800_evaluation_kit/optiga-trust-m/examples/optiga\example_optiga_crypt_clear_auto_state.c **** 
  38:D:/School/diseratie/SEMS/xmc4800_evaluation_kit/optiga-trust-m/examples/optiga\example_optiga_crypt_clear_auto_state.c **** #include "optiga/optiga_util.h"
  39:D:/School/diseratie/SEMS/xmc4800_evaluation_kit/optiga-trust-m/examples/optiga\example_optiga_crypt_clear_auto_state.c **** #include "optiga/optiga_crypt.h"
  40:D:/School/diseratie/SEMS/xmc4800_evaluation_kit/optiga-trust-m/examples/optiga\example_optiga_crypt_clear_auto_state.c **** 
  41:D:/School/diseratie/SEMS/xmc4800_evaluation_kit/optiga-trust-m/examples/optiga\example_optiga_crypt_clear_auto_state.c **** #include "optiga/pal/pal_os_memory.h"
  42:D:/School/diseratie/SEMS/xmc4800_evaluation_kit/optiga-trust-m/examples/optiga\example_optiga_crypt_clear_auto_state.c **** #include "optiga/pal/pal_crypt.h"
  43:D:/School/diseratie/SEMS/xmc4800_evaluation_kit/optiga-trust-m/examples/optiga\example_optiga_crypt_clear_auto_state.c **** #include "optiga_example.h"
  44:D:/School/diseratie/SEMS/xmc4800_evaluation_kit/optiga-trust-m/examples/optiga\example_optiga_crypt_clear_auto_state.c **** #include "mbedtls/ccm.h"
  45:D:/School/diseratie/SEMS/xmc4800_evaluation_kit/optiga-trust-m/examples/optiga\example_optiga_crypt_clear_auto_state.c **** #include "mbedtls/md.h"
  46:D:/School/diseratie/SEMS/xmc4800_evaluation_kit/optiga-trust-m/examples/optiga\example_optiga_crypt_clear_auto_state.c **** #include "mbedtls/ssl.h"
  47:D:/School/diseratie/SEMS/xmc4800_evaluation_kit/optiga-trust-m/examples/optiga\example_optiga_crypt_clear_auto_state.c **** #if defined (OPTIGA_CRYPT_GENERATE_AUTH_CODE_ENABLED) && defined (OPTIGA_CRYPT_HMAC_VERIFY_ENABLED)
  48:D:/School/diseratie/SEMS/xmc4800_evaluation_kit/optiga-trust-m/examples/optiga\example_optiga_crypt_clear_auto_state.c **** 
  49:D:/School/diseratie/SEMS/xmc4800_evaluation_kit/optiga-trust-m/examples/optiga\example_optiga_crypt_clear_auto_state.c **** #ifndef OPTIGA_INIT_DEINIT_DONE_EXCLUSIVELY
  50:D:/School/diseratie/SEMS/xmc4800_evaluation_kit/optiga-trust-m/examples/optiga\example_optiga_crypt_clear_auto_state.c **** extern void example_optiga_init(void);
  51:D:/School/diseratie/SEMS/xmc4800_evaluation_kit/optiga-trust-m/examples/optiga\example_optiga_crypt_clear_auto_state.c **** extern void example_optiga_deinit(void);
  52:D:/School/diseratie/SEMS/xmc4800_evaluation_kit/optiga-trust-m/examples/optiga\example_optiga_crypt_clear_auto_state.c **** #endif
  53:D:/School/diseratie/SEMS/xmc4800_evaluation_kit/optiga-trust-m/examples/optiga\example_optiga_crypt_clear_auto_state.c **** 
  54:D:/School/diseratie/SEMS/xmc4800_evaluation_kit/optiga-trust-m/examples/optiga\example_optiga_crypt_clear_auto_state.c **** //lint --e{526} suppress "CalcHMAC" it's define in other file"
  55:D:/School/diseratie/SEMS/xmc4800_evaluation_kit/optiga-trust-m/examples/optiga\example_optiga_crypt_clear_auto_state.c **** extern pal_status_t CalcHMAC(const uint8_t * secret_key,
  56:D:/School/diseratie/SEMS/xmc4800_evaluation_kit/optiga-trust-m/examples/optiga\example_optiga_crypt_clear_auto_state.c ****                              uint16_t secret_key_len,
  57:D:/School/diseratie/SEMS/xmc4800_evaluation_kit/optiga-trust-m/examples/optiga\example_optiga_crypt_clear_auto_state.c ****                              const uint8_t * input_data,
  58:D:/School/diseratie/SEMS/xmc4800_evaluation_kit/optiga-trust-m/examples/optiga\example_optiga_crypt_clear_auto_state.c ****                              uint32_t input_data_length,
  59:D:/School/diseratie/SEMS/xmc4800_evaluation_kit/optiga-trust-m/examples/optiga\example_optiga_crypt_clear_auto_state.c ****                              uint8_t * hmac);
  60:D:/School/diseratie/SEMS/xmc4800_evaluation_kit/optiga-trust-m/examples/optiga\example_optiga_crypt_clear_auto_state.c **** /**
  61:D:/School/diseratie/SEMS/xmc4800_evaluation_kit/optiga-trust-m/examples/optiga\example_optiga_crypt_clear_auto_state.c ****  * Metadata for Secret OID :
  62:D:/School/diseratie/SEMS/xmc4800_evaluation_kit/optiga-trust-m/examples/optiga\example_optiga_crypt_clear_auto_state.c ****  * Execute access condition = Always
  63:D:/School/diseratie/SEMS/xmc4800_evaluation_kit/optiga-trust-m/examples/optiga\example_optiga_crypt_clear_auto_state.c ****  * Data object type  =  Auto Ref
  64:D:/School/diseratie/SEMS/xmc4800_evaluation_kit/optiga-trust-m/examples/optiga\example_optiga_crypt_clear_auto_state.c ****  */
  65:D:/School/diseratie/SEMS/xmc4800_evaluation_kit/optiga-trust-m/examples/optiga\example_optiga_crypt_clear_auto_state.c **** static const uint8_t secret_oid_metadata[] = 
  66:D:/School/diseratie/SEMS/xmc4800_evaluation_kit/optiga-trust-m/examples/optiga\example_optiga_crypt_clear_auto_state.c **** {
  67:D:/School/diseratie/SEMS/xmc4800_evaluation_kit/optiga-trust-m/examples/optiga\example_optiga_crypt_clear_auto_state.c ****     0x20, 0x06,
  68:D:/School/diseratie/SEMS/xmc4800_evaluation_kit/optiga-trust-m/examples/optiga\example_optiga_crypt_clear_auto_state.c ****           0xD3, 0x01, 0x00,
  69:D:/School/diseratie/SEMS/xmc4800_evaluation_kit/optiga-trust-m/examples/optiga\example_optiga_crypt_clear_auto_state.c ****           0xE8, 0x01, 0x31
  70:D:/School/diseratie/SEMS/xmc4800_evaluation_kit/optiga-trust-m/examples/optiga\example_optiga_crypt_clear_auto_state.c **** };
  71:D:/School/diseratie/SEMS/xmc4800_evaluation_kit/optiga-trust-m/examples/optiga\example_optiga_crypt_clear_auto_state.c **** 
  72:D:/School/diseratie/SEMS/xmc4800_evaluation_kit/optiga-trust-m/examples/optiga\example_optiga_crypt_clear_auto_state.c **** /**
  73:D:/School/diseratie/SEMS/xmc4800_evaluation_kit/optiga-trust-m/examples/optiga\example_optiga_crypt_clear_auto_state.c ****  * Shared secret data
  74:D:/School/diseratie/SEMS/xmc4800_evaluation_kit/optiga-trust-m/examples/optiga\example_optiga_crypt_clear_auto_state.c ****  */
  75:D:/School/diseratie/SEMS/xmc4800_evaluation_kit/optiga-trust-m/examples/optiga\example_optiga_crypt_clear_auto_state.c **** static const uint8_t user_secret[] = 
  76:D:/School/diseratie/SEMS/xmc4800_evaluation_kit/optiga-trust-m/examples/optiga\example_optiga_crypt_clear_auto_state.c **** {
  77:D:/School/diseratie/SEMS/xmc4800_evaluation_kit/optiga-trust-m/examples/optiga\example_optiga_crypt_clear_auto_state.c ****     0x49, 0xC9, 0xF4, 0x92, 0xA9, 0x92, 0xF6, 0xD4, 0xC5, 0x4F, 0x5B, 0x12, 0xC5, 0x7E, 0xDB, 0x27,
  78:D:/School/diseratie/SEMS/xmc4800_evaluation_kit/optiga-trust-m/examples/optiga\example_optiga_crypt_clear_auto_state.c ****     0xCE, 0xD2, 0x24, 0x04, 0x8F, 0x25, 0x48, 0x2A, 0xA1, 0x49, 0xC9, 0xF4, 0x92, 0xA9, 0x92, 0xF6,
  79:D:/School/diseratie/SEMS/xmc4800_evaluation_kit/optiga-trust-m/examples/optiga\example_optiga_crypt_clear_auto_state.c ****     0x49, 0xC9, 0xF4, 0x92, 0xA9, 0x92, 0xF6, 0xD4, 0xC5, 0x4F, 0x5B, 0x12, 0xC5, 0x7E, 0xDB, 0x27,
  80:D:/School/diseratie/SEMS/xmc4800_evaluation_kit/optiga-trust-m/examples/optiga\example_optiga_crypt_clear_auto_state.c ****     0xCE, 0xD2, 0x24, 0x04, 0x8F, 0x25, 0x48, 0x2A, 0xA1, 0x49, 0xC9, 0xF4, 0x92, 0xA9, 0x92, 0xF6
  81:D:/School/diseratie/SEMS/xmc4800_evaluation_kit/optiga-trust-m/examples/optiga\example_optiga_crypt_clear_auto_state.c **** };
  82:D:/School/diseratie/SEMS/xmc4800_evaluation_kit/optiga-trust-m/examples/optiga\example_optiga_crypt_clear_auto_state.c **** 
  83:D:/School/diseratie/SEMS/xmc4800_evaluation_kit/optiga-trust-m/examples/optiga\example_optiga_crypt_clear_auto_state.c **** /**
  84:D:/School/diseratie/SEMS/xmc4800_evaluation_kit/optiga-trust-m/examples/optiga\example_optiga_crypt_clear_auto_state.c ****  * Optional data
  85:D:/School/diseratie/SEMS/xmc4800_evaluation_kit/optiga-trust-m/examples/optiga\example_optiga_crypt_clear_auto_state.c ****  */
  86:D:/School/diseratie/SEMS/xmc4800_evaluation_kit/optiga-trust-m/examples/optiga\example_optiga_crypt_clear_auto_state.c **** static const uint8_t optional_data[] = 
  87:D:/School/diseratie/SEMS/xmc4800_evaluation_kit/optiga-trust-m/examples/optiga\example_optiga_crypt_clear_auto_state.c **** {
  88:D:/School/diseratie/SEMS/xmc4800_evaluation_kit/optiga-trust-m/examples/optiga\example_optiga_crypt_clear_auto_state.c ****     0x01, 0x02, 0x03, 0x04, 0x05, 0x06, 0x07, 0x08, 0x09, 0x0A, 0x0B, 0x0C, 0x0D, 0x0E, 0x0F, 0x10 
  89:D:/School/diseratie/SEMS/xmc4800_evaluation_kit/optiga-trust-m/examples/optiga\example_optiga_crypt_clear_auto_state.c **** };
  90:D:/School/diseratie/SEMS/xmc4800_evaluation_kit/optiga-trust-m/examples/optiga\example_optiga_crypt_clear_auto_state.c **** 
  91:D:/School/diseratie/SEMS/xmc4800_evaluation_kit/optiga-trust-m/examples/optiga\example_optiga_crypt_clear_auto_state.c **** /**
  92:D:/School/diseratie/SEMS/xmc4800_evaluation_kit/optiga-trust-m/examples/optiga\example_optiga_crypt_clear_auto_state.c ****  * random data
  93:D:/School/diseratie/SEMS/xmc4800_evaluation_kit/optiga-trust-m/examples/optiga\example_optiga_crypt_clear_auto_state.c ****  */
  94:D:/School/diseratie/SEMS/xmc4800_evaluation_kit/optiga-trust-m/examples/optiga\example_optiga_crypt_clear_auto_state.c **** static uint8_t random_data[32] = {0x00};
  95:D:/School/diseratie/SEMS/xmc4800_evaluation_kit/optiga-trust-m/examples/optiga\example_optiga_crypt_clear_auto_state.c **** 
  96:D:/School/diseratie/SEMS/xmc4800_evaluation_kit/optiga-trust-m/examples/optiga\example_optiga_crypt_clear_auto_state.c **** /**
  97:D:/School/diseratie/SEMS/xmc4800_evaluation_kit/optiga-trust-m/examples/optiga\example_optiga_crypt_clear_auto_state.c ****  * Input data
  98:D:/School/diseratie/SEMS/xmc4800_evaluation_kit/optiga-trust-m/examples/optiga\example_optiga_crypt_clear_auto_state.c ****  */
  99:D:/School/diseratie/SEMS/xmc4800_evaluation_kit/optiga-trust-m/examples/optiga\example_optiga_crypt_clear_auto_state.c **** static uint8_t input_data_buffer[100] = {0x00};
 100:D:/School/diseratie/SEMS/xmc4800_evaluation_kit/optiga-trust-m/examples/optiga\example_optiga_crypt_clear_auto_state.c **** /**
 101:D:/School/diseratie/SEMS/xmc4800_evaluation_kit/optiga-trust-m/examples/optiga\example_optiga_crypt_clear_auto_state.c ****  * Arbitrary data
 102:D:/School/diseratie/SEMS/xmc4800_evaluation_kit/optiga-trust-m/examples/optiga\example_optiga_crypt_clear_auto_state.c ****  */
 103:D:/School/diseratie/SEMS/xmc4800_evaluation_kit/optiga-trust-m/examples/optiga\example_optiga_crypt_clear_auto_state.c **** static uint8_t arbitrary_data[16] = {0x00};
 104:D:/School/diseratie/SEMS/xmc4800_evaluation_kit/optiga-trust-m/examples/optiga\example_optiga_crypt_clear_auto_state.c **** 
 105:D:/School/diseratie/SEMS/xmc4800_evaluation_kit/optiga-trust-m/examples/optiga\example_optiga_crypt_clear_auto_state.c **** /**
 106:D:/School/diseratie/SEMS/xmc4800_evaluation_kit/optiga-trust-m/examples/optiga\example_optiga_crypt_clear_auto_state.c ****  * Generated hmac
 107:D:/School/diseratie/SEMS/xmc4800_evaluation_kit/optiga-trust-m/examples/optiga\example_optiga_crypt_clear_auto_state.c ****  */
 108:D:/School/diseratie/SEMS/xmc4800_evaluation_kit/optiga-trust-m/examples/optiga\example_optiga_crypt_clear_auto_state.c **** static uint8_t hmac_buffer[32] = {0x00};
 109:D:/School/diseratie/SEMS/xmc4800_evaluation_kit/optiga-trust-m/examples/optiga\example_optiga_crypt_clear_auto_state.c **** static const uint32_t hmac_length = sizeof(hmac_buffer);
 110:D:/School/diseratie/SEMS/xmc4800_evaluation_kit/optiga-trust-m/examples/optiga\example_optiga_crypt_clear_auto_state.c **** /**
 111:D:/School/diseratie/SEMS/xmc4800_evaluation_kit/optiga-trust-m/examples/optiga\example_optiga_crypt_clear_auto_state.c ****  * Callback when optiga_util_xxxx/optiga_crypt_xxxx operation is completed asynchronously
 112:D:/School/diseratie/SEMS/xmc4800_evaluation_kit/optiga-trust-m/examples/optiga\example_optiga_crypt_clear_auto_state.c ****  */
 113:D:/School/diseratie/SEMS/xmc4800_evaluation_kit/optiga-trust-m/examples/optiga\example_optiga_crypt_clear_auto_state.c **** static volatile optiga_lib_status_t optiga_lib_status;
 114:D:/School/diseratie/SEMS/xmc4800_evaluation_kit/optiga-trust-m/examples/optiga\example_optiga_crypt_clear_auto_state.c **** //lint --e{818} suppress "argument "context" is not used in the sample provided"
 115:D:/School/diseratie/SEMS/xmc4800_evaluation_kit/optiga-trust-m/examples/optiga\example_optiga_crypt_clear_auto_state.c **** static void optiga_lib_callback(void * context, optiga_lib_status_t return_status)
 116:D:/School/diseratie/SEMS/xmc4800_evaluation_kit/optiga-trust-m/examples/optiga\example_optiga_crypt_clear_auto_state.c **** {
  27              	 .loc 1 116 0
  28              	 .cfi_startproc
  29              	 
  30              	 
  31              	 
  32              	.LVL0:
 117:D:/School/diseratie/SEMS/xmc4800_evaluation_kit/optiga-trust-m/examples/optiga\example_optiga_crypt_clear_auto_state.c ****     optiga_lib_status = return_status;
  33              	 .loc 1 117 0
  34 0000 014B     	 ldr r3,.L2
  35 0002 1980     	 strh r1,[r3]
  36 0004 7047     	 bx lr
  37              	.L3:
  38 0006 00BF     	 .align 2
  39              	.L2:
  40 0008 00000000 	 .word .LANCHOR0
  41              	 .cfi_endproc
  42              	.LFE18:
  44              	 .section .text.example_optiga_crypt_clear_auto_state,"ax",%progbits
  45              	 .align 2
  46              	 .global example_optiga_crypt_clear_auto_state
  47              	 .thumb
  48              	 .thumb_func
  50              	example_optiga_crypt_clear_auto_state:
  51              	.LFB19:
 118:D:/School/diseratie/SEMS/xmc4800_evaluation_kit/optiga-trust-m/examples/optiga\example_optiga_crypt_clear_auto_state.c ****     if (NULL != context)
 119:D:/School/diseratie/SEMS/xmc4800_evaluation_kit/optiga-trust-m/examples/optiga\example_optiga_crypt_clear_auto_state.c ****     {
 120:D:/School/diseratie/SEMS/xmc4800_evaluation_kit/optiga-trust-m/examples/optiga\example_optiga_crypt_clear_auto_state.c ****         // callback to upper layer here
 121:D:/School/diseratie/SEMS/xmc4800_evaluation_kit/optiga-trust-m/examples/optiga\example_optiga_crypt_clear_auto_state.c ****     }
 122:D:/School/diseratie/SEMS/xmc4800_evaluation_kit/optiga-trust-m/examples/optiga\example_optiga_crypt_clear_auto_state.c **** }
 123:D:/School/diseratie/SEMS/xmc4800_evaluation_kit/optiga-trust-m/examples/optiga\example_optiga_crypt_clear_auto_state.c **** 
 124:D:/School/diseratie/SEMS/xmc4800_evaluation_kit/optiga-trust-m/examples/optiga\example_optiga_crypt_clear_auto_state.c **** /**
 125:D:/School/diseratie/SEMS/xmc4800_evaluation_kit/optiga-trust-m/examples/optiga\example_optiga_crypt_clear_auto_state.c ****  * The below example demonstrates of clear auto state functionality.
 126:D:/School/diseratie/SEMS/xmc4800_evaluation_kit/optiga-trust-m/examples/optiga\example_optiga_crypt_clear_auto_state.c ****  */
 127:D:/School/diseratie/SEMS/xmc4800_evaluation_kit/optiga-trust-m/examples/optiga\example_optiga_crypt_clear_auto_state.c **** void example_optiga_crypt_clear_auto_state(void)
 128:D:/School/diseratie/SEMS/xmc4800_evaluation_kit/optiga-trust-m/examples/optiga\example_optiga_crypt_clear_auto_state.c **** {
  52              	 .loc 1 128 0
  53              	 .cfi_startproc
  54              	 
  55              	 
  56              	.LVL1:
  57 0000 2DE9F041 	 push {r4,r5,r6,r7,r8,lr}
  58              	.LCFI0:
  59              	 .cfi_def_cfa_offset 24
  60              	 .cfi_offset 4,-24
  61              	 .cfi_offset 5,-20
  62              	 .cfi_offset 6,-16
  63              	 .cfi_offset 7,-12
  64              	 .cfi_offset 8,-8
  65              	 .cfi_offset 14,-4
  66 0004 86B0     	 sub sp,sp,#24
  67              	.LCFI1:
  68              	 .cfi_def_cfa_offset 48
 129:D:/School/diseratie/SEMS/xmc4800_evaluation_kit/optiga-trust-m/examples/optiga\example_optiga_crypt_clear_auto_state.c ****     optiga_lib_status_t return_status = OPTIGA_CRYPT_ERROR;
 130:D:/School/diseratie/SEMS/xmc4800_evaluation_kit/optiga-trust-m/examples/optiga\example_optiga_crypt_clear_auto_state.c ****     pal_status_t pal_return_status;
 131:D:/School/diseratie/SEMS/xmc4800_evaluation_kit/optiga-trust-m/examples/optiga\example_optiga_crypt_clear_auto_state.c ****     optiga_util_t * me_util = NULL;
 132:D:/School/diseratie/SEMS/xmc4800_evaluation_kit/optiga-trust-m/examples/optiga\example_optiga_crypt_clear_auto_state.c ****     optiga_crypt_t * me_crypt = NULL;
 133:D:/School/diseratie/SEMS/xmc4800_evaluation_kit/optiga-trust-m/examples/optiga\example_optiga_crypt_clear_auto_state.c ****     uint32_t time_taken = 0;
  69              	 .loc 1 133 0
  70 0006 0024     	 movs r4,#0
  71 0008 0594     	 str r4,[sp,#20]
 134:D:/School/diseratie/SEMS/xmc4800_evaluation_kit/optiga-trust-m/examples/optiga\example_optiga_crypt_clear_auto_state.c **** 
 135:D:/School/diseratie/SEMS/xmc4800_evaluation_kit/optiga-trust-m/examples/optiga\example_optiga_crypt_clear_auto_state.c ****     do
 136:D:/School/diseratie/SEMS/xmc4800_evaluation_kit/optiga-trust-m/examples/optiga\example_optiga_crypt_clear_auto_state.c ****     {
 137:D:/School/diseratie/SEMS/xmc4800_evaluation_kit/optiga-trust-m/examples/optiga\example_optiga_crypt_clear_auto_state.c ****         
 138:D:/School/diseratie/SEMS/xmc4800_evaluation_kit/optiga-trust-m/examples/optiga\example_optiga_crypt_clear_auto_state.c **** #ifndef OPTIGA_INIT_DEINIT_DONE_EXCLUSIVELY
 139:D:/School/diseratie/SEMS/xmc4800_evaluation_kit/optiga-trust-m/examples/optiga\example_optiga_crypt_clear_auto_state.c ****         /**
 140:D:/School/diseratie/SEMS/xmc4800_evaluation_kit/optiga-trust-m/examples/optiga\example_optiga_crypt_clear_auto_state.c ****          * Open the application on OPTIGA which is a precondition to perform any other operations
 141:D:/School/diseratie/SEMS/xmc4800_evaluation_kit/optiga-trust-m/examples/optiga\example_optiga_crypt_clear_auto_state.c ****          * using optiga_util_open_application
 142:D:/School/diseratie/SEMS/xmc4800_evaluation_kit/optiga-trust-m/examples/optiga\example_optiga_crypt_clear_auto_state.c ****          */
 143:D:/School/diseratie/SEMS/xmc4800_evaluation_kit/optiga-trust-m/examples/optiga\example_optiga_crypt_clear_auto_state.c ****         example_optiga_init();
  72              	 .loc 1 143 0
  73 000a FFF7FEFF 	 bl example_optiga_init
  74              	.LVL2:
 144:D:/School/diseratie/SEMS/xmc4800_evaluation_kit/optiga-trust-m/examples/optiga\example_optiga_crypt_clear_auto_state.c **** #endif //OPTIGA_INIT_DEINIT_DONE_EXCLUSIVELY
 145:D:/School/diseratie/SEMS/xmc4800_evaluation_kit/optiga-trust-m/examples/optiga\example_optiga_crypt_clear_auto_state.c **** 
 146:D:/School/diseratie/SEMS/xmc4800_evaluation_kit/optiga-trust-m/examples/optiga\example_optiga_crypt_clear_auto_state.c ****         OPTIGA_EXAMPLE_LOG_MESSAGE(__FUNCTION__);
 147:D:/School/diseratie/SEMS/xmc4800_evaluation_kit/optiga-trust-m/examples/optiga\example_optiga_crypt_clear_auto_state.c ****         /**
 148:D:/School/diseratie/SEMS/xmc4800_evaluation_kit/optiga-trust-m/examples/optiga\example_optiga_crypt_clear_auto_state.c ****          * 1. Create OPTIGA crypt and util Instances
 149:D:/School/diseratie/SEMS/xmc4800_evaluation_kit/optiga-trust-m/examples/optiga\example_optiga_crypt_clear_auto_state.c ****          */
 150:D:/School/diseratie/SEMS/xmc4800_evaluation_kit/optiga-trust-m/examples/optiga\example_optiga_crypt_clear_auto_state.c ****         me_crypt = optiga_crypt_create(0, optiga_lib_callback, NULL);
  75              	 .loc 1 150 0
  76 000e 2046     	 mov r0,r4
  77 0010 2246     	 mov r2,r4
  78 0012 6D49     	 ldr r1,.L46
  79 0014 FFF7FEFF 	 bl optiga_crypt_create
  80              	.LVL3:
 151:D:/School/diseratie/SEMS/xmc4800_evaluation_kit/optiga-trust-m/examples/optiga\example_optiga_crypt_clear_auto_state.c ****         if (NULL == me_crypt)
  81              	 .loc 1 151 0
  82 0018 0546     	 mov r5,r0
  83 001a 78B3     	 cbz r0,.L5
 152:D:/School/diseratie/SEMS/xmc4800_evaluation_kit/optiga-trust-m/examples/optiga\example_optiga_crypt_clear_auto_state.c ****         {
 153:D:/School/diseratie/SEMS/xmc4800_evaluation_kit/optiga-trust-m/examples/optiga\example_optiga_crypt_clear_auto_state.c ****             break;
 154:D:/School/diseratie/SEMS/xmc4800_evaluation_kit/optiga-trust-m/examples/optiga\example_optiga_crypt_clear_auto_state.c ****         }
 155:D:/School/diseratie/SEMS/xmc4800_evaluation_kit/optiga-trust-m/examples/optiga\example_optiga_crypt_clear_auto_state.c ****         
 156:D:/School/diseratie/SEMS/xmc4800_evaluation_kit/optiga-trust-m/examples/optiga\example_optiga_crypt_clear_auto_state.c ****         me_util = optiga_util_create(0, optiga_lib_callback, NULL);
  84              	 .loc 1 156 0
  85 001c 2046     	 mov r0,r4
  86              	.LVL4:
  87 001e 6A49     	 ldr r1,.L46
  88 0020 2246     	 mov r2,r4
  89 0022 FFF7FEFF 	 bl optiga_util_create
  90              	.LVL5:
 157:D:/School/diseratie/SEMS/xmc4800_evaluation_kit/optiga-trust-m/examples/optiga\example_optiga_crypt_clear_auto_state.c ****         if (NULL == me_util)
  91              	 .loc 1 157 0
  92 0026 0746     	 mov r7,r0
  93 0028 40B3     	 cbz r0,.L5
 158:D:/School/diseratie/SEMS/xmc4800_evaluation_kit/optiga-trust-m/examples/optiga\example_optiga_crypt_clear_auto_state.c ****         {
 159:D:/School/diseratie/SEMS/xmc4800_evaluation_kit/optiga-trust-m/examples/optiga\example_optiga_crypt_clear_auto_state.c ****             break;
 160:D:/School/diseratie/SEMS/xmc4800_evaluation_kit/optiga-trust-m/examples/optiga\example_optiga_crypt_clear_auto_state.c ****         }
 161:D:/School/diseratie/SEMS/xmc4800_evaluation_kit/optiga-trust-m/examples/optiga\example_optiga_crypt_clear_auto_state.c ****         /**
 162:D:/School/diseratie/SEMS/xmc4800_evaluation_kit/optiga-trust-m/examples/optiga\example_optiga_crypt_clear_auto_state.c ****          * 2. Initialize the protection level and protocol version for the instances
 163:D:/School/diseratie/SEMS/xmc4800_evaluation_kit/optiga-trust-m/examples/optiga\example_optiga_crypt_clear_auto_state.c ****          */
 164:D:/School/diseratie/SEMS/xmc4800_evaluation_kit/optiga-trust-m/examples/optiga\example_optiga_crypt_clear_auto_state.c ****         OPTIGA_UTIL_SET_COMMS_PROTECTION_LEVEL(me_util,OPTIGA_COMMS_NO_PROTECTION);
  94              	 .loc 1 164 0
  95 002a 2246     	 mov r2,r4
  96 002c 0121     	 movs r1,#1
  97 002e FFF7FEFF 	 bl optiga_util_set_comms_params
  98              	.LVL6:
 165:D:/School/diseratie/SEMS/xmc4800_evaluation_kit/optiga-trust-m/examples/optiga\example_optiga_crypt_clear_auto_state.c ****         OPTIGA_UTIL_SET_COMMS_PROTOCOL_VERSION(me_util,OPTIGA_COMMS_PROTOCOL_VERSION_PRE_SHARED_SEC
  99              	 .loc 1 165 0
 100 0032 3846     	 mov r0,r7
 101 0034 0221     	 movs r1,#2
 102 0036 0122     	 movs r2,#1
 103 0038 FFF7FEFF 	 bl optiga_util_set_comms_params
 104              	.LVL7:
 166:D:/School/diseratie/SEMS/xmc4800_evaluation_kit/optiga-trust-m/examples/optiga\example_optiga_crypt_clear_auto_state.c **** 
 167:D:/School/diseratie/SEMS/xmc4800_evaluation_kit/optiga-trust-m/examples/optiga\example_optiga_crypt_clear_auto_state.c ****         OPTIGA_CRYPT_SET_COMMS_PROTECTION_LEVEL(me_crypt,OPTIGA_COMMS_NO_PROTECTION);
 105              	 .loc 1 167 0
 106 003c 2246     	 mov r2,r4
 107 003e 2846     	 mov r0,r5
 108 0040 0121     	 movs r1,#1
 109 0042 FFF7FEFF 	 bl optiga_crypt_set_comms_params
 110              	.LVL8:
 168:D:/School/diseratie/SEMS/xmc4800_evaluation_kit/optiga-trust-m/examples/optiga\example_optiga_crypt_clear_auto_state.c ****         OPTIGA_CRYPT_SET_COMMS_PROTOCOL_VERSION(me_crypt,OPTIGA_COMMS_PROTOCOL_VERSION_PRE_SHARED_S
 169:D:/School/diseratie/SEMS/xmc4800_evaluation_kit/optiga-trust-m/examples/optiga\example_optiga_crypt_clear_auto_state.c ****         
 170:D:/School/diseratie/SEMS/xmc4800_evaluation_kit/optiga-trust-m/examples/optiga\example_optiga_crypt_clear_auto_state.c ****         /**
 171:D:/School/diseratie/SEMS/xmc4800_evaluation_kit/optiga-trust-m/examples/optiga\example_optiga_crypt_clear_auto_state.c ****          * 3. Set the metadata of secret OID(0xF1D0) using optiga_util_write_metadata.
 172:D:/School/diseratie/SEMS/xmc4800_evaluation_kit/optiga-trust-m/examples/optiga\example_optiga_crypt_clear_auto_state.c ****          */
 173:D:/School/diseratie/SEMS/xmc4800_evaluation_kit/optiga-trust-m/examples/optiga\example_optiga_crypt_clear_auto_state.c ****         optiga_lib_status = OPTIGA_LIB_BUSY;
 111              	 .loc 1 173 0
 112 0046 614C     	 ldr r4,.L46+4
 168:D:/School/diseratie/SEMS/xmc4800_evaluation_kit/optiga-trust-m/examples/optiga\example_optiga_crypt_clear_auto_state.c ****         OPTIGA_CRYPT_SET_COMMS_PROTOCOL_VERSION(me_crypt,OPTIGA_COMMS_PROTOCOL_VERSION_PRE_SHARED_S
 113              	 .loc 1 168 0
 114 0048 2846     	 mov r0,r5
 115 004a 0221     	 movs r1,#2
 116 004c 0122     	 movs r2,#1
 117 004e FFF7FEFF 	 bl optiga_crypt_set_comms_params
 118              	.LVL9:
 119              	 .loc 1 173 0
 120 0052 0123     	 movs r3,#1
 121 0054 2380     	 strh r3,[r4]
 174:D:/School/diseratie/SEMS/xmc4800_evaluation_kit/optiga-trust-m/examples/optiga\example_optiga_crypt_clear_auto_state.c ****         return_status = optiga_util_write_metadata(me_util,
 122              	 .loc 1 174 0
 123 0056 3846     	 mov r0,r7
 124 0058 4FF2D011 	 movw r1,#61904
 125 005c 5C4A     	 ldr r2,.L46+8
 126 005e 0823     	 movs r3,#8
 127 0060 FFF7FEFF 	 bl optiga_util_write_metadata
 128              	.LVL10:
 175:D:/School/diseratie/SEMS/xmc4800_evaluation_kit/optiga-trust-m/examples/optiga\example_optiga_crypt_clear_auto_state.c ****                                                    0xF1D0,
 176:D:/School/diseratie/SEMS/xmc4800_evaluation_kit/optiga-trust-m/examples/optiga\example_optiga_crypt_clear_auto_state.c ****                                                    secret_oid_metadata,
 177:D:/School/diseratie/SEMS/xmc4800_evaluation_kit/optiga-trust-m/examples/optiga\example_optiga_crypt_clear_auto_state.c ****                                                    sizeof(secret_oid_metadata));
 178:D:/School/diseratie/SEMS/xmc4800_evaluation_kit/optiga-trust-m/examples/optiga\example_optiga_crypt_clear_auto_state.c **** 
 179:D:/School/diseratie/SEMS/xmc4800_evaluation_kit/optiga-trust-m/examples/optiga\example_optiga_crypt_clear_auto_state.c ****         WAIT_AND_CHECK_STATUS(return_status, optiga_lib_status);
 129              	 .loc 1 179 0
 130 0064 88B1     	 cbz r0,.L7
 131              	.LVL11:
 132              	.L6:
 180:D:/School/diseratie/SEMS/xmc4800_evaluation_kit/optiga-trust-m/examples/optiga\example_optiga_crypt_clear_auto_state.c **** 
 181:D:/School/diseratie/SEMS/xmc4800_evaluation_kit/optiga-trust-m/examples/optiga\example_optiga_crypt_clear_auto_state.c ****         /**
 182:D:/School/diseratie/SEMS/xmc4800_evaluation_kit/optiga-trust-m/examples/optiga\example_optiga_crypt_clear_auto_state.c ****         *  4. Write shared secret in OID 0xF1D0
 183:D:/School/diseratie/SEMS/xmc4800_evaluation_kit/optiga-trust-m/examples/optiga\example_optiga_crypt_clear_auto_state.c ****         */
 184:D:/School/diseratie/SEMS/xmc4800_evaluation_kit/optiga-trust-m/examples/optiga\example_optiga_crypt_clear_auto_state.c ****         optiga_lib_status = OPTIGA_LIB_BUSY;
 185:D:/School/diseratie/SEMS/xmc4800_evaluation_kit/optiga-trust-m/examples/optiga\example_optiga_crypt_clear_auto_state.c ****         return_status = optiga_util_write_data(me_util,
 186:D:/School/diseratie/SEMS/xmc4800_evaluation_kit/optiga-trust-m/examples/optiga\example_optiga_crypt_clear_auto_state.c ****                                                0xF1D0,
 187:D:/School/diseratie/SEMS/xmc4800_evaluation_kit/optiga-trust-m/examples/optiga\example_optiga_crypt_clear_auto_state.c ****                                                OPTIGA_UTIL_ERASE_AND_WRITE,
 188:D:/School/diseratie/SEMS/xmc4800_evaluation_kit/optiga-trust-m/examples/optiga\example_optiga_crypt_clear_auto_state.c ****                                                0,
 189:D:/School/diseratie/SEMS/xmc4800_evaluation_kit/optiga-trust-m/examples/optiga\example_optiga_crypt_clear_auto_state.c ****                                                user_secret,
 190:D:/School/diseratie/SEMS/xmc4800_evaluation_kit/optiga-trust-m/examples/optiga\example_optiga_crypt_clear_auto_state.c ****                                                sizeof(user_secret));
 191:D:/School/diseratie/SEMS/xmc4800_evaluation_kit/optiga-trust-m/examples/optiga\example_optiga_crypt_clear_auto_state.c **** 
 192:D:/School/diseratie/SEMS/xmc4800_evaluation_kit/optiga-trust-m/examples/optiga\example_optiga_crypt_clear_auto_state.c ****         WAIT_AND_CHECK_STATUS(return_status, optiga_lib_status);
 193:D:/School/diseratie/SEMS/xmc4800_evaluation_kit/optiga-trust-m/examples/optiga\example_optiga_crypt_clear_auto_state.c ****         
 194:D:/School/diseratie/SEMS/xmc4800_evaluation_kit/optiga-trust-m/examples/optiga\example_optiga_crypt_clear_auto_state.c ****         /**
 195:D:/School/diseratie/SEMS/xmc4800_evaluation_kit/optiga-trust-m/examples/optiga\example_optiga_crypt_clear_auto_state.c ****          * 5. Call generate auth code with optional data
 196:D:/School/diseratie/SEMS/xmc4800_evaluation_kit/optiga-trust-m/examples/optiga\example_optiga_crypt_clear_auto_state.c ****          */
 197:D:/School/diseratie/SEMS/xmc4800_evaluation_kit/optiga-trust-m/examples/optiga\example_optiga_crypt_clear_auto_state.c ****         optiga_lib_status = OPTIGA_LIB_BUSY;
 198:D:/School/diseratie/SEMS/xmc4800_evaluation_kit/optiga-trust-m/examples/optiga\example_optiga_crypt_clear_auto_state.c ****         return_status = optiga_crypt_generate_auth_code(me_crypt,
 199:D:/School/diseratie/SEMS/xmc4800_evaluation_kit/optiga-trust-m/examples/optiga\example_optiga_crypt_clear_auto_state.c ****                                                         OPTIGA_RNG_TYPE_TRNG,
 200:D:/School/diseratie/SEMS/xmc4800_evaluation_kit/optiga-trust-m/examples/optiga\example_optiga_crypt_clear_auto_state.c ****                                                         optional_data,
 201:D:/School/diseratie/SEMS/xmc4800_evaluation_kit/optiga-trust-m/examples/optiga\example_optiga_crypt_clear_auto_state.c ****                                                         sizeof(optional_data),
 202:D:/School/diseratie/SEMS/xmc4800_evaluation_kit/optiga-trust-m/examples/optiga\example_optiga_crypt_clear_auto_state.c ****                                                         random_data,
 203:D:/School/diseratie/SEMS/xmc4800_evaluation_kit/optiga-trust-m/examples/optiga\example_optiga_crypt_clear_auto_state.c ****                                                         32);
 204:D:/School/diseratie/SEMS/xmc4800_evaluation_kit/optiga-trust-m/examples/optiga\example_optiga_crypt_clear_auto_state.c **** 
 205:D:/School/diseratie/SEMS/xmc4800_evaluation_kit/optiga-trust-m/examples/optiga\example_optiga_crypt_clear_auto_state.c ****         WAIT_AND_CHECK_STATUS(return_status, optiga_lib_status);
 206:D:/School/diseratie/SEMS/xmc4800_evaluation_kit/optiga-trust-m/examples/optiga\example_optiga_crypt_clear_auto_state.c ****         /**
 207:D:/School/diseratie/SEMS/xmc4800_evaluation_kit/optiga-trust-m/examples/optiga\example_optiga_crypt_clear_auto_state.c ****          * 6. Calculate HMAC on host
 208:D:/School/diseratie/SEMS/xmc4800_evaluation_kit/optiga-trust-m/examples/optiga\example_optiga_crypt_clear_auto_state.c ****          */
 209:D:/School/diseratie/SEMS/xmc4800_evaluation_kit/optiga-trust-m/examples/optiga\example_optiga_crypt_clear_auto_state.c ****         pal_os_memset(arbitrary_data, 0x5A, sizeof(arbitrary_data));
 210:D:/School/diseratie/SEMS/xmc4800_evaluation_kit/optiga-trust-m/examples/optiga\example_optiga_crypt_clear_auto_state.c ****         pal_os_memcpy(input_data_buffer, optional_data, sizeof(optional_data));
 211:D:/School/diseratie/SEMS/xmc4800_evaluation_kit/optiga-trust-m/examples/optiga\example_optiga_crypt_clear_auto_state.c ****         pal_os_memcpy(&input_data_buffer[sizeof(optional_data)], random_data, sizeof(random_data));
 212:D:/School/diseratie/SEMS/xmc4800_evaluation_kit/optiga-trust-m/examples/optiga\example_optiga_crypt_clear_auto_state.c ****         pal_os_memcpy(&input_data_buffer[sizeof(optional_data) + sizeof(random_data)], arbitrary_da
 213:D:/School/diseratie/SEMS/xmc4800_evaluation_kit/optiga-trust-m/examples/optiga\example_optiga_crypt_clear_auto_state.c ****         
 214:D:/School/diseratie/SEMS/xmc4800_evaluation_kit/optiga-trust-m/examples/optiga\example_optiga_crypt_clear_auto_state.c ****         pal_return_status = CalcHMAC(user_secret,
 215:D:/School/diseratie/SEMS/xmc4800_evaluation_kit/optiga-trust-m/examples/optiga\example_optiga_crypt_clear_auto_state.c ****                                      sizeof(user_secret),
 216:D:/School/diseratie/SEMS/xmc4800_evaluation_kit/optiga-trust-m/examples/optiga\example_optiga_crypt_clear_auto_state.c ****                                      input_data_buffer,
 217:D:/School/diseratie/SEMS/xmc4800_evaluation_kit/optiga-trust-m/examples/optiga\example_optiga_crypt_clear_auto_state.c ****                                      sizeof(input_data_buffer),
 218:D:/School/diseratie/SEMS/xmc4800_evaluation_kit/optiga-trust-m/examples/optiga\example_optiga_crypt_clear_auto_state.c ****                                      hmac_buffer);
 219:D:/School/diseratie/SEMS/xmc4800_evaluation_kit/optiga-trust-m/examples/optiga\example_optiga_crypt_clear_auto_state.c **** 
 220:D:/School/diseratie/SEMS/xmc4800_evaluation_kit/optiga-trust-m/examples/optiga\example_optiga_crypt_clear_auto_state.c ****         if (PAL_STATUS_SUCCESS != pal_return_status)
 221:D:/School/diseratie/SEMS/xmc4800_evaluation_kit/optiga-trust-m/examples/optiga\example_optiga_crypt_clear_auto_state.c ****         {
 222:D:/School/diseratie/SEMS/xmc4800_evaluation_kit/optiga-trust-m/examples/optiga\example_optiga_crypt_clear_auto_state.c ****             // HMAC calculation on host failed
 223:D:/School/diseratie/SEMS/xmc4800_evaluation_kit/optiga-trust-m/examples/optiga\example_optiga_crypt_clear_auto_state.c ****             return_status = pal_return_status;
 224:D:/School/diseratie/SEMS/xmc4800_evaluation_kit/optiga-trust-m/examples/optiga\example_optiga_crypt_clear_auto_state.c ****             break;
 225:D:/School/diseratie/SEMS/xmc4800_evaluation_kit/optiga-trust-m/examples/optiga\example_optiga_crypt_clear_auto_state.c ****         }
 226:D:/School/diseratie/SEMS/xmc4800_evaluation_kit/optiga-trust-m/examples/optiga\example_optiga_crypt_clear_auto_state.c ****         /**
 227:D:/School/diseratie/SEMS/xmc4800_evaluation_kit/optiga-trust-m/examples/optiga\example_optiga_crypt_clear_auto_state.c ****          * 7. Perform HMAC verification using OPTIGA
 228:D:/School/diseratie/SEMS/xmc4800_evaluation_kit/optiga-trust-m/examples/optiga\example_optiga_crypt_clear_auto_state.c ****          */
 229:D:/School/diseratie/SEMS/xmc4800_evaluation_kit/optiga-trust-m/examples/optiga\example_optiga_crypt_clear_auto_state.c ****         optiga_lib_status = OPTIGA_LIB_BUSY;
 230:D:/School/diseratie/SEMS/xmc4800_evaluation_kit/optiga-trust-m/examples/optiga\example_optiga_crypt_clear_auto_state.c ****         return_status = optiga_crypt_hmac_verify(me_crypt,
 231:D:/School/diseratie/SEMS/xmc4800_evaluation_kit/optiga-trust-m/examples/optiga\example_optiga_crypt_clear_auto_state.c ****                                                  OPTIGA_HMAC_SHA_256,
 232:D:/School/diseratie/SEMS/xmc4800_evaluation_kit/optiga-trust-m/examples/optiga\example_optiga_crypt_clear_auto_state.c ****                                                  0xF1D0,
 233:D:/School/diseratie/SEMS/xmc4800_evaluation_kit/optiga-trust-m/examples/optiga\example_optiga_crypt_clear_auto_state.c ****                                                  input_data_buffer,
 234:D:/School/diseratie/SEMS/xmc4800_evaluation_kit/optiga-trust-m/examples/optiga\example_optiga_crypt_clear_auto_state.c ****                                                  sizeof(input_data_buffer),
 235:D:/School/diseratie/SEMS/xmc4800_evaluation_kit/optiga-trust-m/examples/optiga\example_optiga_crypt_clear_auto_state.c ****                                                  hmac_buffer,
 236:D:/School/diseratie/SEMS/xmc4800_evaluation_kit/optiga-trust-m/examples/optiga\example_optiga_crypt_clear_auto_state.c ****                                                  hmac_length);
 237:D:/School/diseratie/SEMS/xmc4800_evaluation_kit/optiga-trust-m/examples/optiga\example_optiga_crypt_clear_auto_state.c ****         WAIT_AND_CHECK_STATUS(return_status, optiga_lib_status);
 238:D:/School/diseratie/SEMS/xmc4800_evaluation_kit/optiga-trust-m/examples/optiga\example_optiga_crypt_clear_auto_state.c ****         /**
 239:D:/School/diseratie/SEMS/xmc4800_evaluation_kit/optiga-trust-m/examples/optiga\example_optiga_crypt_clear_auto_state.c ****          * 8. Perform clear auto state using OPTIGA
 240:D:/School/diseratie/SEMS/xmc4800_evaluation_kit/optiga-trust-m/examples/optiga\example_optiga_crypt_clear_auto_state.c ****          */
 241:D:/School/diseratie/SEMS/xmc4800_evaluation_kit/optiga-trust-m/examples/optiga\example_optiga_crypt_clear_auto_state.c ****         optiga_lib_status = OPTIGA_LIB_BUSY;
 242:D:/School/diseratie/SEMS/xmc4800_evaluation_kit/optiga-trust-m/examples/optiga\example_optiga_crypt_clear_auto_state.c ****         
 243:D:/School/diseratie/SEMS/xmc4800_evaluation_kit/optiga-trust-m/examples/optiga\example_optiga_crypt_clear_auto_state.c ****         START_PERFORMANCE_MEASUREMENT(time_taken);
 244:D:/School/diseratie/SEMS/xmc4800_evaluation_kit/optiga-trust-m/examples/optiga\example_optiga_crypt_clear_auto_state.c ****         
 245:D:/School/diseratie/SEMS/xmc4800_evaluation_kit/optiga-trust-m/examples/optiga\example_optiga_crypt_clear_auto_state.c ****         return_status = optiga_crypt_clear_auto_state(me_crypt,
 246:D:/School/diseratie/SEMS/xmc4800_evaluation_kit/optiga-trust-m/examples/optiga\example_optiga_crypt_clear_auto_state.c ****                                                       0xF1D0);
 247:D:/School/diseratie/SEMS/xmc4800_evaluation_kit/optiga-trust-m/examples/optiga\example_optiga_crypt_clear_auto_state.c ****         WAIT_AND_CHECK_STATUS(return_status, optiga_lib_status);
 248:D:/School/diseratie/SEMS/xmc4800_evaluation_kit/optiga-trust-m/examples/optiga\example_optiga_crypt_clear_auto_state.c ****         
 249:D:/School/diseratie/SEMS/xmc4800_evaluation_kit/optiga-trust-m/examples/optiga\example_optiga_crypt_clear_auto_state.c ****         READ_PERFORMANCE_MEASUREMENT(time_taken);
 250:D:/School/diseratie/SEMS/xmc4800_evaluation_kit/optiga-trust-m/examples/optiga\example_optiga_crypt_clear_auto_state.c ****         
 251:D:/School/diseratie/SEMS/xmc4800_evaluation_kit/optiga-trust-m/examples/optiga\example_optiga_crypt_clear_auto_state.c ****         return_status = OPTIGA_LIB_SUCCESS;
 252:D:/School/diseratie/SEMS/xmc4800_evaluation_kit/optiga-trust-m/examples/optiga\example_optiga_crypt_clear_auto_state.c **** 
 253:D:/School/diseratie/SEMS/xmc4800_evaluation_kit/optiga-trust-m/examples/optiga\example_optiga_crypt_clear_auto_state.c ****     } while(FALSE);
 254:D:/School/diseratie/SEMS/xmc4800_evaluation_kit/optiga-trust-m/examples/optiga\example_optiga_crypt_clear_auto_state.c ****     OPTIGA_EXAMPLE_LOG_STATUS(return_status);
 255:D:/School/diseratie/SEMS/xmc4800_evaluation_kit/optiga-trust-m/examples/optiga\example_optiga_crypt_clear_auto_state.c ****     
 256:D:/School/diseratie/SEMS/xmc4800_evaluation_kit/optiga-trust-m/examples/optiga\example_optiga_crypt_clear_auto_state.c **** #ifndef OPTIGA_INIT_DEINIT_DONE_EXCLUSIVELY
 257:D:/School/diseratie/SEMS/xmc4800_evaluation_kit/optiga-trust-m/examples/optiga\example_optiga_crypt_clear_auto_state.c ****     /**
 258:D:/School/diseratie/SEMS/xmc4800_evaluation_kit/optiga-trust-m/examples/optiga\example_optiga_crypt_clear_auto_state.c ****      * Close the application on OPTIGA after all the operations are executed
 259:D:/School/diseratie/SEMS/xmc4800_evaluation_kit/optiga-trust-m/examples/optiga\example_optiga_crypt_clear_auto_state.c ****      * using optiga_util_close_application
 260:D:/School/diseratie/SEMS/xmc4800_evaluation_kit/optiga-trust-m/examples/optiga\example_optiga_crypt_clear_auto_state.c ****      */
 261:D:/School/diseratie/SEMS/xmc4800_evaluation_kit/optiga-trust-m/examples/optiga\example_optiga_crypt_clear_auto_state.c ****     example_optiga_deinit();
 133              	 .loc 1 261 0
 134 0066 FFF7FEFF 	 bl example_optiga_deinit
 135              	.LVL12:
 136              	.L21:
 262:D:/School/diseratie/SEMS/xmc4800_evaluation_kit/optiga-trust-m/examples/optiga\example_optiga_crypt_clear_auto_state.c **** #endif //OPTIGA_INIT_DEINIT_DONE_EXCLUSIVELY
 263:D:/School/diseratie/SEMS/xmc4800_evaluation_kit/optiga-trust-m/examples/optiga\example_optiga_crypt_clear_auto_state.c ****     OPTIGA_EXAMPLE_LOG_PERFORMANCE_VALUE(time_taken, return_status);
 264:D:/School/diseratie/SEMS/xmc4800_evaluation_kit/optiga-trust-m/examples/optiga\example_optiga_crypt_clear_auto_state.c ****     
 265:D:/School/diseratie/SEMS/xmc4800_evaluation_kit/optiga-trust-m/examples/optiga\example_optiga_crypt_clear_auto_state.c ****     if(me_util)
 266:D:/School/diseratie/SEMS/xmc4800_evaluation_kit/optiga-trust-m/examples/optiga\example_optiga_crypt_clear_auto_state.c ****     {
 267:D:/School/diseratie/SEMS/xmc4800_evaluation_kit/optiga-trust-m/examples/optiga\example_optiga_crypt_clear_auto_state.c ****         //Destroy the instance after the completion of usecase if not required.
 268:D:/School/diseratie/SEMS/xmc4800_evaluation_kit/optiga-trust-m/examples/optiga\example_optiga_crypt_clear_auto_state.c ****         return_status = optiga_util_destroy(me_util);
 137              	 .loc 1 268 0
 138 006a 3846     	 mov r0,r7
 139 006c FFF7FEFF 	 bl optiga_util_destroy
 140              	.LVL13:
 141              	.L18:
 269:D:/School/diseratie/SEMS/xmc4800_evaluation_kit/optiga-trust-m/examples/optiga\example_optiga_crypt_clear_auto_state.c ****         if(OPTIGA_LIB_SUCCESS != return_status)
 270:D:/School/diseratie/SEMS/xmc4800_evaluation_kit/optiga-trust-m/examples/optiga\example_optiga_crypt_clear_auto_state.c ****         {
 271:D:/School/diseratie/SEMS/xmc4800_evaluation_kit/optiga-trust-m/examples/optiga\example_optiga_crypt_clear_auto_state.c ****             //lint --e{774} suppress This is a generic macro
 272:D:/School/diseratie/SEMS/xmc4800_evaluation_kit/optiga-trust-m/examples/optiga\example_optiga_crypt_clear_auto_state.c ****             OPTIGA_EXAMPLE_LOG_STATUS(return_status);
 273:D:/School/diseratie/SEMS/xmc4800_evaluation_kit/optiga-trust-m/examples/optiga\example_optiga_crypt_clear_auto_state.c ****         }
 274:D:/School/diseratie/SEMS/xmc4800_evaluation_kit/optiga-trust-m/examples/optiga\example_optiga_crypt_clear_auto_state.c ****     }
 275:D:/School/diseratie/SEMS/xmc4800_evaluation_kit/optiga-trust-m/examples/optiga\example_optiga_crypt_clear_auto_state.c ****     if(me_crypt)
 276:D:/School/diseratie/SEMS/xmc4800_evaluation_kit/optiga-trust-m/examples/optiga\example_optiga_crypt_clear_auto_state.c ****     {
 277:D:/School/diseratie/SEMS/xmc4800_evaluation_kit/optiga-trust-m/examples/optiga\example_optiga_crypt_clear_auto_state.c ****         //Destroy the instance after the completion of usecase if not required.
 278:D:/School/diseratie/SEMS/xmc4800_evaluation_kit/optiga-trust-m/examples/optiga\example_optiga_crypt_clear_auto_state.c ****         return_status = optiga_crypt_destroy(me_crypt);
 142              	 .loc 1 278 0
 143 0070 2846     	 mov r0,r5
 144 0072 FFF7FEFF 	 bl optiga_crypt_destroy
 145              	.LVL14:
 279:D:/School/diseratie/SEMS/xmc4800_evaluation_kit/optiga-trust-m/examples/optiga\example_optiga_crypt_clear_auto_state.c ****         if(OPTIGA_LIB_SUCCESS != return_status)
 280:D:/School/diseratie/SEMS/xmc4800_evaluation_kit/optiga-trust-m/examples/optiga\example_optiga_crypt_clear_auto_state.c ****         {
 281:D:/School/diseratie/SEMS/xmc4800_evaluation_kit/optiga-trust-m/examples/optiga\example_optiga_crypt_clear_auto_state.c ****             //lint --e{774} suppress This is a generic macro
 282:D:/School/diseratie/SEMS/xmc4800_evaluation_kit/optiga-trust-m/examples/optiga\example_optiga_crypt_clear_auto_state.c ****             OPTIGA_EXAMPLE_LOG_STATUS(return_status);
 283:D:/School/diseratie/SEMS/xmc4800_evaluation_kit/optiga-trust-m/examples/optiga\example_optiga_crypt_clear_auto_state.c ****         }
 284:D:/School/diseratie/SEMS/xmc4800_evaluation_kit/optiga-trust-m/examples/optiga\example_optiga_crypt_clear_auto_state.c ****     }
 285:D:/School/diseratie/SEMS/xmc4800_evaluation_kit/optiga-trust-m/examples/optiga\example_optiga_crypt_clear_auto_state.c ****     
 286:D:/School/diseratie/SEMS/xmc4800_evaluation_kit/optiga-trust-m/examples/optiga\example_optiga_crypt_clear_auto_state.c **** }
 146              	 .loc 1 286 0
 147 0076 06B0     	 add sp,sp,#24
 148              	.LCFI2:
 149              	 .cfi_remember_state
 150              	 .cfi_def_cfa_offset 24
 151              	 
 152 0078 BDE8F081 	 pop {r4,r5,r6,r7,r8,pc}
 153              	.LVL15:
 154              	.L5:
 155              	.LCFI3:
 156              	 .cfi_restore_state
 261:D:/School/diseratie/SEMS/xmc4800_evaluation_kit/optiga-trust-m/examples/optiga\example_optiga_crypt_clear_auto_state.c **** #endif //OPTIGA_INIT_DEINIT_DONE_EXCLUSIVELY
 157              	 .loc 1 261 0
 158 007c FFF7FEFF 	 bl example_optiga_deinit
 159              	.LVL16:
 275:D:/School/diseratie/SEMS/xmc4800_evaluation_kit/optiga-trust-m/examples/optiga\example_optiga_crypt_clear_auto_state.c ****     {
 160              	 .loc 1 275 0
 161 0080 002D     	 cmp r5,#0
 162 0082 F5D1     	 bne .L18
 163              	 .loc 1 286 0
 164 0084 06B0     	 add sp,sp,#24
 165              	.LCFI4:
 166              	 .cfi_remember_state
 167              	 .cfi_def_cfa_offset 24
 168              	 
 169 0086 BDE8F081 	 pop {r4,r5,r6,r7,r8,pc}
 170              	.LVL17:
 171              	.L7:
 172              	.LCFI5:
 173              	 .cfi_restore_state
 179:D:/School/diseratie/SEMS/xmc4800_evaluation_kit/optiga-trust-m/examples/optiga\example_optiga_crypt_clear_auto_state.c **** 
 174              	 .loc 1 179 0 discriminator 1
 175 008a 2388     	 ldrh r3,[r4]
 176 008c 4F4E     	 ldr r6,.L46+4
 177 008e 9BB2     	 uxth r3,r3
 178 0090 012B     	 cmp r3,#1
 179 0092 FAD0     	 beq .L7
 179:D:/School/diseratie/SEMS/xmc4800_evaluation_kit/optiga-trust-m/examples/optiga\example_optiga_crypt_clear_auto_state.c **** 
 180              	 .loc 1 179 0 is_stmt 0 discriminator 2
 181 0094 3388     	 ldrh r3,[r6]
 182 0096 9BB2     	 uxth r3,r3
 183 0098 5BB1     	 cbz r3,.L45
 184              	.L42:
 205:D:/School/diseratie/SEMS/xmc4800_evaluation_kit/optiga-trust-m/examples/optiga\example_optiga_crypt_clear_auto_state.c ****         /**
 185              	 .loc 1 205 0 is_stmt 1 discriminator 3
 186 009a 3488     	 ldrh r4,[r6]
 187 009c A4B2     	 uxth r4,r4
 188              	.LVL18:
 189              	.L9:
 261:D:/School/diseratie/SEMS/xmc4800_evaluation_kit/optiga-trust-m/examples/optiga\example_optiga_crypt_clear_auto_state.c **** #endif //OPTIGA_INIT_DEINIT_DONE_EXCLUSIVELY
 190              	 .loc 1 261 0
 191 009e FFF7FEFF 	 bl example_optiga_deinit
 192              	.LVL19:
 263:D:/School/diseratie/SEMS/xmc4800_evaluation_kit/optiga-trust-m/examples/optiga\example_optiga_crypt_clear_auto_state.c ****     
 193              	 .loc 1 263 0
 194 00a2 002C     	 cmp r4,#0
 195 00a4 E1D1     	 bne .L21
 196              	.LVL20:
 197              	.L20:
 263:D:/School/diseratie/SEMS/xmc4800_evaluation_kit/optiga-trust-m/examples/optiga\example_optiga_crypt_clear_auto_state.c ****     
 198              	 .loc 1 263 0 is_stmt 0 discriminator 1
 199 00a6 4B49     	 ldr r1,.L46+12
 200 00a8 059A     	 ldr r2,[sp,#20]
 201 00aa 4B48     	 ldr r0,.L46+16
 202 00ac FFF7FEFF 	 bl sprintf
 203              	.LVL21:
 204 00b0 DBE7     	 b .L21
 205              	.LVL22:
 206              	.L45:
 185:D:/School/diseratie/SEMS/xmc4800_evaluation_kit/optiga-trust-m/examples/optiga\example_optiga_crypt_clear_auto_state.c ****                                                0xF1D0,
 207              	 .loc 1 185 0 is_stmt 1
 208 00b2 4A4A     	 ldr r2,.L46+20
 209 00b4 0092     	 str r2,[sp]
 210 00b6 4022     	 movs r2,#64
 184:D:/School/diseratie/SEMS/xmc4800_evaluation_kit/optiga-trust-m/examples/optiga\example_optiga_crypt_clear_auto_state.c ****         return_status = optiga_util_write_data(me_util,
 211              	 .loc 1 184 0
 212 00b8 4FF0010E 	 mov lr,#1
 185:D:/School/diseratie/SEMS/xmc4800_evaluation_kit/optiga-trust-m/examples/optiga\example_optiga_crypt_clear_auto_state.c ****                                                0xF1D0,
 213              	 .loc 1 185 0
 214 00bc 0192     	 str r2,[sp,#4]
 215 00be 3846     	 mov r0,r7
 216              	.LVL23:
 217 00c0 4FF2D011 	 movw r1,#61904
 184:D:/School/diseratie/SEMS/xmc4800_evaluation_kit/optiga-trust-m/examples/optiga\example_optiga_crypt_clear_auto_state.c ****         return_status = optiga_util_write_data(me_util,
 218              	 .loc 1 184 0
 219 00c4 A6F800E0 	 strh lr,[r6]
 185:D:/School/diseratie/SEMS/xmc4800_evaluation_kit/optiga-trust-m/examples/optiga\example_optiga_crypt_clear_auto_state.c ****                                                0xF1D0,
 220              	 .loc 1 185 0
 221 00c8 FFF7FEFF 	 bl optiga_util_write_data
 222              	.LVL24:
 192:D:/School/diseratie/SEMS/xmc4800_evaluation_kit/optiga-trust-m/examples/optiga\example_optiga_crypt_clear_auto_state.c ****         
 223              	 .loc 1 192 0
 224 00cc 0028     	 cmp r0,#0
 225 00ce CAD1     	 bne .L6
 226              	.L10:
 192:D:/School/diseratie/SEMS/xmc4800_evaluation_kit/optiga-trust-m/examples/optiga\example_optiga_crypt_clear_auto_state.c ****         
 227              	 .loc 1 192 0 is_stmt 0 discriminator 1
 228 00d0 2388     	 ldrh r3,[r4]
 229 00d2 3E4E     	 ldr r6,.L46+4
 230 00d4 9BB2     	 uxth r3,r3
 231 00d6 012B     	 cmp r3,#1
 232 00d8 FAD0     	 beq .L10
 192:D:/School/diseratie/SEMS/xmc4800_evaluation_kit/optiga-trust-m/examples/optiga\example_optiga_crypt_clear_auto_state.c ****         
 233              	 .loc 1 192 0 discriminator 2
 234 00da 3188     	 ldrh r1,[r6]
 235 00dc 89B2     	 uxth r1,r1
 236 00de 0029     	 cmp r1,#0
 237 00e0 DBD1     	 bne .L42
 198:D:/School/diseratie/SEMS/xmc4800_evaluation_kit/optiga-trust-m/examples/optiga\example_optiga_crypt_clear_auto_state.c ****                                                         OPTIGA_RNG_TYPE_TRNG,
 238              	 .loc 1 198 0 is_stmt 1
 239 00e2 3F4B     	 ldr r3,.L46+24
 240 00e4 0093     	 str r3,[sp]
 241 00e6 2023     	 movs r3,#32
 242 00e8 0193     	 str r3,[sp,#4]
 197:D:/School/diseratie/SEMS/xmc4800_evaluation_kit/optiga-trust-m/examples/optiga\example_optiga_crypt_clear_auto_state.c ****         return_status = optiga_crypt_generate_auth_code(me_crypt,
 243              	 .loc 1 197 0
 244 00ea 0123     	 movs r3,#1
 245 00ec 3380     	 strh r3,[r6]
 198:D:/School/diseratie/SEMS/xmc4800_evaluation_kit/optiga-trust-m/examples/optiga\example_optiga_crypt_clear_auto_state.c ****                                                         OPTIGA_RNG_TYPE_TRNG,
 246              	 .loc 1 198 0
 247 00ee 2846     	 mov r0,r5
 248              	.LVL25:
 249 00f0 3C4A     	 ldr r2,.L46+28
 250 00f2 1023     	 movs r3,#16
 251 00f4 FFF7FEFF 	 bl optiga_crypt_generate_auth_code
 252              	.LVL26:
 205:D:/School/diseratie/SEMS/xmc4800_evaluation_kit/optiga-trust-m/examples/optiga\example_optiga_crypt_clear_auto_state.c ****         /**
 253              	 .loc 1 205 0
 254 00f8 0028     	 cmp r0,#0
 255 00fa B4D1     	 bne .L6
 256              	.L12:
 205:D:/School/diseratie/SEMS/xmc4800_evaluation_kit/optiga-trust-m/examples/optiga\example_optiga_crypt_clear_auto_state.c ****         /**
 257              	 .loc 1 205 0 is_stmt 0 discriminator 1
 258 00fc 2388     	 ldrh r3,[r4]
 259 00fe 334E     	 ldr r6,.L46+4
 260 0100 9BB2     	 uxth r3,r3
 261 0102 012B     	 cmp r3,#1
 262 0104 FAD0     	 beq .L12
 205:D:/School/diseratie/SEMS/xmc4800_evaluation_kit/optiga-trust-m/examples/optiga\example_optiga_crypt_clear_auto_state.c ****         /**
 263              	 .loc 1 205 0 discriminator 2
 264 0106 3388     	 ldrh r3,[r6]
 265 0108 9BB2     	 uxth r3,r3
 266 010a 002B     	 cmp r3,#0
 267 010c C5D1     	 bne .L42
 209:D:/School/diseratie/SEMS/xmc4800_evaluation_kit/optiga-trust-m/examples/optiga\example_optiga_crypt_clear_auto_state.c ****         pal_os_memcpy(input_data_buffer, optional_data, sizeof(optional_data));
 268              	 .loc 1 209 0 is_stmt 1
 269 010e 3648     	 ldr r0,.L46+32
 270              	.LVL27:
 214:D:/School/diseratie/SEMS/xmc4800_evaluation_kit/optiga-trust-m/examples/optiga\example_optiga_crypt_clear_auto_state.c ****                                      sizeof(user_secret),
 271              	 .loc 1 214 0
 272 0110 DFF8E480 	 ldr r8,.L46+48
 209:D:/School/diseratie/SEMS/xmc4800_evaluation_kit/optiga-trust-m/examples/optiga\example_optiga_crypt_clear_auto_state.c ****         pal_os_memcpy(input_data_buffer, optional_data, sizeof(optional_data));
 273              	 .loc 1 209 0
 274 0114 5A21     	 movs r1,#90
 275 0116 1022     	 movs r2,#16
 276 0118 FFF7FEFF 	 bl pal_os_memset
 277              	.LVL28:
 210:D:/School/diseratie/SEMS/xmc4800_evaluation_kit/optiga-trust-m/examples/optiga\example_optiga_crypt_clear_auto_state.c ****         pal_os_memcpy(&input_data_buffer[sizeof(optional_data)], random_data, sizeof(random_data));
 278              	 .loc 1 210 0
 279 011c 3348     	 ldr r0,.L46+36
 280 011e 3149     	 ldr r1,.L46+28
 281 0120 1022     	 movs r2,#16
 282 0122 FFF7FEFF 	 bl pal_os_memcpy
 283              	.LVL29:
 211:D:/School/diseratie/SEMS/xmc4800_evaluation_kit/optiga-trust-m/examples/optiga\example_optiga_crypt_clear_auto_state.c ****         pal_os_memcpy(&input_data_buffer[sizeof(optional_data) + sizeof(random_data)], arbitrary_da
 284              	 .loc 1 211 0
 285 0126 3248     	 ldr r0,.L46+40
 286 0128 2D49     	 ldr r1,.L46+24
 287 012a 2022     	 movs r2,#32
 288 012c FFF7FEFF 	 bl pal_os_memcpy
 289              	.LVL30:
 212:D:/School/diseratie/SEMS/xmc4800_evaluation_kit/optiga-trust-m/examples/optiga\example_optiga_crypt_clear_auto_state.c ****         
 290              	 .loc 1 212 0
 291 0130 3048     	 ldr r0,.L46+44
 292 0132 2D49     	 ldr r1,.L46+32
 293 0134 1022     	 movs r2,#16
 294 0136 FFF7FEFF 	 bl pal_os_memcpy
 295              	.LVL31:
 214:D:/School/diseratie/SEMS/xmc4800_evaluation_kit/optiga-trust-m/examples/optiga\example_optiga_crypt_clear_auto_state.c ****                                      sizeof(user_secret),
 296              	 .loc 1 214 0
 297 013a CDF80080 	 str r8,[sp]
 298 013e 2748     	 ldr r0,.L46+20
 299 0140 2A4A     	 ldr r2,.L46+36
 300 0142 4021     	 movs r1,#64
 301 0144 6423     	 movs r3,#100
 302 0146 FFF7FEFF 	 bl CalcHMAC
 303              	.LVL32:
 220:D:/School/diseratie/SEMS/xmc4800_evaluation_kit/optiga-trust-m/examples/optiga\example_optiga_crypt_clear_auto_state.c ****         {
 304              	 .loc 1 220 0
 305 014a 0028     	 cmp r0,#0
 306 014c 8BD1     	 bne .L6
 230:D:/School/diseratie/SEMS/xmc4800_evaluation_kit/optiga-trust-m/examples/optiga\example_optiga_crypt_clear_auto_state.c ****                                                  OPTIGA_HMAC_SHA_256,
 307              	 .loc 1 230 0
 308 014e 6423     	 movs r3,#100
 309 0150 2021     	 movs r1,#32
 310 0152 8DE80801 	 stmia sp,{r3,r8}
 229:D:/School/diseratie/SEMS/xmc4800_evaluation_kit/optiga-trust-m/examples/optiga\example_optiga_crypt_clear_auto_state.c ****         return_status = optiga_crypt_hmac_verify(me_crypt,
 311              	 .loc 1 229 0
 312 0156 4FF0010E 	 mov lr,#1
 230:D:/School/diseratie/SEMS/xmc4800_evaluation_kit/optiga-trust-m/examples/optiga\example_optiga_crypt_clear_auto_state.c ****                                                  OPTIGA_HMAC_SHA_256,
 313              	 .loc 1 230 0
 314 015a 0291     	 str r1,[sp,#8]
 315 015c 2846     	 mov r0,r5
 316              	.LVL33:
 317 015e 4FF2D012 	 movw r2,#61904
 318 0162 224B     	 ldr r3,.L46+36
 229:D:/School/diseratie/SEMS/xmc4800_evaluation_kit/optiga-trust-m/examples/optiga\example_optiga_crypt_clear_auto_state.c ****         return_status = optiga_crypt_hmac_verify(me_crypt,
 319              	 .loc 1 229 0
 320 0164 A6F800E0 	 strh lr,[r6]
 230:D:/School/diseratie/SEMS/xmc4800_evaluation_kit/optiga-trust-m/examples/optiga\example_optiga_crypt_clear_auto_state.c ****                                                  OPTIGA_HMAC_SHA_256,
 321              	 .loc 1 230 0
 322 0168 FFF7FEFF 	 bl optiga_crypt_hmac_verify
 323              	.LVL34:
 237:D:/School/diseratie/SEMS/xmc4800_evaluation_kit/optiga-trust-m/examples/optiga\example_optiga_crypt_clear_auto_state.c ****         /**
 324              	 .loc 1 237 0
 325 016c 0028     	 cmp r0,#0
 326 016e 7FF47AAF 	 bne .L6
 327              	.L14:
 237:D:/School/diseratie/SEMS/xmc4800_evaluation_kit/optiga-trust-m/examples/optiga\example_optiga_crypt_clear_auto_state.c ****         /**
 328              	 .loc 1 237 0 is_stmt 0 discriminator 1
 329 0172 2288     	 ldrh r2,[r4]
 330 0174 154B     	 ldr r3,.L46+4
 331 0176 92B2     	 uxth r2,r2
 332 0178 012A     	 cmp r2,#1
 333 017a FAD0     	 beq .L14
 237:D:/School/diseratie/SEMS/xmc4800_evaluation_kit/optiga-trust-m/examples/optiga\example_optiga_crypt_clear_auto_state.c ****         /**
 334              	 .loc 1 237 0 discriminator 2
 335 017c 1A88     	 ldrh r2,[r3]
 336 017e 92B2     	 uxth r2,r2
 337 0180 12B1     	 cbz r2,.L15
 237:D:/School/diseratie/SEMS/xmc4800_evaluation_kit/optiga-trust-m/examples/optiga\example_optiga_crypt_clear_auto_state.c ****         /**
 338              	 .loc 1 237 0 discriminator 3
 339 0182 1C88     	 ldrh r4,[r3]
 340 0184 A4B2     	 uxth r4,r4
 341              	.LVL35:
 342 0186 8AE7     	 b .L9
 343              	.LVL36:
 344              	.L15:
 241:D:/School/diseratie/SEMS/xmc4800_evaluation_kit/optiga-trust-m/examples/optiga\example_optiga_crypt_clear_auto_state.c ****         
 345              	 .loc 1 241 0 is_stmt 1
 346 0188 0122     	 movs r2,#1
 243:D:/School/diseratie/SEMS/xmc4800_evaluation_kit/optiga-trust-m/examples/optiga\example_optiga_crypt_clear_auto_state.c ****         
 347              	 .loc 1 243 0
 348 018a 1146     	 mov r1,r2
 349 018c 05A8     	 add r0,sp,#20
 350              	.LVL37:
 241:D:/School/diseratie/SEMS/xmc4800_evaluation_kit/optiga-trust-m/examples/optiga\example_optiga_crypt_clear_auto_state.c ****         
 351              	 .loc 1 241 0
 352 018e 1A80     	 strh r2,[r3]
 243:D:/School/diseratie/SEMS/xmc4800_evaluation_kit/optiga-trust-m/examples/optiga\example_optiga_crypt_clear_auto_state.c ****         
 353              	 .loc 1 243 0
 354 0190 FFF7FEFF 	 bl example_performance_measurement
 355              	.LVL38:
 245:D:/School/diseratie/SEMS/xmc4800_evaluation_kit/optiga-trust-m/examples/optiga\example_optiga_crypt_clear_auto_state.c ****                                                       0xF1D0);
 356              	 .loc 1 245 0
 357 0194 2846     	 mov r0,r5
 358 0196 4FF2D011 	 movw r1,#61904
 359 019a FFF7FEFF 	 bl optiga_crypt_clear_auto_state
 360              	.LVL39:
 247:D:/School/diseratie/SEMS/xmc4800_evaluation_kit/optiga-trust-m/examples/optiga\example_optiga_crypt_clear_auto_state.c ****         
 361              	 .loc 1 247 0
 362 019e 0028     	 cmp r0,#0
 363 01a0 7FF461AF 	 bne .L6
 364              	.L16:
 247:D:/School/diseratie/SEMS/xmc4800_evaluation_kit/optiga-trust-m/examples/optiga\example_optiga_crypt_clear_auto_state.c ****         
 365              	 .loc 1 247 0 is_stmt 0 discriminator 1
 366 01a4 2388     	 ldrh r3,[r4]
 367 01a6 094A     	 ldr r2,.L46+4
 368 01a8 9BB2     	 uxth r3,r3
 369 01aa 012B     	 cmp r3,#1
 370 01ac FAD0     	 beq .L16
 247:D:/School/diseratie/SEMS/xmc4800_evaluation_kit/optiga-trust-m/examples/optiga\example_optiga_crypt_clear_auto_state.c ****         
 371              	 .loc 1 247 0 discriminator 2
 372 01ae 1188     	 ldrh r1,[r2]
 373 01b0 89B2     	 uxth r1,r1
 374 01b2 11B1     	 cbz r1,.L17
 247:D:/School/diseratie/SEMS/xmc4800_evaluation_kit/optiga-trust-m/examples/optiga\example_optiga_crypt_clear_auto_state.c ****         
 375              	 .loc 1 247 0 discriminator 3
 376 01b4 1488     	 ldrh r4,[r2]
 377 01b6 A4B2     	 uxth r4,r4
 378              	.LVL40:
 379 01b8 71E7     	 b .L9
 380              	.LVL41:
 381              	.L17:
 249:D:/School/diseratie/SEMS/xmc4800_evaluation_kit/optiga-trust-m/examples/optiga\example_optiga_crypt_clear_auto_state.c ****         
 382              	 .loc 1 249 0 is_stmt 1
 383 01ba 05A8     	 add r0,sp,#20
 384              	.LVL42:
 385 01bc FFF7FEFF 	 bl example_performance_measurement
 386              	.LVL43:
 261:D:/School/diseratie/SEMS/xmc4800_evaluation_kit/optiga-trust-m/examples/optiga\example_optiga_crypt_clear_auto_state.c **** #endif //OPTIGA_INIT_DEINIT_DONE_EXCLUSIVELY
 387              	 .loc 1 261 0
 388 01c0 FFF7FEFF 	 bl example_optiga_deinit
 389              	.LVL44:
 390 01c4 6FE7     	 b .L20
 391              	.L47:
 392 01c6 00BF     	 .align 2
 393              	.L46:
 394 01c8 00000000 	 .word optiga_lib_callback
 395 01cc 00000000 	 .word .LANCHOR0
 396 01d0 00000000 	 .word .LANCHOR1
 397 01d4 00000000 	 .word .LC0
 398 01d8 00000000 	 .word performance_buffer_string
 399 01dc 00000000 	 .word .LANCHOR2
 400 01e0 00000000 	 .word .LANCHOR4
 401 01e4 00000000 	 .word .LANCHOR3
 402 01e8 00000000 	 .word .LANCHOR5
 403 01ec 00000000 	 .word .LANCHOR6
 404 01f0 10000000 	 .word .LANCHOR6+16
 405 01f4 30000000 	 .word .LANCHOR6+48
 406 01f8 00000000 	 .word .LANCHOR7
 407              	 .cfi_endproc
 408              	.LFE19:
 410              	 .section .rodata.user_secret,"a",%progbits
 411              	 .align 2
 412              	 .set .LANCHOR2,.+0
 415              	user_secret:
 416 0000 49       	 .byte 73
 417 0001 C9       	 .byte -55
 418 0002 F4       	 .byte -12
 419 0003 92       	 .byte -110
 420 0004 A9       	 .byte -87
 421 0005 92       	 .byte -110
 422 0006 F6       	 .byte -10
 423 0007 D4       	 .byte -44
 424 0008 C5       	 .byte -59
 425 0009 4F       	 .byte 79
 426 000a 5B       	 .byte 91
 427 000b 12       	 .byte 18
 428 000c C5       	 .byte -59
 429 000d 7E       	 .byte 126
 430 000e DB       	 .byte -37
 431 000f 27       	 .byte 39
 432 0010 CE       	 .byte -50
 433 0011 D2       	 .byte -46
 434 0012 24       	 .byte 36
 435 0013 04       	 .byte 4
 436 0014 8F       	 .byte -113
 437 0015 25       	 .byte 37
 438 0016 48       	 .byte 72
 439 0017 2A       	 .byte 42
 440 0018 A1       	 .byte -95
 441 0019 49       	 .byte 73
 442 001a C9       	 .byte -55
 443 001b F4       	 .byte -12
 444 001c 92       	 .byte -110
 445 001d A9       	 .byte -87
 446 001e 92       	 .byte -110
 447 001f F6       	 .byte -10
 448 0020 49       	 .byte 73
 449 0021 C9       	 .byte -55
 450 0022 F4       	 .byte -12
 451 0023 92       	 .byte -110
 452 0024 A9       	 .byte -87
 453 0025 92       	 .byte -110
 454 0026 F6       	 .byte -10
 455 0027 D4       	 .byte -44
 456 0028 C5       	 .byte -59
 457 0029 4F       	 .byte 79
 458 002a 5B       	 .byte 91
 459 002b 12       	 .byte 18
 460 002c C5       	 .byte -59
 461 002d 7E       	 .byte 126
 462 002e DB       	 .byte -37
 463 002f 27       	 .byte 39
 464 0030 CE       	 .byte -50
 465 0031 D2       	 .byte -46
 466 0032 24       	 .byte 36
 467 0033 04       	 .byte 4
 468 0034 8F       	 .byte -113
 469 0035 25       	 .byte 37
 470 0036 48       	 .byte 72
 471 0037 2A       	 .byte 42
 472 0038 A1       	 .byte -95
 473 0039 49       	 .byte 73
 474 003a C9       	 .byte -55
 475 003b F4       	 .byte -12
 476 003c 92       	 .byte -110
 477 003d A9       	 .byte -87
 478 003e 92       	 .byte -110
 479 003f F6       	 .byte -10
 480              	 .section .bss.random_data,"aw",%nobits
 481              	 .align 2
 482              	 .set .LANCHOR4,.+0
 485              	random_data:
 486 0000 00000000 	 .space 32
 486      00000000 
 486      00000000 
 486      00000000 
 486      00000000 
 487              	 .section .rodata.secret_oid_metadata,"a",%progbits
 488              	 .align 2
 489              	 .set .LANCHOR1,.+0
 492              	secret_oid_metadata:
 493 0000 20       	 .byte 32
 494 0001 06       	 .byte 6
 495 0002 D3       	 .byte -45
 496 0003 01       	 .byte 1
 497 0004 00       	 .byte 0
 498 0005 E8       	 .byte -24
 499 0006 01       	 .byte 1
 500 0007 31       	 .byte 49
 501              	 .section .bss.hmac_buffer,"aw",%nobits
 502              	 .align 2
 503              	 .set .LANCHOR7,.+0
 506              	hmac_buffer:
 507 0000 00000000 	 .space 32
 507      00000000 
 507      00000000 
 507      00000000 
 507      00000000 
 508              	 .section .bss.arbitrary_data,"aw",%nobits
 509              	 .align 2
 510              	 .set .LANCHOR5,.+0
 513              	arbitrary_data:
 514 0000 00000000 	 .space 16
 514      00000000 
 514      00000000 
 514      00000000 
 515              	 .section .rodata.str1.4,"aMS",%progbits,1
 516              	 .align 2
 517              	.LC0:
 518 0000 4578616D 	 .ascii "Example takes %d msec\000"
 518      706C6520 
 518      74616B65 
 518      73202564 
 518      206D7365 
 519 0016 0000     	 .section .bss.input_data_buffer,"aw",%nobits
 520              	 .align 2
 521              	 .set .LANCHOR6,.+0
 524              	input_data_buffer:
 525 0000 00000000 	 .space 100
 525      00000000 
 525      00000000 
 525      00000000 
 525      00000000 
 526              	 .section .rodata.optional_data,"a",%progbits
 527              	 .align 2
 528              	 .set .LANCHOR3,.+0
 531              	optional_data:
 532 0000 01       	 .byte 1
 533 0001 02       	 .byte 2
 534 0002 03       	 .byte 3
 535 0003 04       	 .byte 4
 536 0004 05       	 .byte 5
 537 0005 06       	 .byte 6
 538 0006 07       	 .byte 7
 539 0007 08       	 .byte 8
 540 0008 09       	 .byte 9
 541 0009 0A       	 .byte 10
 542 000a 0B       	 .byte 11
 543 000b 0C       	 .byte 12
 544 000c 0D       	 .byte 13
 545 000d 0E       	 .byte 14
 546 000e 0F       	 .byte 15
 547 000f 10       	 .byte 16
 548              	 .section .bss.optiga_lib_status,"aw",%nobits
 549              	 .align 1
 550              	 .set .LANCHOR0,.+0
 553              	optiga_lib_status:
 554 0000 0000     	 .space 2
 555              	 .text
 556              	.Letext0:
 557              	 .file 2 "c:\\infineon\\tools\\dave ide\\4.5.0.202105191637\\eclipse\\arm-gcc-49\\arm-none-eabi\\include\\machine\\_default_types.h"
 558              	 .file 3 "c:\\infineon\\tools\\dave ide\\4.5.0.202105191637\\eclipse\\arm-gcc-49\\arm-none-eabi\\include\\stdint.h"
 559              	 .file 4 "D:/School/diseratie/SEMS/xmc4800_evaluation_kit/optiga-trust-m/optiga/include/optiga/common/optiga_lib_types.h"
 560              	 .file 5 "D:/School/diseratie/SEMS/xmc4800_evaluation_kit/optiga-trust-m/optiga/include/optiga/common/optiga_lib_common.h"
 561              	 .file 6 "D:/School/diseratie/SEMS/xmc4800_evaluation_kit/optiga-trust-m/optiga/include/optiga/cmd/optiga_cmd.h"
 562              	 .file 7 "D:/School/diseratie/SEMS/xmc4800_evaluation_kit/optiga-trust-m/optiga/include/optiga/optiga_util.h"
 563              	 .file 8 "D:/School/diseratie/SEMS/xmc4800_evaluation_kit/optiga-trust-m/optiga/include/optiga/optiga_crypt.h"
 564              	 .file 9 "D:/School/diseratie/SEMS/xmc4800_evaluation_kit/optiga-trust-m/optiga/include/optiga/pal/pal.h"
 565              	 .file 10 "c:\\infineon\\tools\\dave ide\\4.5.0.202105191637\\eclipse\\arm-gcc-49\\arm-none-eabi\\include\\stdio.h"
 566              	 .file 11 "D:/School/diseratie/SEMS/xmc4800_evaluation_kit/optiga-trust-m/optiga/include/optiga/pal/pal_os_memory.h"
 567              	 .file 12 "D:/School/diseratie/SEMS/xmc4800_evaluation_kit/optiga-trust-m/examples/optiga/include/optiga_example.h"