   1              	 .syntax unified
   2              	 .cpu cortex-m4
   3              	 .eabi_attribute 27,3
   4              	 .fpu fpv4-sp-d16
   5              	 .eabi_attribute 20,1
   6              	 .eabi_attribute 21,1
   7              	 .eabi_attribute 23,3
   8              	 .eabi_attribute 24,1
   9              	 .eabi_attribute 25,1
  10              	 .eabi_attribute 26,1
  11              	 .eabi_attribute 30,2
  12              	 .eabi_attribute 34,1
  13              	 .eabi_attribute 18,4
  14              	 .thumb
  15              	 .file "optiga_shell.c"
  16              	 .text
  17              	.Ltext0:
  18              	 .cfi_sections .debug_frame
  19              	 .section .text.optiga_util_callback,"ax",%progbits
  20              	 .align 2
  21              	 .thumb
  22              	 .thumb_func
  24              	optiga_util_callback:
  25              	.LFB449:
  26              	 .file 1 "D:/School/diseratie/SEMS/xmc4800_evaluation_kit/optiga-trust-m/examples/optiga_shell.c"
   1:D:/School/diseratie/SEMS/xmc4800_evaluation_kit/optiga-trust-m/examples\optiga_shell.c **** /**
   2:D:/School/diseratie/SEMS/xmc4800_evaluation_kit/optiga-trust-m/examples\optiga_shell.c **** * \copyright
   3:D:/School/diseratie/SEMS/xmc4800_evaluation_kit/optiga-trust-m/examples\optiga_shell.c **** * MIT License
   4:D:/School/diseratie/SEMS/xmc4800_evaluation_kit/optiga-trust-m/examples\optiga_shell.c **** *
   5:D:/School/diseratie/SEMS/xmc4800_evaluation_kit/optiga-trust-m/examples\optiga_shell.c **** * Copyright (c) 2020 Infineon Technologies AG
   6:D:/School/diseratie/SEMS/xmc4800_evaluation_kit/optiga-trust-m/examples\optiga_shell.c **** *
   7:D:/School/diseratie/SEMS/xmc4800_evaluation_kit/optiga-trust-m/examples\optiga_shell.c **** * Permission is hereby granted, free of charge, to any person obtaining a copy
   8:D:/School/diseratie/SEMS/xmc4800_evaluation_kit/optiga-trust-m/examples\optiga_shell.c **** * of this software and associated documentation files (the "Software"), to deal
   9:D:/School/diseratie/SEMS/xmc4800_evaluation_kit/optiga-trust-m/examples\optiga_shell.c **** * in the Software without restriction, including without limitation the rights
  10:D:/School/diseratie/SEMS/xmc4800_evaluation_kit/optiga-trust-m/examples\optiga_shell.c **** * to use, copy, modify, merge, publish, distribute, sublicense, and/or sell
  11:D:/School/diseratie/SEMS/xmc4800_evaluation_kit/optiga-trust-m/examples\optiga_shell.c **** * copies of the Software, and to permit persons to whom the Software is
  12:D:/School/diseratie/SEMS/xmc4800_evaluation_kit/optiga-trust-m/examples\optiga_shell.c **** * furnished to do so, subject to the following conditions:
  13:D:/School/diseratie/SEMS/xmc4800_evaluation_kit/optiga-trust-m/examples\optiga_shell.c **** *
  14:D:/School/diseratie/SEMS/xmc4800_evaluation_kit/optiga-trust-m/examples\optiga_shell.c **** * The above copyright notice and this permission notice shall be included in all
  15:D:/School/diseratie/SEMS/xmc4800_evaluation_kit/optiga-trust-m/examples\optiga_shell.c **** * copies or substantial portions of the Software.
  16:D:/School/diseratie/SEMS/xmc4800_evaluation_kit/optiga-trust-m/examples\optiga_shell.c **** *
  17:D:/School/diseratie/SEMS/xmc4800_evaluation_kit/optiga-trust-m/examples\optiga_shell.c **** * THE SOFTWARE IS PROVIDED "AS IS", WITHOUT WARRANTY OF ANY KIND, EXPRESS OR
  18:D:/School/diseratie/SEMS/xmc4800_evaluation_kit/optiga-trust-m/examples\optiga_shell.c **** * IMPLIED, INCLUDING BUT NOT LIMITED TO THE WARRANTIES OF MERCHANTABILITY,
  19:D:/School/diseratie/SEMS/xmc4800_evaluation_kit/optiga-trust-m/examples\optiga_shell.c **** * FITNESS FOR A PARTICULAR PURPOSE AND NONINFRINGEMENT. IN NO EVENT SHALL THE
  20:D:/School/diseratie/SEMS/xmc4800_evaluation_kit/optiga-trust-m/examples\optiga_shell.c **** * AUTHORS OR COPYRIGHT HOLDERS BE LIABLE FOR ANY CLAIM, DAMAGES OR OTHER
  21:D:/School/diseratie/SEMS/xmc4800_evaluation_kit/optiga-trust-m/examples\optiga_shell.c **** * LIABILITY, WHETHER IN AN ACTION OF CONTRACT, TORT OR OTHERWISE, ARISING FROM,
  22:D:/School/diseratie/SEMS/xmc4800_evaluation_kit/optiga-trust-m/examples\optiga_shell.c **** * OUT OF OR IN CONNECTION WITH THE SOFTWARE OR THE USE OR OTHER DEALINGS IN THE
  23:D:/School/diseratie/SEMS/xmc4800_evaluation_kit/optiga-trust-m/examples\optiga_shell.c **** * SOFTWARE
  24:D:/School/diseratie/SEMS/xmc4800_evaluation_kit/optiga-trust-m/examples\optiga_shell.c **** *
  25:D:/School/diseratie/SEMS/xmc4800_evaluation_kit/optiga-trust-m/examples\optiga_shell.c **** * \endcopyright
  26:D:/School/diseratie/SEMS/xmc4800_evaluation_kit/optiga-trust-m/examples\optiga_shell.c **** *
  27:D:/School/diseratie/SEMS/xmc4800_evaluation_kit/optiga-trust-m/examples\optiga_shell.c **** * \author Infineon Technologies AG
  28:D:/School/diseratie/SEMS/xmc4800_evaluation_kit/optiga-trust-m/examples\optiga_shell.c **** *
  29:D:/School/diseratie/SEMS/xmc4800_evaluation_kit/optiga-trust-m/examples\optiga_shell.c **** * \file optiga_shell.c
  30:D:/School/diseratie/SEMS/xmc4800_evaluation_kit/optiga-trust-m/examples\optiga_shell.c **** *
  31:D:/School/diseratie/SEMS/xmc4800_evaluation_kit/optiga-trust-m/examples\optiga_shell.c **** * \brief   This file provides the shell prompt implementation.
  32:D:/School/diseratie/SEMS/xmc4800_evaluation_kit/optiga-trust-m/examples\optiga_shell.c **** *
  33:D:/School/diseratie/SEMS/xmc4800_evaluation_kit/optiga-trust-m/examples\optiga_shell.c **** * \ingroup grOptigaExamples
  34:D:/School/diseratie/SEMS/xmc4800_evaluation_kit/optiga-trust-m/examples\optiga_shell.c **** *
  35:D:/School/diseratie/SEMS/xmc4800_evaluation_kit/optiga-trust-m/examples\optiga_shell.c **** * @{
  36:D:/School/diseratie/SEMS/xmc4800_evaluation_kit/optiga-trust-m/examples\optiga_shell.c **** */
  37:D:/School/diseratie/SEMS/xmc4800_evaluation_kit/optiga-trust-m/examples\optiga_shell.c **** 
  38:D:/School/diseratie/SEMS/xmc4800_evaluation_kit/optiga-trust-m/examples\optiga_shell.c **** #include <DAVE.h>
  39:D:/School/diseratie/SEMS/xmc4800_evaluation_kit/optiga-trust-m/examples\optiga_shell.c **** #include "optiga/optiga_crypt.h"
  40:D:/School/diseratie/SEMS/xmc4800_evaluation_kit/optiga-trust-m/examples\optiga_shell.c **** #include "optiga/optiga_util.h"
  41:D:/School/diseratie/SEMS/xmc4800_evaluation_kit/optiga-trust-m/examples\optiga_shell.c **** #include "optiga/common/optiga_lib_logger.h"
  42:D:/School/diseratie/SEMS/xmc4800_evaluation_kit/optiga-trust-m/examples\optiga_shell.c **** #include "optiga/pal/pal_os_event.h"
  43:D:/School/diseratie/SEMS/xmc4800_evaluation_kit/optiga-trust-m/examples\optiga_shell.c **** #include "optiga/pal/pal.h"
  44:D:/School/diseratie/SEMS/xmc4800_evaluation_kit/optiga-trust-m/examples\optiga_shell.c **** #include "optiga/pal/pal_os_timer.h"
  45:D:/School/diseratie/SEMS/xmc4800_evaluation_kit/optiga-trust-m/examples\optiga_shell.c **** #include "optiga_example.h"
  46:D:/School/diseratie/SEMS/xmc4800_evaluation_kit/optiga-trust-m/examples\optiga_shell.c **** #include "optiga/pal/pal_logger.h"
  47:D:/School/diseratie/SEMS/xmc4800_evaluation_kit/optiga-trust-m/examples\optiga_shell.c **** 
  48:D:/School/diseratie/SEMS/xmc4800_evaluation_kit/optiga-trust-m/examples\optiga_shell.c **** #define OPTIGA_SHELL_MODULE "[optiga shell]  : "
  49:D:/School/diseratie/SEMS/xmc4800_evaluation_kit/optiga-trust-m/examples\optiga_shell.c **** #define OPTIGA_SHELL_LOG_MESSAGE(msg) \
  50:D:/School/diseratie/SEMS/xmc4800_evaluation_kit/optiga-trust-m/examples\optiga_shell.c ****                             optiga_lib_print_message(msg, OPTIGA_SHELL_MODULE, OPTIGA_LIB_LOGGER_CO
  51:D:/School/diseratie/SEMS/xmc4800_evaluation_kit/optiga-trust-m/examples\optiga_shell.c ****                             
  52:D:/School/diseratie/SEMS/xmc4800_evaluation_kit/optiga-trust-m/examples\optiga_shell.c **** #define OPTIGA_SHELL_LOG_ERROR_MESSAGE(msg) \
  53:D:/School/diseratie/SEMS/xmc4800_evaluation_kit/optiga-trust-m/examples\optiga_shell.c ****                             optiga_lib_print_message(msg, OPTIGA_SHELL_MODULE, OPTIGA_LIB_LOGGER_CO
  54:D:/School/diseratie/SEMS/xmc4800_evaluation_kit/optiga-trust-m/examples\optiga_shell.c **** 
  55:D:/School/diseratie/SEMS/xmc4800_evaluation_kit/optiga-trust-m/examples\optiga_shell.c **** #ifdef OPTIGA_COMMS_SHIELDED_CONNECTION
  56:D:/School/diseratie/SEMS/xmc4800_evaluation_kit/optiga-trust-m/examples\optiga_shell.c **** extern optiga_lib_status_t pair_host_and_optiga_using_pre_shared_secret(void);
  57:D:/School/diseratie/SEMS/xmc4800_evaluation_kit/optiga-trust-m/examples\optiga_shell.c **** #endif
  58:D:/School/diseratie/SEMS/xmc4800_evaluation_kit/optiga-trust-m/examples\optiga_shell.c **** 
  59:D:/School/diseratie/SEMS/xmc4800_evaluation_kit/optiga-trust-m/examples\optiga_shell.c **** extern void example_optiga_crypt_hash (void);
  60:D:/School/diseratie/SEMS/xmc4800_evaluation_kit/optiga-trust-m/examples\optiga_shell.c **** extern void example_optiga_crypt_ecc_generate_keypair(void);
  61:D:/School/diseratie/SEMS/xmc4800_evaluation_kit/optiga-trust-m/examples\optiga_shell.c **** extern void example_optiga_crypt_ecdsa_sign(void);
  62:D:/School/diseratie/SEMS/xmc4800_evaluation_kit/optiga-trust-m/examples\optiga_shell.c **** extern void example_optiga_crypt_ecdsa_verify(void);
  63:D:/School/diseratie/SEMS/xmc4800_evaluation_kit/optiga-trust-m/examples\optiga_shell.c **** extern void example_optiga_crypt_ecdh(void);
  64:D:/School/diseratie/SEMS/xmc4800_evaluation_kit/optiga-trust-m/examples\optiga_shell.c **** extern void example_optiga_crypt_random(void);
  65:D:/School/diseratie/SEMS/xmc4800_evaluation_kit/optiga-trust-m/examples\optiga_shell.c **** extern void example_optiga_crypt_tls_prf_sha256(void);
  66:D:/School/diseratie/SEMS/xmc4800_evaluation_kit/optiga-trust-m/examples\optiga_shell.c **** extern void example_optiga_util_read_data(void);
  67:D:/School/diseratie/SEMS/xmc4800_evaluation_kit/optiga-trust-m/examples\optiga_shell.c **** extern void example_optiga_util_write_data(void);
  68:D:/School/diseratie/SEMS/xmc4800_evaluation_kit/optiga-trust-m/examples\optiga_shell.c **** extern void example_optiga_crypt_rsa_generate_keypair(void);
  69:D:/School/diseratie/SEMS/xmc4800_evaluation_kit/optiga-trust-m/examples\optiga_shell.c **** extern void example_optiga_crypt_rsa_sign(void);
  70:D:/School/diseratie/SEMS/xmc4800_evaluation_kit/optiga-trust-m/examples\optiga_shell.c **** extern void example_optiga_crypt_rsa_verify(void);
  71:D:/School/diseratie/SEMS/xmc4800_evaluation_kit/optiga-trust-m/examples\optiga_shell.c **** extern void example_optiga_crypt_rsa_decrypt_and_export(void);
  72:D:/School/diseratie/SEMS/xmc4800_evaluation_kit/optiga-trust-m/examples\optiga_shell.c **** extern void example_optiga_crypt_rsa_decrypt_and_store(void);
  73:D:/School/diseratie/SEMS/xmc4800_evaluation_kit/optiga-trust-m/examples\optiga_shell.c **** extern void example_optiga_crypt_rsa_encrypt_message(void);
  74:D:/School/diseratie/SEMS/xmc4800_evaluation_kit/optiga-trust-m/examples\optiga_shell.c **** extern void example_optiga_crypt_rsa_encrypt_session(void);
  75:D:/School/diseratie/SEMS/xmc4800_evaluation_kit/optiga-trust-m/examples\optiga_shell.c **** extern void example_optiga_util_update_count(void);
  76:D:/School/diseratie/SEMS/xmc4800_evaluation_kit/optiga-trust-m/examples\optiga_shell.c **** extern void example_optiga_util_protected_update(void);
  77:D:/School/diseratie/SEMS/xmc4800_evaluation_kit/optiga-trust-m/examples\optiga_shell.c **** extern void example_read_coprocessor_id(void);
  78:D:/School/diseratie/SEMS/xmc4800_evaluation_kit/optiga-trust-m/examples\optiga_shell.c **** extern void example_optiga_crypt_hash_data(void);
  79:D:/School/diseratie/SEMS/xmc4800_evaluation_kit/optiga-trust-m/examples\optiga_shell.c **** #ifdef OPTIGA_COMMS_SHIELDED_CONNECTION 
  80:D:/School/diseratie/SEMS/xmc4800_evaluation_kit/optiga-trust-m/examples\optiga_shell.c **** extern void example_pair_host_and_optiga_using_pre_shared_secret(void);
  81:D:/School/diseratie/SEMS/xmc4800_evaluation_kit/optiga-trust-m/examples\optiga_shell.c **** #endif
  82:D:/School/diseratie/SEMS/xmc4800_evaluation_kit/optiga-trust-m/examples\optiga_shell.c **** extern void example_optiga_util_hibernate_restore(void);
  83:D:/School/diseratie/SEMS/xmc4800_evaluation_kit/optiga-trust-m/examples\optiga_shell.c **** extern void example_optiga_crypt_symmetric_encrypt_decrypt_ecb(void);
  84:D:/School/diseratie/SEMS/xmc4800_evaluation_kit/optiga-trust-m/examples\optiga_shell.c **** extern void example_optiga_crypt_symmetric_encrypt_decrypt_cbc(void);
  85:D:/School/diseratie/SEMS/xmc4800_evaluation_kit/optiga-trust-m/examples\optiga_shell.c **** extern void example_optiga_crypt_symmetric_encrypt_cbcmac(void);
  86:D:/School/diseratie/SEMS/xmc4800_evaluation_kit/optiga-trust-m/examples\optiga_shell.c **** extern void example_optiga_crypt_hmac(void);
  87:D:/School/diseratie/SEMS/xmc4800_evaluation_kit/optiga-trust-m/examples\optiga_shell.c **** extern void example_optiga_crypt_hkdf(void);
  88:D:/School/diseratie/SEMS/xmc4800_evaluation_kit/optiga-trust-m/examples\optiga_shell.c **** extern void example_optiga_crypt_symmetric_generate_key(void);
  89:D:/School/diseratie/SEMS/xmc4800_evaluation_kit/optiga-trust-m/examples\optiga_shell.c **** extern void example_optiga_hmac_verify_with_authorization_reference(void);
  90:D:/School/diseratie/SEMS/xmc4800_evaluation_kit/optiga-trust-m/examples\optiga_shell.c **** extern void example_optiga_crypt_clear_auto_state(void);
  91:D:/School/diseratie/SEMS/xmc4800_evaluation_kit/optiga-trust-m/examples\optiga_shell.c **** 
  92:D:/School/diseratie/SEMS/xmc4800_evaluation_kit/optiga-trust-m/examples\optiga_shell.c **** extern pal_logger_t logger_console;
  93:D:/School/diseratie/SEMS/xmc4800_evaluation_kit/optiga-trust-m/examples\optiga_shell.c **** /**
  94:D:/School/diseratie/SEMS/xmc4800_evaluation_kit/optiga-trust-m/examples\optiga_shell.c ****  * Callback when optiga_util_xxxx operation is completed asynchronously
  95:D:/School/diseratie/SEMS/xmc4800_evaluation_kit/optiga-trust-m/examples\optiga_shell.c ****  */
  96:D:/School/diseratie/SEMS/xmc4800_evaluation_kit/optiga-trust-m/examples\optiga_shell.c **** static volatile optiga_lib_status_t optiga_lib_status;
  97:D:/School/diseratie/SEMS/xmc4800_evaluation_kit/optiga-trust-m/examples\optiga_shell.c **** //lint --e{818,715} suppress "argument "context" is not used in the sample provided"
  98:D:/School/diseratie/SEMS/xmc4800_evaluation_kit/optiga-trust-m/examples\optiga_shell.c **** static void optiga_util_callback(void * context, optiga_lib_status_t return_status)
  99:D:/School/diseratie/SEMS/xmc4800_evaluation_kit/optiga-trust-m/examples\optiga_shell.c **** {
  27              	 .loc 1 99 0
  28              	 .cfi_startproc
  29              	 
  30              	 
  31              	 
  32              	.LVL0:
 100:D:/School/diseratie/SEMS/xmc4800_evaluation_kit/optiga-trust-m/examples\optiga_shell.c ****     optiga_lib_status = return_status;
  33              	 .loc 1 100 0
  34 0000 014B     	 ldr r3,.L2
  35 0002 1980     	 strh r1,[r3]
  36 0004 7047     	 bx lr
  37              	.L3:
  38 0006 00BF     	 .align 2
  39              	.L2:
  40 0008 00000000 	 .word .LANCHOR0
  41              	 .cfi_endproc
  42              	.LFE449:
  44              	 .section .text.optiga_shell_crypt_rsa_decrypt_and_export,"ax",%progbits
  45              	 .align 2
  46              	 .thumb
  47              	 .thumb_func
  49              	optiga_shell_crypt_rsa_decrypt_and_export:
  50              	.LFB470:
 101:D:/School/diseratie/SEMS/xmc4800_evaluation_kit/optiga-trust-m/examples\optiga_shell.c **** }
 102:D:/School/diseratie/SEMS/xmc4800_evaluation_kit/optiga-trust-m/examples\optiga_shell.c **** 
 103:D:/School/diseratie/SEMS/xmc4800_evaluation_kit/optiga-trust-m/examples\optiga_shell.c **** optiga_util_t * me_util = NULL;
 104:D:/School/diseratie/SEMS/xmc4800_evaluation_kit/optiga-trust-m/examples\optiga_shell.c **** 
 105:D:/School/diseratie/SEMS/xmc4800_evaluation_kit/optiga-trust-m/examples\optiga_shell.c **** typedef struct optiga_example_cmd
 106:D:/School/diseratie/SEMS/xmc4800_evaluation_kit/optiga-trust-m/examples\optiga_shell.c **** {
 107:D:/School/diseratie/SEMS/xmc4800_evaluation_kit/optiga-trust-m/examples\optiga_shell.c ****     const char_t * cmd_description;
 108:D:/School/diseratie/SEMS/xmc4800_evaluation_kit/optiga-trust-m/examples\optiga_shell.c ****     const char_t * cmd_options;
 109:D:/School/diseratie/SEMS/xmc4800_evaluation_kit/optiga-trust-m/examples\optiga_shell.c ****     void (*cmd_handler)(void);
 110:D:/School/diseratie/SEMS/xmc4800_evaluation_kit/optiga-trust-m/examples\optiga_shell.c **** }optiga_example_cmd_t;
 111:D:/School/diseratie/SEMS/xmc4800_evaluation_kit/optiga-trust-m/examples\optiga_shell.c **** 
 112:D:/School/diseratie/SEMS/xmc4800_evaluation_kit/optiga-trust-m/examples\optiga_shell.c **** static void optiga_shell_init(void)
 113:D:/School/diseratie/SEMS/xmc4800_evaluation_kit/optiga-trust-m/examples\optiga_shell.c **** {
 114:D:/School/diseratie/SEMS/xmc4800_evaluation_kit/optiga-trust-m/examples\optiga_shell.c ****     optiga_lib_status_t return_status = !OPTIGA_LIB_SUCCESS;
 115:D:/School/diseratie/SEMS/xmc4800_evaluation_kit/optiga-trust-m/examples\optiga_shell.c ****     uint32_t time_taken = 0;
 116:D:/School/diseratie/SEMS/xmc4800_evaluation_kit/optiga-trust-m/examples\optiga_shell.c ****     uint16_t optiga_oid = 0xE0C4;
 117:D:/School/diseratie/SEMS/xmc4800_evaluation_kit/optiga-trust-m/examples\optiga_shell.c ****     uint8_t required_current[] = {0x0F};
 118:D:/School/diseratie/SEMS/xmc4800_evaluation_kit/optiga-trust-m/examples\optiga_shell.c **** 
 119:D:/School/diseratie/SEMS/xmc4800_evaluation_kit/optiga-trust-m/examples\optiga_shell.c ****     do
 120:D:/School/diseratie/SEMS/xmc4800_evaluation_kit/optiga-trust-m/examples\optiga_shell.c ****     {
 121:D:/School/diseratie/SEMS/xmc4800_evaluation_kit/optiga-trust-m/examples\optiga_shell.c ****         if (NULL == me_util)
 122:D:/School/diseratie/SEMS/xmc4800_evaluation_kit/optiga-trust-m/examples\optiga_shell.c ****         {
 123:D:/School/diseratie/SEMS/xmc4800_evaluation_kit/optiga-trust-m/examples\optiga_shell.c ****             //Create an instance of optiga_util to open the application on OPTIGA.
 124:D:/School/diseratie/SEMS/xmc4800_evaluation_kit/optiga-trust-m/examples\optiga_shell.c ****             me_util = optiga_util_create(0, optiga_util_callback, NULL);
 125:D:/School/diseratie/SEMS/xmc4800_evaluation_kit/optiga-trust-m/examples\optiga_shell.c ****             if (NULL == me_util)
 126:D:/School/diseratie/SEMS/xmc4800_evaluation_kit/optiga-trust-m/examples\optiga_shell.c ****             {
 127:D:/School/diseratie/SEMS/xmc4800_evaluation_kit/optiga-trust-m/examples\optiga_shell.c ****                 break;
 128:D:/School/diseratie/SEMS/xmc4800_evaluation_kit/optiga-trust-m/examples\optiga_shell.c ****             }
 129:D:/School/diseratie/SEMS/xmc4800_evaluation_kit/optiga-trust-m/examples\optiga_shell.c ****         }
 130:D:/School/diseratie/SEMS/xmc4800_evaluation_kit/optiga-trust-m/examples\optiga_shell.c **** 
 131:D:/School/diseratie/SEMS/xmc4800_evaluation_kit/optiga-trust-m/examples\optiga_shell.c ****         OPTIGA_EXAMPLE_LOG_MESSAGE("Initializing OPTIGA for example demonstration...\n");
 132:D:/School/diseratie/SEMS/xmc4800_evaluation_kit/optiga-trust-m/examples\optiga_shell.c ****         /**
 133:D:/School/diseratie/SEMS/xmc4800_evaluation_kit/optiga-trust-m/examples\optiga_shell.c ****          * Open the application on OPTIGA which is a precondition to perform any other operations
 134:D:/School/diseratie/SEMS/xmc4800_evaluation_kit/optiga-trust-m/examples\optiga_shell.c ****          * using optiga_util_open_application
 135:D:/School/diseratie/SEMS/xmc4800_evaluation_kit/optiga-trust-m/examples\optiga_shell.c ****          */
 136:D:/School/diseratie/SEMS/xmc4800_evaluation_kit/optiga-trust-m/examples\optiga_shell.c ****         optiga_lib_status = OPTIGA_LIB_BUSY;
 137:D:/School/diseratie/SEMS/xmc4800_evaluation_kit/optiga-trust-m/examples\optiga_shell.c ****         
 138:D:/School/diseratie/SEMS/xmc4800_evaluation_kit/optiga-trust-m/examples\optiga_shell.c ****         START_PERFORMANCE_MEASUREMENT(time_taken);
 139:D:/School/diseratie/SEMS/xmc4800_evaluation_kit/optiga-trust-m/examples\optiga_shell.c ****         
 140:D:/School/diseratie/SEMS/xmc4800_evaluation_kit/optiga-trust-m/examples\optiga_shell.c ****         return_status = optiga_util_open_application(me_util, 0);
 141:D:/School/diseratie/SEMS/xmc4800_evaluation_kit/optiga-trust-m/examples\optiga_shell.c **** 
 142:D:/School/diseratie/SEMS/xmc4800_evaluation_kit/optiga-trust-m/examples\optiga_shell.c ****         if (OPTIGA_LIB_SUCCESS != return_status)
 143:D:/School/diseratie/SEMS/xmc4800_evaluation_kit/optiga-trust-m/examples\optiga_shell.c ****         {
 144:D:/School/diseratie/SEMS/xmc4800_evaluation_kit/optiga-trust-m/examples\optiga_shell.c ****             break;
 145:D:/School/diseratie/SEMS/xmc4800_evaluation_kit/optiga-trust-m/examples\optiga_shell.c ****         }
 146:D:/School/diseratie/SEMS/xmc4800_evaluation_kit/optiga-trust-m/examples\optiga_shell.c ****         while (optiga_lib_status == OPTIGA_LIB_BUSY)
 147:D:/School/diseratie/SEMS/xmc4800_evaluation_kit/optiga-trust-m/examples\optiga_shell.c ****         {
 148:D:/School/diseratie/SEMS/xmc4800_evaluation_kit/optiga-trust-m/examples\optiga_shell.c ****             //Wait until the optiga_util_open_application is completed
 149:D:/School/diseratie/SEMS/xmc4800_evaluation_kit/optiga-trust-m/examples\optiga_shell.c ****         }
 150:D:/School/diseratie/SEMS/xmc4800_evaluation_kit/optiga-trust-m/examples\optiga_shell.c ****         if (OPTIGA_LIB_SUCCESS != optiga_lib_status)
 151:D:/School/diseratie/SEMS/xmc4800_evaluation_kit/optiga-trust-m/examples\optiga_shell.c ****         {
 152:D:/School/diseratie/SEMS/xmc4800_evaluation_kit/optiga-trust-m/examples\optiga_shell.c ****             return_status = optiga_lib_status;
 153:D:/School/diseratie/SEMS/xmc4800_evaluation_kit/optiga-trust-m/examples\optiga_shell.c ****             //optiga util open application failed
 154:D:/School/diseratie/SEMS/xmc4800_evaluation_kit/optiga-trust-m/examples\optiga_shell.c ****             break;
 155:D:/School/diseratie/SEMS/xmc4800_evaluation_kit/optiga-trust-m/examples\optiga_shell.c ****         }
 156:D:/School/diseratie/SEMS/xmc4800_evaluation_kit/optiga-trust-m/examples\optiga_shell.c ****         
 157:D:/School/diseratie/SEMS/xmc4800_evaluation_kit/optiga-trust-m/examples\optiga_shell.c ****         READ_PERFORMANCE_MEASUREMENT(time_taken);
 158:D:/School/diseratie/SEMS/xmc4800_evaluation_kit/optiga-trust-m/examples\optiga_shell.c ****         
 159:D:/School/diseratie/SEMS/xmc4800_evaluation_kit/optiga-trust-m/examples\optiga_shell.c ****         OPTIGA_SHELL_LOG_MESSAGE("Initializing OPTIGA completed...\n\n");
 160:D:/School/diseratie/SEMS/xmc4800_evaluation_kit/optiga-trust-m/examples\optiga_shell.c **** #ifdef OPTIGA_COMMS_SHIELDED_CONNECTION 
 161:D:/School/diseratie/SEMS/xmc4800_evaluation_kit/optiga-trust-m/examples\optiga_shell.c ****         OPTIGA_EXAMPLE_LOG_MESSAGE("pair_host_and_optiga_using_pre_shared_secret");
 162:D:/School/diseratie/SEMS/xmc4800_evaluation_kit/optiga-trust-m/examples\optiga_shell.c ****         // Usercase: Generate the pre-shared secret on host and write it to OPTIGA
 163:D:/School/diseratie/SEMS/xmc4800_evaluation_kit/optiga-trust-m/examples\optiga_shell.c ****         return_status = pair_host_and_optiga_using_pre_shared_secret();
 164:D:/School/diseratie/SEMS/xmc4800_evaluation_kit/optiga-trust-m/examples\optiga_shell.c ****         if (OPTIGA_LIB_SUCCESS != return_status)
 165:D:/School/diseratie/SEMS/xmc4800_evaluation_kit/optiga-trust-m/examples\optiga_shell.c ****         {
 166:D:/School/diseratie/SEMS/xmc4800_evaluation_kit/optiga-trust-m/examples\optiga_shell.c ****             //Pairing of host and optiga failed
 167:D:/School/diseratie/SEMS/xmc4800_evaluation_kit/optiga-trust-m/examples\optiga_shell.c ****             break;
 168:D:/School/diseratie/SEMS/xmc4800_evaluation_kit/optiga-trust-m/examples\optiga_shell.c ****         }
 169:D:/School/diseratie/SEMS/xmc4800_evaluation_kit/optiga-trust-m/examples\optiga_shell.c ****         OPTIGA_SHELL_LOG_MESSAGE("Pairing of host and OPTIGA completed...");
 170:D:/School/diseratie/SEMS/xmc4800_evaluation_kit/optiga-trust-m/examples\optiga_shell.c **** #endif
 171:D:/School/diseratie/SEMS/xmc4800_evaluation_kit/optiga-trust-m/examples\optiga_shell.c ****         // Setting current limitation to maximum supported value(15)
 172:D:/School/diseratie/SEMS/xmc4800_evaluation_kit/optiga-trust-m/examples\optiga_shell.c ****         optiga_lib_status = OPTIGA_LIB_BUSY;
 173:D:/School/diseratie/SEMS/xmc4800_evaluation_kit/optiga-trust-m/examples\optiga_shell.c ****         return_status = optiga_util_write_data(me_util,
 174:D:/School/diseratie/SEMS/xmc4800_evaluation_kit/optiga-trust-m/examples\optiga_shell.c ****                                                optiga_oid,
 175:D:/School/diseratie/SEMS/xmc4800_evaluation_kit/optiga-trust-m/examples\optiga_shell.c ****                                                OPTIGA_UTIL_ERASE_AND_WRITE,
 176:D:/School/diseratie/SEMS/xmc4800_evaluation_kit/optiga-trust-m/examples\optiga_shell.c ****                                                0,
 177:D:/School/diseratie/SEMS/xmc4800_evaluation_kit/optiga-trust-m/examples\optiga_shell.c ****                                                required_current,
 178:D:/School/diseratie/SEMS/xmc4800_evaluation_kit/optiga-trust-m/examples\optiga_shell.c ****                                                1);
 179:D:/School/diseratie/SEMS/xmc4800_evaluation_kit/optiga-trust-m/examples\optiga_shell.c **** 
 180:D:/School/diseratie/SEMS/xmc4800_evaluation_kit/optiga-trust-m/examples\optiga_shell.c ****         if (OPTIGA_LIB_SUCCESS != return_status)
 181:D:/School/diseratie/SEMS/xmc4800_evaluation_kit/optiga-trust-m/examples\optiga_shell.c ****         {
 182:D:/School/diseratie/SEMS/xmc4800_evaluation_kit/optiga-trust-m/examples\optiga_shell.c ****             break;
 183:D:/School/diseratie/SEMS/xmc4800_evaluation_kit/optiga-trust-m/examples\optiga_shell.c ****         }
 184:D:/School/diseratie/SEMS/xmc4800_evaluation_kit/optiga-trust-m/examples\optiga_shell.c **** 
 185:D:/School/diseratie/SEMS/xmc4800_evaluation_kit/optiga-trust-m/examples\optiga_shell.c ****         while (OPTIGA_LIB_BUSY == optiga_lib_status)
 186:D:/School/diseratie/SEMS/xmc4800_evaluation_kit/optiga-trust-m/examples\optiga_shell.c ****         {
 187:D:/School/diseratie/SEMS/xmc4800_evaluation_kit/optiga-trust-m/examples\optiga_shell.c ****             //Wait until the optiga_util_write_data operation is completed
 188:D:/School/diseratie/SEMS/xmc4800_evaluation_kit/optiga-trust-m/examples\optiga_shell.c ****         }
 189:D:/School/diseratie/SEMS/xmc4800_evaluation_kit/optiga-trust-m/examples\optiga_shell.c ****         if (OPTIGA_LIB_SUCCESS != optiga_lib_status)
 190:D:/School/diseratie/SEMS/xmc4800_evaluation_kit/optiga-trust-m/examples\optiga_shell.c ****         {
 191:D:/School/diseratie/SEMS/xmc4800_evaluation_kit/optiga-trust-m/examples\optiga_shell.c ****             return_status = optiga_lib_status;
 192:D:/School/diseratie/SEMS/xmc4800_evaluation_kit/optiga-trust-m/examples\optiga_shell.c ****             break;
 193:D:/School/diseratie/SEMS/xmc4800_evaluation_kit/optiga-trust-m/examples\optiga_shell.c ****         }
 194:D:/School/diseratie/SEMS/xmc4800_evaluation_kit/optiga-trust-m/examples\optiga_shell.c ****         OPTIGA_SHELL_LOG_MESSAGE("Setting current limitation to maximum...");
 195:D:/School/diseratie/SEMS/xmc4800_evaluation_kit/optiga-trust-m/examples\optiga_shell.c ****         OPTIGA_SHELL_LOG_MESSAGE("Starting OPTIGA example demonstration..\n");
 196:D:/School/diseratie/SEMS/xmc4800_evaluation_kit/optiga-trust-m/examples\optiga_shell.c ****     }while(FALSE);
 197:D:/School/diseratie/SEMS/xmc4800_evaluation_kit/optiga-trust-m/examples\optiga_shell.c ****     OPTIGA_EXAMPLE_LOG_STATUS(return_status);
 198:D:/School/diseratie/SEMS/xmc4800_evaluation_kit/optiga-trust-m/examples\optiga_shell.c ****     OPTIGA_EXAMPLE_LOG_PERFORMANCE_VALUE(time_taken, return_status);
 199:D:/School/diseratie/SEMS/xmc4800_evaluation_kit/optiga-trust-m/examples\optiga_shell.c **** }
 200:D:/School/diseratie/SEMS/xmc4800_evaluation_kit/optiga-trust-m/examples\optiga_shell.c **** 
 201:D:/School/diseratie/SEMS/xmc4800_evaluation_kit/optiga-trust-m/examples\optiga_shell.c **** static void optiga_shell_deinit(void)
 202:D:/School/diseratie/SEMS/xmc4800_evaluation_kit/optiga-trust-m/examples\optiga_shell.c **** {
 203:D:/School/diseratie/SEMS/xmc4800_evaluation_kit/optiga-trust-m/examples\optiga_shell.c ****     optiga_lib_status_t return_status = !OPTIGA_LIB_SUCCESS;
 204:D:/School/diseratie/SEMS/xmc4800_evaluation_kit/optiga-trust-m/examples\optiga_shell.c ****     uint32_t time_taken = 0;
 205:D:/School/diseratie/SEMS/xmc4800_evaluation_kit/optiga-trust-m/examples\optiga_shell.c ****     
 206:D:/School/diseratie/SEMS/xmc4800_evaluation_kit/optiga-trust-m/examples\optiga_shell.c ****     do
 207:D:/School/diseratie/SEMS/xmc4800_evaluation_kit/optiga-trust-m/examples\optiga_shell.c ****     {
 208:D:/School/diseratie/SEMS/xmc4800_evaluation_kit/optiga-trust-m/examples\optiga_shell.c ****         OPTIGA_EXAMPLE_LOG_MESSAGE("Deinitializing OPTIGA for example demonstration...\n");
 209:D:/School/diseratie/SEMS/xmc4800_evaluation_kit/optiga-trust-m/examples\optiga_shell.c ****         /**
 210:D:/School/diseratie/SEMS/xmc4800_evaluation_kit/optiga-trust-m/examples\optiga_shell.c ****          * Close the application on OPTIGA after all the operations are executed
 211:D:/School/diseratie/SEMS/xmc4800_evaluation_kit/optiga-trust-m/examples\optiga_shell.c ****          * using optiga_util_close_application
 212:D:/School/diseratie/SEMS/xmc4800_evaluation_kit/optiga-trust-m/examples\optiga_shell.c ****          */
 213:D:/School/diseratie/SEMS/xmc4800_evaluation_kit/optiga-trust-m/examples\optiga_shell.c ****         optiga_lib_status = OPTIGA_LIB_BUSY;
 214:D:/School/diseratie/SEMS/xmc4800_evaluation_kit/optiga-trust-m/examples\optiga_shell.c ****         
 215:D:/School/diseratie/SEMS/xmc4800_evaluation_kit/optiga-trust-m/examples\optiga_shell.c ****         START_PERFORMANCE_MEASUREMENT(time_taken);
 216:D:/School/diseratie/SEMS/xmc4800_evaluation_kit/optiga-trust-m/examples\optiga_shell.c ****         
 217:D:/School/diseratie/SEMS/xmc4800_evaluation_kit/optiga-trust-m/examples\optiga_shell.c ****         return_status = optiga_util_close_application(me_util, 0);
 218:D:/School/diseratie/SEMS/xmc4800_evaluation_kit/optiga-trust-m/examples\optiga_shell.c **** 
 219:D:/School/diseratie/SEMS/xmc4800_evaluation_kit/optiga-trust-m/examples\optiga_shell.c ****         if (OPTIGA_LIB_SUCCESS != return_status)
 220:D:/School/diseratie/SEMS/xmc4800_evaluation_kit/optiga-trust-m/examples\optiga_shell.c ****         {
 221:D:/School/diseratie/SEMS/xmc4800_evaluation_kit/optiga-trust-m/examples\optiga_shell.c ****             break;
 222:D:/School/diseratie/SEMS/xmc4800_evaluation_kit/optiga-trust-m/examples\optiga_shell.c ****         }
 223:D:/School/diseratie/SEMS/xmc4800_evaluation_kit/optiga-trust-m/examples\optiga_shell.c **** 
 224:D:/School/diseratie/SEMS/xmc4800_evaluation_kit/optiga-trust-m/examples\optiga_shell.c ****         while (optiga_lib_status == OPTIGA_LIB_BUSY)
 225:D:/School/diseratie/SEMS/xmc4800_evaluation_kit/optiga-trust-m/examples\optiga_shell.c ****         {
 226:D:/School/diseratie/SEMS/xmc4800_evaluation_kit/optiga-trust-m/examples\optiga_shell.c ****             //Wait until the optiga_util_close_application is completed
 227:D:/School/diseratie/SEMS/xmc4800_evaluation_kit/optiga-trust-m/examples\optiga_shell.c ****         }
 228:D:/School/diseratie/SEMS/xmc4800_evaluation_kit/optiga-trust-m/examples\optiga_shell.c **** 
 229:D:/School/diseratie/SEMS/xmc4800_evaluation_kit/optiga-trust-m/examples\optiga_shell.c ****         if (OPTIGA_LIB_SUCCESS != optiga_lib_status)
 230:D:/School/diseratie/SEMS/xmc4800_evaluation_kit/optiga-trust-m/examples\optiga_shell.c ****         {
 231:D:/School/diseratie/SEMS/xmc4800_evaluation_kit/optiga-trust-m/examples\optiga_shell.c ****             return_status = optiga_lib_status;
 232:D:/School/diseratie/SEMS/xmc4800_evaluation_kit/optiga-trust-m/examples\optiga_shell.c ****             //optiga util close application failed
 233:D:/School/diseratie/SEMS/xmc4800_evaluation_kit/optiga-trust-m/examples\optiga_shell.c ****             break;
 234:D:/School/diseratie/SEMS/xmc4800_evaluation_kit/optiga-trust-m/examples\optiga_shell.c ****         }
 235:D:/School/diseratie/SEMS/xmc4800_evaluation_kit/optiga-trust-m/examples\optiga_shell.c **** 
 236:D:/School/diseratie/SEMS/xmc4800_evaluation_kit/optiga-trust-m/examples\optiga_shell.c ****         READ_PERFORMANCE_MEASUREMENT(time_taken);
 237:D:/School/diseratie/SEMS/xmc4800_evaluation_kit/optiga-trust-m/examples\optiga_shell.c ****         
 238:D:/School/diseratie/SEMS/xmc4800_evaluation_kit/optiga-trust-m/examples\optiga_shell.c ****         // destroy util and crypt instances
 239:D:/School/diseratie/SEMS/xmc4800_evaluation_kit/optiga-trust-m/examples\optiga_shell.c ****         //lint --e{534} suppress "Error handling is not required so return value is not checked"
 240:D:/School/diseratie/SEMS/xmc4800_evaluation_kit/optiga-trust-m/examples\optiga_shell.c ****         optiga_util_destroy(me_util);
 241:D:/School/diseratie/SEMS/xmc4800_evaluation_kit/optiga-trust-m/examples\optiga_shell.c ****         me_util = NULL;
 242:D:/School/diseratie/SEMS/xmc4800_evaluation_kit/optiga-trust-m/examples\optiga_shell.c ****     }while(FALSE);
 243:D:/School/diseratie/SEMS/xmc4800_evaluation_kit/optiga-trust-m/examples\optiga_shell.c ****     OPTIGA_EXAMPLE_LOG_STATUS(return_status);
 244:D:/School/diseratie/SEMS/xmc4800_evaluation_kit/optiga-trust-m/examples\optiga_shell.c ****     OPTIGA_EXAMPLE_LOG_PERFORMANCE_VALUE(time_taken, return_status);
 245:D:/School/diseratie/SEMS/xmc4800_evaluation_kit/optiga-trust-m/examples\optiga_shell.c **** }
 246:D:/School/diseratie/SEMS/xmc4800_evaluation_kit/optiga-trust-m/examples\optiga_shell.c **** 
 247:D:/School/diseratie/SEMS/xmc4800_evaluation_kit/optiga-trust-m/examples\optiga_shell.c **** static void optiga_shell_util_read_data(void)
 248:D:/School/diseratie/SEMS/xmc4800_evaluation_kit/optiga-trust-m/examples\optiga_shell.c **** {
 249:D:/School/diseratie/SEMS/xmc4800_evaluation_kit/optiga-trust-m/examples\optiga_shell.c **** #ifndef OPTIGA_INIT_DEINIT_DONE_EXCLUSIVELY
 250:D:/School/diseratie/SEMS/xmc4800_evaluation_kit/optiga-trust-m/examples\optiga_shell.c ****     OPTIGA_SHELL_LOG_MESSAGE("Initializing OPTIGA for example demonstration...");
 251:D:/School/diseratie/SEMS/xmc4800_evaluation_kit/optiga-trust-m/examples\optiga_shell.c **** #endif
 252:D:/School/diseratie/SEMS/xmc4800_evaluation_kit/optiga-trust-m/examples\optiga_shell.c ****     OPTIGA_SHELL_LOG_MESSAGE("Starting Read Data/Metadata Example");
 253:D:/School/diseratie/SEMS/xmc4800_evaluation_kit/optiga-trust-m/examples\optiga_shell.c ****     OPTIGA_SHELL_LOG_MESSAGE("1 Step: Read Certificate ");
 254:D:/School/diseratie/SEMS/xmc4800_evaluation_kit/optiga-trust-m/examples\optiga_shell.c ****     OPTIGA_SHELL_LOG_MESSAGE("2 Step: Read Certificate Metadata");
 255:D:/School/diseratie/SEMS/xmc4800_evaluation_kit/optiga-trust-m/examples\optiga_shell.c **** #ifndef OPTIGA_INIT_DEINIT_DONE_EXCLUSIVELY
 256:D:/School/diseratie/SEMS/xmc4800_evaluation_kit/optiga-trust-m/examples\optiga_shell.c ****     OPTIGA_SHELL_LOG_MESSAGE("3 Step: Close the application on OPTIGA");
 257:D:/School/diseratie/SEMS/xmc4800_evaluation_kit/optiga-trust-m/examples\optiga_shell.c **** #endif
 258:D:/School/diseratie/SEMS/xmc4800_evaluation_kit/optiga-trust-m/examples\optiga_shell.c ****     example_optiga_util_read_data();
 259:D:/School/diseratie/SEMS/xmc4800_evaluation_kit/optiga-trust-m/examples\optiga_shell.c **** }
 260:D:/School/diseratie/SEMS/xmc4800_evaluation_kit/optiga-trust-m/examples\optiga_shell.c **** 
 261:D:/School/diseratie/SEMS/xmc4800_evaluation_kit/optiga-trust-m/examples\optiga_shell.c **** static void optiga_shell_util_write_data(void)
 262:D:/School/diseratie/SEMS/xmc4800_evaluation_kit/optiga-trust-m/examples\optiga_shell.c **** {
 263:D:/School/diseratie/SEMS/xmc4800_evaluation_kit/optiga-trust-m/examples\optiga_shell.c **** #ifndef OPTIGA_INIT_DEINIT_DONE_EXCLUSIVELY
 264:D:/School/diseratie/SEMS/xmc4800_evaluation_kit/optiga-trust-m/examples\optiga_shell.c ****     OPTIGA_SHELL_LOG_MESSAGE("Initializing OPTIGA for example demonstration...");
 265:D:/School/diseratie/SEMS/xmc4800_evaluation_kit/optiga-trust-m/examples\optiga_shell.c **** #endif
 266:D:/School/diseratie/SEMS/xmc4800_evaluation_kit/optiga-trust-m/examples\optiga_shell.c ****     OPTIGA_SHELL_LOG_MESSAGE("Starting Write Data/Metadata Example");
 267:D:/School/diseratie/SEMS/xmc4800_evaluation_kit/optiga-trust-m/examples\optiga_shell.c ****     OPTIGA_SHELL_LOG_MESSAGE("1 Step: Write Sample Certificate in Trust Anchor Data Object ");
 268:D:/School/diseratie/SEMS/xmc4800_evaluation_kit/optiga-trust-m/examples\optiga_shell.c ****     OPTIGA_SHELL_LOG_MESSAGE("2 Step: Write new Metadata");
 269:D:/School/diseratie/SEMS/xmc4800_evaluation_kit/optiga-trust-m/examples\optiga_shell.c **** #ifndef OPTIGA_INIT_DEINIT_DONE_EXCLUSIVELY
 270:D:/School/diseratie/SEMS/xmc4800_evaluation_kit/optiga-trust-m/examples\optiga_shell.c ****     OPTIGA_SHELL_LOG_MESSAGE("3 Step: Close the application on OPTIGA");
 271:D:/School/diseratie/SEMS/xmc4800_evaluation_kit/optiga-trust-m/examples\optiga_shell.c **** #endif
 272:D:/School/diseratie/SEMS/xmc4800_evaluation_kit/optiga-trust-m/examples\optiga_shell.c ****     example_optiga_util_write_data();
 273:D:/School/diseratie/SEMS/xmc4800_evaluation_kit/optiga-trust-m/examples\optiga_shell.c **** }
 274:D:/School/diseratie/SEMS/xmc4800_evaluation_kit/optiga-trust-m/examples\optiga_shell.c **** 
 275:D:/School/diseratie/SEMS/xmc4800_evaluation_kit/optiga-trust-m/examples\optiga_shell.c **** static void optiga_shell_util_read_coprocessor_id(void)
 276:D:/School/diseratie/SEMS/xmc4800_evaluation_kit/optiga-trust-m/examples\optiga_shell.c **** {
 277:D:/School/diseratie/SEMS/xmc4800_evaluation_kit/optiga-trust-m/examples\optiga_shell.c **** #ifndef OPTIGA_INIT_DEINIT_DONE_EXCLUSIVELY
 278:D:/School/diseratie/SEMS/xmc4800_evaluation_kit/optiga-trust-m/examples\optiga_shell.c ****     OPTIGA_SHELL_LOG_MESSAGE("Initializing OPTIGA for example demonstration...");
 279:D:/School/diseratie/SEMS/xmc4800_evaluation_kit/optiga-trust-m/examples\optiga_shell.c **** #endif
 280:D:/School/diseratie/SEMS/xmc4800_evaluation_kit/optiga-trust-m/examples\optiga_shell.c ****     OPTIGA_SHELL_LOG_MESSAGE("Starting reading of Coprocessor ID and displaying it's individual com
 281:D:/School/diseratie/SEMS/xmc4800_evaluation_kit/optiga-trust-m/examples\optiga_shell.c ****     OPTIGA_SHELL_LOG_MESSAGE("1 Step: Read Coprocessor UID from OID(0xE0C2) ");
 282:D:/School/diseratie/SEMS/xmc4800_evaluation_kit/optiga-trust-m/examples\optiga_shell.c **** #ifndef OPTIGA_INIT_DEINIT_DONE_EXCLUSIVELY
 283:D:/School/diseratie/SEMS/xmc4800_evaluation_kit/optiga-trust-m/examples\optiga_shell.c ****     OPTIGA_SHELL_LOG_MESSAGE("2 Step: Close the application on OPTIGA");
 284:D:/School/diseratie/SEMS/xmc4800_evaluation_kit/optiga-trust-m/examples\optiga_shell.c **** #endif
 285:D:/School/diseratie/SEMS/xmc4800_evaluation_kit/optiga-trust-m/examples\optiga_shell.c ****     example_read_coprocessor_id();
 286:D:/School/diseratie/SEMS/xmc4800_evaluation_kit/optiga-trust-m/examples\optiga_shell.c **** }
 287:D:/School/diseratie/SEMS/xmc4800_evaluation_kit/optiga-trust-m/examples\optiga_shell.c **** #ifdef OPTIGA_COMMS_SHIELDED_CONNECTION 
 288:D:/School/diseratie/SEMS/xmc4800_evaluation_kit/optiga-trust-m/examples\optiga_shell.c **** static void optiga_shell_pair_host_optiga(void)
 289:D:/School/diseratie/SEMS/xmc4800_evaluation_kit/optiga-trust-m/examples\optiga_shell.c **** {
 290:D:/School/diseratie/SEMS/xmc4800_evaluation_kit/optiga-trust-m/examples\optiga_shell.c **** #ifndef OPTIGA_INIT_DEINIT_DONE_EXCLUSIVELY
 291:D:/School/diseratie/SEMS/xmc4800_evaluation_kit/optiga-trust-m/examples\optiga_shell.c ****     OPTIGA_SHELL_LOG_MESSAGE("Initializing OPTIGA for example demonstration...");
 292:D:/School/diseratie/SEMS/xmc4800_evaluation_kit/optiga-trust-m/examples\optiga_shell.c **** #endif
 293:D:/School/diseratie/SEMS/xmc4800_evaluation_kit/optiga-trust-m/examples\optiga_shell.c ****     OPTIGA_SHELL_LOG_MESSAGE("Starting Pairing of Host and Trust M Example");
 294:D:/School/diseratie/SEMS/xmc4800_evaluation_kit/optiga-trust-m/examples\optiga_shell.c ****     OPTIGA_SHELL_LOG_MESSAGE("1 Step: Read and Check existing Metadata for the Binding Secret");
 295:D:/School/diseratie/SEMS/xmc4800_evaluation_kit/optiga-trust-m/examples\optiga_shell.c ****     OPTIGA_SHELL_LOG_MESSAGE("2 Step: Generate Random for the new Binding Secret");
 296:D:/School/diseratie/SEMS/xmc4800_evaluation_kit/optiga-trust-m/examples\optiga_shell.c ****     OPTIGA_SHELL_LOG_MESSAGE("3 Step: Write new Binding Secret");
 297:D:/School/diseratie/SEMS/xmc4800_evaluation_kit/optiga-trust-m/examples\optiga_shell.c ****     OPTIGA_SHELL_LOG_MESSAGE("4 Step: Store new Binding Secret on the Host");
 298:D:/School/diseratie/SEMS/xmc4800_evaluation_kit/optiga-trust-m/examples\optiga_shell.c **** #ifndef OPTIGA_INIT_DEINIT_DONE_EXCLUSIVELY
 299:D:/School/diseratie/SEMS/xmc4800_evaluation_kit/optiga-trust-m/examples\optiga_shell.c ****     OPTIGA_SHELL_LOG_MESSAGE("5 Step: Close the application on OPTIGA");
 300:D:/School/diseratie/SEMS/xmc4800_evaluation_kit/optiga-trust-m/examples\optiga_shell.c **** #endif
 301:D:/School/diseratie/SEMS/xmc4800_evaluation_kit/optiga-trust-m/examples\optiga_shell.c ****     example_pair_host_and_optiga_using_pre_shared_secret();
 302:D:/School/diseratie/SEMS/xmc4800_evaluation_kit/optiga-trust-m/examples\optiga_shell.c **** }
 303:D:/School/diseratie/SEMS/xmc4800_evaluation_kit/optiga-trust-m/examples\optiga_shell.c **** #endif
 304:D:/School/diseratie/SEMS/xmc4800_evaluation_kit/optiga-trust-m/examples\optiga_shell.c **** #if defined (OPTIGA_CRYPT_ECC_GENERATE_KEYPAIR_ENABLED) && defined (OPTIGA_CRYPT_ECDSA_SIGN_ENABLED
 305:D:/School/diseratie/SEMS/xmc4800_evaluation_kit/optiga-trust-m/examples\optiga_shell.c **** static void optiga_shell_util_hibernate_restore(void)
 306:D:/School/diseratie/SEMS/xmc4800_evaluation_kit/optiga-trust-m/examples\optiga_shell.c **** {
 307:D:/School/diseratie/SEMS/xmc4800_evaluation_kit/optiga-trust-m/examples\optiga_shell.c ****     OPTIGA_SHELL_LOG_MESSAGE("Starting Hibernate and Restore Example");
 308:D:/School/diseratie/SEMS/xmc4800_evaluation_kit/optiga-trust-m/examples\optiga_shell.c ****     OPTIGA_SHELL_LOG_MESSAGE("1 Step: Open Application on the security chip");
 309:D:/School/diseratie/SEMS/xmc4800_evaluation_kit/optiga-trust-m/examples\optiga_shell.c ****     OPTIGA_SHELL_LOG_MESSAGE("2 Step: Pair the host and the security chip");
 310:D:/School/diseratie/SEMS/xmc4800_evaluation_kit/optiga-trust-m/examples\optiga_shell.c ****     OPTIGA_SHELL_LOG_MESSAGE("3 Step: Select Protected I2C Connection");
 311:D:/School/diseratie/SEMS/xmc4800_evaluation_kit/optiga-trust-m/examples\optiga_shell.c ****     OPTIGA_SHELL_LOG_MESSAGE("4 Step: Generate ECC NIST P-256 Key pair and store it in Session Data
 312:D:/School/diseratie/SEMS/xmc4800_evaluation_kit/optiga-trust-m/examples\optiga_shell.c ****     OPTIGA_SHELL_LOG_MESSAGE("5 Step: Check Security Event Counter and wait till it reaches 0");
 313:D:/School/diseratie/SEMS/xmc4800_evaluation_kit/optiga-trust-m/examples\optiga_shell.c ****     OPTIGA_SHELL_LOG_MESSAGE("6 Step: Perform Close application with Hibernate parameter set to Tru
 314:D:/School/diseratie/SEMS/xmc4800_evaluation_kit/optiga-trust-m/examples\optiga_shell.c ****     OPTIGA_SHELL_LOG_MESSAGE("7 Step: Open Application on the security chip");
 315:D:/School/diseratie/SEMS/xmc4800_evaluation_kit/optiga-trust-m/examples\optiga_shell.c ****     OPTIGA_SHELL_LOG_MESSAGE("8 Step: Sign prepared data with private key stored in Session Data Ob
 316:D:/School/diseratie/SEMS/xmc4800_evaluation_kit/optiga-trust-m/examples\optiga_shell.c ****     OPTIGA_SHELL_LOG_MESSAGE("9 Step: Verify the signature with the public key generated previously
 317:D:/School/diseratie/SEMS/xmc4800_evaluation_kit/optiga-trust-m/examples\optiga_shell.c ****     OPTIGA_SHELL_LOG_MESSAGE("10 Step: Close Applicaiton on the chip");
 318:D:/School/diseratie/SEMS/xmc4800_evaluation_kit/optiga-trust-m/examples\optiga_shell.c ****     OPTIGA_SHELL_LOG_MESSAGE("Important note: To continue with other examples you need to call the 
 319:D:/School/diseratie/SEMS/xmc4800_evaluation_kit/optiga-trust-m/examples\optiga_shell.c ****     example_optiga_util_hibernate_restore();
 320:D:/School/diseratie/SEMS/xmc4800_evaluation_kit/optiga-trust-m/examples\optiga_shell.c **** }
 321:D:/School/diseratie/SEMS/xmc4800_evaluation_kit/optiga-trust-m/examples\optiga_shell.c **** #endif
 322:D:/School/diseratie/SEMS/xmc4800_evaluation_kit/optiga-trust-m/examples\optiga_shell.c **** 
 323:D:/School/diseratie/SEMS/xmc4800_evaluation_kit/optiga-trust-m/examples\optiga_shell.c **** static void optiga_shell_util_update_count(void)
 324:D:/School/diseratie/SEMS/xmc4800_evaluation_kit/optiga-trust-m/examples\optiga_shell.c **** {
 325:D:/School/diseratie/SEMS/xmc4800_evaluation_kit/optiga-trust-m/examples\optiga_shell.c **** #ifndef OPTIGA_INIT_DEINIT_DONE_EXCLUSIVELY
 326:D:/School/diseratie/SEMS/xmc4800_evaluation_kit/optiga-trust-m/examples\optiga_shell.c ****     OPTIGA_SHELL_LOG_MESSAGE("Initializing OPTIGA for example demonstration...");
 327:D:/School/diseratie/SEMS/xmc4800_evaluation_kit/optiga-trust-m/examples\optiga_shell.c **** #endif
 328:D:/School/diseratie/SEMS/xmc4800_evaluation_kit/optiga-trust-m/examples\optiga_shell.c ****     OPTIGA_SHELL_LOG_MESSAGE("Starting Update Counter Example");
 329:D:/School/diseratie/SEMS/xmc4800_evaluation_kit/optiga-trust-m/examples\optiga_shell.c ****     OPTIGA_SHELL_LOG_MESSAGE("1 Step: Write Initial Counter Value");
 330:D:/School/diseratie/SEMS/xmc4800_evaluation_kit/optiga-trust-m/examples\optiga_shell.c ****     OPTIGA_SHELL_LOG_MESSAGE("2 Step: Increase Counter Object");
 331:D:/School/diseratie/SEMS/xmc4800_evaluation_kit/optiga-trust-m/examples\optiga_shell.c **** #ifndef OPTIGA_INIT_DEINIT_DONE_EXCLUSIVELY
 332:D:/School/diseratie/SEMS/xmc4800_evaluation_kit/optiga-trust-m/examples\optiga_shell.c ****     OPTIGA_SHELL_LOG_MESSAGE("3 Step: Close the application on OPTIGA");
 333:D:/School/diseratie/SEMS/xmc4800_evaluation_kit/optiga-trust-m/examples\optiga_shell.c **** #endif
 334:D:/School/diseratie/SEMS/xmc4800_evaluation_kit/optiga-trust-m/examples\optiga_shell.c ****     example_optiga_util_update_count();
 335:D:/School/diseratie/SEMS/xmc4800_evaluation_kit/optiga-trust-m/examples\optiga_shell.c **** }
 336:D:/School/diseratie/SEMS/xmc4800_evaluation_kit/optiga-trust-m/examples\optiga_shell.c **** 
 337:D:/School/diseratie/SEMS/xmc4800_evaluation_kit/optiga-trust-m/examples\optiga_shell.c **** static void optiga_shell_util_protected_update(void)
 338:D:/School/diseratie/SEMS/xmc4800_evaluation_kit/optiga-trust-m/examples\optiga_shell.c **** {
 339:D:/School/diseratie/SEMS/xmc4800_evaluation_kit/optiga-trust-m/examples\optiga_shell.c **** #ifndef OPTIGA_INIT_DEINIT_DONE_EXCLUSIVELY
 340:D:/School/diseratie/SEMS/xmc4800_evaluation_kit/optiga-trust-m/examples\optiga_shell.c ****     OPTIGA_SHELL_LOG_MESSAGE("Initializing OPTIGA for example demonstration...");
 341:D:/School/diseratie/SEMS/xmc4800_evaluation_kit/optiga-trust-m/examples\optiga_shell.c **** #endif
 342:D:/School/diseratie/SEMS/xmc4800_evaluation_kit/optiga-trust-m/examples\optiga_shell.c ****     OPTIGA_SHELL_LOG_MESSAGE("Starting Protected Update Example");
 343:D:/School/diseratie/SEMS/xmc4800_evaluation_kit/optiga-trust-m/examples\optiga_shell.c ****     OPTIGA_SHELL_LOG_MESSAGE("1 Step: Update Metadata for the Object to be updated and the Trust An
 344:D:/School/diseratie/SEMS/xmc4800_evaluation_kit/optiga-trust-m/examples\optiga_shell.c ****     OPTIGA_SHELL_LOG_MESSAGE("2 Step: Write Trust Anchor used by the Trust M to verify the update")
 345:D:/School/diseratie/SEMS/xmc4800_evaluation_kit/optiga-trust-m/examples\optiga_shell.c ****     OPTIGA_SHELL_LOG_MESSAGE("3 Step: Start Protected update with prepared manifest and fragments")
 346:D:/School/diseratie/SEMS/xmc4800_evaluation_kit/optiga-trust-m/examples\optiga_shell.c **** #ifndef OPTIGA_INIT_DEINIT_DONE_EXCLUSIVELY
 347:D:/School/diseratie/SEMS/xmc4800_evaluation_kit/optiga-trust-m/examples\optiga_shell.c ****     OPTIGA_SHELL_LOG_MESSAGE("4 Step: Close the application on OPTIGA");
 348:D:/School/diseratie/SEMS/xmc4800_evaluation_kit/optiga-trust-m/examples\optiga_shell.c **** #endif
 349:D:/School/diseratie/SEMS/xmc4800_evaluation_kit/optiga-trust-m/examples\optiga_shell.c ****     example_optiga_util_protected_update();
 350:D:/School/diseratie/SEMS/xmc4800_evaluation_kit/optiga-trust-m/examples\optiga_shell.c **** }
 351:D:/School/diseratie/SEMS/xmc4800_evaluation_kit/optiga-trust-m/examples\optiga_shell.c **** 
 352:D:/School/diseratie/SEMS/xmc4800_evaluation_kit/optiga-trust-m/examples\optiga_shell.c **** #ifdef OPTIGA_CRYPT_HASH_ENABLED
 353:D:/School/diseratie/SEMS/xmc4800_evaluation_kit/optiga-trust-m/examples\optiga_shell.c **** static void optiga_shell_crypt_hash(void)
 354:D:/School/diseratie/SEMS/xmc4800_evaluation_kit/optiga-trust-m/examples\optiga_shell.c **** {
 355:D:/School/diseratie/SEMS/xmc4800_evaluation_kit/optiga-trust-m/examples\optiga_shell.c **** #ifndef OPTIGA_INIT_DEINIT_DONE_EXCLUSIVELY
 356:D:/School/diseratie/SEMS/xmc4800_evaluation_kit/optiga-trust-m/examples\optiga_shell.c ****     OPTIGA_SHELL_LOG_MESSAGE("Initializing OPTIGA for example demonstration...");
 357:D:/School/diseratie/SEMS/xmc4800_evaluation_kit/optiga-trust-m/examples\optiga_shell.c **** #endif
 358:D:/School/diseratie/SEMS/xmc4800_evaluation_kit/optiga-trust-m/examples\optiga_shell.c ****     OPTIGA_SHELL_LOG_MESSAGE("Starting Hash Example");
 359:D:/School/diseratie/SEMS/xmc4800_evaluation_kit/optiga-trust-m/examples\optiga_shell.c ****     OPTIGA_SHELL_LOG_MESSAGE("1 Step: Hash given data with Start, Update and Finalize calls");
 360:D:/School/diseratie/SEMS/xmc4800_evaluation_kit/optiga-trust-m/examples\optiga_shell.c **** #ifndef OPTIGA_INIT_DEINIT_DONE_EXCLUSIVELY
 361:D:/School/diseratie/SEMS/xmc4800_evaluation_kit/optiga-trust-m/examples\optiga_shell.c ****     OPTIGA_SHELL_LOG_MESSAGE("2 Step: Close the application on OPTIGA");
 362:D:/School/diseratie/SEMS/xmc4800_evaluation_kit/optiga-trust-m/examples\optiga_shell.c **** #endif
 363:D:/School/diseratie/SEMS/xmc4800_evaluation_kit/optiga-trust-m/examples\optiga_shell.c ****     example_optiga_crypt_hash();
 364:D:/School/diseratie/SEMS/xmc4800_evaluation_kit/optiga-trust-m/examples\optiga_shell.c **** }
 365:D:/School/diseratie/SEMS/xmc4800_evaluation_kit/optiga-trust-m/examples\optiga_shell.c **** 
 366:D:/School/diseratie/SEMS/xmc4800_evaluation_kit/optiga-trust-m/examples\optiga_shell.c **** static void optiga_shell_crypt_hash_data(void)
 367:D:/School/diseratie/SEMS/xmc4800_evaluation_kit/optiga-trust-m/examples\optiga_shell.c **** {
 368:D:/School/diseratie/SEMS/xmc4800_evaluation_kit/optiga-trust-m/examples\optiga_shell.c **** #ifndef OPTIGA_INIT_DEINIT_DONE_EXCLUSIVELY
 369:D:/School/diseratie/SEMS/xmc4800_evaluation_kit/optiga-trust-m/examples\optiga_shell.c ****     OPTIGA_SHELL_LOG_MESSAGE("Initializing OPTIGA for example demonstration...");
 370:D:/School/diseratie/SEMS/xmc4800_evaluation_kit/optiga-trust-m/examples\optiga_shell.c **** #endif
 371:D:/School/diseratie/SEMS/xmc4800_evaluation_kit/optiga-trust-m/examples\optiga_shell.c ****     OPTIGA_SHELL_LOG_MESSAGE("Starting generation of digest Example");
 372:D:/School/diseratie/SEMS/xmc4800_evaluation_kit/optiga-trust-m/examples\optiga_shell.c ****     OPTIGA_SHELL_LOG_MESSAGE("1 Step: Generate hash of given user data ");
 373:D:/School/diseratie/SEMS/xmc4800_evaluation_kit/optiga-trust-m/examples\optiga_shell.c **** #ifndef OPTIGA_INIT_DEINIT_DONE_EXCLUSIVELY
 374:D:/School/diseratie/SEMS/xmc4800_evaluation_kit/optiga-trust-m/examples\optiga_shell.c ****     OPTIGA_SHELL_LOG_MESSAGE("2 Step: Close the application on OPTIGA");
 375:D:/School/diseratie/SEMS/xmc4800_evaluation_kit/optiga-trust-m/examples\optiga_shell.c **** #endif
 376:D:/School/diseratie/SEMS/xmc4800_evaluation_kit/optiga-trust-m/examples\optiga_shell.c ****     example_optiga_crypt_hash_data();
 377:D:/School/diseratie/SEMS/xmc4800_evaluation_kit/optiga-trust-m/examples\optiga_shell.c **** }
 378:D:/School/diseratie/SEMS/xmc4800_evaluation_kit/optiga-trust-m/examples\optiga_shell.c **** #endif
 379:D:/School/diseratie/SEMS/xmc4800_evaluation_kit/optiga-trust-m/examples\optiga_shell.c **** 
 380:D:/School/diseratie/SEMS/xmc4800_evaluation_kit/optiga-trust-m/examples\optiga_shell.c **** #ifdef OPTIGA_CRYPT_TLS_PRF_SHA256_ENABLED
 381:D:/School/diseratie/SEMS/xmc4800_evaluation_kit/optiga-trust-m/examples\optiga_shell.c **** static void optiga_shell_crypt_tls_prf_sha256(void)
 382:D:/School/diseratie/SEMS/xmc4800_evaluation_kit/optiga-trust-m/examples\optiga_shell.c **** {
 383:D:/School/diseratie/SEMS/xmc4800_evaluation_kit/optiga-trust-m/examples\optiga_shell.c **** #ifndef OPTIGA_INIT_DEINIT_DONE_EXCLUSIVELY
 384:D:/School/diseratie/SEMS/xmc4800_evaluation_kit/optiga-trust-m/examples\optiga_shell.c ****     OPTIGA_SHELL_LOG_MESSAGE("Initializing OPTIGA for example demonstration...");
 385:D:/School/diseratie/SEMS/xmc4800_evaluation_kit/optiga-trust-m/examples\optiga_shell.c **** #endif
 386:D:/School/diseratie/SEMS/xmc4800_evaluation_kit/optiga-trust-m/examples\optiga_shell.c ****     OPTIGA_SHELL_LOG_MESSAGE("Starting TLS PRF SHA256 (Key Deriviation) Example");
 387:D:/School/diseratie/SEMS/xmc4800_evaluation_kit/optiga-trust-m/examples\optiga_shell.c ****     OPTIGA_SHELL_LOG_MESSAGE("1 Step: Write prepared Shared Secret into an Arbitrary Data Object");
 388:D:/School/diseratie/SEMS/xmc4800_evaluation_kit/optiga-trust-m/examples\optiga_shell.c ****     OPTIGA_SHELL_LOG_MESSAGE("2 Step: Update Metadata of the Object to use the Arbitrary Data Objec
 389:D:/School/diseratie/SEMS/xmc4800_evaluation_kit/optiga-trust-m/examples\optiga_shell.c ****     OPTIGA_SHELL_LOG_MESSAGE("3 Step: Generate Shared Secret using the Shared Secret from the Arbit
 390:D:/School/diseratie/SEMS/xmc4800_evaluation_kit/optiga-trust-m/examples\optiga_shell.c ****     OPTIGA_SHELL_LOG_MESSAGE("4 Step: Restore Metadata of the Arbitrary Data Object");
 391:D:/School/diseratie/SEMS/xmc4800_evaluation_kit/optiga-trust-m/examples\optiga_shell.c **** #ifndef OPTIGA_INIT_DEINIT_DONE_EXCLUSIVELY
 392:D:/School/diseratie/SEMS/xmc4800_evaluation_kit/optiga-trust-m/examples\optiga_shell.c ****     OPTIGA_SHELL_LOG_MESSAGE("5 Step: Close the application on OPTIGA");
 393:D:/School/diseratie/SEMS/xmc4800_evaluation_kit/optiga-trust-m/examples\optiga_shell.c **** #endif
 394:D:/School/diseratie/SEMS/xmc4800_evaluation_kit/optiga-trust-m/examples\optiga_shell.c ****     example_optiga_crypt_tls_prf_sha256();
 395:D:/School/diseratie/SEMS/xmc4800_evaluation_kit/optiga-trust-m/examples\optiga_shell.c **** }
 396:D:/School/diseratie/SEMS/xmc4800_evaluation_kit/optiga-trust-m/examples\optiga_shell.c **** #endif
 397:D:/School/diseratie/SEMS/xmc4800_evaluation_kit/optiga-trust-m/examples\optiga_shell.c **** 
 398:D:/School/diseratie/SEMS/xmc4800_evaluation_kit/optiga-trust-m/examples\optiga_shell.c **** #ifdef OPTIGA_CRYPT_RANDOM_ENABLED
 399:D:/School/diseratie/SEMS/xmc4800_evaluation_kit/optiga-trust-m/examples\optiga_shell.c **** static void optiga_shell_crypt_random(void)
 400:D:/School/diseratie/SEMS/xmc4800_evaluation_kit/optiga-trust-m/examples\optiga_shell.c **** {
 401:D:/School/diseratie/SEMS/xmc4800_evaluation_kit/optiga-trust-m/examples\optiga_shell.c **** #ifndef OPTIGA_INIT_DEINIT_DONE_EXCLUSIVELY
 402:D:/School/diseratie/SEMS/xmc4800_evaluation_kit/optiga-trust-m/examples\optiga_shell.c ****     OPTIGA_SHELL_LOG_MESSAGE("Initializing OPTIGA for example demonstration...");
 403:D:/School/diseratie/SEMS/xmc4800_evaluation_kit/optiga-trust-m/examples\optiga_shell.c **** #endif
 404:D:/School/diseratie/SEMS/xmc4800_evaluation_kit/optiga-trust-m/examples\optiga_shell.c ****     OPTIGA_SHELL_LOG_MESSAGE("Starting Generate Random Example");
 405:D:/School/diseratie/SEMS/xmc4800_evaluation_kit/optiga-trust-m/examples\optiga_shell.c ****     OPTIGA_SHELL_LOG_MESSAGE("1 Step: Generate 32 bytes random");
 406:D:/School/diseratie/SEMS/xmc4800_evaluation_kit/optiga-trust-m/examples\optiga_shell.c **** #ifndef OPTIGA_INIT_DEINIT_DONE_EXCLUSIVELY
 407:D:/School/diseratie/SEMS/xmc4800_evaluation_kit/optiga-trust-m/examples\optiga_shell.c ****     OPTIGA_SHELL_LOG_MESSAGE("2 Step: Close the application on OPTIGA");
 408:D:/School/diseratie/SEMS/xmc4800_evaluation_kit/optiga-trust-m/examples\optiga_shell.c **** #endif
 409:D:/School/diseratie/SEMS/xmc4800_evaluation_kit/optiga-trust-m/examples\optiga_shell.c ****     example_optiga_crypt_random();
 410:D:/School/diseratie/SEMS/xmc4800_evaluation_kit/optiga-trust-m/examples\optiga_shell.c **** }
 411:D:/School/diseratie/SEMS/xmc4800_evaluation_kit/optiga-trust-m/examples\optiga_shell.c **** #endif
 412:D:/School/diseratie/SEMS/xmc4800_evaluation_kit/optiga-trust-m/examples\optiga_shell.c **** 
 413:D:/School/diseratie/SEMS/xmc4800_evaluation_kit/optiga-trust-m/examples\optiga_shell.c **** #ifdef OPTIGA_CRYPT_ECC_GENERATE_KEYPAIR_ENABLED
 414:D:/School/diseratie/SEMS/xmc4800_evaluation_kit/optiga-trust-m/examples\optiga_shell.c **** static void optiga_shell_crypt_ecc_generate_keypair(void)
 415:D:/School/diseratie/SEMS/xmc4800_evaluation_kit/optiga-trust-m/examples\optiga_shell.c **** {
 416:D:/School/diseratie/SEMS/xmc4800_evaluation_kit/optiga-trust-m/examples\optiga_shell.c **** #ifndef OPTIGA_INIT_DEINIT_DONE_EXCLUSIVELY
 417:D:/School/diseratie/SEMS/xmc4800_evaluation_kit/optiga-trust-m/examples\optiga_shell.c ****     OPTIGA_SHELL_LOG_MESSAGE("Initializing OPTIGA for example demonstration...");
 418:D:/School/diseratie/SEMS/xmc4800_evaluation_kit/optiga-trust-m/examples\optiga_shell.c **** #endif
 419:D:/School/diseratie/SEMS/xmc4800_evaluation_kit/optiga-trust-m/examples\optiga_shell.c ****     OPTIGA_SHELL_LOG_MESSAGE("Starting generate ECC Key Example");
 420:D:/School/diseratie/SEMS/xmc4800_evaluation_kit/optiga-trust-m/examples\optiga_shell.c ****     OPTIGA_SHELL_LOG_MESSAGE("1 Step: Generate ECC NIST P-256 Key Pair and export the public key");
 421:D:/School/diseratie/SEMS/xmc4800_evaluation_kit/optiga-trust-m/examples\optiga_shell.c **** #ifndef OPTIGA_INIT_DEINIT_DONE_EXCLUSIVELY
 422:D:/School/diseratie/SEMS/xmc4800_evaluation_kit/optiga-trust-m/examples\optiga_shell.c ****     OPTIGA_SHELL_LOG_MESSAGE("2 Step: Close the application on OPTIGA");
 423:D:/School/diseratie/SEMS/xmc4800_evaluation_kit/optiga-trust-m/examples\optiga_shell.c **** #endif
 424:D:/School/diseratie/SEMS/xmc4800_evaluation_kit/optiga-trust-m/examples\optiga_shell.c ****     example_optiga_crypt_ecc_generate_keypair();
 425:D:/School/diseratie/SEMS/xmc4800_evaluation_kit/optiga-trust-m/examples\optiga_shell.c **** }
 426:D:/School/diseratie/SEMS/xmc4800_evaluation_kit/optiga-trust-m/examples\optiga_shell.c **** #endif
 427:D:/School/diseratie/SEMS/xmc4800_evaluation_kit/optiga-trust-m/examples\optiga_shell.c **** 
 428:D:/School/diseratie/SEMS/xmc4800_evaluation_kit/optiga-trust-m/examples\optiga_shell.c **** #ifdef OPTIGA_CRYPT_ECDH_ENABLED
 429:D:/School/diseratie/SEMS/xmc4800_evaluation_kit/optiga-trust-m/examples\optiga_shell.c **** static void optiga_shell_crypt_ecdh(void)
 430:D:/School/diseratie/SEMS/xmc4800_evaluation_kit/optiga-trust-m/examples\optiga_shell.c **** {
 431:D:/School/diseratie/SEMS/xmc4800_evaluation_kit/optiga-trust-m/examples\optiga_shell.c **** #ifndef OPTIGA_INIT_DEINIT_DONE_EXCLUSIVELY
 432:D:/School/diseratie/SEMS/xmc4800_evaluation_kit/optiga-trust-m/examples\optiga_shell.c ****     OPTIGA_SHELL_LOG_MESSAGE("Initializing OPTIGA for example demonstration...");
 433:D:/School/diseratie/SEMS/xmc4800_evaluation_kit/optiga-trust-m/examples\optiga_shell.c **** #endif
 434:D:/School/diseratie/SEMS/xmc4800_evaluation_kit/optiga-trust-m/examples\optiga_shell.c ****     OPTIGA_SHELL_LOG_MESSAGE("Starting Elliptic-curve DiffieHellman (ECDH) Key Agreement Protoco
 435:D:/School/diseratie/SEMS/xmc4800_evaluation_kit/optiga-trust-m/examples\optiga_shell.c ****     OPTIGA_SHELL_LOG_MESSAGE("1 Step: Select Protected I2C Connection");
 436:D:/School/diseratie/SEMS/xmc4800_evaluation_kit/optiga-trust-m/examples\optiga_shell.c ****     OPTIGA_SHELL_LOG_MESSAGE("2 Step: Generate new ECC NIST P-256 Key Pair");
 437:D:/School/diseratie/SEMS/xmc4800_evaluation_kit/optiga-trust-m/examples\optiga_shell.c ****     OPTIGA_SHELL_LOG_MESSAGE("3 Step: Select Protected I2C Connection");
 438:D:/School/diseratie/SEMS/xmc4800_evaluation_kit/optiga-trust-m/examples\optiga_shell.c ****     OPTIGA_SHELL_LOG_MESSAGE("4 Step: Generate Shared Secret and export it");
 439:D:/School/diseratie/SEMS/xmc4800_evaluation_kit/optiga-trust-m/examples\optiga_shell.c **** #ifndef OPTIGA_INIT_DEINIT_DONE_EXCLUSIVELY
 440:D:/School/diseratie/SEMS/xmc4800_evaluation_kit/optiga-trust-m/examples\optiga_shell.c ****     OPTIGA_SHELL_LOG_MESSAGE("5 Step: Close the application on OPTIGA");
 441:D:/School/diseratie/SEMS/xmc4800_evaluation_kit/optiga-trust-m/examples\optiga_shell.c **** #endif
 442:D:/School/diseratie/SEMS/xmc4800_evaluation_kit/optiga-trust-m/examples\optiga_shell.c ****     example_optiga_crypt_ecdh();
 443:D:/School/diseratie/SEMS/xmc4800_evaluation_kit/optiga-trust-m/examples\optiga_shell.c **** }
 444:D:/School/diseratie/SEMS/xmc4800_evaluation_kit/optiga-trust-m/examples\optiga_shell.c **** #endif
 445:D:/School/diseratie/SEMS/xmc4800_evaluation_kit/optiga-trust-m/examples\optiga_shell.c **** 
 446:D:/School/diseratie/SEMS/xmc4800_evaluation_kit/optiga-trust-m/examples\optiga_shell.c **** #ifdef OPTIGA_CRYPT_ECDSA_SIGN_ENABLED
 447:D:/School/diseratie/SEMS/xmc4800_evaluation_kit/optiga-trust-m/examples\optiga_shell.c **** static void optiga_shell_crypt_ecdsa_sign(void)
 448:D:/School/diseratie/SEMS/xmc4800_evaluation_kit/optiga-trust-m/examples\optiga_shell.c **** {
 449:D:/School/diseratie/SEMS/xmc4800_evaluation_kit/optiga-trust-m/examples\optiga_shell.c **** #ifndef OPTIGA_INIT_DEINIT_DONE_EXCLUSIVELY
 450:D:/School/diseratie/SEMS/xmc4800_evaluation_kit/optiga-trust-m/examples\optiga_shell.c ****     OPTIGA_SHELL_LOG_MESSAGE("Initializing OPTIGA for example demonstration...");
 451:D:/School/diseratie/SEMS/xmc4800_evaluation_kit/optiga-trust-m/examples\optiga_shell.c **** #endif
 452:D:/School/diseratie/SEMS/xmc4800_evaluation_kit/optiga-trust-m/examples\optiga_shell.c ****     OPTIGA_SHELL_LOG_MESSAGE("Starting signing example for Elliptic-curve Digital Signature Algorit
 453:D:/School/diseratie/SEMS/xmc4800_evaluation_kit/optiga-trust-m/examples\optiga_shell.c ****     OPTIGA_SHELL_LOG_MESSAGE("1 Step: Sign prepared Data and export the signature");
 454:D:/School/diseratie/SEMS/xmc4800_evaluation_kit/optiga-trust-m/examples\optiga_shell.c **** #ifndef OPTIGA_INIT_DEINIT_DONE_EXCLUSIVELY
 455:D:/School/diseratie/SEMS/xmc4800_evaluation_kit/optiga-trust-m/examples\optiga_shell.c ****     OPTIGA_SHELL_LOG_MESSAGE("2 Step: Close the application on OPTIGA");
 456:D:/School/diseratie/SEMS/xmc4800_evaluation_kit/optiga-trust-m/examples\optiga_shell.c **** #endif
 457:D:/School/diseratie/SEMS/xmc4800_evaluation_kit/optiga-trust-m/examples\optiga_shell.c ****     example_optiga_crypt_ecdsa_sign();
 458:D:/School/diseratie/SEMS/xmc4800_evaluation_kit/optiga-trust-m/examples\optiga_shell.c **** }
 459:D:/School/diseratie/SEMS/xmc4800_evaluation_kit/optiga-trust-m/examples\optiga_shell.c **** #endif
 460:D:/School/diseratie/SEMS/xmc4800_evaluation_kit/optiga-trust-m/examples\optiga_shell.c **** 
 461:D:/School/diseratie/SEMS/xmc4800_evaluation_kit/optiga-trust-m/examples\optiga_shell.c **** #ifdef OPTIGA_CRYPT_ECDSA_VERIFY_ENABLED
 462:D:/School/diseratie/SEMS/xmc4800_evaluation_kit/optiga-trust-m/examples\optiga_shell.c **** static void optiga_shell_crypt_ecdsa_verify(void)
 463:D:/School/diseratie/SEMS/xmc4800_evaluation_kit/optiga-trust-m/examples\optiga_shell.c **** {
 464:D:/School/diseratie/SEMS/xmc4800_evaluation_kit/optiga-trust-m/examples\optiga_shell.c **** #ifndef OPTIGA_INIT_DEINIT_DONE_EXCLUSIVELY
 465:D:/School/diseratie/SEMS/xmc4800_evaluation_kit/optiga-trust-m/examples\optiga_shell.c ****     OPTIGA_SHELL_LOG_MESSAGE("Initializing OPTIGA for example demonstration...");
 466:D:/School/diseratie/SEMS/xmc4800_evaluation_kit/optiga-trust-m/examples\optiga_shell.c **** #endif
 467:D:/School/diseratie/SEMS/xmc4800_evaluation_kit/optiga-trust-m/examples\optiga_shell.c ****     OPTIGA_SHELL_LOG_MESSAGE("Starting verification example for Elliptic-curve Digital Signature Al
 468:D:/School/diseratie/SEMS/xmc4800_evaluation_kit/optiga-trust-m/examples\optiga_shell.c ****     OPTIGA_SHELL_LOG_MESSAGE("1 Step: Verify prepared signature, with prepared public key and diges
 469:D:/School/diseratie/SEMS/xmc4800_evaluation_kit/optiga-trust-m/examples\optiga_shell.c **** #ifndef OPTIGA_INIT_DEINIT_DONE_EXCLUSIVELY
 470:D:/School/diseratie/SEMS/xmc4800_evaluation_kit/optiga-trust-m/examples\optiga_shell.c ****     OPTIGA_SHELL_LOG_MESSAGE("2 Step: Close the application on OPTIGA");
 471:D:/School/diseratie/SEMS/xmc4800_evaluation_kit/optiga-trust-m/examples\optiga_shell.c **** #endif
 472:D:/School/diseratie/SEMS/xmc4800_evaluation_kit/optiga-trust-m/examples\optiga_shell.c ****     example_optiga_crypt_ecdsa_verify();
 473:D:/School/diseratie/SEMS/xmc4800_evaluation_kit/optiga-trust-m/examples\optiga_shell.c **** }
 474:D:/School/diseratie/SEMS/xmc4800_evaluation_kit/optiga-trust-m/examples\optiga_shell.c **** #endif
 475:D:/School/diseratie/SEMS/xmc4800_evaluation_kit/optiga-trust-m/examples\optiga_shell.c **** 
 476:D:/School/diseratie/SEMS/xmc4800_evaluation_kit/optiga-trust-m/examples\optiga_shell.c **** #ifdef OPTIGA_CRYPT_RSA_SIGN_ENABLED
 477:D:/School/diseratie/SEMS/xmc4800_evaluation_kit/optiga-trust-m/examples\optiga_shell.c **** static void optiga_shell_crypt_rsa_sign(void)
 478:D:/School/diseratie/SEMS/xmc4800_evaluation_kit/optiga-trust-m/examples\optiga_shell.c **** {
 479:D:/School/diseratie/SEMS/xmc4800_evaluation_kit/optiga-trust-m/examples\optiga_shell.c **** #ifndef OPTIGA_INIT_DEINIT_DONE_EXCLUSIVELY
 480:D:/School/diseratie/SEMS/xmc4800_evaluation_kit/optiga-trust-m/examples\optiga_shell.c ****     OPTIGA_SHELL_LOG_MESSAGE("Initializing OPTIGA for example demonstration...");
 481:D:/School/diseratie/SEMS/xmc4800_evaluation_kit/optiga-trust-m/examples\optiga_shell.c **** #endif
 482:D:/School/diseratie/SEMS/xmc4800_evaluation_kit/optiga-trust-m/examples\optiga_shell.c ****     OPTIGA_SHELL_LOG_MESSAGE("Starting signing example for PKCS#1 Ver1.5 SHA256 Signature scheme (R
 483:D:/School/diseratie/SEMS/xmc4800_evaluation_kit/optiga-trust-m/examples\optiga_shell.c ****     OPTIGA_SHELL_LOG_MESSAGE("1 Step: Sign prepared Data and export the signature");
 484:D:/School/diseratie/SEMS/xmc4800_evaluation_kit/optiga-trust-m/examples\optiga_shell.c **** #ifndef OPTIGA_INIT_DEINIT_DONE_EXCLUSIVELY
 485:D:/School/diseratie/SEMS/xmc4800_evaluation_kit/optiga-trust-m/examples\optiga_shell.c ****     OPTIGA_SHELL_LOG_MESSAGE("2 Step: Close the application on OPTIGA");
 486:D:/School/diseratie/SEMS/xmc4800_evaluation_kit/optiga-trust-m/examples\optiga_shell.c **** #endif
 487:D:/School/diseratie/SEMS/xmc4800_evaluation_kit/optiga-trust-m/examples\optiga_shell.c ****     example_optiga_crypt_rsa_sign();
 488:D:/School/diseratie/SEMS/xmc4800_evaluation_kit/optiga-trust-m/examples\optiga_shell.c **** }
 489:D:/School/diseratie/SEMS/xmc4800_evaluation_kit/optiga-trust-m/examples\optiga_shell.c **** #endif
 490:D:/School/diseratie/SEMS/xmc4800_evaluation_kit/optiga-trust-m/examples\optiga_shell.c **** 
 491:D:/School/diseratie/SEMS/xmc4800_evaluation_kit/optiga-trust-m/examples\optiga_shell.c **** #ifdef OPTIGA_CRYPT_RSA_VERIFY_ENABLED
 492:D:/School/diseratie/SEMS/xmc4800_evaluation_kit/optiga-trust-m/examples\optiga_shell.c **** static void optiga_shell_crypt_rsa_verify(void)
 493:D:/School/diseratie/SEMS/xmc4800_evaluation_kit/optiga-trust-m/examples\optiga_shell.c **** {
 494:D:/School/diseratie/SEMS/xmc4800_evaluation_kit/optiga-trust-m/examples\optiga_shell.c **** #ifndef OPTIGA_INIT_DEINIT_DONE_EXCLUSIVELY
 495:D:/School/diseratie/SEMS/xmc4800_evaluation_kit/optiga-trust-m/examples\optiga_shell.c ****     OPTIGA_SHELL_LOG_MESSAGE("Initializing OPTIGA for example demonstration...");
 496:D:/School/diseratie/SEMS/xmc4800_evaluation_kit/optiga-trust-m/examples\optiga_shell.c **** #endif
 497:D:/School/diseratie/SEMS/xmc4800_evaluation_kit/optiga-trust-m/examples\optiga_shell.c ****     OPTIGA_SHELL_LOG_MESSAGE("Starting signing example for PKCS#1 Ver1.5 SHA256 Signature scheme (R
 498:D:/School/diseratie/SEMS/xmc4800_evaluation_kit/optiga-trust-m/examples\optiga_shell.c ****     OPTIGA_SHELL_LOG_MESSAGE("1 Step: Verify prepared signature, with prepared public key and diges
 499:D:/School/diseratie/SEMS/xmc4800_evaluation_kit/optiga-trust-m/examples\optiga_shell.c **** #ifndef OPTIGA_INIT_DEINIT_DONE_EXCLUSIVELY
 500:D:/School/diseratie/SEMS/xmc4800_evaluation_kit/optiga-trust-m/examples\optiga_shell.c ****     OPTIGA_SHELL_LOG_MESSAGE("2 Step: Close the application on OPTIGA");
 501:D:/School/diseratie/SEMS/xmc4800_evaluation_kit/optiga-trust-m/examples\optiga_shell.c **** #endif
 502:D:/School/diseratie/SEMS/xmc4800_evaluation_kit/optiga-trust-m/examples\optiga_shell.c ****     example_optiga_crypt_rsa_verify();
 503:D:/School/diseratie/SEMS/xmc4800_evaluation_kit/optiga-trust-m/examples\optiga_shell.c **** }
 504:D:/School/diseratie/SEMS/xmc4800_evaluation_kit/optiga-trust-m/examples\optiga_shell.c **** #endif
 505:D:/School/diseratie/SEMS/xmc4800_evaluation_kit/optiga-trust-m/examples\optiga_shell.c **** 
 506:D:/School/diseratie/SEMS/xmc4800_evaluation_kit/optiga-trust-m/examples\optiga_shell.c **** #ifdef OPTIGA_CRYPT_RSA_GENERATE_KEYPAIR_ENABLED
 507:D:/School/diseratie/SEMS/xmc4800_evaluation_kit/optiga-trust-m/examples\optiga_shell.c **** static void optiga_shell_crypt_rsa_generate_keypair(void)
 508:D:/School/diseratie/SEMS/xmc4800_evaluation_kit/optiga-trust-m/examples\optiga_shell.c **** {
 509:D:/School/diseratie/SEMS/xmc4800_evaluation_kit/optiga-trust-m/examples\optiga_shell.c **** #ifndef OPTIGA_INIT_DEINIT_DONE_EXCLUSIVELY
 510:D:/School/diseratie/SEMS/xmc4800_evaluation_kit/optiga-trust-m/examples\optiga_shell.c ****     OPTIGA_SHELL_LOG_MESSAGE("Initializing OPTIGA for example demonstration...");
 511:D:/School/diseratie/SEMS/xmc4800_evaluation_kit/optiga-trust-m/examples\optiga_shell.c **** #endif
 512:D:/School/diseratie/SEMS/xmc4800_evaluation_kit/optiga-trust-m/examples\optiga_shell.c ****     OPTIGA_SHELL_LOG_MESSAGE("Starting generate RSA Key Example");
 513:D:/School/diseratie/SEMS/xmc4800_evaluation_kit/optiga-trust-m/examples\optiga_shell.c ****     OPTIGA_SHELL_LOG_MESSAGE("1 Step: Generate RSA 1024 Key Pair and export the public key");
 514:D:/School/diseratie/SEMS/xmc4800_evaluation_kit/optiga-trust-m/examples\optiga_shell.c **** #ifndef OPTIGA_INIT_DEINIT_DONE_EXCLUSIVELY
 515:D:/School/diseratie/SEMS/xmc4800_evaluation_kit/optiga-trust-m/examples\optiga_shell.c ****     OPTIGA_SHELL_LOG_MESSAGE("2 Step: Close the application on OPTIGA");
 516:D:/School/diseratie/SEMS/xmc4800_evaluation_kit/optiga-trust-m/examples\optiga_shell.c **** #endif
 517:D:/School/diseratie/SEMS/xmc4800_evaluation_kit/optiga-trust-m/examples\optiga_shell.c ****     example_optiga_crypt_rsa_generate_keypair();
 518:D:/School/diseratie/SEMS/xmc4800_evaluation_kit/optiga-trust-m/examples\optiga_shell.c **** }
 519:D:/School/diseratie/SEMS/xmc4800_evaluation_kit/optiga-trust-m/examples\optiga_shell.c **** #endif
 520:D:/School/diseratie/SEMS/xmc4800_evaluation_kit/optiga-trust-m/examples\optiga_shell.c **** 
 521:D:/School/diseratie/SEMS/xmc4800_evaluation_kit/optiga-trust-m/examples\optiga_shell.c **** #ifdef OPTIGA_CRYPT_RSA_DECRYPT_ENABLED
 522:D:/School/diseratie/SEMS/xmc4800_evaluation_kit/optiga-trust-m/examples\optiga_shell.c **** static void optiga_shell_crypt_rsa_decrypt_and_export(void)
 523:D:/School/diseratie/SEMS/xmc4800_evaluation_kit/optiga-trust-m/examples\optiga_shell.c **** {
  51              	 .loc 1 523 0
  52              	 .cfi_startproc
  53              	 
  54              	 
  55 0000 38B5     	 push {r3,r4,r5,lr}
  56              	.LCFI0:
  57              	 .cfi_def_cfa_offset 16
  58              	 .cfi_offset 3,-16
  59              	 .cfi_offset 4,-12
  60              	 .cfi_offset 5,-8
  61              	 .cfi_offset 14,-4
 524:D:/School/diseratie/SEMS/xmc4800_evaluation_kit/optiga-trust-m/examples\optiga_shell.c **** #ifndef OPTIGA_INIT_DEINIT_DONE_EXCLUSIVELY
 525:D:/School/diseratie/SEMS/xmc4800_evaluation_kit/optiga-trust-m/examples\optiga_shell.c ****     OPTIGA_SHELL_LOG_MESSAGE("Initializing OPTIGA for example demonstration...");
  62              	 .loc 1 525 0
  63 0002 144D     	 ldr r5,.L6
  64 0004 144C     	 ldr r4,.L6+4
  65 0006 1548     	 ldr r0,.L6+8
  66 0008 2946     	 mov r1,r5
  67 000a 2246     	 mov r2,r4
  68 000c FFF7FEFF 	 bl optiga_lib_print_message
  69              	.LVL1:
 526:D:/School/diseratie/SEMS/xmc4800_evaluation_kit/optiga-trust-m/examples\optiga_shell.c **** #endif
 527:D:/School/diseratie/SEMS/xmc4800_evaluation_kit/optiga-trust-m/examples\optiga_shell.c ****     OPTIGA_SHELL_LOG_MESSAGE("Starting Decrypt and Export Data with RSA Key Example");
  70              	 .loc 1 527 0
  71 0010 2946     	 mov r1,r5
  72 0012 2246     	 mov r2,r4
  73 0014 1248     	 ldr r0,.L6+12
  74 0016 FFF7FEFF 	 bl optiga_lib_print_message
  75              	.LVL2:
 528:D:/School/diseratie/SEMS/xmc4800_evaluation_kit/optiga-trust-m/examples\optiga_shell.c ****     OPTIGA_SHELL_LOG_MESSAGE("1 Step: Generate RSA 1024 Key Pair and export the public key");
  76              	 .loc 1 528 0
  77 001a 2946     	 mov r1,r5
  78 001c 2246     	 mov r2,r4
  79 001e 1148     	 ldr r0,.L6+16
  80 0020 FFF7FEFF 	 bl optiga_lib_print_message
  81              	.LVL3:
 529:D:/School/diseratie/SEMS/xmc4800_evaluation_kit/optiga-trust-m/examples\optiga_shell.c ****     OPTIGA_SHELL_LOG_MESSAGE("2 Step: Encrypt a message with RSAES PKCS#1 Ver1.5 Scheme");
  82              	 .loc 1 529 0
  83 0024 2946     	 mov r1,r5
  84 0026 2246     	 mov r2,r4
  85 0028 0F48     	 ldr r0,.L6+20
  86 002a FFF7FEFF 	 bl optiga_lib_print_message
  87              	.LVL4:
 530:D:/School/diseratie/SEMS/xmc4800_evaluation_kit/optiga-trust-m/examples\optiga_shell.c ****     OPTIGA_SHELL_LOG_MESSAGE("3 Step: Select Protected I2C Connection");
  88              	 .loc 1 530 0
  89 002e 2946     	 mov r1,r5
  90 0030 2246     	 mov r2,r4
  91 0032 0E48     	 ldr r0,.L6+24
  92 0034 FFF7FEFF 	 bl optiga_lib_print_message
  93              	.LVL5:
 531:D:/School/diseratie/SEMS/xmc4800_evaluation_kit/optiga-trust-m/examples\optiga_shell.c ****     OPTIGA_SHELL_LOG_MESSAGE("4 Step: Decrypt the message with RSAES PKCS#1 Ver1.5 Scheme and expor
  94              	 .loc 1 531 0
  95 0038 2946     	 mov r1,r5
  96 003a 2246     	 mov r2,r4
  97 003c 0C48     	 ldr r0,.L6+28
  98 003e FFF7FEFF 	 bl optiga_lib_print_message
  99              	.LVL6:
 532:D:/School/diseratie/SEMS/xmc4800_evaluation_kit/optiga-trust-m/examples\optiga_shell.c **** #ifndef OPTIGA_INIT_DEINIT_DONE_EXCLUSIVELY
 533:D:/School/diseratie/SEMS/xmc4800_evaluation_kit/optiga-trust-m/examples\optiga_shell.c ****     OPTIGA_SHELL_LOG_MESSAGE("5 Step: Close the application on OPTIGA");
 100              	 .loc 1 533 0
 101 0042 2946     	 mov r1,r5
 102 0044 2246     	 mov r2,r4
 103 0046 0B48     	 ldr r0,.L6+32
 104 0048 FFF7FEFF 	 bl optiga_lib_print_message
 105              	.LVL7:
 534:D:/School/diseratie/SEMS/xmc4800_evaluation_kit/optiga-trust-m/examples\optiga_shell.c **** #endif
 535:D:/School/diseratie/SEMS/xmc4800_evaluation_kit/optiga-trust-m/examples\optiga_shell.c ****     example_optiga_crypt_rsa_decrypt_and_export();   
 536:D:/School/diseratie/SEMS/xmc4800_evaluation_kit/optiga-trust-m/examples\optiga_shell.c **** }
 106              	 .loc 1 536 0
 107 004c BDE83840 	 pop {r3,r4,r5,lr}
 108              	.LCFI1:
 109              	 .cfi_restore 14
 110              	 .cfi_restore 5
 111              	 .cfi_restore 4
 112              	 .cfi_restore 3
 113              	 .cfi_def_cfa_offset 0
 535:D:/School/diseratie/SEMS/xmc4800_evaluation_kit/optiga-trust-m/examples\optiga_shell.c **** }
 114              	 .loc 1 535 0
 115 0050 FFF7FEBF 	 b example_optiga_crypt_rsa_decrypt_and_export
 116              	.LVL8:
 117              	.L7:
 118              	 .align 2
 119              	.L6:
 120 0054 34000000 	 .word .LC1
 121 0058 48000000 	 .word .LC2
 122 005c 00000000 	 .word .LC0
 123 0060 50000000 	 .word .LC3
 124 0064 88000000 	 .word .LC4
 125 0068 C8000000 	 .word .LC5
 126 006c 04010000 	 .word .LC6
 127 0070 2C010000 	 .word .LC7
 128 0074 78010000 	 .word .LC8
 129              	 .cfi_endproc
 130              	.LFE470:
 132              	 .section .text.optiga_shell_crypt_rsa_decrypt_and_store,"ax",%progbits
 133              	 .align 2
 134              	 .thumb
 135              	 .thumb_func
 137              	optiga_shell_crypt_rsa_decrypt_and_store:
 138              	.LFB471:
 537:D:/School/diseratie/SEMS/xmc4800_evaluation_kit/optiga-trust-m/examples\optiga_shell.c **** #endif
 538:D:/School/diseratie/SEMS/xmc4800_evaluation_kit/optiga-trust-m/examples\optiga_shell.c **** 
 539:D:/School/diseratie/SEMS/xmc4800_evaluation_kit/optiga-trust-m/examples\optiga_shell.c **** #ifdef OPTIGA_CRYPT_RSA_DECRYPT_ENABLED
 540:D:/School/diseratie/SEMS/xmc4800_evaluation_kit/optiga-trust-m/examples\optiga_shell.c **** static void optiga_shell_crypt_rsa_decrypt_and_store(void)
 541:D:/School/diseratie/SEMS/xmc4800_evaluation_kit/optiga-trust-m/examples\optiga_shell.c **** {
 139              	 .loc 1 541 0
 140              	 .cfi_startproc
 141              	 
 142              	 
 143 0000 38B5     	 push {r3,r4,r5,lr}
 144              	.LCFI2:
 145              	 .cfi_def_cfa_offset 16
 146              	 .cfi_offset 3,-16
 147              	 .cfi_offset 4,-12
 148              	 .cfi_offset 5,-8
 149              	 .cfi_offset 14,-4
 542:D:/School/diseratie/SEMS/xmc4800_evaluation_kit/optiga-trust-m/examples\optiga_shell.c **** 
 543:D:/School/diseratie/SEMS/xmc4800_evaluation_kit/optiga-trust-m/examples\optiga_shell.c **** #ifndef OPTIGA_INIT_DEINIT_DONE_EXCLUSIVELY
 544:D:/School/diseratie/SEMS/xmc4800_evaluation_kit/optiga-trust-m/examples\optiga_shell.c ****     OPTIGA_SHELL_LOG_MESSAGE("Initializing OPTIGA for example demonstration...");
 150              	 .loc 1 544 0
 151 0002 174D     	 ldr r5,.L10
 152 0004 174C     	 ldr r4,.L10+4
 153 0006 1848     	 ldr r0,.L10+8
 154 0008 2946     	 mov r1,r5
 155 000a 2246     	 mov r2,r4
 156 000c FFF7FEFF 	 bl optiga_lib_print_message
 157              	.LVL9:
 545:D:/School/diseratie/SEMS/xmc4800_evaluation_kit/optiga-trust-m/examples\optiga_shell.c **** #endif
 546:D:/School/diseratie/SEMS/xmc4800_evaluation_kit/optiga-trust-m/examples\optiga_shell.c ****     OPTIGA_SHELL_LOG_MESSAGE("Starting Decrypt and Store Data on the chip with RSA Key Example");
 158              	 .loc 1 546 0
 159 0010 2946     	 mov r1,r5
 160 0012 2246     	 mov r2,r4
 161 0014 1548     	 ldr r0,.L10+12
 162 0016 FFF7FEFF 	 bl optiga_lib_print_message
 163              	.LVL10:
 547:D:/School/diseratie/SEMS/xmc4800_evaluation_kit/optiga-trust-m/examples\optiga_shell.c ****     OPTIGA_SHELL_LOG_MESSAGE("1 Step: Generate RSA 1024 Key Pair and export the public key");
 164              	 .loc 1 547 0
 165 001a 2946     	 mov r1,r5
 166 001c 2246     	 mov r2,r4
 167 001e 1448     	 ldr r0,.L10+16
 168 0020 FFF7FEFF 	 bl optiga_lib_print_message
 169              	.LVL11:
 548:D:/School/diseratie/SEMS/xmc4800_evaluation_kit/optiga-trust-m/examples\optiga_shell.c ****     OPTIGA_SHELL_LOG_MESSAGE("2 Step: Generate 70 bytes RSA Pre master secret which is stored in ac
 170              	 .loc 1 548 0
 171 0024 2946     	 mov r1,r5
 172 0026 2246     	 mov r2,r4
 173 0028 1248     	 ldr r0,.L10+20
 174 002a FFF7FEFF 	 bl optiga_lib_print_message
 175              	.LVL12:
 549:D:/School/diseratie/SEMS/xmc4800_evaluation_kit/optiga-trust-m/examples\optiga_shell.c ****     OPTIGA_SHELL_LOG_MESSAGE("3 Step: Select Protected I2C Connection");
 176              	 .loc 1 549 0
 177 002e 2946     	 mov r1,r5
 178 0030 2246     	 mov r2,r4
 179 0032 1148     	 ldr r0,.L10+24
 180 0034 FFF7FEFF 	 bl optiga_lib_print_message
 181              	.LVL13:
 550:D:/School/diseratie/SEMS/xmc4800_evaluation_kit/optiga-trust-m/examples\optiga_shell.c ****     OPTIGA_SHELL_LOG_MESSAGE("4 Step: Encrypt Session Data with RSA Public Key");
 182              	 .loc 1 550 0
 183 0038 2946     	 mov r1,r5
 184 003a 2246     	 mov r2,r4
 185 003c 0F48     	 ldr r0,.L10+28
 186 003e FFF7FEFF 	 bl optiga_lib_print_message
 187              	.LVL14:
 551:D:/School/diseratie/SEMS/xmc4800_evaluation_kit/optiga-trust-m/examples\optiga_shell.c ****     OPTIGA_SHELL_LOG_MESSAGE("5 Step: Decrypt the message with RSAES PKCS#1 Ver1.5 Scheme and store
 188              	 .loc 1 551 0
 189 0042 2946     	 mov r1,r5
 190 0044 2246     	 mov r2,r4
 191 0046 0E48     	 ldr r0,.L10+32
 192 0048 FFF7FEFF 	 bl optiga_lib_print_message
 193              	.LVL15:
 552:D:/School/diseratie/SEMS/xmc4800_evaluation_kit/optiga-trust-m/examples\optiga_shell.c **** #ifndef OPTIGA_INIT_DEINIT_DONE_EXCLUSIVELY
 553:D:/School/diseratie/SEMS/xmc4800_evaluation_kit/optiga-trust-m/examples\optiga_shell.c ****     OPTIGA_SHELL_LOG_MESSAGE("6 Step: Close the application on OPTIGA");
 194              	 .loc 1 553 0
 195 004c 2946     	 mov r1,r5
 196 004e 2246     	 mov r2,r4
 197 0050 0C48     	 ldr r0,.L10+36
 198 0052 FFF7FEFF 	 bl optiga_lib_print_message
 199              	.LVL16:
 554:D:/School/diseratie/SEMS/xmc4800_evaluation_kit/optiga-trust-m/examples\optiga_shell.c **** #endif
 555:D:/School/diseratie/SEMS/xmc4800_evaluation_kit/optiga-trust-m/examples\optiga_shell.c ****     example_optiga_crypt_rsa_decrypt_and_store();
 556:D:/School/diseratie/SEMS/xmc4800_evaluation_kit/optiga-trust-m/examples\optiga_shell.c **** }
 200              	 .loc 1 556 0
 201 0056 BDE83840 	 pop {r3,r4,r5,lr}
 202              	.LCFI3:
 203              	 .cfi_restore 14
 204              	 .cfi_restore 5
 205              	 .cfi_restore 4
 206              	 .cfi_restore 3
 207              	 .cfi_def_cfa_offset 0
 555:D:/School/diseratie/SEMS/xmc4800_evaluation_kit/optiga-trust-m/examples\optiga_shell.c **** }
 208              	 .loc 1 555 0
 209 005a FFF7FEBF 	 b example_optiga_crypt_rsa_decrypt_and_store
 210              	.LVL17:
 211              	.L11:
 212 005e 00BF     	 .align 2
 213              	.L10:
 214 0060 34000000 	 .word .LC1
 215 0064 48000000 	 .word .LC2
 216 0068 00000000 	 .word .LC0
 217 006c A0010000 	 .word .LC9
 218 0070 88000000 	 .word .LC4
 219 0074 E4010000 	 .word .LC10
 220 0078 04010000 	 .word .LC6
 221 007c 3C020000 	 .word .LC11
 222 0080 70020000 	 .word .LC12
 223 0084 C4020000 	 .word .LC13
 224              	 .cfi_endproc
 225              	.LFE471:
 227              	 .section .text.optiga_shell_crypt_rsa_encrypt_session,"ax",%progbits
 228              	 .align 2
 229              	 .thumb
 230              	 .thumb_func
 232              	optiga_shell_crypt_rsa_encrypt_session:
 233              	.LFB473:
 557:D:/School/diseratie/SEMS/xmc4800_evaluation_kit/optiga-trust-m/examples\optiga_shell.c **** #endif
 558:D:/School/diseratie/SEMS/xmc4800_evaluation_kit/optiga-trust-m/examples\optiga_shell.c **** #ifdef OPTIGA_CRYPT_RSA_DECRYPT_ENABLED
 559:D:/School/diseratie/SEMS/xmc4800_evaluation_kit/optiga-trust-m/examples\optiga_shell.c **** static void optiga_shell_crypt_rsa_encrypt_message(void)
 560:D:/School/diseratie/SEMS/xmc4800_evaluation_kit/optiga-trust-m/examples\optiga_shell.c **** {
 561:D:/School/diseratie/SEMS/xmc4800_evaluation_kit/optiga-trust-m/examples\optiga_shell.c **** #ifndef OPTIGA_INIT_DEINIT_DONE_EXCLUSIVELY
 562:D:/School/diseratie/SEMS/xmc4800_evaluation_kit/optiga-trust-m/examples\optiga_shell.c ****     OPTIGA_SHELL_LOG_MESSAGE("Initializing OPTIGA for example demonstration...");
 563:D:/School/diseratie/SEMS/xmc4800_evaluation_kit/optiga-trust-m/examples\optiga_shell.c **** #endif
 564:D:/School/diseratie/SEMS/xmc4800_evaluation_kit/optiga-trust-m/examples\optiga_shell.c ****     OPTIGA_SHELL_LOG_MESSAGE("Starting Encrypt Data with RSA Key Example");
 565:D:/School/diseratie/SEMS/xmc4800_evaluation_kit/optiga-trust-m/examples\optiga_shell.c ****     OPTIGA_SHELL_LOG_MESSAGE("1 Step: Encrypt a message with RSAES PKCS#1 Ver1.5 Scheme");
 566:D:/School/diseratie/SEMS/xmc4800_evaluation_kit/optiga-trust-m/examples\optiga_shell.c **** #ifndef OPTIGA_INIT_DEINIT_DONE_EXCLUSIVELY
 567:D:/School/diseratie/SEMS/xmc4800_evaluation_kit/optiga-trust-m/examples\optiga_shell.c ****     OPTIGA_SHELL_LOG_MESSAGE("2 Step: Close the application on OPTIGA");
 568:D:/School/diseratie/SEMS/xmc4800_evaluation_kit/optiga-trust-m/examples\optiga_shell.c **** #endif
 569:D:/School/diseratie/SEMS/xmc4800_evaluation_kit/optiga-trust-m/examples\optiga_shell.c ****     example_optiga_crypt_rsa_encrypt_message();
 570:D:/School/diseratie/SEMS/xmc4800_evaluation_kit/optiga-trust-m/examples\optiga_shell.c **** }
 571:D:/School/diseratie/SEMS/xmc4800_evaluation_kit/optiga-trust-m/examples\optiga_shell.c **** #endif
 572:D:/School/diseratie/SEMS/xmc4800_evaluation_kit/optiga-trust-m/examples\optiga_shell.c **** 
 573:D:/School/diseratie/SEMS/xmc4800_evaluation_kit/optiga-trust-m/examples\optiga_shell.c **** #ifdef OPTIGA_CRYPT_RSA_DECRYPT_ENABLED
 574:D:/School/diseratie/SEMS/xmc4800_evaluation_kit/optiga-trust-m/examples\optiga_shell.c **** static void optiga_shell_crypt_rsa_encrypt_session(void)
 575:D:/School/diseratie/SEMS/xmc4800_evaluation_kit/optiga-trust-m/examples\optiga_shell.c **** {
 234              	 .loc 1 575 0
 235              	 .cfi_startproc
 236              	 
 237              	 
 238 0000 38B5     	 push {r3,r4,r5,lr}
 239              	.LCFI4:
 240              	 .cfi_def_cfa_offset 16
 241              	 .cfi_offset 3,-16
 242              	 .cfi_offset 4,-12
 243              	 .cfi_offset 5,-8
 244              	 .cfi_offset 14,-4
 576:D:/School/diseratie/SEMS/xmc4800_evaluation_kit/optiga-trust-m/examples\optiga_shell.c **** #ifndef OPTIGA_INIT_DEINIT_DONE_EXCLUSIVELY
 577:D:/School/diseratie/SEMS/xmc4800_evaluation_kit/optiga-trust-m/examples\optiga_shell.c ****     OPTIGA_SHELL_LOG_MESSAGE("Initializing OPTIGA for example demonstration...");
 245              	 .loc 1 577 0
 246 0002 0D4D     	 ldr r5,.L14
 247 0004 0D4C     	 ldr r4,.L14+4
 248 0006 0E48     	 ldr r0,.L14+8
 249 0008 2946     	 mov r1,r5
 250 000a 2246     	 mov r2,r4
 251 000c FFF7FEFF 	 bl optiga_lib_print_message
 252              	.LVL18:
 578:D:/School/diseratie/SEMS/xmc4800_evaluation_kit/optiga-trust-m/examples\optiga_shell.c **** #endif
 579:D:/School/diseratie/SEMS/xmc4800_evaluation_kit/optiga-trust-m/examples\optiga_shell.c ****     OPTIGA_SHELL_LOG_MESSAGE("Starting Encrypt Data in Session Object on chip with RSA Key Example"
 253              	 .loc 1 579 0
 254 0010 2946     	 mov r1,r5
 255 0012 2246     	 mov r2,r4
 256 0014 0B48     	 ldr r0,.L14+12
 257 0016 FFF7FEFF 	 bl optiga_lib_print_message
 258              	.LVL19:
 580:D:/School/diseratie/SEMS/xmc4800_evaluation_kit/optiga-trust-m/examples\optiga_shell.c ****     OPTIGA_SHELL_LOG_MESSAGE("1 Step: Encrypt a message with RSAES PKCS#1 Ver1.5 Scheme stored on c
 259              	 .loc 1 580 0
 260 001a 2946     	 mov r1,r5
 261 001c 2246     	 mov r2,r4
 262 001e 0A48     	 ldr r0,.L14+16
 263 0020 FFF7FEFF 	 bl optiga_lib_print_message
 264              	.LVL20:
 581:D:/School/diseratie/SEMS/xmc4800_evaluation_kit/optiga-trust-m/examples\optiga_shell.c **** #ifndef OPTIGA_INIT_DEINIT_DONE_EXCLUSIVELY
 582:D:/School/diseratie/SEMS/xmc4800_evaluation_kit/optiga-trust-m/examples\optiga_shell.c ****     OPTIGA_SHELL_LOG_MESSAGE("2 Step: Close the application on OPTIGA");
 265              	 .loc 1 582 0
 266 0024 2946     	 mov r1,r5
 267 0026 2246     	 mov r2,r4
 268 0028 0848     	 ldr r0,.L14+20
 269 002a FFF7FEFF 	 bl optiga_lib_print_message
 270              	.LVL21:
 583:D:/School/diseratie/SEMS/xmc4800_evaluation_kit/optiga-trust-m/examples\optiga_shell.c **** #endif
 584:D:/School/diseratie/SEMS/xmc4800_evaluation_kit/optiga-trust-m/examples\optiga_shell.c ****     example_optiga_crypt_rsa_encrypt_session();
 585:D:/School/diseratie/SEMS/xmc4800_evaluation_kit/optiga-trust-m/examples\optiga_shell.c **** }
 271              	 .loc 1 585 0
 272 002e BDE83840 	 pop {r3,r4,r5,lr}
 273              	.LCFI5:
 274              	 .cfi_restore 14
 275              	 .cfi_restore 5
 276              	 .cfi_restore 4
 277              	 .cfi_restore 3
 278              	 .cfi_def_cfa_offset 0
 584:D:/School/diseratie/SEMS/xmc4800_evaluation_kit/optiga-trust-m/examples\optiga_shell.c **** }
 279              	 .loc 1 584 0
 280 0032 FFF7FEBF 	 b example_optiga_crypt_rsa_encrypt_session
 281              	.LVL22:
 282              	.L15:
 283 0036 00BF     	 .align 2
 284              	.L14:
 285 0038 34000000 	 .word .LC1
 286 003c 48000000 	 .word .LC2
 287 0040 00000000 	 .word .LC0
 288 0044 EC020000 	 .word .LC14
 289 0048 34030000 	 .word .LC15
 290 004c 90030000 	 .word .LC16
 291              	 .cfi_endproc
 292              	.LFE473:
 294              	 .section .text.optiga_shell_crypt_rsa_encrypt_message,"ax",%progbits
 295              	 .align 2
 296              	 .thumb
 297              	 .thumb_func
 299              	optiga_shell_crypt_rsa_encrypt_message:
 300              	.LFB472:
 560:D:/School/diseratie/SEMS/xmc4800_evaluation_kit/optiga-trust-m/examples\optiga_shell.c **** #ifndef OPTIGA_INIT_DEINIT_DONE_EXCLUSIVELY
 301              	 .loc 1 560 0
 302              	 .cfi_startproc
 303              	 
 304              	 
 305 0000 38B5     	 push {r3,r4,r5,lr}
 306              	.LCFI6:
 307              	 .cfi_def_cfa_offset 16
 308              	 .cfi_offset 3,-16
 309              	 .cfi_offset 4,-12
 310              	 .cfi_offset 5,-8
 311              	 .cfi_offset 14,-4
 562:D:/School/diseratie/SEMS/xmc4800_evaluation_kit/optiga-trust-m/examples\optiga_shell.c **** #endif
 312              	 .loc 1 562 0
 313 0002 0D4D     	 ldr r5,.L18
 314 0004 0D4C     	 ldr r4,.L18+4
 315 0006 0E48     	 ldr r0,.L18+8
 316 0008 2946     	 mov r1,r5
 317 000a 2246     	 mov r2,r4
 318 000c FFF7FEFF 	 bl optiga_lib_print_message
 319              	.LVL23:
 564:D:/School/diseratie/SEMS/xmc4800_evaluation_kit/optiga-trust-m/examples\optiga_shell.c ****     OPTIGA_SHELL_LOG_MESSAGE("1 Step: Encrypt a message with RSAES PKCS#1 Ver1.5 Scheme");
 320              	 .loc 1 564 0
 321 0010 2946     	 mov r1,r5
 322 0012 2246     	 mov r2,r4
 323 0014 0B48     	 ldr r0,.L18+12
 324 0016 FFF7FEFF 	 bl optiga_lib_print_message
 325              	.LVL24:
 565:D:/School/diseratie/SEMS/xmc4800_evaluation_kit/optiga-trust-m/examples\optiga_shell.c **** #ifndef OPTIGA_INIT_DEINIT_DONE_EXCLUSIVELY
 326              	 .loc 1 565 0
 327 001a 2946     	 mov r1,r5
 328 001c 2246     	 mov r2,r4
 329 001e 0A48     	 ldr r0,.L18+16
 330 0020 FFF7FEFF 	 bl optiga_lib_print_message
 331              	.LVL25:
 567:D:/School/diseratie/SEMS/xmc4800_evaluation_kit/optiga-trust-m/examples\optiga_shell.c **** #endif
 332              	 .loc 1 567 0
 333 0024 2946     	 mov r1,r5
 334 0026 2246     	 mov r2,r4
 335 0028 0848     	 ldr r0,.L18+20
 336 002a FFF7FEFF 	 bl optiga_lib_print_message
 337              	.LVL26:
 570:D:/School/diseratie/SEMS/xmc4800_evaluation_kit/optiga-trust-m/examples\optiga_shell.c **** #endif
 338              	 .loc 1 570 0
 339 002e BDE83840 	 pop {r3,r4,r5,lr}
 340              	.LCFI7:
 341              	 .cfi_restore 14
 342              	 .cfi_restore 5
 343              	 .cfi_restore 4
 344              	 .cfi_restore 3
 345              	 .cfi_def_cfa_offset 0
 569:D:/School/diseratie/SEMS/xmc4800_evaluation_kit/optiga-trust-m/examples\optiga_shell.c **** }
 346              	 .loc 1 569 0
 347 0032 FFF7FEBF 	 b example_optiga_crypt_rsa_encrypt_message
 348              	.LVL27:
 349              	.L19:
 350 0036 00BF     	 .align 2
 351              	.L18:
 352 0038 34000000 	 .word .LC1
 353 003c 48000000 	 .word .LC2
 354 0040 00000000 	 .word .LC0
 355 0044 B8030000 	 .word .LC17
 356 0048 E4030000 	 .word .LC18
 357 004c 90030000 	 .word .LC16
 358              	 .cfi_endproc
 359              	.LFE472:
 361              	 .section .text.optiga_shell_crypt_rsa_verify,"ax",%progbits
 362              	 .align 2
 363              	 .thumb
 364              	 .thumb_func
 366              	optiga_shell_crypt_rsa_verify:
 367              	.LFB468:
 493:D:/School/diseratie/SEMS/xmc4800_evaluation_kit/optiga-trust-m/examples\optiga_shell.c **** #ifndef OPTIGA_INIT_DEINIT_DONE_EXCLUSIVELY
 368              	 .loc 1 493 0
 369              	 .cfi_startproc
 370              	 
 371              	 
 372 0000 38B5     	 push {r3,r4,r5,lr}
 373              	.LCFI8:
 374              	 .cfi_def_cfa_offset 16
 375              	 .cfi_offset 3,-16
 376              	 .cfi_offset 4,-12
 377              	 .cfi_offset 5,-8
 378              	 .cfi_offset 14,-4
 495:D:/School/diseratie/SEMS/xmc4800_evaluation_kit/optiga-trust-m/examples\optiga_shell.c **** #endif
 379              	 .loc 1 495 0
 380 0002 0D4D     	 ldr r5,.L22
 381 0004 0D4C     	 ldr r4,.L22+4
 382 0006 0E48     	 ldr r0,.L22+8
 383 0008 2946     	 mov r1,r5
 384 000a 2246     	 mov r2,r4
 385 000c FFF7FEFF 	 bl optiga_lib_print_message
 386              	.LVL28:
 497:D:/School/diseratie/SEMS/xmc4800_evaluation_kit/optiga-trust-m/examples\optiga_shell.c ****     OPTIGA_SHELL_LOG_MESSAGE("1 Step: Verify prepared signature, with prepared public key and diges
 387              	 .loc 1 497 0
 388 0010 2946     	 mov r1,r5
 389 0012 2246     	 mov r2,r4
 390 0014 0B48     	 ldr r0,.L22+12
 391 0016 FFF7FEFF 	 bl optiga_lib_print_message
 392              	.LVL29:
 498:D:/School/diseratie/SEMS/xmc4800_evaluation_kit/optiga-trust-m/examples\optiga_shell.c **** #ifndef OPTIGA_INIT_DEINIT_DONE_EXCLUSIVELY
 393              	 .loc 1 498 0
 394 001a 2946     	 mov r1,r5
 395 001c 2246     	 mov r2,r4
 396 001e 0A48     	 ldr r0,.L22+16
 397 0020 FFF7FEFF 	 bl optiga_lib_print_message
 398              	.LVL30:
 500:D:/School/diseratie/SEMS/xmc4800_evaluation_kit/optiga-trust-m/examples\optiga_shell.c **** #endif
 399              	 .loc 1 500 0
 400 0024 2946     	 mov r1,r5
 401 0026 2246     	 mov r2,r4
 402 0028 0848     	 ldr r0,.L22+20
 403 002a FFF7FEFF 	 bl optiga_lib_print_message
 404              	.LVL31:
 503:D:/School/diseratie/SEMS/xmc4800_evaluation_kit/optiga-trust-m/examples\optiga_shell.c **** #endif
 405              	 .loc 1 503 0
 406 002e BDE83840 	 pop {r3,r4,r5,lr}
 407              	.LCFI9:
 408              	 .cfi_restore 14
 409              	 .cfi_restore 5
 410              	 .cfi_restore 4
 411              	 .cfi_restore 3
 412              	 .cfi_def_cfa_offset 0
 502:D:/School/diseratie/SEMS/xmc4800_evaluation_kit/optiga-trust-m/examples\optiga_shell.c **** }
 413              	 .loc 1 502 0
 414 0032 FFF7FEBF 	 b example_optiga_crypt_rsa_verify
 415              	.LVL32:
 416              	.L23:
 417 0036 00BF     	 .align 2
 418              	.L22:
 419 0038 34000000 	 .word .LC1
 420 003c 48000000 	 .word .LC2
 421 0040 00000000 	 .word .LC0
 422 0044 20040000 	 .word .LC19
 423 0048 6C040000 	 .word .LC20
 424 004c 90030000 	 .word .LC16
 425              	 .cfi_endproc
 426              	.LFE468:
 428              	 .section .text.optiga_shell_crypt_rsa_sign,"ax",%progbits
 429              	 .align 2
 430              	 .thumb
 431              	 .thumb_func
 433              	optiga_shell_crypt_rsa_sign:
 434              	.LFB467:
 478:D:/School/diseratie/SEMS/xmc4800_evaluation_kit/optiga-trust-m/examples\optiga_shell.c **** #ifndef OPTIGA_INIT_DEINIT_DONE_EXCLUSIVELY
 435              	 .loc 1 478 0
 436              	 .cfi_startproc
 437              	 
 438              	 
 439 0000 38B5     	 push {r3,r4,r5,lr}
 440              	.LCFI10:
 441              	 .cfi_def_cfa_offset 16
 442              	 .cfi_offset 3,-16
 443              	 .cfi_offset 4,-12
 444              	 .cfi_offset 5,-8
 445              	 .cfi_offset 14,-4
 480:D:/School/diseratie/SEMS/xmc4800_evaluation_kit/optiga-trust-m/examples\optiga_shell.c **** #endif
 446              	 .loc 1 480 0
 447 0002 0D4D     	 ldr r5,.L26
 448 0004 0D4C     	 ldr r4,.L26+4
 449 0006 0E48     	 ldr r0,.L26+8
 450 0008 2946     	 mov r1,r5
 451 000a 2246     	 mov r2,r4
 452 000c FFF7FEFF 	 bl optiga_lib_print_message
 453              	.LVL33:
 482:D:/School/diseratie/SEMS/xmc4800_evaluation_kit/optiga-trust-m/examples\optiga_shell.c ****     OPTIGA_SHELL_LOG_MESSAGE("1 Step: Sign prepared Data and export the signature");
 454              	 .loc 1 482 0
 455 0010 2946     	 mov r1,r5
 456 0012 2246     	 mov r2,r4
 457 0014 0B48     	 ldr r0,.L26+12
 458 0016 FFF7FEFF 	 bl optiga_lib_print_message
 459              	.LVL34:
 483:D:/School/diseratie/SEMS/xmc4800_evaluation_kit/optiga-trust-m/examples\optiga_shell.c **** #ifndef OPTIGA_INIT_DEINIT_DONE_EXCLUSIVELY
 460              	 .loc 1 483 0
 461 001a 2946     	 mov r1,r5
 462 001c 2246     	 mov r2,r4
 463 001e 0A48     	 ldr r0,.L26+16
 464 0020 FFF7FEFF 	 bl optiga_lib_print_message
 465              	.LVL35:
 485:D:/School/diseratie/SEMS/xmc4800_evaluation_kit/optiga-trust-m/examples\optiga_shell.c **** #endif
 466              	 .loc 1 485 0
 467 0024 2946     	 mov r1,r5
 468 0026 2246     	 mov r2,r4
 469 0028 0848     	 ldr r0,.L26+20
 470 002a FFF7FEFF 	 bl optiga_lib_print_message
 471              	.LVL36:
 488:D:/School/diseratie/SEMS/xmc4800_evaluation_kit/optiga-trust-m/examples\optiga_shell.c **** #endif
 472              	 .loc 1 488 0
 473 002e BDE83840 	 pop {r3,r4,r5,lr}
 474              	.LCFI11:
 475              	 .cfi_restore 14
 476              	 .cfi_restore 5
 477              	 .cfi_restore 4
 478              	 .cfi_restore 3
 479              	 .cfi_def_cfa_offset 0
 487:D:/School/diseratie/SEMS/xmc4800_evaluation_kit/optiga-trust-m/examples\optiga_shell.c **** }
 480              	 .loc 1 487 0
 481 0032 FFF7FEBF 	 b example_optiga_crypt_rsa_sign
 482              	.LVL37:
 483              	.L27:
 484 0036 00BF     	 .align 2
 485              	.L26:
 486 0038 34000000 	 .word .LC1
 487 003c 48000000 	 .word .LC2
 488 0040 00000000 	 .word .LC0
 489 0044 20040000 	 .word .LC19
 490 0048 B4040000 	 .word .LC21
 491 004c 90030000 	 .word .LC16
 492              	 .cfi_endproc
 493              	.LFE467:
 495              	 .section .text.optiga_shell_crypt_rsa_generate_keypair,"ax",%progbits
 496              	 .align 2
 497              	 .thumb
 498              	 .thumb_func
 500              	optiga_shell_crypt_rsa_generate_keypair:
 501              	.LFB469:
 508:D:/School/diseratie/SEMS/xmc4800_evaluation_kit/optiga-trust-m/examples\optiga_shell.c **** #ifndef OPTIGA_INIT_DEINIT_DONE_EXCLUSIVELY
 502              	 .loc 1 508 0
 503              	 .cfi_startproc
 504              	 
 505              	 
 506 0000 38B5     	 push {r3,r4,r5,lr}
 507              	.LCFI12:
 508              	 .cfi_def_cfa_offset 16
 509              	 .cfi_offset 3,-16
 510              	 .cfi_offset 4,-12
 511              	 .cfi_offset 5,-8
 512              	 .cfi_offset 14,-4
 510:D:/School/diseratie/SEMS/xmc4800_evaluation_kit/optiga-trust-m/examples\optiga_shell.c **** #endif
 513              	 .loc 1 510 0
 514 0002 0D4D     	 ldr r5,.L30
 515 0004 0D4C     	 ldr r4,.L30+4
 516 0006 0E48     	 ldr r0,.L30+8
 517 0008 2946     	 mov r1,r5
 518 000a 2246     	 mov r2,r4
 519 000c FFF7FEFF 	 bl optiga_lib_print_message
 520              	.LVL38:
 512:D:/School/diseratie/SEMS/xmc4800_evaluation_kit/optiga-trust-m/examples\optiga_shell.c ****     OPTIGA_SHELL_LOG_MESSAGE("1 Step: Generate RSA 1024 Key Pair and export the public key");
 521              	 .loc 1 512 0
 522 0010 2946     	 mov r1,r5
 523 0012 2246     	 mov r2,r4
 524 0014 0B48     	 ldr r0,.L30+12
 525 0016 FFF7FEFF 	 bl optiga_lib_print_message
 526              	.LVL39:
 513:D:/School/diseratie/SEMS/xmc4800_evaluation_kit/optiga-trust-m/examples\optiga_shell.c **** #ifndef OPTIGA_INIT_DEINIT_DONE_EXCLUSIVELY
 527              	 .loc 1 513 0
 528 001a 2946     	 mov r1,r5
 529 001c 2246     	 mov r2,r4
 530 001e 0A48     	 ldr r0,.L30+16
 531 0020 FFF7FEFF 	 bl optiga_lib_print_message
 532              	.LVL40:
 515:D:/School/diseratie/SEMS/xmc4800_evaluation_kit/optiga-trust-m/examples\optiga_shell.c **** #endif
 533              	 .loc 1 515 0
 534 0024 2946     	 mov r1,r5
 535 0026 2246     	 mov r2,r4
 536 0028 0848     	 ldr r0,.L30+20
 537 002a FFF7FEFF 	 bl optiga_lib_print_message
 538              	.LVL41:
 518:D:/School/diseratie/SEMS/xmc4800_evaluation_kit/optiga-trust-m/examples\optiga_shell.c **** #endif
 539              	 .loc 1 518 0
 540 002e BDE83840 	 pop {r3,r4,r5,lr}
 541              	.LCFI13:
 542              	 .cfi_restore 14
 543              	 .cfi_restore 5
 544              	 .cfi_restore 4
 545              	 .cfi_restore 3
 546              	 .cfi_def_cfa_offset 0
 517:D:/School/diseratie/SEMS/xmc4800_evaluation_kit/optiga-trust-m/examples\optiga_shell.c **** }
 547              	 .loc 1 517 0
 548 0032 FFF7FEBF 	 b example_optiga_crypt_rsa_generate_keypair
 549              	.LVL42:
 550              	.L31:
 551 0036 00BF     	 .align 2
 552              	.L30:
 553 0038 34000000 	 .word .LC1
 554 003c 48000000 	 .word .LC2
 555 0040 00000000 	 .word .LC0
 556 0044 E8040000 	 .word .LC22
 557 0048 88000000 	 .word .LC4
 558 004c 90030000 	 .word .LC16
 559              	 .cfi_endproc
 560              	.LFE469:
 562              	 .section .text.optiga_shell_crypt_ecdh,"ax",%progbits
 563              	 .align 2
 564              	 .thumb
 565              	 .thumb_func
 567              	optiga_shell_crypt_ecdh:
 568              	.LFB464:
 430:D:/School/diseratie/SEMS/xmc4800_evaluation_kit/optiga-trust-m/examples\optiga_shell.c **** #ifndef OPTIGA_INIT_DEINIT_DONE_EXCLUSIVELY
 569              	 .loc 1 430 0
 570              	 .cfi_startproc
 571              	 
 572              	 
 573 0000 38B5     	 push {r3,r4,r5,lr}
 574              	.LCFI14:
 575              	 .cfi_def_cfa_offset 16
 576              	 .cfi_offset 3,-16
 577              	 .cfi_offset 4,-12
 578              	 .cfi_offset 5,-8
 579              	 .cfi_offset 14,-4
 432:D:/School/diseratie/SEMS/xmc4800_evaluation_kit/optiga-trust-m/examples\optiga_shell.c **** #endif
 580              	 .loc 1 432 0
 581 0002 144D     	 ldr r5,.L34
 582 0004 144C     	 ldr r4,.L34+4
 583 0006 1548     	 ldr r0,.L34+8
 584 0008 2946     	 mov r1,r5
 585 000a 2246     	 mov r2,r4
 586 000c FFF7FEFF 	 bl optiga_lib_print_message
 587              	.LVL43:
 434:D:/School/diseratie/SEMS/xmc4800_evaluation_kit/optiga-trust-m/examples\optiga_shell.c ****     OPTIGA_SHELL_LOG_MESSAGE("1 Step: Select Protected I2C Connection");
 588              	 .loc 1 434 0
 589 0010 2946     	 mov r1,r5
 590 0012 2246     	 mov r2,r4
 591 0014 1248     	 ldr r0,.L34+12
 592 0016 FFF7FEFF 	 bl optiga_lib_print_message
 593              	.LVL44:
 435:D:/School/diseratie/SEMS/xmc4800_evaluation_kit/optiga-trust-m/examples\optiga_shell.c ****     OPTIGA_SHELL_LOG_MESSAGE("2 Step: Generate new ECC NIST P-256 Key Pair");
 594              	 .loc 1 435 0
 595 001a 2946     	 mov r1,r5
 596 001c 2246     	 mov r2,r4
 597 001e 1148     	 ldr r0,.L34+16
 598 0020 FFF7FEFF 	 bl optiga_lib_print_message
 599              	.LVL45:
 436:D:/School/diseratie/SEMS/xmc4800_evaluation_kit/optiga-trust-m/examples\optiga_shell.c ****     OPTIGA_SHELL_LOG_MESSAGE("3 Step: Select Protected I2C Connection");
 600              	 .loc 1 436 0
 601 0024 2946     	 mov r1,r5
 602 0026 2246     	 mov r2,r4
 603 0028 0F48     	 ldr r0,.L34+20
 604 002a FFF7FEFF 	 bl optiga_lib_print_message
 605              	.LVL46:
 437:D:/School/diseratie/SEMS/xmc4800_evaluation_kit/optiga-trust-m/examples\optiga_shell.c ****     OPTIGA_SHELL_LOG_MESSAGE("4 Step: Generate Shared Secret and export it");
 606              	 .loc 1 437 0
 607 002e 2946     	 mov r1,r5
 608 0030 2246     	 mov r2,r4
 609 0032 0E48     	 ldr r0,.L34+24
 610 0034 FFF7FEFF 	 bl optiga_lib_print_message
 611              	.LVL47:
 438:D:/School/diseratie/SEMS/xmc4800_evaluation_kit/optiga-trust-m/examples\optiga_shell.c **** #ifndef OPTIGA_INIT_DEINIT_DONE_EXCLUSIVELY
 612              	 .loc 1 438 0
 613 0038 2946     	 mov r1,r5
 614 003a 2246     	 mov r2,r4
 615 003c 0C48     	 ldr r0,.L34+28
 616 003e FFF7FEFF 	 bl optiga_lib_print_message
 617              	.LVL48:
 440:D:/School/diseratie/SEMS/xmc4800_evaluation_kit/optiga-trust-m/examples\optiga_shell.c **** #endif
 618              	 .loc 1 440 0
 619 0042 2946     	 mov r1,r5
 620 0044 2246     	 mov r2,r4
 621 0046 0B48     	 ldr r0,.L34+32
 622 0048 FFF7FEFF 	 bl optiga_lib_print_message
 623              	.LVL49:
 443:D:/School/diseratie/SEMS/xmc4800_evaluation_kit/optiga-trust-m/examples\optiga_shell.c **** #endif
 624              	 .loc 1 443 0
 625 004c BDE83840 	 pop {r3,r4,r5,lr}
 626              	.LCFI15:
 627              	 .cfi_restore 14
 628              	 .cfi_restore 5
 629              	 .cfi_restore 4
 630              	 .cfi_restore 3
 631              	 .cfi_def_cfa_offset 0
 442:D:/School/diseratie/SEMS/xmc4800_evaluation_kit/optiga-trust-m/examples\optiga_shell.c **** }
 632              	 .loc 1 442 0
 633 0050 FFF7FEBF 	 b example_optiga_crypt_ecdh
 634              	.LVL50:
 635              	.L35:
 636              	 .align 2
 637              	.L34:
 638 0054 34000000 	 .word .LC1
 639 0058 48000000 	 .word .LC2
 640 005c 00000000 	 .word .LC0
 641 0060 0C050000 	 .word .LC23
 642 0064 5C050000 	 .word .LC24
 643 0068 84050000 	 .word .LC25
 644 006c 04010000 	 .word .LC6
 645 0070 B4050000 	 .word .LC26
 646 0074 78010000 	 .word .LC8
 647              	 .cfi_endproc
 648              	.LFE464:
 650              	 .section .text.optiga_shell_crypt_ecdsa_verify,"ax",%progbits
 651              	 .align 2
 652              	 .thumb
 653              	 .thumb_func
 655              	optiga_shell_crypt_ecdsa_verify:
 656              	.LFB466:
 463:D:/School/diseratie/SEMS/xmc4800_evaluation_kit/optiga-trust-m/examples\optiga_shell.c **** #ifndef OPTIGA_INIT_DEINIT_DONE_EXCLUSIVELY
 657              	 .loc 1 463 0
 658              	 .cfi_startproc
 659              	 
 660              	 
 661 0000 38B5     	 push {r3,r4,r5,lr}
 662              	.LCFI16:
 663              	 .cfi_def_cfa_offset 16
 664              	 .cfi_offset 3,-16
 665              	 .cfi_offset 4,-12
 666              	 .cfi_offset 5,-8
 667              	 .cfi_offset 14,-4
 465:D:/School/diseratie/SEMS/xmc4800_evaluation_kit/optiga-trust-m/examples\optiga_shell.c **** #endif
 668              	 .loc 1 465 0
 669 0002 0D4D     	 ldr r5,.L38
 670 0004 0D4C     	 ldr r4,.L38+4
 671 0006 0E48     	 ldr r0,.L38+8
 672 0008 2946     	 mov r1,r5
 673 000a 2246     	 mov r2,r4
 674 000c FFF7FEFF 	 bl optiga_lib_print_message
 675              	.LVL51:
 467:D:/School/diseratie/SEMS/xmc4800_evaluation_kit/optiga-trust-m/examples\optiga_shell.c ****     OPTIGA_SHELL_LOG_MESSAGE("1 Step: Verify prepared signature, with prepared public key and diges
 676              	 .loc 1 467 0
 677 0010 2946     	 mov r1,r5
 678 0012 2246     	 mov r2,r4
 679 0014 0B48     	 ldr r0,.L38+12
 680 0016 FFF7FEFF 	 bl optiga_lib_print_message
 681              	.LVL52:
 468:D:/School/diseratie/SEMS/xmc4800_evaluation_kit/optiga-trust-m/examples\optiga_shell.c **** #ifndef OPTIGA_INIT_DEINIT_DONE_EXCLUSIVELY
 682              	 .loc 1 468 0
 683 001a 2946     	 mov r1,r5
 684 001c 2246     	 mov r2,r4
 685 001e 0A48     	 ldr r0,.L38+16
 686 0020 FFF7FEFF 	 bl optiga_lib_print_message
 687              	.LVL53:
 470:D:/School/diseratie/SEMS/xmc4800_evaluation_kit/optiga-trust-m/examples\optiga_shell.c **** #endif
 688              	 .loc 1 470 0
 689 0024 2946     	 mov r1,r5
 690 0026 2246     	 mov r2,r4
 691 0028 0848     	 ldr r0,.L38+20
 692 002a FFF7FEFF 	 bl optiga_lib_print_message
 693              	.LVL54:
 473:D:/School/diseratie/SEMS/xmc4800_evaluation_kit/optiga-trust-m/examples\optiga_shell.c **** #endif
 694              	 .loc 1 473 0
 695 002e BDE83840 	 pop {r3,r4,r5,lr}
 696              	.LCFI17:
 697              	 .cfi_restore 14
 698              	 .cfi_restore 5
 699              	 .cfi_restore 4
 700              	 .cfi_restore 3
 701              	 .cfi_def_cfa_offset 0
 472:D:/School/diseratie/SEMS/xmc4800_evaluation_kit/optiga-trust-m/examples\optiga_shell.c **** }
 702              	 .loc 1 472 0
 703 0032 FFF7FEBF 	 b example_optiga_crypt_ecdsa_verify
 704              	.LVL55:
 705              	.L39:
 706 0036 00BF     	 .align 2
 707              	.L38:
 708 0038 34000000 	 .word .LC1
 709 003c 48000000 	 .word .LC2
 710 0040 00000000 	 .word .LC0
 711 0044 E4050000 	 .word .LC27
 712 0048 6C040000 	 .word .LC20
 713 004c 90030000 	 .word .LC16
 714              	 .cfi_endproc
 715              	.LFE466:
 717              	 .section .text.optiga_shell_crypt_ecdsa_sign,"ax",%progbits
 718              	 .align 2
 719              	 .thumb
 720              	 .thumb_func
 722              	optiga_shell_crypt_ecdsa_sign:
 723              	.LFB465:
 448:D:/School/diseratie/SEMS/xmc4800_evaluation_kit/optiga-trust-m/examples\optiga_shell.c **** #ifndef OPTIGA_INIT_DEINIT_DONE_EXCLUSIVELY
 724              	 .loc 1 448 0
 725              	 .cfi_startproc
 726              	 
 727              	 
 728 0000 38B5     	 push {r3,r4,r5,lr}
 729              	.LCFI18:
 730              	 .cfi_def_cfa_offset 16
 731              	 .cfi_offset 3,-16
 732              	 .cfi_offset 4,-12
 733              	 .cfi_offset 5,-8
 734              	 .cfi_offset 14,-4
 450:D:/School/diseratie/SEMS/xmc4800_evaluation_kit/optiga-trust-m/examples\optiga_shell.c **** #endif
 735              	 .loc 1 450 0
 736 0002 0D4D     	 ldr r5,.L42
 737 0004 0D4C     	 ldr r4,.L42+4
 738 0006 0E48     	 ldr r0,.L42+8
 739 0008 2946     	 mov r1,r5
 740 000a 2246     	 mov r2,r4
 741 000c FFF7FEFF 	 bl optiga_lib_print_message
 742              	.LVL56:
 452:D:/School/diseratie/SEMS/xmc4800_evaluation_kit/optiga-trust-m/examples\optiga_shell.c ****     OPTIGA_SHELL_LOG_MESSAGE("1 Step: Sign prepared Data and export the signature");
 743              	 .loc 1 452 0
 744 0010 2946     	 mov r1,r5
 745 0012 2246     	 mov r2,r4
 746 0014 0B48     	 ldr r0,.L42+12
 747 0016 FFF7FEFF 	 bl optiga_lib_print_message
 748              	.LVL57:
 453:D:/School/diseratie/SEMS/xmc4800_evaluation_kit/optiga-trust-m/examples\optiga_shell.c **** #ifndef OPTIGA_INIT_DEINIT_DONE_EXCLUSIVELY
 749              	 .loc 1 453 0
 750 001a 2946     	 mov r1,r5
 751 001c 2246     	 mov r2,r4
 752 001e 0A48     	 ldr r0,.L42+16
 753 0020 FFF7FEFF 	 bl optiga_lib_print_message
 754              	.LVL58:
 455:D:/School/diseratie/SEMS/xmc4800_evaluation_kit/optiga-trust-m/examples\optiga_shell.c **** #endif
 755              	 .loc 1 455 0
 756 0024 2946     	 mov r1,r5
 757 0026 2246     	 mov r2,r4
 758 0028 0848     	 ldr r0,.L42+20
 759 002a FFF7FEFF 	 bl optiga_lib_print_message
 760              	.LVL59:
 458:D:/School/diseratie/SEMS/xmc4800_evaluation_kit/optiga-trust-m/examples\optiga_shell.c **** #endif
 761              	 .loc 1 458 0
 762 002e BDE83840 	 pop {r3,r4,r5,lr}
 763              	.LCFI19:
 764              	 .cfi_restore 14
 765              	 .cfi_restore 5
 766              	 .cfi_restore 4
 767              	 .cfi_restore 3
 768              	 .cfi_def_cfa_offset 0
 457:D:/School/diseratie/SEMS/xmc4800_evaluation_kit/optiga-trust-m/examples\optiga_shell.c **** }
 769              	 .loc 1 457 0
 770 0032 FFF7FEBF 	 b example_optiga_crypt_ecdsa_sign
 771              	.LVL60:
 772              	.L43:
 773 0036 00BF     	 .align 2
 774              	.L42:
 775 0038 34000000 	 .word .LC1
 776 003c 48000000 	 .word .LC2
 777 0040 00000000 	 .word .LC0
 778 0044 3C060000 	 .word .LC28
 779 0048 B4040000 	 .word .LC21
 780 004c 90030000 	 .word .LC16
 781              	 .cfi_endproc
 782              	.LFE465:
 784              	 .section .text.optiga_shell_crypt_ecc_generate_keypair,"ax",%progbits
 785              	 .align 2
 786              	 .thumb
 787              	 .thumb_func
 789              	optiga_shell_crypt_ecc_generate_keypair:
 790              	.LFB463:
 415:D:/School/diseratie/SEMS/xmc4800_evaluation_kit/optiga-trust-m/examples\optiga_shell.c **** #ifndef OPTIGA_INIT_DEINIT_DONE_EXCLUSIVELY
 791              	 .loc 1 415 0
 792              	 .cfi_startproc
 793              	 
 794              	 
 795 0000 38B5     	 push {r3,r4,r5,lr}
 796              	.LCFI20:
 797              	 .cfi_def_cfa_offset 16
 798              	 .cfi_offset 3,-16
 799              	 .cfi_offset 4,-12
 800              	 .cfi_offset 5,-8
 801              	 .cfi_offset 14,-4
 417:D:/School/diseratie/SEMS/xmc4800_evaluation_kit/optiga-trust-m/examples\optiga_shell.c **** #endif
 802              	 .loc 1 417 0
 803 0002 0D4D     	 ldr r5,.L46
 804 0004 0D4C     	 ldr r4,.L46+4
 805 0006 0E48     	 ldr r0,.L46+8
 806 0008 2946     	 mov r1,r5
 807 000a 2246     	 mov r2,r4
 808 000c FFF7FEFF 	 bl optiga_lib_print_message
 809              	.LVL61:
 419:D:/School/diseratie/SEMS/xmc4800_evaluation_kit/optiga-trust-m/examples\optiga_shell.c ****     OPTIGA_SHELL_LOG_MESSAGE("1 Step: Generate ECC NIST P-256 Key Pair and export the public key");
 810              	 .loc 1 419 0
 811 0010 2946     	 mov r1,r5
 812 0012 2246     	 mov r2,r4
 813 0014 0B48     	 ldr r0,.L46+12
 814 0016 FFF7FEFF 	 bl optiga_lib_print_message
 815              	.LVL62:
 420:D:/School/diseratie/SEMS/xmc4800_evaluation_kit/optiga-trust-m/examples\optiga_shell.c **** #ifndef OPTIGA_INIT_DEINIT_DONE_EXCLUSIVELY
 816              	 .loc 1 420 0
 817 001a 2946     	 mov r1,r5
 818 001c 2246     	 mov r2,r4
 819 001e 0A48     	 ldr r0,.L46+16
 820 0020 FFF7FEFF 	 bl optiga_lib_print_message
 821              	.LVL63:
 422:D:/School/diseratie/SEMS/xmc4800_evaluation_kit/optiga-trust-m/examples\optiga_shell.c **** #endif
 822              	 .loc 1 422 0
 823 0024 2946     	 mov r1,r5
 824 0026 2246     	 mov r2,r4
 825 0028 0848     	 ldr r0,.L46+20
 826 002a FFF7FEFF 	 bl optiga_lib_print_message
 827              	.LVL64:
 425:D:/School/diseratie/SEMS/xmc4800_evaluation_kit/optiga-trust-m/examples\optiga_shell.c **** #endif
 828              	 .loc 1 425 0
 829 002e BDE83840 	 pop {r3,r4,r5,lr}
 830              	.LCFI21:
 831              	 .cfi_restore 14
 832              	 .cfi_restore 5
 833              	 .cfi_restore 4
 834              	 .cfi_restore 3
 835              	 .cfi_def_cfa_offset 0
 424:D:/School/diseratie/SEMS/xmc4800_evaluation_kit/optiga-trust-m/examples\optiga_shell.c **** }
 836              	 .loc 1 424 0
 837 0032 FFF7FEBF 	 b example_optiga_crypt_ecc_generate_keypair
 838              	.LVL65:
 839              	.L47:
 840 0036 00BF     	 .align 2
 841              	.L46:
 842 0038 34000000 	 .word .LC1
 843 003c 48000000 	 .word .LC2
 844 0040 00000000 	 .word .LC0
 845 0044 8C060000 	 .word .LC29
 846 0048 B0060000 	 .word .LC30
 847 004c 90030000 	 .word .LC16
 848              	 .cfi_endproc
 849              	.LFE463:
 851              	 .section .text.optiga_shell_crypt_random,"ax",%progbits
 852              	 .align 2
 853              	 .thumb
 854              	 .thumb_func
 856              	optiga_shell_crypt_random:
 857              	.LFB462:
 400:D:/School/diseratie/SEMS/xmc4800_evaluation_kit/optiga-trust-m/examples\optiga_shell.c **** #ifndef OPTIGA_INIT_DEINIT_DONE_EXCLUSIVELY
 858              	 .loc 1 400 0
 859              	 .cfi_startproc
 860              	 
 861              	 
 862 0000 38B5     	 push {r3,r4,r5,lr}
 863              	.LCFI22:
 864              	 .cfi_def_cfa_offset 16
 865              	 .cfi_offset 3,-16
 866              	 .cfi_offset 4,-12
 867              	 .cfi_offset 5,-8
 868              	 .cfi_offset 14,-4
 402:D:/School/diseratie/SEMS/xmc4800_evaluation_kit/optiga-trust-m/examples\optiga_shell.c **** #endif
 869              	 .loc 1 402 0
 870 0002 0D4D     	 ldr r5,.L50
 871 0004 0D4C     	 ldr r4,.L50+4
 872 0006 0E48     	 ldr r0,.L50+8
 873 0008 2946     	 mov r1,r5
 874 000a 2246     	 mov r2,r4
 875 000c FFF7FEFF 	 bl optiga_lib_print_message
 876              	.LVL66:
 404:D:/School/diseratie/SEMS/xmc4800_evaluation_kit/optiga-trust-m/examples\optiga_shell.c ****     OPTIGA_SHELL_LOG_MESSAGE("1 Step: Generate 32 bytes random");
 877              	 .loc 1 404 0
 878 0010 2946     	 mov r1,r5
 879 0012 2246     	 mov r2,r4
 880 0014 0B48     	 ldr r0,.L50+12
 881 0016 FFF7FEFF 	 bl optiga_lib_print_message
 882              	.LVL67:
 405:D:/School/diseratie/SEMS/xmc4800_evaluation_kit/optiga-trust-m/examples\optiga_shell.c **** #ifndef OPTIGA_INIT_DEINIT_DONE_EXCLUSIVELY
 883              	 .loc 1 405 0
 884 001a 2946     	 mov r1,r5
 885 001c 2246     	 mov r2,r4
 886 001e 0A48     	 ldr r0,.L50+16
 887 0020 FFF7FEFF 	 bl optiga_lib_print_message
 888              	.LVL68:
 407:D:/School/diseratie/SEMS/xmc4800_evaluation_kit/optiga-trust-m/examples\optiga_shell.c **** #endif
 889              	 .loc 1 407 0
 890 0024 2946     	 mov r1,r5
 891 0026 2246     	 mov r2,r4
 892 0028 0848     	 ldr r0,.L50+20
 893 002a FFF7FEFF 	 bl optiga_lib_print_message
 894              	.LVL69:
 410:D:/School/diseratie/SEMS/xmc4800_evaluation_kit/optiga-trust-m/examples\optiga_shell.c **** #endif
 895              	 .loc 1 410 0
 896 002e BDE83840 	 pop {r3,r4,r5,lr}
 897              	.LCFI23:
 898              	 .cfi_restore 14
 899              	 .cfi_restore 5
 900              	 .cfi_restore 4
 901              	 .cfi_restore 3
 902              	 .cfi_def_cfa_offset 0
 409:D:/School/diseratie/SEMS/xmc4800_evaluation_kit/optiga-trust-m/examples\optiga_shell.c **** }
 903              	 .loc 1 409 0
 904 0032 FFF7FEBF 	 b example_optiga_crypt_random
 905              	.LVL70:
 906              	.L51:
 907 0036 00BF     	 .align 2
 908              	.L50:
 909 0038 34000000 	 .word .LC1
 910 003c 48000000 	 .word .LC2
 911 0040 00000000 	 .word .LC0
 912 0044 F4060000 	 .word .LC31
 913 0048 18070000 	 .word .LC32
 914 004c 90030000 	 .word .LC16
 915              	 .cfi_endproc
 916              	.LFE462:
 918              	 .section .text.optiga_shell_crypt_tls_prf_sha256,"ax",%progbits
 919              	 .align 2
 920              	 .thumb
 921              	 .thumb_func
 923              	optiga_shell_crypt_tls_prf_sha256:
 924              	.LFB461:
 382:D:/School/diseratie/SEMS/xmc4800_evaluation_kit/optiga-trust-m/examples\optiga_shell.c **** #ifndef OPTIGA_INIT_DEINIT_DONE_EXCLUSIVELY
 925              	 .loc 1 382 0
 926              	 .cfi_startproc
 927              	 
 928              	 
 929 0000 38B5     	 push {r3,r4,r5,lr}
 930              	.LCFI24:
 931              	 .cfi_def_cfa_offset 16
 932              	 .cfi_offset 3,-16
 933              	 .cfi_offset 4,-12
 934              	 .cfi_offset 5,-8
 935              	 .cfi_offset 14,-4
 384:D:/School/diseratie/SEMS/xmc4800_evaluation_kit/optiga-trust-m/examples\optiga_shell.c **** #endif
 936              	 .loc 1 384 0
 937 0002 144D     	 ldr r5,.L54
 938 0004 144C     	 ldr r4,.L54+4
 939 0006 1548     	 ldr r0,.L54+8
 940 0008 2946     	 mov r1,r5
 941 000a 2246     	 mov r2,r4
 942 000c FFF7FEFF 	 bl optiga_lib_print_message
 943              	.LVL71:
 386:D:/School/diseratie/SEMS/xmc4800_evaluation_kit/optiga-trust-m/examples\optiga_shell.c ****     OPTIGA_SHELL_LOG_MESSAGE("1 Step: Write prepared Shared Secret into an Arbitrary Data Object");
 944              	 .loc 1 386 0
 945 0010 2946     	 mov r1,r5
 946 0012 2246     	 mov r2,r4
 947 0014 1248     	 ldr r0,.L54+12
 948 0016 FFF7FEFF 	 bl optiga_lib_print_message
 949              	.LVL72:
 387:D:/School/diseratie/SEMS/xmc4800_evaluation_kit/optiga-trust-m/examples\optiga_shell.c ****     OPTIGA_SHELL_LOG_MESSAGE("2 Step: Update Metadata of the Object to use the Arbitrary Data Objec
 950              	 .loc 1 387 0
 951 001a 2946     	 mov r1,r5
 952 001c 2246     	 mov r2,r4
 953 001e 1148     	 ldr r0,.L54+16
 954 0020 FFF7FEFF 	 bl optiga_lib_print_message
 955              	.LVL73:
 388:D:/School/diseratie/SEMS/xmc4800_evaluation_kit/optiga-trust-m/examples\optiga_shell.c ****     OPTIGA_SHELL_LOG_MESSAGE("3 Step: Generate Shared Secret using the Shared Secret from the Arbit
 956              	 .loc 1 388 0
 957 0024 2946     	 mov r1,r5
 958 0026 2246     	 mov r2,r4
 959 0028 0F48     	 ldr r0,.L54+20
 960 002a FFF7FEFF 	 bl optiga_lib_print_message
 961              	.LVL74:
 389:D:/School/diseratie/SEMS/xmc4800_evaluation_kit/optiga-trust-m/examples\optiga_shell.c ****     OPTIGA_SHELL_LOG_MESSAGE("4 Step: Restore Metadata of the Arbitrary Data Object");
 962              	 .loc 1 389 0
 963 002e 2946     	 mov r1,r5
 964 0030 2246     	 mov r2,r4
 965 0032 0E48     	 ldr r0,.L54+24
 966 0034 FFF7FEFF 	 bl optiga_lib_print_message
 967              	.LVL75:
 390:D:/School/diseratie/SEMS/xmc4800_evaluation_kit/optiga-trust-m/examples\optiga_shell.c **** #ifndef OPTIGA_INIT_DEINIT_DONE_EXCLUSIVELY
 968              	 .loc 1 390 0
 969 0038 2946     	 mov r1,r5
 970 003a 2246     	 mov r2,r4
 971 003c 0C48     	 ldr r0,.L54+28
 972 003e FFF7FEFF 	 bl optiga_lib_print_message
 973              	.LVL76:
 392:D:/School/diseratie/SEMS/xmc4800_evaluation_kit/optiga-trust-m/examples\optiga_shell.c **** #endif
 974              	 .loc 1 392 0
 975 0042 2946     	 mov r1,r5
 976 0044 2246     	 mov r2,r4
 977 0046 0B48     	 ldr r0,.L54+32
 978 0048 FFF7FEFF 	 bl optiga_lib_print_message
 979              	.LVL77:
 395:D:/School/diseratie/SEMS/xmc4800_evaluation_kit/optiga-trust-m/examples\optiga_shell.c **** #endif
 980              	 .loc 1 395 0
 981 004c BDE83840 	 pop {r3,r4,r5,lr}
 982              	.LCFI25:
 983              	 .cfi_restore 14
 984              	 .cfi_restore 5
 985              	 .cfi_restore 4
 986              	 .cfi_restore 3
 987              	 .cfi_def_cfa_offset 0
 394:D:/School/diseratie/SEMS/xmc4800_evaluation_kit/optiga-trust-m/examples\optiga_shell.c **** }
 988              	 .loc 1 394 0
 989 0050 FFF7FEBF 	 b example_optiga_crypt_tls_prf_sha256
 990              	.LVL78:
 991              	.L55:
 992              	 .align 2
 993              	.L54:
 994 0054 34000000 	 .word .LC1
 995 0058 48000000 	 .word .LC2
 996 005c 00000000 	 .word .LC0
 997 0060 3C070000 	 .word .LC33
 998 0064 70070000 	 .word .LC34
 999 0068 B4070000 	 .word .LC35
 1000 006c 1C080000 	 .word .LC36
 1001 0070 74080000 	 .word .LC37
 1002 0074 78010000 	 .word .LC8
 1003              	 .cfi_endproc
 1004              	.LFE461:
 1006              	 .section .text.optiga_shell_crypt_hash_data,"ax",%progbits
 1007              	 .align 2
 1008              	 .thumb
 1009              	 .thumb_func
 1011              	optiga_shell_crypt_hash_data:
 1012              	.LFB460:
 367:D:/School/diseratie/SEMS/xmc4800_evaluation_kit/optiga-trust-m/examples\optiga_shell.c **** #ifndef OPTIGA_INIT_DEINIT_DONE_EXCLUSIVELY
 1013              	 .loc 1 367 0
 1014              	 .cfi_startproc
 1015              	 
 1016              	 
 1017 0000 38B5     	 push {r3,r4,r5,lr}
 1018              	.LCFI26:
 1019              	 .cfi_def_cfa_offset 16
 1020              	 .cfi_offset 3,-16
 1021              	 .cfi_offset 4,-12
 1022              	 .cfi_offset 5,-8
 1023              	 .cfi_offset 14,-4
 369:D:/School/diseratie/SEMS/xmc4800_evaluation_kit/optiga-trust-m/examples\optiga_shell.c **** #endif
 1024              	 .loc 1 369 0
 1025 0002 0D4D     	 ldr r5,.L58
 1026 0004 0D4C     	 ldr r4,.L58+4
 1027 0006 0E48     	 ldr r0,.L58+8
 1028 0008 2946     	 mov r1,r5
 1029 000a 2246     	 mov r2,r4
 1030 000c FFF7FEFF 	 bl optiga_lib_print_message
 1031              	.LVL79:
 371:D:/School/diseratie/SEMS/xmc4800_evaluation_kit/optiga-trust-m/examples\optiga_shell.c ****     OPTIGA_SHELL_LOG_MESSAGE("1 Step: Generate hash of given user data ");
 1032              	 .loc 1 371 0
 1033 0010 2946     	 mov r1,r5
 1034 0012 2246     	 mov r2,r4
 1035 0014 0B48     	 ldr r0,.L58+12
 1036 0016 FFF7FEFF 	 bl optiga_lib_print_message
 1037              	.LVL80:
 372:D:/School/diseratie/SEMS/xmc4800_evaluation_kit/optiga-trust-m/examples\optiga_shell.c **** #ifndef OPTIGA_INIT_DEINIT_DONE_EXCLUSIVELY
 1038              	 .loc 1 372 0
 1039 001a 2946     	 mov r1,r5
 1040 001c 2246     	 mov r2,r4
 1041 001e 0A48     	 ldr r0,.L58+16
 1042 0020 FFF7FEFF 	 bl optiga_lib_print_message
 1043              	.LVL81:
 374:D:/School/diseratie/SEMS/xmc4800_evaluation_kit/optiga-trust-m/examples\optiga_shell.c **** #endif
 1044              	 .loc 1 374 0
 1045 0024 2946     	 mov r1,r5
 1046 0026 2246     	 mov r2,r4
 1047 0028 0848     	 ldr r0,.L58+20
 1048 002a FFF7FEFF 	 bl optiga_lib_print_message
 1049              	.LVL82:
 377:D:/School/diseratie/SEMS/xmc4800_evaluation_kit/optiga-trust-m/examples\optiga_shell.c **** #endif
 1050              	 .loc 1 377 0
 1051 002e BDE83840 	 pop {r3,r4,r5,lr}
 1052              	.LCFI27:
 1053              	 .cfi_restore 14
 1054              	 .cfi_restore 5
 1055              	 .cfi_restore 4
 1056              	 .cfi_restore 3
 1057              	 .cfi_def_cfa_offset 0
 376:D:/School/diseratie/SEMS/xmc4800_evaluation_kit/optiga-trust-m/examples\optiga_shell.c **** }
 1058              	 .loc 1 376 0
 1059 0032 FFF7FEBF 	 b example_optiga_crypt_hash_data
 1060              	.LVL83:
 1061              	.L59:
 1062 0036 00BF     	 .align 2
 1063              	.L58:
 1064 0038 34000000 	 .word .LC1
 1065 003c 48000000 	 .word .LC2
 1066 0040 00000000 	 .word .LC0
 1067 0044 AC080000 	 .word .LC38
 1068 0048 D4080000 	 .word .LC39
 1069 004c 90030000 	 .word .LC16
 1070              	 .cfi_endproc
 1071              	.LFE460:
 1073              	 .section .text.optiga_shell_crypt_hash,"ax",%progbits
 1074              	 .align 2
 1075              	 .thumb
 1076              	 .thumb_func
 1078              	optiga_shell_crypt_hash:
 1079              	.LFB459:
 354:D:/School/diseratie/SEMS/xmc4800_evaluation_kit/optiga-trust-m/examples\optiga_shell.c **** #ifndef OPTIGA_INIT_DEINIT_DONE_EXCLUSIVELY
 1080              	 .loc 1 354 0
 1081              	 .cfi_startproc
 1082              	 
 1083              	 
 1084 0000 38B5     	 push {r3,r4,r5,lr}
 1085              	.LCFI28:
 1086              	 .cfi_def_cfa_offset 16
 1087              	 .cfi_offset 3,-16
 1088              	 .cfi_offset 4,-12
 1089              	 .cfi_offset 5,-8
 1090              	 .cfi_offset 14,-4
 356:D:/School/diseratie/SEMS/xmc4800_evaluation_kit/optiga-trust-m/examples\optiga_shell.c **** #endif
 1091              	 .loc 1 356 0
 1092 0002 0D4D     	 ldr r5,.L62
 1093 0004 0D4C     	 ldr r4,.L62+4
 1094 0006 0E48     	 ldr r0,.L62+8
 1095 0008 2946     	 mov r1,r5
 1096 000a 2246     	 mov r2,r4
 1097 000c FFF7FEFF 	 bl optiga_lib_print_message
 1098              	.LVL84:
 358:D:/School/diseratie/SEMS/xmc4800_evaluation_kit/optiga-trust-m/examples\optiga_shell.c ****     OPTIGA_SHELL_LOG_MESSAGE("1 Step: Hash given data with Start, Update and Finalize calls");
 1099              	 .loc 1 358 0
 1100 0010 2946     	 mov r1,r5
 1101 0012 2246     	 mov r2,r4
 1102 0014 0B48     	 ldr r0,.L62+12
 1103 0016 FFF7FEFF 	 bl optiga_lib_print_message
 1104              	.LVL85:
 359:D:/School/diseratie/SEMS/xmc4800_evaluation_kit/optiga-trust-m/examples\optiga_shell.c **** #ifndef OPTIGA_INIT_DEINIT_DONE_EXCLUSIVELY
 1105              	 .loc 1 359 0
 1106 001a 2946     	 mov r1,r5
 1107 001c 2246     	 mov r2,r4
 1108 001e 0A48     	 ldr r0,.L62+16
 1109 0020 FFF7FEFF 	 bl optiga_lib_print_message
 1110              	.LVL86:
 361:D:/School/diseratie/SEMS/xmc4800_evaluation_kit/optiga-trust-m/examples\optiga_shell.c **** #endif
 1111              	 .loc 1 361 0
 1112 0024 2946     	 mov r1,r5
 1113 0026 2246     	 mov r2,r4
 1114 0028 0848     	 ldr r0,.L62+20
 1115 002a FFF7FEFF 	 bl optiga_lib_print_message
 1116              	.LVL87:
 364:D:/School/diseratie/SEMS/xmc4800_evaluation_kit/optiga-trust-m/examples\optiga_shell.c **** 
 1117              	 .loc 1 364 0
 1118 002e BDE83840 	 pop {r3,r4,r5,lr}
 1119              	.LCFI29:
 1120              	 .cfi_restore 14
 1121              	 .cfi_restore 5
 1122              	 .cfi_restore 4
 1123              	 .cfi_restore 3
 1124              	 .cfi_def_cfa_offset 0
 363:D:/School/diseratie/SEMS/xmc4800_evaluation_kit/optiga-trust-m/examples\optiga_shell.c **** }
 1125              	 .loc 1 363 0
 1126 0032 FFF7FEBF 	 b example_optiga_crypt_hash
 1127              	.LVL88:
 1128              	.L63:
 1129 0036 00BF     	 .align 2
 1130              	.L62:
 1131 0038 34000000 	 .word .LC1
 1132 003c 48000000 	 .word .LC2
 1133 0040 00000000 	 .word .LC0
 1134 0044 00090000 	 .word .LC40
 1135 0048 18090000 	 .word .LC41
 1136 004c 90030000 	 .word .LC16
 1137              	 .cfi_endproc
 1138              	.LFE459:
 1140              	 .section .text.optiga_shell_util_protected_update,"ax",%progbits
 1141              	 .align 2
 1142              	 .thumb
 1143              	 .thumb_func
 1145              	optiga_shell_util_protected_update:
 1146              	.LFB458:
 338:D:/School/diseratie/SEMS/xmc4800_evaluation_kit/optiga-trust-m/examples\optiga_shell.c **** #ifndef OPTIGA_INIT_DEINIT_DONE_EXCLUSIVELY
 1147              	 .loc 1 338 0
 1148              	 .cfi_startproc
 1149              	 
 1150              	 
 1151 0000 38B5     	 push {r3,r4,r5,lr}
 1152              	.LCFI30:
 1153              	 .cfi_def_cfa_offset 16
 1154              	 .cfi_offset 3,-16
 1155              	 .cfi_offset 4,-12
 1156              	 .cfi_offset 5,-8
 1157              	 .cfi_offset 14,-4
 340:D:/School/diseratie/SEMS/xmc4800_evaluation_kit/optiga-trust-m/examples\optiga_shell.c **** #endif
 1158              	 .loc 1 340 0
 1159 0002 124D     	 ldr r5,.L66
 1160 0004 124C     	 ldr r4,.L66+4
 1161 0006 1348     	 ldr r0,.L66+8
 1162 0008 2946     	 mov r1,r5
 1163 000a 2246     	 mov r2,r4
 1164 000c FFF7FEFF 	 bl optiga_lib_print_message
 1165              	.LVL89:
 342:D:/School/diseratie/SEMS/xmc4800_evaluation_kit/optiga-trust-m/examples\optiga_shell.c ****     OPTIGA_SHELL_LOG_MESSAGE("1 Step: Update Metadata for the Object to be updated and the Trust An
 1166              	 .loc 1 342 0
 1167 0010 2946     	 mov r1,r5
 1168 0012 2246     	 mov r2,r4
 1169 0014 1048     	 ldr r0,.L66+12
 1170 0016 FFF7FEFF 	 bl optiga_lib_print_message
 1171              	.LVL90:
 343:D:/School/diseratie/SEMS/xmc4800_evaluation_kit/optiga-trust-m/examples\optiga_shell.c ****     OPTIGA_SHELL_LOG_MESSAGE("2 Step: Write Trust Anchor used by the Trust M to verify the update")
 1172              	 .loc 1 343 0
 1173 001a 2946     	 mov r1,r5
 1174 001c 2246     	 mov r2,r4
 1175 001e 0F48     	 ldr r0,.L66+16
 1176 0020 FFF7FEFF 	 bl optiga_lib_print_message
 1177              	.LVL91:
 344:D:/School/diseratie/SEMS/xmc4800_evaluation_kit/optiga-trust-m/examples\optiga_shell.c ****     OPTIGA_SHELL_LOG_MESSAGE("3 Step: Start Protected update with prepared manifest and fragments")
 1178              	 .loc 1 344 0
 1179 0024 2946     	 mov r1,r5
 1180 0026 2246     	 mov r2,r4
 1181 0028 0D48     	 ldr r0,.L66+20
 1182 002a FFF7FEFF 	 bl optiga_lib_print_message
 1183              	.LVL92:
 345:D:/School/diseratie/SEMS/xmc4800_evaluation_kit/optiga-trust-m/examples\optiga_shell.c **** #ifndef OPTIGA_INIT_DEINIT_DONE_EXCLUSIVELY
 1184              	 .loc 1 345 0
 1185 002e 2946     	 mov r1,r5
 1186 0030 2246     	 mov r2,r4
 1187 0032 0C48     	 ldr r0,.L66+24
 1188 0034 FFF7FEFF 	 bl optiga_lib_print_message
 1189              	.LVL93:
 347:D:/School/diseratie/SEMS/xmc4800_evaluation_kit/optiga-trust-m/examples\optiga_shell.c **** #endif
 1190              	 .loc 1 347 0
 1191 0038 2946     	 mov r1,r5
 1192 003a 2246     	 mov r2,r4
 1193 003c 0A48     	 ldr r0,.L66+28
 1194 003e FFF7FEFF 	 bl optiga_lib_print_message
 1195              	.LVL94:
 350:D:/School/diseratie/SEMS/xmc4800_evaluation_kit/optiga-trust-m/examples\optiga_shell.c **** 
 1196              	 .loc 1 350 0
 1197 0042 BDE83840 	 pop {r3,r4,r5,lr}
 1198              	.LCFI31:
 1199              	 .cfi_restore 14
 1200              	 .cfi_restore 5
 1201              	 .cfi_restore 4
 1202              	 .cfi_restore 3
 1203              	 .cfi_def_cfa_offset 0
 349:D:/School/diseratie/SEMS/xmc4800_evaluation_kit/optiga-trust-m/examples\optiga_shell.c **** }
 1204              	 .loc 1 349 0
 1205 0046 FFF7FEBF 	 b example_optiga_util_protected_update
 1206              	.LVL95:
 1207              	.L67:
 1208 004a 00BF     	 .align 2
 1209              	.L66:
 1210 004c 34000000 	 .word .LC1
 1211 0050 48000000 	 .word .LC2
 1212 0054 00000000 	 .word .LC0
 1213 0058 58090000 	 .word .LC42
 1214 005c 7C090000 	 .word .LC43
 1215 0060 E0090000 	 .word .LC44
 1216 0064 240A0000 	 .word .LC45
 1217 0068 680A0000 	 .word .LC46
 1218              	 .cfi_endproc
 1219              	.LFE458:
 1221              	 .section .text.optiga_shell_util_update_count,"ax",%progbits
 1222              	 .align 2
 1223              	 .thumb
 1224              	 .thumb_func
 1226              	optiga_shell_util_update_count:
 1227              	.LFB457:
 324:D:/School/diseratie/SEMS/xmc4800_evaluation_kit/optiga-trust-m/examples\optiga_shell.c **** #ifndef OPTIGA_INIT_DEINIT_DONE_EXCLUSIVELY
 1228              	 .loc 1 324 0
 1229              	 .cfi_startproc
 1230              	 
 1231              	 
 1232 0000 38B5     	 push {r3,r4,r5,lr}
 1233              	.LCFI32:
 1234              	 .cfi_def_cfa_offset 16
 1235              	 .cfi_offset 3,-16
 1236              	 .cfi_offset 4,-12
 1237              	 .cfi_offset 5,-8
 1238              	 .cfi_offset 14,-4
 326:D:/School/diseratie/SEMS/xmc4800_evaluation_kit/optiga-trust-m/examples\optiga_shell.c **** #endif
 1239              	 .loc 1 326 0
 1240 0002 0F4D     	 ldr r5,.L70
 1241 0004 0F4C     	 ldr r4,.L70+4
 1242 0006 1048     	 ldr r0,.L70+8
 1243 0008 2946     	 mov r1,r5
 1244 000a 2246     	 mov r2,r4
 1245 000c FFF7FEFF 	 bl optiga_lib_print_message
 1246              	.LVL96:
 328:D:/School/diseratie/SEMS/xmc4800_evaluation_kit/optiga-trust-m/examples\optiga_shell.c ****     OPTIGA_SHELL_LOG_MESSAGE("1 Step: Write Initial Counter Value");
 1247              	 .loc 1 328 0
 1248 0010 2946     	 mov r1,r5
 1249 0012 2246     	 mov r2,r4
 1250 0014 0D48     	 ldr r0,.L70+12
 1251 0016 FFF7FEFF 	 bl optiga_lib_print_message
 1252              	.LVL97:
 329:D:/School/diseratie/SEMS/xmc4800_evaluation_kit/optiga-trust-m/examples\optiga_shell.c ****     OPTIGA_SHELL_LOG_MESSAGE("2 Step: Increase Counter Object");
 1253              	 .loc 1 329 0
 1254 001a 2946     	 mov r1,r5
 1255 001c 2246     	 mov r2,r4
 1256 001e 0C48     	 ldr r0,.L70+16
 1257 0020 FFF7FEFF 	 bl optiga_lib_print_message
 1258              	.LVL98:
 330:D:/School/diseratie/SEMS/xmc4800_evaluation_kit/optiga-trust-m/examples\optiga_shell.c **** #ifndef OPTIGA_INIT_DEINIT_DONE_EXCLUSIVELY
 1259              	 .loc 1 330 0
 1260 0024 2946     	 mov r1,r5
 1261 0026 2246     	 mov r2,r4
 1262 0028 0A48     	 ldr r0,.L70+20
 1263 002a FFF7FEFF 	 bl optiga_lib_print_message
 1264              	.LVL99:
 332:D:/School/diseratie/SEMS/xmc4800_evaluation_kit/optiga-trust-m/examples\optiga_shell.c **** #endif
 1265              	 .loc 1 332 0
 1266 002e 2946     	 mov r1,r5
 1267 0030 2246     	 mov r2,r4
 1268 0032 0948     	 ldr r0,.L70+24
 1269 0034 FFF7FEFF 	 bl optiga_lib_print_message
 1270              	.LVL100:
 335:D:/School/diseratie/SEMS/xmc4800_evaluation_kit/optiga-trust-m/examples\optiga_shell.c **** 
 1271              	 .loc 1 335 0
 1272 0038 BDE83840 	 pop {r3,r4,r5,lr}
 1273              	.LCFI33:
 1274              	 .cfi_restore 14
 1275              	 .cfi_restore 5
 1276              	 .cfi_restore 4
 1277              	 .cfi_restore 3
 1278              	 .cfi_def_cfa_offset 0
 334:D:/School/diseratie/SEMS/xmc4800_evaluation_kit/optiga-trust-m/examples\optiga_shell.c **** }
 1279              	 .loc 1 334 0
 1280 003c FFF7FEBF 	 b example_optiga_util_update_count
 1281              	.LVL101:
 1282              	.L71:
 1283              	 .align 2
 1284              	.L70:
 1285 0040 34000000 	 .word .LC1
 1286 0044 48000000 	 .word .LC2
 1287 0048 00000000 	 .word .LC0
 1288 004c 900A0000 	 .word .LC47
 1289 0050 B00A0000 	 .word .LC48
 1290 0054 D40A0000 	 .word .LC49
 1291 0058 F40A0000 	 .word .LC50
 1292              	 .cfi_endproc
 1293              	.LFE457:
 1295              	 .section .text.optiga_shell_util_hibernate_restore,"ax",%progbits
 1296              	 .align 2
 1297              	 .thumb
 1298              	 .thumb_func
 1300              	optiga_shell_util_hibernate_restore:
 1301              	.LFB456:
 306:D:/School/diseratie/SEMS/xmc4800_evaluation_kit/optiga-trust-m/examples\optiga_shell.c ****     OPTIGA_SHELL_LOG_MESSAGE("Starting Hibernate and Restore Example");
 1302              	 .loc 1 306 0
 1303              	 .cfi_startproc
 1304              	 
 1305              	 
 1306 0000 38B5     	 push {r3,r4,r5,lr}
 1307              	.LCFI34:
 1308              	 .cfi_def_cfa_offset 16
 1309              	 .cfi_offset 3,-16
 1310              	 .cfi_offset 4,-12
 1311              	 .cfi_offset 5,-8
 1312              	 .cfi_offset 14,-4
 307:D:/School/diseratie/SEMS/xmc4800_evaluation_kit/optiga-trust-m/examples\optiga_shell.c ****     OPTIGA_SHELL_LOG_MESSAGE("1 Step: Open Application on the security chip");
 1313              	 .loc 1 307 0
 1314 0002 214D     	 ldr r5,.L74
 1315 0004 214C     	 ldr r4,.L74+4
 1316 0006 2248     	 ldr r0,.L74+8
 1317 0008 2946     	 mov r1,r5
 1318 000a 2246     	 mov r2,r4
 1319 000c FFF7FEFF 	 bl optiga_lib_print_message
 1320              	.LVL102:
 308:D:/School/diseratie/SEMS/xmc4800_evaluation_kit/optiga-trust-m/examples\optiga_shell.c ****     OPTIGA_SHELL_LOG_MESSAGE("2 Step: Pair the host and the security chip");
 1321              	 .loc 1 308 0
 1322 0010 2946     	 mov r1,r5
 1323 0012 2246     	 mov r2,r4
 1324 0014 1F48     	 ldr r0,.L74+12
 1325 0016 FFF7FEFF 	 bl optiga_lib_print_message
 1326              	.LVL103:
 309:D:/School/diseratie/SEMS/xmc4800_evaluation_kit/optiga-trust-m/examples\optiga_shell.c ****     OPTIGA_SHELL_LOG_MESSAGE("3 Step: Select Protected I2C Connection");
 1327              	 .loc 1 309 0
 1328 001a 2946     	 mov r1,r5
 1329 001c 2246     	 mov r2,r4
 1330 001e 1E48     	 ldr r0,.L74+16
 1331 0020 FFF7FEFF 	 bl optiga_lib_print_message
 1332              	.LVL104:
 310:D:/School/diseratie/SEMS/xmc4800_evaluation_kit/optiga-trust-m/examples\optiga_shell.c ****     OPTIGA_SHELL_LOG_MESSAGE("4 Step: Generate ECC NIST P-256 Key pair and store it in Session Data
 1333              	 .loc 1 310 0
 1334 0024 2946     	 mov r1,r5
 1335 0026 2246     	 mov r2,r4
 1336 0028 1C48     	 ldr r0,.L74+20
 1337 002a FFF7FEFF 	 bl optiga_lib_print_message
 1338              	.LVL105:
 311:D:/School/diseratie/SEMS/xmc4800_evaluation_kit/optiga-trust-m/examples\optiga_shell.c ****     OPTIGA_SHELL_LOG_MESSAGE("5 Step: Check Security Event Counter and wait till it reaches 0");
 1339              	 .loc 1 311 0
 1340 002e 2946     	 mov r1,r5
 1341 0030 2246     	 mov r2,r4
 1342 0032 1B48     	 ldr r0,.L74+24
 1343 0034 FFF7FEFF 	 bl optiga_lib_print_message
 1344              	.LVL106:
 312:D:/School/diseratie/SEMS/xmc4800_evaluation_kit/optiga-trust-m/examples\optiga_shell.c ****     OPTIGA_SHELL_LOG_MESSAGE("6 Step: Perform Close application with Hibernate parameter set to Tru
 1345              	 .loc 1 312 0
 1346 0038 2946     	 mov r1,r5
 1347 003a 2246     	 mov r2,r4
 1348 003c 1948     	 ldr r0,.L74+28
 1349 003e FFF7FEFF 	 bl optiga_lib_print_message
 1350              	.LVL107:
 313:D:/School/diseratie/SEMS/xmc4800_evaluation_kit/optiga-trust-m/examples\optiga_shell.c ****     OPTIGA_SHELL_LOG_MESSAGE("7 Step: Open Application on the security chip");
 1351              	 .loc 1 313 0
 1352 0042 2946     	 mov r1,r5
 1353 0044 2246     	 mov r2,r4
 1354 0046 1848     	 ldr r0,.L74+32
 1355 0048 FFF7FEFF 	 bl optiga_lib_print_message
 1356              	.LVL108:
 314:D:/School/diseratie/SEMS/xmc4800_evaluation_kit/optiga-trust-m/examples\optiga_shell.c ****     OPTIGA_SHELL_LOG_MESSAGE("8 Step: Sign prepared data with private key stored in Session Data Ob
 1357              	 .loc 1 314 0
 1358 004c 2946     	 mov r1,r5
 1359 004e 2246     	 mov r2,r4
 1360 0050 1648     	 ldr r0,.L74+36
 1361 0052 FFF7FEFF 	 bl optiga_lib_print_message
 1362              	.LVL109:
 315:D:/School/diseratie/SEMS/xmc4800_evaluation_kit/optiga-trust-m/examples\optiga_shell.c ****     OPTIGA_SHELL_LOG_MESSAGE("9 Step: Verify the signature with the public key generated previously
 1363              	 .loc 1 315 0
 1364 0056 2946     	 mov r1,r5
 1365 0058 2246     	 mov r2,r4
 1366 005a 1548     	 ldr r0,.L74+40
 1367 005c FFF7FEFF 	 bl optiga_lib_print_message
 1368              	.LVL110:
 316:D:/School/diseratie/SEMS/xmc4800_evaluation_kit/optiga-trust-m/examples\optiga_shell.c ****     OPTIGA_SHELL_LOG_MESSAGE("10 Step: Close Applicaiton on the chip");
 1369              	 .loc 1 316 0
 1370 0060 2946     	 mov r1,r5
 1371 0062 2246     	 mov r2,r4
 1372 0064 1348     	 ldr r0,.L74+44
 1373 0066 FFF7FEFF 	 bl optiga_lib_print_message
 1374              	.LVL111:
 317:D:/School/diseratie/SEMS/xmc4800_evaluation_kit/optiga-trust-m/examples\optiga_shell.c ****     OPTIGA_SHELL_LOG_MESSAGE("Important note: To continue with other examples you need to call the 
 1375              	 .loc 1 317 0
 1376 006a 2946     	 mov r1,r5
 1377 006c 2246     	 mov r2,r4
 1378 006e 1248     	 ldr r0,.L74+48
 1379 0070 FFF7FEFF 	 bl optiga_lib_print_message
 1380              	.LVL112:
 318:D:/School/diseratie/SEMS/xmc4800_evaluation_kit/optiga-trust-m/examples\optiga_shell.c ****     example_optiga_util_hibernate_restore();
 1381              	 .loc 1 318 0
 1382 0074 2946     	 mov r1,r5
 1383 0076 2246     	 mov r2,r4
 1384 0078 1048     	 ldr r0,.L74+52
 1385 007a FFF7FEFF 	 bl optiga_lib_print_message
 1386              	.LVL113:
 320:D:/School/diseratie/SEMS/xmc4800_evaluation_kit/optiga-trust-m/examples\optiga_shell.c **** #endif
 1387              	 .loc 1 320 0
 1388 007e BDE83840 	 pop {r3,r4,r5,lr}
 1389              	.LCFI35:
 1390              	 .cfi_restore 14
 1391              	 .cfi_restore 5
 1392              	 .cfi_restore 4
 1393              	 .cfi_restore 3
 1394              	 .cfi_def_cfa_offset 0
 319:D:/School/diseratie/SEMS/xmc4800_evaluation_kit/optiga-trust-m/examples\optiga_shell.c **** }
 1395              	 .loc 1 319 0
 1396 0082 FFF7FEBF 	 b example_optiga_util_hibernate_restore
 1397              	.LVL114:
 1398              	.L75:
 1399 0086 00BF     	 .align 2
 1400              	.L74:
 1401 0088 34000000 	 .word .LC1
 1402 008c 48000000 	 .word .LC2
 1403 0090 1C0B0000 	 .word .LC51
 1404 0094 440B0000 	 .word .LC52
 1405 0098 740B0000 	 .word .LC53
 1406 009c 04010000 	 .word .LC6
 1407 00a0 A00B0000 	 .word .LC54
 1408 00a4 040C0000 	 .word .LC55
 1409 00a8 440C0000 	 .word .LC56
 1410 00ac 8C0C0000 	 .word .LC57
 1411 00b0 BC0C0000 	 .word .LC58
 1412 00b4 080D0000 	 .word .LC59
 1413 00b8 500D0000 	 .word .LC60
 1414 00bc 780D0000 	 .word .LC61
 1415              	 .cfi_endproc
 1416              	.LFE456:
 1418              	 .section .text.optiga_shell_pair_host_optiga,"ax",%progbits
 1419              	 .align 2
 1420              	 .thumb
 1421              	 .thumb_func
 1423              	optiga_shell_pair_host_optiga:
 1424              	.LFB455:
 289:D:/School/diseratie/SEMS/xmc4800_evaluation_kit/optiga-trust-m/examples\optiga_shell.c **** #ifndef OPTIGA_INIT_DEINIT_DONE_EXCLUSIVELY
 1425              	 .loc 1 289 0
 1426              	 .cfi_startproc
 1427              	 
 1428              	 
 1429 0000 38B5     	 push {r3,r4,r5,lr}
 1430              	.LCFI36:
 1431              	 .cfi_def_cfa_offset 16
 1432              	 .cfi_offset 3,-16
 1433              	 .cfi_offset 4,-12
 1434              	 .cfi_offset 5,-8
 1435              	 .cfi_offset 14,-4
 291:D:/School/diseratie/SEMS/xmc4800_evaluation_kit/optiga-trust-m/examples\optiga_shell.c **** #endif
 1436              	 .loc 1 291 0
 1437 0002 144D     	 ldr r5,.L78
 1438 0004 144C     	 ldr r4,.L78+4
 1439 0006 1548     	 ldr r0,.L78+8
 1440 0008 2946     	 mov r1,r5
 1441 000a 2246     	 mov r2,r4
 1442 000c FFF7FEFF 	 bl optiga_lib_print_message
 1443              	.LVL115:
 293:D:/School/diseratie/SEMS/xmc4800_evaluation_kit/optiga-trust-m/examples\optiga_shell.c ****     OPTIGA_SHELL_LOG_MESSAGE("1 Step: Read and Check existing Metadata for the Binding Secret");
 1444              	 .loc 1 293 0
 1445 0010 2946     	 mov r1,r5
 1446 0012 2246     	 mov r2,r4
 1447 0014 1248     	 ldr r0,.L78+12
 1448 0016 FFF7FEFF 	 bl optiga_lib_print_message
 1449              	.LVL116:
 294:D:/School/diseratie/SEMS/xmc4800_evaluation_kit/optiga-trust-m/examples\optiga_shell.c ****     OPTIGA_SHELL_LOG_MESSAGE("2 Step: Generate Random for the new Binding Secret");
 1450              	 .loc 1 294 0
 1451 001a 2946     	 mov r1,r5
 1452 001c 2246     	 mov r2,r4
 1453 001e 1148     	 ldr r0,.L78+16
 1454 0020 FFF7FEFF 	 bl optiga_lib_print_message
 1455              	.LVL117:
 295:D:/School/diseratie/SEMS/xmc4800_evaluation_kit/optiga-trust-m/examples\optiga_shell.c ****     OPTIGA_SHELL_LOG_MESSAGE("3 Step: Write new Binding Secret");
 1456              	 .loc 1 295 0
 1457 0024 2946     	 mov r1,r5
 1458 0026 2246     	 mov r2,r4
 1459 0028 0F48     	 ldr r0,.L78+20
 1460 002a FFF7FEFF 	 bl optiga_lib_print_message
 1461              	.LVL118:
 296:D:/School/diseratie/SEMS/xmc4800_evaluation_kit/optiga-trust-m/examples\optiga_shell.c ****     OPTIGA_SHELL_LOG_MESSAGE("4 Step: Store new Binding Secret on the Host");
 1462              	 .loc 1 296 0
 1463 002e 2946     	 mov r1,r5
 1464 0030 2246     	 mov r2,r4
 1465 0032 0E48     	 ldr r0,.L78+24
 1466 0034 FFF7FEFF 	 bl optiga_lib_print_message
 1467              	.LVL119:
 297:D:/School/diseratie/SEMS/xmc4800_evaluation_kit/optiga-trust-m/examples\optiga_shell.c **** #ifndef OPTIGA_INIT_DEINIT_DONE_EXCLUSIVELY
 1468              	 .loc 1 297 0
 1469 0038 2946     	 mov r1,r5
 1470 003a 2246     	 mov r2,r4
 1471 003c 0C48     	 ldr r0,.L78+28
 1472 003e FFF7FEFF 	 bl optiga_lib_print_message
 1473              	.LVL120:
 299:D:/School/diseratie/SEMS/xmc4800_evaluation_kit/optiga-trust-m/examples\optiga_shell.c **** #endif
 1474              	 .loc 1 299 0
 1475 0042 2946     	 mov r1,r5
 1476 0044 2246     	 mov r2,r4
 1477 0046 0B48     	 ldr r0,.L78+32
 1478 0048 FFF7FEFF 	 bl optiga_lib_print_message
 1479              	.LVL121:
 302:D:/School/diseratie/SEMS/xmc4800_evaluation_kit/optiga-trust-m/examples\optiga_shell.c **** #endif
 1480              	 .loc 1 302 0
 1481 004c BDE83840 	 pop {r3,r4,r5,lr}
 1482              	.LCFI37:
 1483              	 .cfi_restore 14
 1484              	 .cfi_restore 5
 1485              	 .cfi_restore 4
 1486              	 .cfi_restore 3
 1487              	 .cfi_def_cfa_offset 0
 301:D:/School/diseratie/SEMS/xmc4800_evaluation_kit/optiga-trust-m/examples\optiga_shell.c **** }
 1488              	 .loc 1 301 0
 1489 0050 FFF7FEBF 	 b example_pair_host_and_optiga_using_pre_shared_secret
 1490              	.LVL122:
 1491              	.L79:
 1492              	 .align 2
 1493              	.L78:
 1494 0054 34000000 	 .word .LC1
 1495 0058 48000000 	 .word .LC2
 1496 005c 00000000 	 .word .LC0
 1497 0060 D80D0000 	 .word .LC62
 1498 0064 080E0000 	 .word .LC63
 1499 0068 480E0000 	 .word .LC64
 1500 006c 7C0E0000 	 .word .LC65
 1501 0070 A00E0000 	 .word .LC66
 1502 0074 78010000 	 .word .LC8
 1503              	 .cfi_endproc
 1504              	.LFE455:
 1506              	 .section .text.optiga_shell_util_read_coprocessor_id,"ax",%progbits
 1507              	 .align 2
 1508              	 .thumb
 1509              	 .thumb_func
 1511              	optiga_shell_util_read_coprocessor_id:
 1512              	.LFB454:
 276:D:/School/diseratie/SEMS/xmc4800_evaluation_kit/optiga-trust-m/examples\optiga_shell.c **** #ifndef OPTIGA_INIT_DEINIT_DONE_EXCLUSIVELY
 1513              	 .loc 1 276 0
 1514              	 .cfi_startproc
 1515              	 
 1516              	 
 1517 0000 38B5     	 push {r3,r4,r5,lr}
 1518              	.LCFI38:
 1519              	 .cfi_def_cfa_offset 16
 1520              	 .cfi_offset 3,-16
 1521              	 .cfi_offset 4,-12
 1522              	 .cfi_offset 5,-8
 1523              	 .cfi_offset 14,-4
 278:D:/School/diseratie/SEMS/xmc4800_evaluation_kit/optiga-trust-m/examples\optiga_shell.c **** #endif
 1524              	 .loc 1 278 0
 1525 0002 0D4D     	 ldr r5,.L82
 1526 0004 0D4C     	 ldr r4,.L82+4
 1527 0006 0E48     	 ldr r0,.L82+8
 1528 0008 2946     	 mov r1,r5
 1529 000a 2246     	 mov r2,r4
 1530 000c FFF7FEFF 	 bl optiga_lib_print_message
 1531              	.LVL123:
 280:D:/School/diseratie/SEMS/xmc4800_evaluation_kit/optiga-trust-m/examples\optiga_shell.c ****     OPTIGA_SHELL_LOG_MESSAGE("1 Step: Read Coprocessor UID from OID(0xE0C2) ");
 1532              	 .loc 1 280 0
 1533 0010 2946     	 mov r1,r5
 1534 0012 2246     	 mov r2,r4
 1535 0014 0B48     	 ldr r0,.L82+12
 1536 0016 FFF7FEFF 	 bl optiga_lib_print_message
 1537              	.LVL124:
 281:D:/School/diseratie/SEMS/xmc4800_evaluation_kit/optiga-trust-m/examples\optiga_shell.c **** #ifndef OPTIGA_INIT_DEINIT_DONE_EXCLUSIVELY
 1538              	 .loc 1 281 0
 1539 001a 2946     	 mov r1,r5
 1540 001c 2246     	 mov r2,r4
 1541 001e 0A48     	 ldr r0,.L82+16
 1542 0020 FFF7FEFF 	 bl optiga_lib_print_message
 1543              	.LVL125:
 283:D:/School/diseratie/SEMS/xmc4800_evaluation_kit/optiga-trust-m/examples\optiga_shell.c **** #endif
 1544              	 .loc 1 283 0
 1545 0024 2946     	 mov r1,r5
 1546 0026 2246     	 mov r2,r4
 1547 0028 0848     	 ldr r0,.L82+20
 1548 002a FFF7FEFF 	 bl optiga_lib_print_message
 1549              	.LVL126:
 286:D:/School/diseratie/SEMS/xmc4800_evaluation_kit/optiga-trust-m/examples\optiga_shell.c **** #ifdef OPTIGA_COMMS_SHIELDED_CONNECTION 
 1550              	 .loc 1 286 0
 1551 002e BDE83840 	 pop {r3,r4,r5,lr}
 1552              	.LCFI39:
 1553              	 .cfi_restore 14
 1554              	 .cfi_restore 5
 1555              	 .cfi_restore 4
 1556              	 .cfi_restore 3
 1557              	 .cfi_def_cfa_offset 0
 285:D:/School/diseratie/SEMS/xmc4800_evaluation_kit/optiga-trust-m/examples\optiga_shell.c **** }
 1558              	 .loc 1 285 0
 1559 0032 FFF7FEBF 	 b example_read_coprocessor_id
 1560              	.LVL127:
 1561              	.L83:
 1562 0036 00BF     	 .align 2
 1563              	.L82:
 1564 0038 34000000 	 .word .LC1
 1565 003c 48000000 	 .word .LC2
 1566 0040 00000000 	 .word .LC0
 1567 0044 D00E0000 	 .word .LC67
 1568 0048 280F0000 	 .word .LC68
 1569 004c 90030000 	 .word .LC16
 1570              	 .cfi_endproc
 1571              	.LFE454:
 1573              	 .section .text.optiga_shell_util_write_data,"ax",%progbits
 1574              	 .align 2
 1575              	 .thumb
 1576              	 .thumb_func
 1578              	optiga_shell_util_write_data:
 1579              	.LFB453:
 262:D:/School/diseratie/SEMS/xmc4800_evaluation_kit/optiga-trust-m/examples\optiga_shell.c **** #ifndef OPTIGA_INIT_DEINIT_DONE_EXCLUSIVELY
 1580              	 .loc 1 262 0
 1581              	 .cfi_startproc
 1582              	 
 1583              	 
 1584 0000 38B5     	 push {r3,r4,r5,lr}
 1585              	.LCFI40:
 1586              	 .cfi_def_cfa_offset 16
 1587              	 .cfi_offset 3,-16
 1588              	 .cfi_offset 4,-12
 1589              	 .cfi_offset 5,-8
 1590              	 .cfi_offset 14,-4
 264:D:/School/diseratie/SEMS/xmc4800_evaluation_kit/optiga-trust-m/examples\optiga_shell.c **** #endif
 1591              	 .loc 1 264 0
 1592 0002 0F4D     	 ldr r5,.L86
 1593 0004 0F4C     	 ldr r4,.L86+4
 1594 0006 1048     	 ldr r0,.L86+8
 1595 0008 2946     	 mov r1,r5
 1596 000a 2246     	 mov r2,r4
 1597 000c FFF7FEFF 	 bl optiga_lib_print_message
 1598              	.LVL128:
 266:D:/School/diseratie/SEMS/xmc4800_evaluation_kit/optiga-trust-m/examples\optiga_shell.c ****     OPTIGA_SHELL_LOG_MESSAGE("1 Step: Write Sample Certificate in Trust Anchor Data Object ");
 1599              	 .loc 1 266 0
 1600 0010 2946     	 mov r1,r5
 1601 0012 2246     	 mov r2,r4
 1602 0014 0D48     	 ldr r0,.L86+12
 1603 0016 FFF7FEFF 	 bl optiga_lib_print_message
 1604              	.LVL129:
 267:D:/School/diseratie/SEMS/xmc4800_evaluation_kit/optiga-trust-m/examples\optiga_shell.c ****     OPTIGA_SHELL_LOG_MESSAGE("2 Step: Write new Metadata");
 1605              	 .loc 1 267 0
 1606 001a 2946     	 mov r1,r5
 1607 001c 2246     	 mov r2,r4
 1608 001e 0C48     	 ldr r0,.L86+16
 1609 0020 FFF7FEFF 	 bl optiga_lib_print_message
 1610              	.LVL130:
 268:D:/School/diseratie/SEMS/xmc4800_evaluation_kit/optiga-trust-m/examples\optiga_shell.c **** #ifndef OPTIGA_INIT_DEINIT_DONE_EXCLUSIVELY
 1611              	 .loc 1 268 0
 1612 0024 2946     	 mov r1,r5
 1613 0026 2246     	 mov r2,r4
 1614 0028 0A48     	 ldr r0,.L86+20
 1615 002a FFF7FEFF 	 bl optiga_lib_print_message
 1616              	.LVL131:
 270:D:/School/diseratie/SEMS/xmc4800_evaluation_kit/optiga-trust-m/examples\optiga_shell.c **** #endif
 1617              	 .loc 1 270 0
 1618 002e 2946     	 mov r1,r5
 1619 0030 2246     	 mov r2,r4
 1620 0032 0948     	 ldr r0,.L86+24
 1621 0034 FFF7FEFF 	 bl optiga_lib_print_message
 1622              	.LVL132:
 273:D:/School/diseratie/SEMS/xmc4800_evaluation_kit/optiga-trust-m/examples\optiga_shell.c **** 
 1623              	 .loc 1 273 0
 1624 0038 BDE83840 	 pop {r3,r4,r5,lr}
 1625              	.LCFI41:
 1626              	 .cfi_restore 14
 1627              	 .cfi_restore 5
 1628              	 .cfi_restore 4
 1629              	 .cfi_restore 3
 1630              	 .cfi_def_cfa_offset 0
 272:D:/School/diseratie/SEMS/xmc4800_evaluation_kit/optiga-trust-m/examples\optiga_shell.c **** }
 1631              	 .loc 1 272 0
 1632 003c FFF7FEBF 	 b example_optiga_util_write_data
 1633              	.LVL133:
 1634              	.L87:
 1635              	 .align 2
 1636              	.L86:
 1637 0040 34000000 	 .word .LC1
 1638 0044 48000000 	 .word .LC2
 1639 0048 00000000 	 .word .LC0
 1640 004c 580F0000 	 .word .LC69
 1641 0050 800F0000 	 .word .LC70
 1642 0054 C00F0000 	 .word .LC71
 1643 0058 F40A0000 	 .word .LC50
 1644              	 .cfi_endproc
 1645              	.LFE453:
 1647              	 .section .text.optiga_shell_util_read_data,"ax",%progbits
 1648              	 .align 2
 1649              	 .thumb
 1650              	 .thumb_func
 1652              	optiga_shell_util_read_data:
 1653              	.LFB452:
 248:D:/School/diseratie/SEMS/xmc4800_evaluation_kit/optiga-trust-m/examples\optiga_shell.c **** #ifndef OPTIGA_INIT_DEINIT_DONE_EXCLUSIVELY
 1654              	 .loc 1 248 0
 1655              	 .cfi_startproc
 1656              	 
 1657              	 
 1658 0000 38B5     	 push {r3,r4,r5,lr}
 1659              	.LCFI42:
 1660              	 .cfi_def_cfa_offset 16
 1661              	 .cfi_offset 3,-16
 1662              	 .cfi_offset 4,-12
 1663              	 .cfi_offset 5,-8
 1664              	 .cfi_offset 14,-4
 250:D:/School/diseratie/SEMS/xmc4800_evaluation_kit/optiga-trust-m/examples\optiga_shell.c **** #endif
 1665              	 .loc 1 250 0
 1666 0002 0F4D     	 ldr r5,.L90
 1667 0004 0F4C     	 ldr r4,.L90+4
 1668 0006 1048     	 ldr r0,.L90+8
 1669 0008 2946     	 mov r1,r5
 1670 000a 2246     	 mov r2,r4
 1671 000c FFF7FEFF 	 bl optiga_lib_print_message
 1672              	.LVL134:
 252:D:/School/diseratie/SEMS/xmc4800_evaluation_kit/optiga-trust-m/examples\optiga_shell.c ****     OPTIGA_SHELL_LOG_MESSAGE("1 Step: Read Certificate ");
 1673              	 .loc 1 252 0
 1674 0010 2946     	 mov r1,r5
 1675 0012 2246     	 mov r2,r4
 1676 0014 0D48     	 ldr r0,.L90+12
 1677 0016 FFF7FEFF 	 bl optiga_lib_print_message
 1678              	.LVL135:
 253:D:/School/diseratie/SEMS/xmc4800_evaluation_kit/optiga-trust-m/examples\optiga_shell.c ****     OPTIGA_SHELL_LOG_MESSAGE("2 Step: Read Certificate Metadata");
 1679              	 .loc 1 253 0
 1680 001a 2946     	 mov r1,r5
 1681 001c 2246     	 mov r2,r4
 1682 001e 0C48     	 ldr r0,.L90+16
 1683 0020 FFF7FEFF 	 bl optiga_lib_print_message
 1684              	.LVL136:
 254:D:/School/diseratie/SEMS/xmc4800_evaluation_kit/optiga-trust-m/examples\optiga_shell.c **** #ifndef OPTIGA_INIT_DEINIT_DONE_EXCLUSIVELY
 1685              	 .loc 1 254 0
 1686 0024 2946     	 mov r1,r5
 1687 0026 2246     	 mov r2,r4
 1688 0028 0A48     	 ldr r0,.L90+20
 1689 002a FFF7FEFF 	 bl optiga_lib_print_message
 1690              	.LVL137:
 256:D:/School/diseratie/SEMS/xmc4800_evaluation_kit/optiga-trust-m/examples\optiga_shell.c **** #endif
 1691              	 .loc 1 256 0
 1692 002e 2946     	 mov r1,r5
 1693 0030 2246     	 mov r2,r4
 1694 0032 0948     	 ldr r0,.L90+24
 1695 0034 FFF7FEFF 	 bl optiga_lib_print_message
 1696              	.LVL138:
 259:D:/School/diseratie/SEMS/xmc4800_evaluation_kit/optiga-trust-m/examples\optiga_shell.c **** 
 1697              	 .loc 1 259 0
 1698 0038 BDE83840 	 pop {r3,r4,r5,lr}
 1699              	.LCFI43:
 1700              	 .cfi_restore 14
 1701              	 .cfi_restore 5
 1702              	 .cfi_restore 4
 1703              	 .cfi_restore 3
 1704              	 .cfi_def_cfa_offset 0
 258:D:/School/diseratie/SEMS/xmc4800_evaluation_kit/optiga-trust-m/examples\optiga_shell.c **** }
 1705              	 .loc 1 258 0
 1706 003c FFF7FEBF 	 b example_optiga_util_read_data
 1707              	.LVL139:
 1708              	.L91:
 1709              	 .align 2
 1710              	.L90:
 1711 0040 34000000 	 .word .LC1
 1712 0044 48000000 	 .word .LC2
 1713 0048 00000000 	 .word .LC0
 1714 004c DC0F0000 	 .word .LC72
 1715 0050 00100000 	 .word .LC73
 1716 0054 1C100000 	 .word .LC74
 1717 0058 F40A0000 	 .word .LC50
 1718              	 .cfi_endproc
 1719              	.LFE452:
 1721              	 .section .text.optiga_shell_deinit,"ax",%progbits
 1722              	 .align 2
 1723              	 .thumb
 1724              	 .thumb_func
 1726              	optiga_shell_deinit:
 1727              	.LFB451:
 202:D:/School/diseratie/SEMS/xmc4800_evaluation_kit/optiga-trust-m/examples\optiga_shell.c ****     optiga_lib_status_t return_status = !OPTIGA_LIB_SUCCESS;
 1728              	 .loc 1 202 0
 1729              	 .cfi_startproc
 1730              	 
 1731              	 
 1732              	.LVL140:
 1733 0000 F0B5     	 push {r4,r5,r6,r7,lr}
 1734              	.LCFI44:
 1735              	 .cfi_def_cfa_offset 20
 1736              	 .cfi_offset 4,-20
 1737              	 .cfi_offset 5,-16
 1738              	 .cfi_offset 6,-12
 1739              	 .cfi_offset 7,-8
 1740              	 .cfi_offset 14,-4
 1741 0002 83B0     	 sub sp,sp,#12
 1742              	.LCFI45:
 1743              	 .cfi_def_cfa_offset 32
 204:D:/School/diseratie/SEMS/xmc4800_evaluation_kit/optiga-trust-m/examples\optiga_shell.c ****     
 1744              	 .loc 1 204 0
 1745 0004 02AD     	 add r5,sp,#8
 1746 0006 0026     	 movs r6,#0
 1747 0008 45F8046D 	 str r6,[r5,#-4]!
 213:D:/School/diseratie/SEMS/xmc4800_evaluation_kit/optiga-trust-m/examples\optiga_shell.c ****         
 1748              	 .loc 1 213 0
 1749 000c 0123     	 movs r3,#1
 1750 000e 154C     	 ldr r4,.L104
 217:D:/School/diseratie/SEMS/xmc4800_evaluation_kit/optiga-trust-m/examples\optiga_shell.c **** 
 1751              	 .loc 1 217 0
 1752 0010 154F     	 ldr r7,.L104+4
 213:D:/School/diseratie/SEMS/xmc4800_evaluation_kit/optiga-trust-m/examples\optiga_shell.c ****         
 1753              	 .loc 1 213 0
 1754 0012 2380     	 strh r3,[r4]
 215:D:/School/diseratie/SEMS/xmc4800_evaluation_kit/optiga-trust-m/examples\optiga_shell.c ****         
 1755              	 .loc 1 215 0
 1756 0014 2846     	 mov r0,r5
 1757 0016 1946     	 mov r1,r3
 1758 0018 FFF7FEFF 	 bl example_performance_measurement
 1759              	.LVL141:
 217:D:/School/diseratie/SEMS/xmc4800_evaluation_kit/optiga-trust-m/examples\optiga_shell.c **** 
 1760              	 .loc 1 217 0
 1761 001c 3146     	 mov r1,r6
 1762 001e 3868     	 ldr r0,[r7]
 1763 0020 FFF7FEFF 	 bl optiga_util_close_application
 1764              	.LVL142:
 219:D:/School/diseratie/SEMS/xmc4800_evaluation_kit/optiga-trust-m/examples\optiga_shell.c ****         {
 1765              	 .loc 1 219 0
 1766 0024 08B1     	 cbz r0,.L94
 1767              	.LVL143:
 1768              	.L92:
 245:D:/School/diseratie/SEMS/xmc4800_evaluation_kit/optiga-trust-m/examples\optiga_shell.c **** 
 1769              	 .loc 1 245 0
 1770 0026 03B0     	 add sp,sp,#12
 1771              	.LCFI46:
 1772              	 .cfi_remember_state
 1773              	 .cfi_def_cfa_offset 20
 1774              	 
 1775 0028 F0BD     	 pop {r4,r5,r6,r7,pc}
 1776              	.LVL144:
 1777              	.L94:
 1778              	.LCFI47:
 1779              	 .cfi_restore_state
 224:D:/School/diseratie/SEMS/xmc4800_evaluation_kit/optiga-trust-m/examples\optiga_shell.c ****         {
 1780              	 .loc 1 224 0 discriminator 1
 1781 002a 2388     	 ldrh r3,[r4]
 1782 002c 0D4A     	 ldr r2,.L104
 1783 002e 9BB2     	 uxth r3,r3
 1784 0030 012B     	 cmp r3,#1
 1785 0032 FAD0     	 beq .L94
 229:D:/School/diseratie/SEMS/xmc4800_evaluation_kit/optiga-trust-m/examples\optiga_shell.c ****         {
 1786              	 .loc 1 229 0
 1787 0034 1488     	 ldrh r4,[r2]
 1788 0036 A4B2     	 uxth r4,r4
 1789 0038 54B1     	 cbz r4,.L95
 231:D:/School/diseratie/SEMS/xmc4800_evaluation_kit/optiga-trust-m/examples\optiga_shell.c ****             //optiga util close application failed
 1790              	 .loc 1 231 0
 1791 003a 1388     	 ldrh r3,[r2]
 1792 003c 9BB2     	 uxth r3,r3
 1793              	.LVL145:
 244:D:/School/diseratie/SEMS/xmc4800_evaluation_kit/optiga-trust-m/examples\optiga_shell.c **** }
 1794              	 .loc 1 244 0
 1795 003e 002B     	 cmp r3,#0
 1796 0040 F1D1     	 bne .L92
 1797              	.LVL146:
 1798              	.L96:
 244:D:/School/diseratie/SEMS/xmc4800_evaluation_kit/optiga-trust-m/examples\optiga_shell.c **** }
 1799              	 .loc 1 244 0 is_stmt 0 discriminator 1
 1800 0042 0A49     	 ldr r1,.L104+8
 1801 0044 019A     	 ldr r2,[sp,#4]
 1802 0046 0A48     	 ldr r0,.L104+12
 1803 0048 FFF7FEFF 	 bl sprintf
 1804              	.LVL147:
 245:D:/School/diseratie/SEMS/xmc4800_evaluation_kit/optiga-trust-m/examples\optiga_shell.c **** 
 1805              	 .loc 1 245 0 is_stmt 1 discriminator 1
 1806 004c 03B0     	 add sp,sp,#12
 1807              	.LCFI48:
 1808              	 .cfi_remember_state
 1809              	 .cfi_def_cfa_offset 20
 1810              	 
 1811 004e F0BD     	 pop {r4,r5,r6,r7,pc}
 1812              	.LVL148:
 1813              	.L95:
 1814              	.LCFI49:
 1815              	 .cfi_restore_state
 236:D:/School/diseratie/SEMS/xmc4800_evaluation_kit/optiga-trust-m/examples\optiga_shell.c ****         
 1816              	 .loc 1 236 0
 1817 0050 2846     	 mov r0,r5
 1818              	.LVL149:
 1819 0052 2146     	 mov r1,r4
 1820 0054 FFF7FEFF 	 bl example_performance_measurement
 1821              	.LVL150:
 240:D:/School/diseratie/SEMS/xmc4800_evaluation_kit/optiga-trust-m/examples\optiga_shell.c ****         me_util = NULL;
 1822              	 .loc 1 240 0
 1823 0058 3868     	 ldr r0,[r7]
 1824 005a FFF7FEFF 	 bl optiga_util_destroy
 1825              	.LVL151:
 241:D:/School/diseratie/SEMS/xmc4800_evaluation_kit/optiga-trust-m/examples\optiga_shell.c ****     }while(FALSE);
 1826              	 .loc 1 241 0
 1827 005e 3C60     	 str r4,[r7]
 1828              	.LVL152:
 1829 0060 EFE7     	 b .L96
 1830              	.L105:
 1831 0062 00BF     	 .align 2
 1832              	.L104:
 1833 0064 00000000 	 .word .LANCHOR0
 1834 0068 00000000 	 .word .LANCHOR1
 1835 006c 40100000 	 .word .LC75
 1836 0070 00000000 	 .word performance_buffer_string
 1837              	 .cfi_endproc
 1838              	.LFE451:
 1840              	 .section .text.optiga_shell_init,"ax",%progbits
 1841              	 .align 2
 1842              	 .thumb
 1843              	 .thumb_func
 1845              	optiga_shell_init:
 1846              	.LFB450:
 113:D:/School/diseratie/SEMS/xmc4800_evaluation_kit/optiga-trust-m/examples\optiga_shell.c ****     optiga_lib_status_t return_status = !OPTIGA_LIB_SUCCESS;
 1847              	 .loc 1 113 0
 1848              	 .cfi_startproc
 1849              	 
 1850              	 
 1851              	.LVL153:
 1852 0000 F0B5     	 push {r4,r5,r6,r7,lr}
 1853              	.LCFI50:
 1854              	 .cfi_def_cfa_offset 20
 1855              	 .cfi_offset 4,-20
 1856              	 .cfi_offset 5,-16
 1857              	 .cfi_offset 6,-12
 1858              	 .cfi_offset 7,-8
 1859              	 .cfi_offset 14,-4
 121:D:/School/diseratie/SEMS/xmc4800_evaluation_kit/optiga-trust-m/examples\optiga_shell.c ****         {
 1860              	 .loc 1 121 0
 1861 0002 344E     	 ldr r6,.L125
 113:D:/School/diseratie/SEMS/xmc4800_evaluation_kit/optiga-trust-m/examples\optiga_shell.c ****     optiga_lib_status_t return_status = !OPTIGA_LIB_SUCCESS;
 1862              	 .loc 1 113 0
 1863 0004 85B0     	 sub sp,sp,#20
 1864              	.LCFI51:
 1865              	 .cfi_def_cfa_offset 40
 121:D:/School/diseratie/SEMS/xmc4800_evaluation_kit/optiga-trust-m/examples\optiga_shell.c ****         {
 1866              	 .loc 1 121 0
 1867 0006 3068     	 ldr r0,[r6]
 115:D:/School/diseratie/SEMS/xmc4800_evaluation_kit/optiga-trust-m/examples\optiga_shell.c ****     uint16_t optiga_oid = 0xE0C4;
 1868              	 .loc 1 115 0
 1869 0008 0022     	 movs r2,#0
 117:D:/School/diseratie/SEMS/xmc4800_evaluation_kit/optiga-trust-m/examples\optiga_shell.c **** 
 1870              	 .loc 1 117 0
 1871 000a 0F23     	 movs r3,#15
 115:D:/School/diseratie/SEMS/xmc4800_evaluation_kit/optiga-trust-m/examples\optiga_shell.c ****     uint16_t optiga_oid = 0xE0C4;
 1872              	 .loc 1 115 0
 1873 000c 0392     	 str r2,[sp,#12]
 1874              	.LVL154:
 117:D:/School/diseratie/SEMS/xmc4800_evaluation_kit/optiga-trust-m/examples\optiga_shell.c **** 
 1875              	 .loc 1 117 0
 1876 000e 8DF80830 	 strb r3,[sp,#8]
 121:D:/School/diseratie/SEMS/xmc4800_evaluation_kit/optiga-trust-m/examples\optiga_shell.c ****         {
 1877              	 .loc 1 121 0
 1878 0012 00B3     	 cbz r0,.L107
 1879              	.L110:
 136:D:/School/diseratie/SEMS/xmc4800_evaluation_kit/optiga-trust-m/examples\optiga_shell.c ****         
 1880              	 .loc 1 136 0
 1881 0014 0123     	 movs r3,#1
 1882 0016 304C     	 ldr r4,.L125+4
 138:D:/School/diseratie/SEMS/xmc4800_evaluation_kit/optiga-trust-m/examples\optiga_shell.c ****         
 1883              	 .loc 1 138 0
 1884 0018 1946     	 mov r1,r3
 1885 001a 03A8     	 add r0,sp,#12
 136:D:/School/diseratie/SEMS/xmc4800_evaluation_kit/optiga-trust-m/examples\optiga_shell.c ****         
 1886              	 .loc 1 136 0
 1887 001c 2380     	 strh r3,[r4]
 138:D:/School/diseratie/SEMS/xmc4800_evaluation_kit/optiga-trust-m/examples\optiga_shell.c ****         
 1888              	 .loc 1 138 0
 1889 001e FFF7FEFF 	 bl example_performance_measurement
 1890              	.LVL155:
 140:D:/School/diseratie/SEMS/xmc4800_evaluation_kit/optiga-trust-m/examples\optiga_shell.c **** 
 1891              	 .loc 1 140 0
 1892 0022 3068     	 ldr r0,[r6]
 1893 0024 0021     	 movs r1,#0
 1894 0026 FFF7FEFF 	 bl optiga_util_open_application
 1895              	.LVL156:
 142:D:/School/diseratie/SEMS/xmc4800_evaluation_kit/optiga-trust-m/examples\optiga_shell.c ****         {
 1896              	 .loc 1 142 0
 1897 002a 08B1     	 cbz r0,.L109
 1898              	.LVL157:
 1899              	.L106:
 199:D:/School/diseratie/SEMS/xmc4800_evaluation_kit/optiga-trust-m/examples\optiga_shell.c **** 
 1900              	 .loc 1 199 0
 1901 002c 05B0     	 add sp,sp,#20
 1902              	.LCFI52:
 1903              	 .cfi_remember_state
 1904              	 .cfi_def_cfa_offset 20
 1905              	 
 1906 002e F0BD     	 pop {r4,r5,r6,r7,pc}
 1907              	.LVL158:
 1908              	.L109:
 1909              	.LCFI53:
 1910              	 .cfi_restore_state
 146:D:/School/diseratie/SEMS/xmc4800_evaluation_kit/optiga-trust-m/examples\optiga_shell.c ****         {
 1911              	 .loc 1 146 0 discriminator 1
 1912 0030 2388     	 ldrh r3,[r4]
 1913 0032 294D     	 ldr r5,.L125+4
 1914 0034 9BB2     	 uxth r3,r3
 1915 0036 012B     	 cmp r3,#1
 1916 0038 FAD0     	 beq .L109
 150:D:/School/diseratie/SEMS/xmc4800_evaluation_kit/optiga-trust-m/examples\optiga_shell.c ****         {
 1917              	 .loc 1 150 0
 1918 003a 2988     	 ldrh r1,[r5]
 1919 003c 89B2     	 uxth r1,r1
 1920 003e 91B1     	 cbz r1,.L111
 152:D:/School/diseratie/SEMS/xmc4800_evaluation_kit/optiga-trust-m/examples\optiga_shell.c ****             //optiga util open application failed
 1921              	 .loc 1 152 0
 1922 0040 2B88     	 ldrh r3,[r5]
 1923 0042 9BB2     	 uxth r3,r3
 1924              	.LVL159:
 1925              	.L112:
 198:D:/School/diseratie/SEMS/xmc4800_evaluation_kit/optiga-trust-m/examples\optiga_shell.c **** }
 1926              	 .loc 1 198 0
 1927 0044 002B     	 cmp r3,#0
 1928 0046 F1D1     	 bne .L106
 1929              	.LVL160:
 1930              	.L115:
 198:D:/School/diseratie/SEMS/xmc4800_evaluation_kit/optiga-trust-m/examples\optiga_shell.c **** }
 1931              	 .loc 1 198 0 is_stmt 0 discriminator 1
 1932 0048 2449     	 ldr r1,.L125+8
 1933 004a 039A     	 ldr r2,[sp,#12]
 1934 004c 2448     	 ldr r0,.L125+12
 1935 004e FFF7FEFF 	 bl sprintf
 1936              	.LVL161:
 199:D:/School/diseratie/SEMS/xmc4800_evaluation_kit/optiga-trust-m/examples\optiga_shell.c **** 
 1937              	 .loc 1 199 0 is_stmt 1 discriminator 1
 1938 0052 05B0     	 add sp,sp,#20
 1939              	.LCFI54:
 1940              	 .cfi_remember_state
 1941              	 .cfi_def_cfa_offset 20
 1942              	 
 1943 0054 F0BD     	 pop {r4,r5,r6,r7,pc}
 1944              	.LVL162:
 1945              	.L107:
 1946              	.LCFI55:
 1947              	 .cfi_restore_state
 124:D:/School/diseratie/SEMS/xmc4800_evaluation_kit/optiga-trust-m/examples\optiga_shell.c ****             if (NULL == me_util)
 1948              	 .loc 1 124 0
 1949 0056 0246     	 mov r2,r0
 1950 0058 2249     	 ldr r1,.L125+16
 1951 005a FFF7FEFF 	 bl optiga_util_create
 1952              	.LVL163:
 1953 005e 3060     	 str r0,[r6]
 125:D:/School/diseratie/SEMS/xmc4800_evaluation_kit/optiga-trust-m/examples\optiga_shell.c ****             {
 1954              	 .loc 1 125 0
 1955 0060 0028     	 cmp r0,#0
 1956 0062 D7D1     	 bne .L110
 1957 0064 E2E7     	 b .L106
 1958              	.LVL164:
 1959              	.L111:
 157:D:/School/diseratie/SEMS/xmc4800_evaluation_kit/optiga-trust-m/examples\optiga_shell.c ****         
 1960              	 .loc 1 157 0
 1961 0066 03A8     	 add r0,sp,#12
 1962              	.LVL165:
 1963 0068 FFF7FEFF 	 bl example_performance_measurement
 1964              	.LVL166:
 159:D:/School/diseratie/SEMS/xmc4800_evaluation_kit/optiga-trust-m/examples\optiga_shell.c **** #ifdef OPTIGA_COMMS_SHIELDED_CONNECTION 
 1965              	 .loc 1 159 0
 1966 006c 1E48     	 ldr r0,.L125+20
 1967 006e 1F49     	 ldr r1,.L125+24
 1968 0070 1F4A     	 ldr r2,.L125+28
 1969 0072 FFF7FEFF 	 bl optiga_lib_print_message
 1970              	.LVL167:
 163:D:/School/diseratie/SEMS/xmc4800_evaluation_kit/optiga-trust-m/examples\optiga_shell.c ****         if (OPTIGA_LIB_SUCCESS != return_status)
 1971              	 .loc 1 163 0
 1972 0076 FFF7FEFF 	 bl pair_host_and_optiga_using_pre_shared_secret
 1973              	.LVL168:
 164:D:/School/diseratie/SEMS/xmc4800_evaluation_kit/optiga-trust-m/examples\optiga_shell.c ****         {
 1974              	 .loc 1 164 0
 1975 007a 0746     	 mov r7,r0
 1976 007c 0028     	 cmp r0,#0
 1977 007e D5D1     	 bne .L106
 169:D:/School/diseratie/SEMS/xmc4800_evaluation_kit/optiga-trust-m/examples\optiga_shell.c **** #endif
 1978              	 .loc 1 169 0
 1979 0080 1C48     	 ldr r0,.L125+32
 1980              	.LVL169:
 1981 0082 1A49     	 ldr r1,.L125+24
 1982 0084 1A4A     	 ldr r2,.L125+28
 1983 0086 FFF7FEFF 	 bl optiga_lib_print_message
 1984              	.LVL170:
 173:D:/School/diseratie/SEMS/xmc4800_evaluation_kit/optiga-trust-m/examples\optiga_shell.c ****                                                optiga_oid,
 1985              	 .loc 1 173 0
 1986 008a 3068     	 ldr r0,[r6]
 1987 008c 02AA     	 add r2,sp,#8
 172:D:/School/diseratie/SEMS/xmc4800_evaluation_kit/optiga-trust-m/examples\optiga_shell.c ****         return_status = optiga_util_write_data(me_util,
 1988              	 .loc 1 172 0
 1989 008e 0126     	 movs r6,#1
 173:D:/School/diseratie/SEMS/xmc4800_evaluation_kit/optiga-trust-m/examples\optiga_shell.c ****                                                optiga_oid,
 1990              	 .loc 1 173 0
 1991 0090 8DE84400 	 stmia sp,{r2,r6}
 1992 0094 3B46     	 mov r3,r7
 1993 0096 4EF2C401 	 movw r1,#57540
 1994 009a 4022     	 movs r2,#64
 172:D:/School/diseratie/SEMS/xmc4800_evaluation_kit/optiga-trust-m/examples\optiga_shell.c ****         return_status = optiga_util_write_data(me_util,
 1995              	 .loc 1 172 0
 1996 009c 2E80     	 strh r6,[r5]
 173:D:/School/diseratie/SEMS/xmc4800_evaluation_kit/optiga-trust-m/examples\optiga_shell.c ****                                                optiga_oid,
 1997              	 .loc 1 173 0
 1998 009e FFF7FEFF 	 bl optiga_util_write_data
 1999              	.LVL171:
 180:D:/School/diseratie/SEMS/xmc4800_evaluation_kit/optiga-trust-m/examples\optiga_shell.c ****         {
 2000              	 .loc 1 180 0
 2001 00a2 0028     	 cmp r0,#0
 2002 00a4 C2D1     	 bne .L106
 2003              	.L113:
 185:D:/School/diseratie/SEMS/xmc4800_evaluation_kit/optiga-trust-m/examples\optiga_shell.c ****         {
 2004              	 .loc 1 185 0 discriminator 1
 2005 00a6 2388     	 ldrh r3,[r4]
 2006 00a8 0B4A     	 ldr r2,.L125+4
 2007 00aa 9BB2     	 uxth r3,r3
 2008 00ac 012B     	 cmp r3,#1
 2009 00ae FAD0     	 beq .L113
 189:D:/School/diseratie/SEMS/xmc4800_evaluation_kit/optiga-trust-m/examples\optiga_shell.c ****         {
 2010              	 .loc 1 189 0
 2011 00b0 1388     	 ldrh r3,[r2]
 2012 00b2 9BB2     	 uxth r3,r3
 2013 00b4 13B1     	 cbz r3,.L114
 191:D:/School/diseratie/SEMS/xmc4800_evaluation_kit/optiga-trust-m/examples\optiga_shell.c ****             break;
 2014              	 .loc 1 191 0
 2015 00b6 1388     	 ldrh r3,[r2]
 2016 00b8 9BB2     	 uxth r3,r3
 2017              	.LVL172:
 192:D:/School/diseratie/SEMS/xmc4800_evaluation_kit/optiga-trust-m/examples\optiga_shell.c ****         }
 2018              	 .loc 1 192 0
 2019 00ba C3E7     	 b .L112
 2020              	.LVL173:
 2021              	.L114:
 194:D:/School/diseratie/SEMS/xmc4800_evaluation_kit/optiga-trust-m/examples\optiga_shell.c ****         OPTIGA_SHELL_LOG_MESSAGE("Starting OPTIGA example demonstration..\n");
 2022              	 .loc 1 194 0
 2023 00bc 0E48     	 ldr r0,.L125+36
 2024              	.LVL174:
 2025 00be 0B49     	 ldr r1,.L125+24
 2026 00c0 0B4A     	 ldr r2,.L125+28
 2027 00c2 FFF7FEFF 	 bl optiga_lib_print_message
 2028              	.LVL175:
 195:D:/School/diseratie/SEMS/xmc4800_evaluation_kit/optiga-trust-m/examples\optiga_shell.c ****     }while(FALSE);
 2029              	 .loc 1 195 0
 2030 00c6 0D48     	 ldr r0,.L125+40
 2031 00c8 0849     	 ldr r1,.L125+24
 2032 00ca 094A     	 ldr r2,.L125+28
 2033 00cc FFF7FEFF 	 bl optiga_lib_print_message
 2034              	.LVL176:
 2035 00d0 BAE7     	 b .L115
 2036              	.L126:
 2037 00d2 00BF     	 .align 2
 2038              	.L125:
 2039 00d4 00000000 	 .word .LANCHOR1
 2040 00d8 00000000 	 .word .LANCHOR0
 2041 00dc 40100000 	 .word .LC75
 2042 00e0 00000000 	 .word performance_buffer_string
 2043 00e4 00000000 	 .word optiga_util_callback
 2044 00e8 58100000 	 .word .LC76
 2045 00ec 34000000 	 .word .LC1
 2046 00f0 48000000 	 .word .LC2
 2047 00f4 7C100000 	 .word .LC77
 2048 00f8 A4100000 	 .word .LC78
 2049 00fc D0100000 	 .word .LC79
 2050              	 .cfi_endproc
 2051              	.LFE450:
 2053              	 .section .text.optiga_shell_show_usage,"ax",%progbits
 2054              	 .align 2
 2055              	 .thumb
 2056              	 .thumb_func
 2058              	optiga_shell_show_usage:
 2059              	.LFB476:
 586:D:/School/diseratie/SEMS/xmc4800_evaluation_kit/optiga-trust-m/examples\optiga_shell.c **** #endif
 587:D:/School/diseratie/SEMS/xmc4800_evaluation_kit/optiga-trust-m/examples\optiga_shell.c **** 
 588:D:/School/diseratie/SEMS/xmc4800_evaluation_kit/optiga-trust-m/examples\optiga_shell.c **** #if defined (OPTIGA_CRYPT_SYM_ENCRYPT_ENABLED) && defined (OPTIGA_CRYPT_SYM_DECRYPT_ENABLED)
 589:D:/School/diseratie/SEMS/xmc4800_evaluation_kit/optiga-trust-m/examples\optiga_shell.c **** static void optiga_shell_crypt_symmetric_encrypt_decrypt_ecb(void)
 590:D:/School/diseratie/SEMS/xmc4800_evaluation_kit/optiga-trust-m/examples\optiga_shell.c **** {
 591:D:/School/diseratie/SEMS/xmc4800_evaluation_kit/optiga-trust-m/examples\optiga_shell.c **** #ifndef OPTIGA_INIT_DEINIT_DONE_EXCLUSIVELY
 592:D:/School/diseratie/SEMS/xmc4800_evaluation_kit/optiga-trust-m/examples\optiga_shell.c ****     OPTIGA_SHELL_LOG_MESSAGE("Initializing OPTIGA for example demonstration...");
 593:D:/School/diseratie/SEMS/xmc4800_evaluation_kit/optiga-trust-m/examples\optiga_shell.c **** #endif
 594:D:/School/diseratie/SEMS/xmc4800_evaluation_kit/optiga-trust-m/examples\optiga_shell.c ****     OPTIGA_SHELL_LOG_MESSAGE("Starting symmetric Encrypt and Decrypt Data for ECB mode Example");
 595:D:/School/diseratie/SEMS/xmc4800_evaluation_kit/optiga-trust-m/examples\optiga_shell.c ****     OPTIGA_SHELL_LOG_MESSAGE("1 Step: Generate and store the AES 128 Symmetric key in OPTIGA Key st
 596:D:/School/diseratie/SEMS/xmc4800_evaluation_kit/optiga-trust-m/examples\optiga_shell.c ****     OPTIGA_SHELL_LOG_MESSAGE("2 Step: Encrypt the plain data with ECB mode");
 597:D:/School/diseratie/SEMS/xmc4800_evaluation_kit/optiga-trust-m/examples\optiga_shell.c ****     OPTIGA_SHELL_LOG_MESSAGE("3 Step: Decrypt the encrypted data from step 2");
 598:D:/School/diseratie/SEMS/xmc4800_evaluation_kit/optiga-trust-m/examples\optiga_shell.c **** #ifndef OPTIGA_INIT_DEINIT_DONE_EXCLUSIVELY
 599:D:/School/diseratie/SEMS/xmc4800_evaluation_kit/optiga-trust-m/examples\optiga_shell.c ****     OPTIGA_SHELL_LOG_MESSAGE("4 Step: Close the application on OPTIGA");
 600:D:/School/diseratie/SEMS/xmc4800_evaluation_kit/optiga-trust-m/examples\optiga_shell.c **** #endif
 601:D:/School/diseratie/SEMS/xmc4800_evaluation_kit/optiga-trust-m/examples\optiga_shell.c ****     example_optiga_crypt_symmetric_encrypt_decrypt_ecb();
 602:D:/School/diseratie/SEMS/xmc4800_evaluation_kit/optiga-trust-m/examples\optiga_shell.c **** }
 603:D:/School/diseratie/SEMS/xmc4800_evaluation_kit/optiga-trust-m/examples\optiga_shell.c **** 
 604:D:/School/diseratie/SEMS/xmc4800_evaluation_kit/optiga-trust-m/examples\optiga_shell.c **** static void optiga_shell_crypt_symmetric_encrypt_decrypt_cbc(void)
 605:D:/School/diseratie/SEMS/xmc4800_evaluation_kit/optiga-trust-m/examples\optiga_shell.c **** {
 606:D:/School/diseratie/SEMS/xmc4800_evaluation_kit/optiga-trust-m/examples\optiga_shell.c **** #ifndef OPTIGA_INIT_DEINIT_DONE_EXCLUSIVELY
 607:D:/School/diseratie/SEMS/xmc4800_evaluation_kit/optiga-trust-m/examples\optiga_shell.c ****     OPTIGA_SHELL_LOG_MESSAGE("Initializing OPTIGA for example demonstration...");
 608:D:/School/diseratie/SEMS/xmc4800_evaluation_kit/optiga-trust-m/examples\optiga_shell.c **** #endif
 609:D:/School/diseratie/SEMS/xmc4800_evaluation_kit/optiga-trust-m/examples\optiga_shell.c ****     OPTIGA_SHELL_LOG_MESSAGE("Starting symmetric Encrypt and Decrypt Data for CBC mode Example");
 610:D:/School/diseratie/SEMS/xmc4800_evaluation_kit/optiga-trust-m/examples\optiga_shell.c ****     OPTIGA_SHELL_LOG_MESSAGE("1 Step: Generate and store the AES 128 Symmetric key in OPTIGA Key st
 611:D:/School/diseratie/SEMS/xmc4800_evaluation_kit/optiga-trust-m/examples\optiga_shell.c ****     OPTIGA_SHELL_LOG_MESSAGE("2 Step: Encrypt the plain data with CBC mode");
 612:D:/School/diseratie/SEMS/xmc4800_evaluation_kit/optiga-trust-m/examples\optiga_shell.c ****     OPTIGA_SHELL_LOG_MESSAGE("3 Step: Decrypt the encrypted data from step 2");
 613:D:/School/diseratie/SEMS/xmc4800_evaluation_kit/optiga-trust-m/examples\optiga_shell.c **** #ifndef OPTIGA_INIT_DEINIT_DONE_EXCLUSIVELY
 614:D:/School/diseratie/SEMS/xmc4800_evaluation_kit/optiga-trust-m/examples\optiga_shell.c ****     OPTIGA_SHELL_LOG_MESSAGE("4 Step: Close the application on OPTIGA");
 615:D:/School/diseratie/SEMS/xmc4800_evaluation_kit/optiga-trust-m/examples\optiga_shell.c **** #endif
 616:D:/School/diseratie/SEMS/xmc4800_evaluation_kit/optiga-trust-m/examples\optiga_shell.c ****     example_optiga_crypt_symmetric_encrypt_decrypt_cbc();
 617:D:/School/diseratie/SEMS/xmc4800_evaluation_kit/optiga-trust-m/examples\optiga_shell.c **** }
 618:D:/School/diseratie/SEMS/xmc4800_evaluation_kit/optiga-trust-m/examples\optiga_shell.c **** 
 619:D:/School/diseratie/SEMS/xmc4800_evaluation_kit/optiga-trust-m/examples\optiga_shell.c **** static void optiga_shell_crypt_symmetric_encrypt_cbcmac(void)
 620:D:/School/diseratie/SEMS/xmc4800_evaluation_kit/optiga-trust-m/examples\optiga_shell.c **** {
 621:D:/School/diseratie/SEMS/xmc4800_evaluation_kit/optiga-trust-m/examples\optiga_shell.c **** #ifndef OPTIGA_INIT_DEINIT_DONE_EXCLUSIVELY
 622:D:/School/diseratie/SEMS/xmc4800_evaluation_kit/optiga-trust-m/examples\optiga_shell.c ****     OPTIGA_SHELL_LOG_MESSAGE("Initializing OPTIGA for example demonstration...");
 623:D:/School/diseratie/SEMS/xmc4800_evaluation_kit/optiga-trust-m/examples\optiga_shell.c **** #endif
 624:D:/School/diseratie/SEMS/xmc4800_evaluation_kit/optiga-trust-m/examples\optiga_shell.c ****     OPTIGA_SHELL_LOG_MESSAGE("Starting symmetric Encrypt Data for CBCMAC mode Example");
 625:D:/School/diseratie/SEMS/xmc4800_evaluation_kit/optiga-trust-m/examples\optiga_shell.c ****     OPTIGA_SHELL_LOG_MESSAGE("1 Step: Generate and store the AES 128 Symmetric key in OPTIGA Key st
 626:D:/School/diseratie/SEMS/xmc4800_evaluation_kit/optiga-trust-m/examples\optiga_shell.c ****     OPTIGA_SHELL_LOG_MESSAGE("2 Step: Encrypt the plain data with CBCMAC mode");
 627:D:/School/diseratie/SEMS/xmc4800_evaluation_kit/optiga-trust-m/examples\optiga_shell.c **** #ifndef OPTIGA_INIT_DEINIT_DONE_EXCLUSIVELY
 628:D:/School/diseratie/SEMS/xmc4800_evaluation_kit/optiga-trust-m/examples\optiga_shell.c ****     OPTIGA_SHELL_LOG_MESSAGE("3 Step: Close the application on OPTIGA");
 629:D:/School/diseratie/SEMS/xmc4800_evaluation_kit/optiga-trust-m/examples\optiga_shell.c **** #endif
 630:D:/School/diseratie/SEMS/xmc4800_evaluation_kit/optiga-trust-m/examples\optiga_shell.c ****     example_optiga_crypt_symmetric_encrypt_cbcmac();
 631:D:/School/diseratie/SEMS/xmc4800_evaluation_kit/optiga-trust-m/examples\optiga_shell.c **** }
 632:D:/School/diseratie/SEMS/xmc4800_evaluation_kit/optiga-trust-m/examples\optiga_shell.c **** #endif
 633:D:/School/diseratie/SEMS/xmc4800_evaluation_kit/optiga-trust-m/examples\optiga_shell.c **** 
 634:D:/School/diseratie/SEMS/xmc4800_evaluation_kit/optiga-trust-m/examples\optiga_shell.c **** #ifdef OPTIGA_CRYPT_HMAC_ENABLED
 635:D:/School/diseratie/SEMS/xmc4800_evaluation_kit/optiga-trust-m/examples\optiga_shell.c **** static void optiga_shell_crypt_hmac(void)
 636:D:/School/diseratie/SEMS/xmc4800_evaluation_kit/optiga-trust-m/examples\optiga_shell.c **** {
 637:D:/School/diseratie/SEMS/xmc4800_evaluation_kit/optiga-trust-m/examples\optiga_shell.c **** #ifndef OPTIGA_INIT_DEINIT_DONE_EXCLUSIVELY
 638:D:/School/diseratie/SEMS/xmc4800_evaluation_kit/optiga-trust-m/examples\optiga_shell.c ****     OPTIGA_SHELL_LOG_MESSAGE("Initializing OPTIGA for example demonstration...");
 639:D:/School/diseratie/SEMS/xmc4800_evaluation_kit/optiga-trust-m/examples\optiga_shell.c **** #endif
 640:D:/School/diseratie/SEMS/xmc4800_evaluation_kit/optiga-trust-m/examples\optiga_shell.c ****     OPTIGA_SHELL_LOG_MESSAGE("Starting HMAC-SHA256 generation Example");
 641:D:/School/diseratie/SEMS/xmc4800_evaluation_kit/optiga-trust-m/examples\optiga_shell.c ****     OPTIGA_SHELL_LOG_MESSAGE("1 Step: Change metadata for OID(0xF1D0) as Execute access condition =
 642:D:/School/diseratie/SEMS/xmc4800_evaluation_kit/optiga-trust-m/examples\optiga_shell.c ****     OPTIGA_SHELL_LOG_MESSAGE("2 Step: Generate HMAC");
 643:D:/School/diseratie/SEMS/xmc4800_evaluation_kit/optiga-trust-m/examples\optiga_shell.c **** #ifndef OPTIGA_INIT_DEINIT_DONE_EXCLUSIVELY
 644:D:/School/diseratie/SEMS/xmc4800_evaluation_kit/optiga-trust-m/examples\optiga_shell.c ****     OPTIGA_SHELL_LOG_MESSAGE("3 Step: Close the application on OPTIGA");
 645:D:/School/diseratie/SEMS/xmc4800_evaluation_kit/optiga-trust-m/examples\optiga_shell.c **** #endif
 646:D:/School/diseratie/SEMS/xmc4800_evaluation_kit/optiga-trust-m/examples\optiga_shell.c ****     example_optiga_crypt_hmac();
 647:D:/School/diseratie/SEMS/xmc4800_evaluation_kit/optiga-trust-m/examples\optiga_shell.c **** }
 648:D:/School/diseratie/SEMS/xmc4800_evaluation_kit/optiga-trust-m/examples\optiga_shell.c **** #endif
 649:D:/School/diseratie/SEMS/xmc4800_evaluation_kit/optiga-trust-m/examples\optiga_shell.c **** 
 650:D:/School/diseratie/SEMS/xmc4800_evaluation_kit/optiga-trust-m/examples\optiga_shell.c **** #ifdef OPTIGA_CRYPT_HKDF_ENABLED
 651:D:/School/diseratie/SEMS/xmc4800_evaluation_kit/optiga-trust-m/examples\optiga_shell.c **** static void optiga_shell_crypt_hkdf(void)
 652:D:/School/diseratie/SEMS/xmc4800_evaluation_kit/optiga-trust-m/examples\optiga_shell.c **** {
 653:D:/School/diseratie/SEMS/xmc4800_evaluation_kit/optiga-trust-m/examples\optiga_shell.c **** #ifndef OPTIGA_INIT_DEINIT_DONE_EXCLUSIVELY
 654:D:/School/diseratie/SEMS/xmc4800_evaluation_kit/optiga-trust-m/examples\optiga_shell.c ****     OPTIGA_SHELL_LOG_MESSAGE("Initializing OPTIGA for example demonstration...");
 655:D:/School/diseratie/SEMS/xmc4800_evaluation_kit/optiga-trust-m/examples\optiga_shell.c **** #endif
 656:D:/School/diseratie/SEMS/xmc4800_evaluation_kit/optiga-trust-m/examples\optiga_shell.c ****     OPTIGA_SHELL_LOG_MESSAGE("Starting HKDF-SHA256 key derivation Example");
 657:D:/School/diseratie/SEMS/xmc4800_evaluation_kit/optiga-trust-m/examples\optiga_shell.c ****     OPTIGA_SHELL_LOG_MESSAGE("1 Step: Write the shared secret to the Arbitrary data object F1D0");
 658:D:/School/diseratie/SEMS/xmc4800_evaluation_kit/optiga-trust-m/examples\optiga_shell.c ****     OPTIGA_SHELL_LOG_MESSAGE("2 Step: Change metadata of OID(0xF1D0) Data object type  =  Pre-share
 659:D:/School/diseratie/SEMS/xmc4800_evaluation_kit/optiga-trust-m/examples\optiga_shell.c ****     OPTIGA_SHELL_LOG_MESSAGE("3 Step: Derive HKDF");
 660:D:/School/diseratie/SEMS/xmc4800_evaluation_kit/optiga-trust-m/examples\optiga_shell.c **** #ifndef OPTIGA_INIT_DEINIT_DONE_EXCLUSIVELY
 661:D:/School/diseratie/SEMS/xmc4800_evaluation_kit/optiga-trust-m/examples\optiga_shell.c ****     OPTIGA_SHELL_LOG_MESSAGE("4 Step: Close the application on OPTIGA");
 662:D:/School/diseratie/SEMS/xmc4800_evaluation_kit/optiga-trust-m/examples\optiga_shell.c **** #endif
 663:D:/School/diseratie/SEMS/xmc4800_evaluation_kit/optiga-trust-m/examples\optiga_shell.c ****     example_optiga_crypt_hkdf();
 664:D:/School/diseratie/SEMS/xmc4800_evaluation_kit/optiga-trust-m/examples\optiga_shell.c **** }
 665:D:/School/diseratie/SEMS/xmc4800_evaluation_kit/optiga-trust-m/examples\optiga_shell.c **** #endif
 666:D:/School/diseratie/SEMS/xmc4800_evaluation_kit/optiga-trust-m/examples\optiga_shell.c **** 
 667:D:/School/diseratie/SEMS/xmc4800_evaluation_kit/optiga-trust-m/examples\optiga_shell.c **** #ifdef OPTIGA_CRYPT_SYM_GENERATE_KEY_ENABLED
 668:D:/School/diseratie/SEMS/xmc4800_evaluation_kit/optiga-trust-m/examples\optiga_shell.c **** static void optiga_shell_crypt_symmetric_generate_key(void)
 669:D:/School/diseratie/SEMS/xmc4800_evaluation_kit/optiga-trust-m/examples\optiga_shell.c **** {
 670:D:/School/diseratie/SEMS/xmc4800_evaluation_kit/optiga-trust-m/examples\optiga_shell.c **** #ifndef OPTIGA_INIT_DEINIT_DONE_EXCLUSIVELY
 671:D:/School/diseratie/SEMS/xmc4800_evaluation_kit/optiga-trust-m/examples\optiga_shell.c ****     OPTIGA_SHELL_LOG_MESSAGE("Initializing OPTIGA for example demonstration...");
 672:D:/School/diseratie/SEMS/xmc4800_evaluation_kit/optiga-trust-m/examples\optiga_shell.c **** #endif
 673:D:/School/diseratie/SEMS/xmc4800_evaluation_kit/optiga-trust-m/examples\optiga_shell.c ****     OPTIGA_SHELL_LOG_MESSAGE("Starting generation of symmetric AES-128 key");
 674:D:/School/diseratie/SEMS/xmc4800_evaluation_kit/optiga-trust-m/examples\optiga_shell.c ****     OPTIGA_SHELL_LOG_MESSAGE("1 Step: Generate symmetric AES-128 key and store it in OID(E200)");
 675:D:/School/diseratie/SEMS/xmc4800_evaluation_kit/optiga-trust-m/examples\optiga_shell.c **** #ifndef OPTIGA_INIT_DEINIT_DONE_EXCLUSIVELY
 676:D:/School/diseratie/SEMS/xmc4800_evaluation_kit/optiga-trust-m/examples\optiga_shell.c ****     OPTIGA_SHELL_LOG_MESSAGE("2 Step: Close the application on OPTIGA");
 677:D:/School/diseratie/SEMS/xmc4800_evaluation_kit/optiga-trust-m/examples\optiga_shell.c **** #endif
 678:D:/School/diseratie/SEMS/xmc4800_evaluation_kit/optiga-trust-m/examples\optiga_shell.c ****     example_optiga_crypt_symmetric_generate_key();
 679:D:/School/diseratie/SEMS/xmc4800_evaluation_kit/optiga-trust-m/examples\optiga_shell.c **** }
 680:D:/School/diseratie/SEMS/xmc4800_evaluation_kit/optiga-trust-m/examples\optiga_shell.c **** #endif
 681:D:/School/diseratie/SEMS/xmc4800_evaluation_kit/optiga-trust-m/examples\optiga_shell.c **** 
 682:D:/School/diseratie/SEMS/xmc4800_evaluation_kit/optiga-trust-m/examples\optiga_shell.c **** #if defined (OPTIGA_CRYPT_GENERATE_AUTH_CODE_ENABLED) && defined (OPTIGA_CRYPT_HMAC_VERIFY_ENABLED)
 683:D:/School/diseratie/SEMS/xmc4800_evaluation_kit/optiga-trust-m/examples\optiga_shell.c **** static void optiga_shell_crypt_hmac_verify_with_authorization_reference(void)
 684:D:/School/diseratie/SEMS/xmc4800_evaluation_kit/optiga-trust-m/examples\optiga_shell.c **** {
 685:D:/School/diseratie/SEMS/xmc4800_evaluation_kit/optiga-trust-m/examples\optiga_shell.c **** #ifndef OPTIGA_INIT_DEINIT_DONE_EXCLUSIVELY
 686:D:/School/diseratie/SEMS/xmc4800_evaluation_kit/optiga-trust-m/examples\optiga_shell.c ****     OPTIGA_SHELL_LOG_MESSAGE("Initializing OPTIGA for example demonstration...");
 687:D:/School/diseratie/SEMS/xmc4800_evaluation_kit/optiga-trust-m/examples\optiga_shell.c **** #endif
 688:D:/School/diseratie/SEMS/xmc4800_evaluation_kit/optiga-trust-m/examples\optiga_shell.c ****     OPTIGA_SHELL_LOG_MESSAGE("Starting HMAC verify with authorization reference Example");
 689:D:/School/diseratie/SEMS/xmc4800_evaluation_kit/optiga-trust-m/examples\optiga_shell.c ****     OPTIGA_SHELL_LOG_MESSAGE("1 Step: Get the User Secret and store it in OID(0xF1D0)");
 690:D:/School/diseratie/SEMS/xmc4800_evaluation_kit/optiga-trust-m/examples\optiga_shell.c ****     OPTIGA_SHELL_LOG_MESSAGE("2 Step: Set the metadata of 0xF1E0 to Auto with 0xF1D0");
 691:D:/School/diseratie/SEMS/xmc4800_evaluation_kit/optiga-trust-m/examples\optiga_shell.c ****     OPTIGA_SHELL_LOG_MESSAGE("3 Step: Generate authorization code with optional data");
 692:D:/School/diseratie/SEMS/xmc4800_evaluation_kit/optiga-trust-m/examples\optiga_shell.c ****     OPTIGA_SHELL_LOG_MESSAGE("4 Step: Calculate HMAC on host using mbedtls");
 693:D:/School/diseratie/SEMS/xmc4800_evaluation_kit/optiga-trust-m/examples\optiga_shell.c ****     OPTIGA_SHELL_LOG_MESSAGE("5 Step: Perform HMAC verification");
 694:D:/School/diseratie/SEMS/xmc4800_evaluation_kit/optiga-trust-m/examples\optiga_shell.c **** #ifndef OPTIGA_INIT_DEINIT_DONE_EXCLUSIVELY
 695:D:/School/diseratie/SEMS/xmc4800_evaluation_kit/optiga-trust-m/examples\optiga_shell.c ****     OPTIGA_SHELL_LOG_MESSAGE("6 Step: Close the application on OPTIGA");
 696:D:/School/diseratie/SEMS/xmc4800_evaluation_kit/optiga-trust-m/examples\optiga_shell.c **** #endif
 697:D:/School/diseratie/SEMS/xmc4800_evaluation_kit/optiga-trust-m/examples\optiga_shell.c ****     example_optiga_hmac_verify_with_authorization_reference();
 698:D:/School/diseratie/SEMS/xmc4800_evaluation_kit/optiga-trust-m/examples\optiga_shell.c **** }
 699:D:/School/diseratie/SEMS/xmc4800_evaluation_kit/optiga-trust-m/examples\optiga_shell.c **** #endif
 700:D:/School/diseratie/SEMS/xmc4800_evaluation_kit/optiga-trust-m/examples\optiga_shell.c **** 
 701:D:/School/diseratie/SEMS/xmc4800_evaluation_kit/optiga-trust-m/examples\optiga_shell.c **** #if defined (OPTIGA_CRYPT_GENERATE_AUTH_CODE_ENABLED) && defined (OPTIGA_CRYPT_HMAC_VERIFY_ENABLED)
 702:D:/School/diseratie/SEMS/xmc4800_evaluation_kit/optiga-trust-m/examples\optiga_shell.c **** static void optiga_shell_crypt_clear_auto_state(void)
 703:D:/School/diseratie/SEMS/xmc4800_evaluation_kit/optiga-trust-m/examples\optiga_shell.c **** {
 704:D:/School/diseratie/SEMS/xmc4800_evaluation_kit/optiga-trust-m/examples\optiga_shell.c **** #ifndef OPTIGA_INIT_DEINIT_DONE_EXCLUSIVELY
 705:D:/School/diseratie/SEMS/xmc4800_evaluation_kit/optiga-trust-m/examples\optiga_shell.c ****     OPTIGA_SHELL_LOG_MESSAGE("Initializing OPTIGA for example demonstration...");
 706:D:/School/diseratie/SEMS/xmc4800_evaluation_kit/optiga-trust-m/examples\optiga_shell.c **** #endif
 707:D:/School/diseratie/SEMS/xmc4800_evaluation_kit/optiga-trust-m/examples\optiga_shell.c ****     OPTIGA_SHELL_LOG_MESSAGE("Starting clear auto state Example");
 708:D:/School/diseratie/SEMS/xmc4800_evaluation_kit/optiga-trust-m/examples\optiga_shell.c ****     OPTIGA_SHELL_LOG_MESSAGE("1 Step: Change metadata of OID(0xF1D0) Data object type  =  Pre-share
 709:D:/School/diseratie/SEMS/xmc4800_evaluation_kit/optiga-trust-m/examples\optiga_shell.c ****     OPTIGA_SHELL_LOG_MESSAGE("2 Step: Get the User Secret and store it in OID(0xF1D0)");
 710:D:/School/diseratie/SEMS/xmc4800_evaluation_kit/optiga-trust-m/examples\optiga_shell.c ****     OPTIGA_SHELL_LOG_MESSAGE("3 Step: Generate auth code with optional data");
 711:D:/School/diseratie/SEMS/xmc4800_evaluation_kit/optiga-trust-m/examples\optiga_shell.c ****     OPTIGA_SHELL_LOG_MESSAGE("4 Step: Calculate HMAC on host using mbedtls");
 712:D:/School/diseratie/SEMS/xmc4800_evaluation_kit/optiga-trust-m/examples\optiga_shell.c ****     OPTIGA_SHELL_LOG_MESSAGE("5 Step: Perform HMAC verification");
 713:D:/School/diseratie/SEMS/xmc4800_evaluation_kit/optiga-trust-m/examples\optiga_shell.c ****     OPTIGA_SHELL_LOG_MESSAGE("6 Step: Perform clear auto state");
 714:D:/School/diseratie/SEMS/xmc4800_evaluation_kit/optiga-trust-m/examples\optiga_shell.c **** #ifndef OPTIGA_INIT_DEINIT_DONE_EXCLUSIVELY
 715:D:/School/diseratie/SEMS/xmc4800_evaluation_kit/optiga-trust-m/examples\optiga_shell.c ****     OPTIGA_SHELL_LOG_MESSAGE("7 Step: Close the application on OPTIGA");
 716:D:/School/diseratie/SEMS/xmc4800_evaluation_kit/optiga-trust-m/examples\optiga_shell.c **** #endif
 717:D:/School/diseratie/SEMS/xmc4800_evaluation_kit/optiga-trust-m/examples\optiga_shell.c ****     example_optiga_crypt_clear_auto_state();
 718:D:/School/diseratie/SEMS/xmc4800_evaluation_kit/optiga-trust-m/examples\optiga_shell.c **** }
 719:D:/School/diseratie/SEMS/xmc4800_evaluation_kit/optiga-trust-m/examples\optiga_shell.c **** #endif
 720:D:/School/diseratie/SEMS/xmc4800_evaluation_kit/optiga-trust-m/examples\optiga_shell.c **** 
 721:D:/School/diseratie/SEMS/xmc4800_evaluation_kit/optiga-trust-m/examples\optiga_shell.c **** void run_example(void (*test_case)(void)) 
 722:D:/School/diseratie/SEMS/xmc4800_evaluation_kit/optiga-trust-m/examples\optiga_shell.c **** { 
 723:D:/School/diseratie/SEMS/xmc4800_evaluation_kit/optiga-trust-m/examples\optiga_shell.c ****     test_case();  
 724:D:/School/diseratie/SEMS/xmc4800_evaluation_kit/optiga-trust-m/examples\optiga_shell.c ****     optiga_lib_print_string_with_newline(""); 
 725:D:/School/diseratie/SEMS/xmc4800_evaluation_kit/optiga-trust-m/examples\optiga_shell.c ****     pal_os_timer_delay_in_milliseconds(2000);
 726:D:/School/diseratie/SEMS/xmc4800_evaluation_kit/optiga-trust-m/examples\optiga_shell.c **** }
 727:D:/School/diseratie/SEMS/xmc4800_evaluation_kit/optiga-trust-m/examples\optiga_shell.c **** 
 728:D:/School/diseratie/SEMS/xmc4800_evaluation_kit/optiga-trust-m/examples\optiga_shell.c **** static void optiga_shell_selftest(void)
 729:D:/School/diseratie/SEMS/xmc4800_evaluation_kit/optiga-trust-m/examples\optiga_shell.c **** {
 730:D:/School/diseratie/SEMS/xmc4800_evaluation_kit/optiga-trust-m/examples\optiga_shell.c ****     run_example(optiga_shell_init);
 731:D:/School/diseratie/SEMS/xmc4800_evaluation_kit/optiga-trust-m/examples\optiga_shell.c **** #ifndef OPTIGA_INIT_DEINIT_DONE_EXCLUSIVELY
 732:D:/School/diseratie/SEMS/xmc4800_evaluation_kit/optiga-trust-m/examples\optiga_shell.c ****     run_example(optiga_shell_deinit);
 733:D:/School/diseratie/SEMS/xmc4800_evaluation_kit/optiga-trust-m/examples\optiga_shell.c **** #endif
 734:D:/School/diseratie/SEMS/xmc4800_evaluation_kit/optiga-trust-m/examples\optiga_shell.c ****     run_example(optiga_shell_util_read_data);
 735:D:/School/diseratie/SEMS/xmc4800_evaluation_kit/optiga-trust-m/examples\optiga_shell.c ****     run_example(optiga_shell_util_write_data);
 736:D:/School/diseratie/SEMS/xmc4800_evaluation_kit/optiga-trust-m/examples\optiga_shell.c ****     run_example(optiga_shell_util_read_coprocessor_id);
 737:D:/School/diseratie/SEMS/xmc4800_evaluation_kit/optiga-trust-m/examples\optiga_shell.c **** #ifdef OPTIGA_COMMS_SHIELDED_CONNECTION 
 738:D:/School/diseratie/SEMS/xmc4800_evaluation_kit/optiga-trust-m/examples\optiga_shell.c ****     run_example(optiga_shell_pair_host_optiga);
 739:D:/School/diseratie/SEMS/xmc4800_evaluation_kit/optiga-trust-m/examples\optiga_shell.c **** #endif
 740:D:/School/diseratie/SEMS/xmc4800_evaluation_kit/optiga-trust-m/examples\optiga_shell.c ****     run_example(optiga_shell_util_update_count);
 741:D:/School/diseratie/SEMS/xmc4800_evaluation_kit/optiga-trust-m/examples\optiga_shell.c ****     run_example(optiga_shell_util_protected_update);
 742:D:/School/diseratie/SEMS/xmc4800_evaluation_kit/optiga-trust-m/examples\optiga_shell.c **** #ifdef OPTIGA_CRYPT_HASH_ENABLED
 743:D:/School/diseratie/SEMS/xmc4800_evaluation_kit/optiga-trust-m/examples\optiga_shell.c ****     run_example(optiga_shell_crypt_hash);
 744:D:/School/diseratie/SEMS/xmc4800_evaluation_kit/optiga-trust-m/examples\optiga_shell.c ****     run_example(optiga_shell_crypt_hash_data);
 745:D:/School/diseratie/SEMS/xmc4800_evaluation_kit/optiga-trust-m/examples\optiga_shell.c **** #endif
 746:D:/School/diseratie/SEMS/xmc4800_evaluation_kit/optiga-trust-m/examples\optiga_shell.c **** #ifdef OPTIGA_CRYPT_TLS_PRF_SHA256_ENABLED
 747:D:/School/diseratie/SEMS/xmc4800_evaluation_kit/optiga-trust-m/examples\optiga_shell.c ****     run_example(optiga_shell_crypt_tls_prf_sha256);
 748:D:/School/diseratie/SEMS/xmc4800_evaluation_kit/optiga-trust-m/examples\optiga_shell.c **** #endif    
 749:D:/School/diseratie/SEMS/xmc4800_evaluation_kit/optiga-trust-m/examples\optiga_shell.c **** #ifdef OPTIGA_CRYPT_RANDOM_ENABLED    
 750:D:/School/diseratie/SEMS/xmc4800_evaluation_kit/optiga-trust-m/examples\optiga_shell.c ****     run_example(optiga_shell_crypt_random);
 751:D:/School/diseratie/SEMS/xmc4800_evaluation_kit/optiga-trust-m/examples\optiga_shell.c **** #endif
 752:D:/School/diseratie/SEMS/xmc4800_evaluation_kit/optiga-trust-m/examples\optiga_shell.c **** #ifdef OPTIGA_CRYPT_ECC_GENERATE_KEYPAIR_ENABLED
 753:D:/School/diseratie/SEMS/xmc4800_evaluation_kit/optiga-trust-m/examples\optiga_shell.c ****     run_example(optiga_shell_crypt_ecc_generate_keypair);
 754:D:/School/diseratie/SEMS/xmc4800_evaluation_kit/optiga-trust-m/examples\optiga_shell.c **** #endif
 755:D:/School/diseratie/SEMS/xmc4800_evaluation_kit/optiga-trust-m/examples\optiga_shell.c **** #ifdef OPTIGA_CRYPT_ECDSA_SIGN_ENABLED
 756:D:/School/diseratie/SEMS/xmc4800_evaluation_kit/optiga-trust-m/examples\optiga_shell.c ****     run_example(optiga_shell_crypt_ecdsa_sign);
 757:D:/School/diseratie/SEMS/xmc4800_evaluation_kit/optiga-trust-m/examples\optiga_shell.c **** #endif
 758:D:/School/diseratie/SEMS/xmc4800_evaluation_kit/optiga-trust-m/examples\optiga_shell.c **** #ifdef OPTIGA_CRYPT_ECDSA_VERIFY_ENABLED
 759:D:/School/diseratie/SEMS/xmc4800_evaluation_kit/optiga-trust-m/examples\optiga_shell.c ****     run_example(optiga_shell_crypt_ecdsa_verify);
 760:D:/School/diseratie/SEMS/xmc4800_evaluation_kit/optiga-trust-m/examples\optiga_shell.c **** #endif
 761:D:/School/diseratie/SEMS/xmc4800_evaluation_kit/optiga-trust-m/examples\optiga_shell.c **** #ifdef OPTIGA_CRYPT_ECDH_ENABLED
 762:D:/School/diseratie/SEMS/xmc4800_evaluation_kit/optiga-trust-m/examples\optiga_shell.c ****     run_example(optiga_shell_crypt_ecdh);
 763:D:/School/diseratie/SEMS/xmc4800_evaluation_kit/optiga-trust-m/examples\optiga_shell.c **** #endif
 764:D:/School/diseratie/SEMS/xmc4800_evaluation_kit/optiga-trust-m/examples\optiga_shell.c **** #ifdef OPTIGA_CRYPT_RSA_GENERATE_KEYPAIR_ENABLED
 765:D:/School/diseratie/SEMS/xmc4800_evaluation_kit/optiga-trust-m/examples\optiga_shell.c ****     run_example(optiga_shell_crypt_rsa_generate_keypair);
 766:D:/School/diseratie/SEMS/xmc4800_evaluation_kit/optiga-trust-m/examples\optiga_shell.c **** #endif
 767:D:/School/diseratie/SEMS/xmc4800_evaluation_kit/optiga-trust-m/examples\optiga_shell.c **** #ifdef OPTIGA_CRYPT_RSA_SIGN_ENABLED
 768:D:/School/diseratie/SEMS/xmc4800_evaluation_kit/optiga-trust-m/examples\optiga_shell.c ****     run_example(optiga_shell_crypt_rsa_sign);
 769:D:/School/diseratie/SEMS/xmc4800_evaluation_kit/optiga-trust-m/examples\optiga_shell.c **** #endif
 770:D:/School/diseratie/SEMS/xmc4800_evaluation_kit/optiga-trust-m/examples\optiga_shell.c **** #ifdef OPTIGA_CRYPT_RSA_VERIFY_ENABLED
 771:D:/School/diseratie/SEMS/xmc4800_evaluation_kit/optiga-trust-m/examples\optiga_shell.c ****     run_example(optiga_shell_crypt_rsa_verify);
 772:D:/School/diseratie/SEMS/xmc4800_evaluation_kit/optiga-trust-m/examples\optiga_shell.c **** #endif
 773:D:/School/diseratie/SEMS/xmc4800_evaluation_kit/optiga-trust-m/examples\optiga_shell.c **** #ifdef OPTIGA_CRYPT_RSA_ENCRYPT_ENABLED
 774:D:/School/diseratie/SEMS/xmc4800_evaluation_kit/optiga-trust-m/examples\optiga_shell.c ****     run_example(optiga_shell_crypt_rsa_encrypt_message);
 775:D:/School/diseratie/SEMS/xmc4800_evaluation_kit/optiga-trust-m/examples\optiga_shell.c ****     run_example(optiga_shell_crypt_rsa_encrypt_session);
 776:D:/School/diseratie/SEMS/xmc4800_evaluation_kit/optiga-trust-m/examples\optiga_shell.c **** #endif
 777:D:/School/diseratie/SEMS/xmc4800_evaluation_kit/optiga-trust-m/examples\optiga_shell.c **** #ifdef OPTIGA_CRYPT_RSA_DECRYPT_ENABLED
 778:D:/School/diseratie/SEMS/xmc4800_evaluation_kit/optiga-trust-m/examples\optiga_shell.c ****     run_example(optiga_shell_crypt_rsa_decrypt_and_store);
 779:D:/School/diseratie/SEMS/xmc4800_evaluation_kit/optiga-trust-m/examples\optiga_shell.c ****     run_example(optiga_shell_crypt_rsa_decrypt_and_export);
 780:D:/School/diseratie/SEMS/xmc4800_evaluation_kit/optiga-trust-m/examples\optiga_shell.c **** #endif    
 781:D:/School/diseratie/SEMS/xmc4800_evaluation_kit/optiga-trust-m/examples\optiga_shell.c **** #if defined (OPTIGA_CRYPT_SYM_ENCRYPT_ENABLED) && defined (OPTIGA_CRYPT_SYM_DECRYPT_ENABLED)
 782:D:/School/diseratie/SEMS/xmc4800_evaluation_kit/optiga-trust-m/examples\optiga_shell.c ****     run_example(optiga_shell_crypt_symmetric_encrypt_decrypt_ecb);
 783:D:/School/diseratie/SEMS/xmc4800_evaluation_kit/optiga-trust-m/examples\optiga_shell.c ****     run_example(optiga_shell_crypt_symmetric_encrypt_decrypt_cbc);
 784:D:/School/diseratie/SEMS/xmc4800_evaluation_kit/optiga-trust-m/examples\optiga_shell.c ****     run_example(optiga_shell_crypt_symmetric_encrypt_cbcmac);
 785:D:/School/diseratie/SEMS/xmc4800_evaluation_kit/optiga-trust-m/examples\optiga_shell.c **** #endif
 786:D:/School/diseratie/SEMS/xmc4800_evaluation_kit/optiga-trust-m/examples\optiga_shell.c **** #ifdef OPTIGA_CRYPT_HMAC_ENABLED   
 787:D:/School/diseratie/SEMS/xmc4800_evaluation_kit/optiga-trust-m/examples\optiga_shell.c ****     run_example(optiga_shell_crypt_hmac);
 788:D:/School/diseratie/SEMS/xmc4800_evaluation_kit/optiga-trust-m/examples\optiga_shell.c **** #endif
 789:D:/School/diseratie/SEMS/xmc4800_evaluation_kit/optiga-trust-m/examples\optiga_shell.c **** #ifdef OPTIGA_CRYPT_HKDF_ENABLED        
 790:D:/School/diseratie/SEMS/xmc4800_evaluation_kit/optiga-trust-m/examples\optiga_shell.c ****     run_example(optiga_shell_crypt_hkdf);
 791:D:/School/diseratie/SEMS/xmc4800_evaluation_kit/optiga-trust-m/examples\optiga_shell.c **** #endif    
 792:D:/School/diseratie/SEMS/xmc4800_evaluation_kit/optiga-trust-m/examples\optiga_shell.c **** #ifdef OPTIGA_CRYPT_SYM_GENERATE_KEY_ENABLED      
 793:D:/School/diseratie/SEMS/xmc4800_evaluation_kit/optiga-trust-m/examples\optiga_shell.c ****     run_example(optiga_shell_crypt_symmetric_generate_key);
 794:D:/School/diseratie/SEMS/xmc4800_evaluation_kit/optiga-trust-m/examples\optiga_shell.c **** #endif    
 795:D:/School/diseratie/SEMS/xmc4800_evaluation_kit/optiga-trust-m/examples\optiga_shell.c **** #if defined (OPTIGA_CRYPT_GENERATE_AUTH_CODE_ENABLED) && defined (OPTIGA_CRYPT_HMAC_VERIFY_ENABLED)
 796:D:/School/diseratie/SEMS/xmc4800_evaluation_kit/optiga-trust-m/examples\optiga_shell.c ****     run_example(optiga_shell_crypt_clear_auto_state);
 797:D:/School/diseratie/SEMS/xmc4800_evaluation_kit/optiga-trust-m/examples\optiga_shell.c **** #endif    
 798:D:/School/diseratie/SEMS/xmc4800_evaluation_kit/optiga-trust-m/examples\optiga_shell.c **** #if defined (OPTIGA_CRYPT_GENERATE_AUTH_CODE_ENABLED) && defined (OPTIGA_CRYPT_HMAC_VERIFY_ENABLED)
 799:D:/School/diseratie/SEMS/xmc4800_evaluation_kit/optiga-trust-m/examples\optiga_shell.c ****     run_example(optiga_shell_crypt_hmac_verify_with_authorization_reference);
 800:D:/School/diseratie/SEMS/xmc4800_evaluation_kit/optiga-trust-m/examples\optiga_shell.c **** #endif 
 801:D:/School/diseratie/SEMS/xmc4800_evaluation_kit/optiga-trust-m/examples\optiga_shell.c **** #ifdef OPTIGA_INIT_DEINIT_DONE_EXCLUSIVELY
 802:D:/School/diseratie/SEMS/xmc4800_evaluation_kit/optiga-trust-m/examples\optiga_shell.c ****     run_example(optiga_shell_deinit);
 803:D:/School/diseratie/SEMS/xmc4800_evaluation_kit/optiga-trust-m/examples\optiga_shell.c **** #endif
 804:D:/School/diseratie/SEMS/xmc4800_evaluation_kit/optiga-trust-m/examples\optiga_shell.c **** }
 805:D:/School/diseratie/SEMS/xmc4800_evaluation_kit/optiga-trust-m/examples\optiga_shell.c **** 
 806:D:/School/diseratie/SEMS/xmc4800_evaluation_kit/optiga-trust-m/examples\optiga_shell.c **** 
 807:D:/School/diseratie/SEMS/xmc4800_evaluation_kit/optiga-trust-m/examples\optiga_shell.c **** static void optiga_shell_show_usage(void);
 808:D:/School/diseratie/SEMS/xmc4800_evaluation_kit/optiga-trust-m/examples\optiga_shell.c **** 
 809:D:/School/diseratie/SEMS/xmc4800_evaluation_kit/optiga-trust-m/examples\optiga_shell.c **** 
 810:D:/School/diseratie/SEMS/xmc4800_evaluation_kit/optiga-trust-m/examples\optiga_shell.c **** optiga_example_cmd_t optiga_cmds [] =
 811:D:/School/diseratie/SEMS/xmc4800_evaluation_kit/optiga-trust-m/examples\optiga_shell.c **** {
 812:D:/School/diseratie/SEMS/xmc4800_evaluation_kit/optiga-trust-m/examples\optiga_shell.c ****         {"",                                            "help",            optiga_shell_show_usage}
 813:D:/School/diseratie/SEMS/xmc4800_evaluation_kit/optiga-trust-m/examples\optiga_shell.c ****         {"    initialize optiga                        : optiga --","init",            optiga_shell
 814:D:/School/diseratie/SEMS/xmc4800_evaluation_kit/optiga-trust-m/examples\optiga_shell.c ****         {"    de-initialize optiga                     : optiga --","deinit",          optiga_shell
 815:D:/School/diseratie/SEMS/xmc4800_evaluation_kit/optiga-trust-m/examples\optiga_shell.c ****         {"    run all tests at once                    : optiga --","selftest",        optiga_shell
 816:D:/School/diseratie/SEMS/xmc4800_evaluation_kit/optiga-trust-m/examples\optiga_shell.c ****         {"    read data                                : optiga --","readdata",        optiga_shell
 817:D:/School/diseratie/SEMS/xmc4800_evaluation_kit/optiga-trust-m/examples\optiga_shell.c ****         {"    write data                               : optiga --","writedata",       optiga_shell
 818:D:/School/diseratie/SEMS/xmc4800_evaluation_kit/optiga-trust-m/examples\optiga_shell.c ****         {"    read coprocessor id                      : optiga --","coprocid",        optiga_shell
 819:D:/School/diseratie/SEMS/xmc4800_evaluation_kit/optiga-trust-m/examples\optiga_shell.c **** #ifdef OPTIGA_COMMS_SHIELDED_CONNECTION 
 820:D:/School/diseratie/SEMS/xmc4800_evaluation_kit/optiga-trust-m/examples\optiga_shell.c ****         {"    binding host with optiga                 : optiga --","bind",            optiga_shell
 821:D:/School/diseratie/SEMS/xmc4800_evaluation_kit/optiga-trust-m/examples\optiga_shell.c **** #endif
 822:D:/School/diseratie/SEMS/xmc4800_evaluation_kit/optiga-trust-m/examples\optiga_shell.c **** #if defined (OPTIGA_CRYPT_ECC_GENERATE_KEYPAIR_ENABLED) && defined (OPTIGA_CRYPT_ECDSA_SIGN_ENABLED
 823:D:/School/diseratie/SEMS/xmc4800_evaluation_kit/optiga-trust-m/examples\optiga_shell.c ****         {"    hibernate and restore                    : optiga --","hibernate",       optiga_shell
 824:D:/School/diseratie/SEMS/xmc4800_evaluation_kit/optiga-trust-m/examples\optiga_shell.c **** #endif        
 825:D:/School/diseratie/SEMS/xmc4800_evaluation_kit/optiga-trust-m/examples\optiga_shell.c ****         {"    update counter                           : optiga --","counter",         optiga_shell
 826:D:/School/diseratie/SEMS/xmc4800_evaluation_kit/optiga-trust-m/examples\optiga_shell.c ****         {"    protected update                         : optiga --","protected",       optiga_shell
 827:D:/School/diseratie/SEMS/xmc4800_evaluation_kit/optiga-trust-m/examples\optiga_shell.c **** #ifdef OPTIGA_CRYPT_HASH_ENABLED
 828:D:/School/diseratie/SEMS/xmc4800_evaluation_kit/optiga-trust-m/examples\optiga_shell.c ****         {"    hashing of data                          : optiga --","hash",            optiga_shell
 829:D:/School/diseratie/SEMS/xmc4800_evaluation_kit/optiga-trust-m/examples\optiga_shell.c ****         {"    hash single function                     : optiga --","hashsha256",      optiga_shell
 830:D:/School/diseratie/SEMS/xmc4800_evaluation_kit/optiga-trust-m/examples\optiga_shell.c **** #endif
 831:D:/School/diseratie/SEMS/xmc4800_evaluation_kit/optiga-trust-m/examples\optiga_shell.c **** #ifdef OPTIGA_CRYPT_TLS_PRF_SHA256_ENABLED
 832:D:/School/diseratie/SEMS/xmc4800_evaluation_kit/optiga-trust-m/examples\optiga_shell.c ****         {"    tls prf sha256                           : optiga --","prf",             optiga_shell
 833:D:/School/diseratie/SEMS/xmc4800_evaluation_kit/optiga-trust-m/examples\optiga_shell.c **** #endif    
 834:D:/School/diseratie/SEMS/xmc4800_evaluation_kit/optiga-trust-m/examples\optiga_shell.c **** #ifdef OPTIGA_CRYPT_RANDOM_ENABLED    
 835:D:/School/diseratie/SEMS/xmc4800_evaluation_kit/optiga-trust-m/examples\optiga_shell.c ****         {"    random number generation                 : optiga --","random",          optiga_shell
 836:D:/School/diseratie/SEMS/xmc4800_evaluation_kit/optiga-trust-m/examples\optiga_shell.c **** #endif
 837:D:/School/diseratie/SEMS/xmc4800_evaluation_kit/optiga-trust-m/examples\optiga_shell.c **** #ifdef OPTIGA_CRYPT_ECC_GENERATE_KEYPAIR_ENABLED
 838:D:/School/diseratie/SEMS/xmc4800_evaluation_kit/optiga-trust-m/examples\optiga_shell.c ****         {"    ecc key pair generation                  : optiga --","ecckeygen",       optiga_shell
 839:D:/School/diseratie/SEMS/xmc4800_evaluation_kit/optiga-trust-m/examples\optiga_shell.c **** #endif
 840:D:/School/diseratie/SEMS/xmc4800_evaluation_kit/optiga-trust-m/examples\optiga_shell.c **** #ifdef OPTIGA_CRYPT_ECDSA_SIGN_ENABLED
 841:D:/School/diseratie/SEMS/xmc4800_evaluation_kit/optiga-trust-m/examples\optiga_shell.c ****         {"    ecdsa sign                               : optiga --","ecdsasign",       optiga_shell
 842:D:/School/diseratie/SEMS/xmc4800_evaluation_kit/optiga-trust-m/examples\optiga_shell.c **** #endif
 843:D:/School/diseratie/SEMS/xmc4800_evaluation_kit/optiga-trust-m/examples\optiga_shell.c **** #ifdef OPTIGA_CRYPT_ECDSA_VERIFY_ENABLED        
 844:D:/School/diseratie/SEMS/xmc4800_evaluation_kit/optiga-trust-m/examples\optiga_shell.c ****         {"    ecdsa verify sign                        : optiga --","ecdsaverify",     optiga_shell
 845:D:/School/diseratie/SEMS/xmc4800_evaluation_kit/optiga-trust-m/examples\optiga_shell.c **** #endif
 846:D:/School/diseratie/SEMS/xmc4800_evaluation_kit/optiga-trust-m/examples\optiga_shell.c **** #ifdef OPTIGA_CRYPT_ECDH_ENABLED        
 847:D:/School/diseratie/SEMS/xmc4800_evaluation_kit/optiga-trust-m/examples\optiga_shell.c ****         {"    ecc diffie hellman                       : optiga --","ecdh",            optiga_shell
 848:D:/School/diseratie/SEMS/xmc4800_evaluation_kit/optiga-trust-m/examples\optiga_shell.c **** #endif
 849:D:/School/diseratie/SEMS/xmc4800_evaluation_kit/optiga-trust-m/examples\optiga_shell.c **** #ifdef OPTIGA_CRYPT_RSA_GENERATE_KEYPAIR_ENABLED
 850:D:/School/diseratie/SEMS/xmc4800_evaluation_kit/optiga-trust-m/examples\optiga_shell.c ****         {"    rsa key pair generation                  : optiga --","rsakeygen",       optiga_shell
 851:D:/School/diseratie/SEMS/xmc4800_evaluation_kit/optiga-trust-m/examples\optiga_shell.c **** #endif
 852:D:/School/diseratie/SEMS/xmc4800_evaluation_kit/optiga-trust-m/examples\optiga_shell.c **** #ifdef OPTIGA_CRYPT_RSA_SIGN_ENABLED        
 853:D:/School/diseratie/SEMS/xmc4800_evaluation_kit/optiga-trust-m/examples\optiga_shell.c ****         {"    rsa sign                                 : optiga --","rsasign",         optiga_shell
 854:D:/School/diseratie/SEMS/xmc4800_evaluation_kit/optiga-trust-m/examples\optiga_shell.c **** #endif
 855:D:/School/diseratie/SEMS/xmc4800_evaluation_kit/optiga-trust-m/examples\optiga_shell.c **** #ifdef OPTIGA_CRYPT_RSA_VERIFY_ENABLED        
 856:D:/School/diseratie/SEMS/xmc4800_evaluation_kit/optiga-trust-m/examples\optiga_shell.c ****         {"    rsa verify sign                          : optiga --","rsaverify",       optiga_shell
 857:D:/School/diseratie/SEMS/xmc4800_evaluation_kit/optiga-trust-m/examples\optiga_shell.c **** #endif
 858:D:/School/diseratie/SEMS/xmc4800_evaluation_kit/optiga-trust-m/examples\optiga_shell.c **** #ifdef OPTIGA_CRYPT_RSA_ENCRYPT_ENABLED        
 859:D:/School/diseratie/SEMS/xmc4800_evaluation_kit/optiga-trust-m/examples\optiga_shell.c ****         {"    rsa encrypt message                      : optiga --","rsaencmsg",       optiga_shell
 860:D:/School/diseratie/SEMS/xmc4800_evaluation_kit/optiga-trust-m/examples\optiga_shell.c ****         {"    rsa encrypt session                      : optiga --","rsaencsession",   optiga_shell
 861:D:/School/diseratie/SEMS/xmc4800_evaluation_kit/optiga-trust-m/examples\optiga_shell.c **** #endif
 862:D:/School/diseratie/SEMS/xmc4800_evaluation_kit/optiga-trust-m/examples\optiga_shell.c **** #ifdef OPTIGA_CRYPT_RSA_DECRYPT_ENABLED        
 863:D:/School/diseratie/SEMS/xmc4800_evaluation_kit/optiga-trust-m/examples\optiga_shell.c ****         {"    rsa decrypt and store                    : optiga --","rsadecstore",     optiga_shell
 864:D:/School/diseratie/SEMS/xmc4800_evaluation_kit/optiga-trust-m/examples\optiga_shell.c ****         {"    rsa decrypt and export                   : optiga --","rsadecexp",       optiga_shell
 865:D:/School/diseratie/SEMS/xmc4800_evaluation_kit/optiga-trust-m/examples\optiga_shell.c **** #endif         
 866:D:/School/diseratie/SEMS/xmc4800_evaluation_kit/optiga-trust-m/examples\optiga_shell.c **** #if defined (OPTIGA_CRYPT_SYM_ENCRYPT_ENABLED) && defined (OPTIGA_CRYPT_SYM_DECRYPT_ENABLED)
 867:D:/School/diseratie/SEMS/xmc4800_evaluation_kit/optiga-trust-m/examples\optiga_shell.c ****         {"    symmetric ecb encrypt and decrypt        : optiga --","ecbencdec",       optiga_shell
 868:D:/School/diseratie/SEMS/xmc4800_evaluation_kit/optiga-trust-m/examples\optiga_shell.c ****         {"    symmetric cbc encrypt and decrypt        : optiga --","cbcencdec",       optiga_shell
 869:D:/School/diseratie/SEMS/xmc4800_evaluation_kit/optiga-trust-m/examples\optiga_shell.c ****         {"    symmetric cbcmac encrypt                 : optiga --","cbcmacenc",       optiga_shell
 870:D:/School/diseratie/SEMS/xmc4800_evaluation_kit/optiga-trust-m/examples\optiga_shell.c **** #endif
 871:D:/School/diseratie/SEMS/xmc4800_evaluation_kit/optiga-trust-m/examples\optiga_shell.c **** #ifdef OPTIGA_CRYPT_HMAC_ENABLED          
 872:D:/School/diseratie/SEMS/xmc4800_evaluation_kit/optiga-trust-m/examples\optiga_shell.c ****         {"    hmac-sha256 generation                   : optiga --","hmac",            optiga_shell
 873:D:/School/diseratie/SEMS/xmc4800_evaluation_kit/optiga-trust-m/examples\optiga_shell.c **** #endif
 874:D:/School/diseratie/SEMS/xmc4800_evaluation_kit/optiga-trust-m/examples\optiga_shell.c **** #ifdef OPTIGA_CRYPT_HKDF_ENABLED           
 875:D:/School/diseratie/SEMS/xmc4800_evaluation_kit/optiga-trust-m/examples\optiga_shell.c ****         {"    hkdf-sha256 key derivation               : optiga --","hkdf",            optiga_shell
 876:D:/School/diseratie/SEMS/xmc4800_evaluation_kit/optiga-trust-m/examples\optiga_shell.c **** #endif
 877:D:/School/diseratie/SEMS/xmc4800_evaluation_kit/optiga-trust-m/examples\optiga_shell.c **** #ifdef OPTIGA_CRYPT_SYM_GENERATE_KEY_ENABLED 
 878:D:/School/diseratie/SEMS/xmc4800_evaluation_kit/optiga-trust-m/examples\optiga_shell.c ****         {"    generate symmetric aes-128 key           : optiga --","aeskeygen",       optiga_shell
 879:D:/School/diseratie/SEMS/xmc4800_evaluation_kit/optiga-trust-m/examples\optiga_shell.c **** #endif    
 880:D:/School/diseratie/SEMS/xmc4800_evaluation_kit/optiga-trust-m/examples\optiga_shell.c **** #if defined (OPTIGA_CRYPT_GENERATE_AUTH_CODE_ENABLED) && defined (OPTIGA_CRYPT_HMAC_VERIFY_ENABLED)
 881:D:/School/diseratie/SEMS/xmc4800_evaluation_kit/optiga-trust-m/examples\optiga_shell.c ****         {"    clear auto state                         : optiga --","clrautostate",    optiga_shell
 882:D:/School/diseratie/SEMS/xmc4800_evaluation_kit/optiga-trust-m/examples\optiga_shell.c **** #endif    
 883:D:/School/diseratie/SEMS/xmc4800_evaluation_kit/optiga-trust-m/examples\optiga_shell.c **** #if defined (OPTIGA_CRYPT_GENERATE_AUTH_CODE_ENABLED) && defined (OPTIGA_CRYPT_HMAC_VERIFY_ENABLED)
 884:D:/School/diseratie/SEMS/xmc4800_evaluation_kit/optiga-trust-m/examples\optiga_shell.c ****         {"    hmac verify                              : optiga --","hmacverify",      optiga_shell
 885:D:/School/diseratie/SEMS/xmc4800_evaluation_kit/optiga-trust-m/examples\optiga_shell.c **** #endif        
 886:D:/School/diseratie/SEMS/xmc4800_evaluation_kit/optiga-trust-m/examples\optiga_shell.c **** };
 887:D:/School/diseratie/SEMS/xmc4800_evaluation_kit/optiga-trust-m/examples\optiga_shell.c **** 
 888:D:/School/diseratie/SEMS/xmc4800_evaluation_kit/optiga-trust-m/examples\optiga_shell.c **** #define OPTIGA_SIZE_OF_CMDS            (sizeof(optiga_cmds)/sizeof(optiga_example_cmd_t))
 889:D:/School/diseratie/SEMS/xmc4800_evaluation_kit/optiga-trust-m/examples\optiga_shell.c **** 
 890:D:/School/diseratie/SEMS/xmc4800_evaluation_kit/optiga-trust-m/examples\optiga_shell.c **** static void optiga_shell_show_usage()
 891:D:/School/diseratie/SEMS/xmc4800_evaluation_kit/optiga-trust-m/examples\optiga_shell.c **** {
 2060              	 .loc 1 891 0
 2061              	 .cfi_startproc
 2062              	 
 2063              	 
 2064              	.LVL177:
 2065 0000 38B5     	 push {r3,r4,r5,lr}
 2066              	.LCFI56:
 2067              	 .cfi_def_cfa_offset 16
 2068              	 .cfi_offset 3,-16
 2069              	 .cfi_offset 4,-12
 2070              	 .cfi_offset 5,-8
 2071              	 .cfi_offset 14,-4
 892:D:/School/diseratie/SEMS/xmc4800_evaluation_kit/optiga-trust-m/examples\optiga_shell.c ****     uint8_t number_of_cmds = OPTIGA_SIZE_OF_CMDS;
 893:D:/School/diseratie/SEMS/xmc4800_evaluation_kit/optiga-trust-m/examples\optiga_shell.c ****     uint8_t index;
 894:D:/School/diseratie/SEMS/xmc4800_evaluation_kit/optiga-trust-m/examples\optiga_shell.c ****     optiga_example_cmd_t * current_cmd;
 895:D:/School/diseratie/SEMS/xmc4800_evaluation_kit/optiga-trust-m/examples\optiga_shell.c ****     optiga_lib_print_string_with_newline("");
 2072              	 .loc 1 895 0
 2073 0002 0F48     	 ldr r0,.L136
 2074 0004 0F4C     	 ldr r4,.L136+4
 2075 0006 FFF7FEFF 	 bl optiga_lib_print_string_with_newline
 2076              	.LVL178:
 896:D:/School/diseratie/SEMS/xmc4800_evaluation_kit/optiga-trust-m/examples\optiga_shell.c ****     optiga_lib_print_string_with_newline("    usage                : optiga -<cmd>");
 2077              	 .loc 1 896 0
 2078 000a 0F48     	 ldr r0,.L136+8
 2079 000c FFF7FEFF 	 bl optiga_lib_print_string_with_newline
 2080              	.LVL179:
 2081 0010 04F59C75 	 add r5,r4,#312
 2082 0014 02E0     	 b .L129
 2083              	.LVL180:
 2084              	.L128:
 2085 0016 0C34     	 adds r4,r4,#12
 897:D:/School/diseratie/SEMS/xmc4800_evaluation_kit/optiga-trust-m/examples\optiga_shell.c ****     for(index = 0; index < number_of_cmds; index++)
 2086              	 .loc 1 897 0 discriminator 2
 2087 0018 AC42     	 cmp r4,r5
 2088 001a 0FD0     	 beq .L135
 2089              	.L129:
 898:D:/School/diseratie/SEMS/xmc4800_evaluation_kit/optiga-trust-m/examples\optiga_shell.c ****     {
 899:D:/School/diseratie/SEMS/xmc4800_evaluation_kit/optiga-trust-m/examples\optiga_shell.c ****         current_cmd = &optiga_cmds[index];
 900:D:/School/diseratie/SEMS/xmc4800_evaluation_kit/optiga-trust-m/examples\optiga_shell.c ****         if(0 != strcmp("help",current_cmd->cmd_options))
 2090              	 .loc 1 900 0
 2091 001c 0B48     	 ldr r0,.L136+12
 2092 001e 6168     	 ldr r1,[r4,#4]
 2093 0020 FFF7FEFF 	 bl strcmp
 2094              	.LVL181:
 2095 0024 0028     	 cmp r0,#0
 2096 0026 F6D0     	 beq .L128
 901:D:/School/diseratie/SEMS/xmc4800_evaluation_kit/optiga-trust-m/examples\optiga_shell.c ****         {
 902:D:/School/diseratie/SEMS/xmc4800_evaluation_kit/optiga-trust-m/examples\optiga_shell.c ****             optiga_lib_print_string(current_cmd->cmd_description);
 2097              	 .loc 1 902 0
 2098 0028 2068     	 ldr r0,[r4]
 2099 002a FFF7FEFF 	 bl optiga_lib_print_string
 2100              	.LVL182:
 2101 002e 0C34     	 adds r4,r4,#12
 903:D:/School/diseratie/SEMS/xmc4800_evaluation_kit/optiga-trust-m/examples\optiga_shell.c ****             optiga_lib_print_string_with_newline(current_cmd->cmd_options);
 2102              	 .loc 1 903 0
 2103 0030 54F8080C 	 ldr r0,[r4,#-8]
 2104 0034 FFF7FEFF 	 bl optiga_lib_print_string_with_newline
 2105              	.LVL183:
 897:D:/School/diseratie/SEMS/xmc4800_evaluation_kit/optiga-trust-m/examples\optiga_shell.c ****     {
 2106              	 .loc 1 897 0
 2107 0038 AC42     	 cmp r4,r5
 2108 003a EFD1     	 bne .L129
 2109              	.L135:
 904:D:/School/diseratie/SEMS/xmc4800_evaluation_kit/optiga-trust-m/examples\optiga_shell.c ****         }
 905:D:/School/diseratie/SEMS/xmc4800_evaluation_kit/optiga-trust-m/examples\optiga_shell.c ****     }
 906:D:/School/diseratie/SEMS/xmc4800_evaluation_kit/optiga-trust-m/examples\optiga_shell.c **** }
 2110              	 .loc 1 906 0
 2111 003c 38BD     	 pop {r3,r4,r5,pc}
 2112              	.L137:
 2113 003e 00BF     	 .align 2
 2114              	.L136:
 2115 0040 FC100000 	 .word .LC80
 2116 0044 00000000 	 .word .LANCHOR2
 2117 0048 00110000 	 .word .LC81
 2118 004c 2C110000 	 .word .LC82
 2119              	 .cfi_endproc
 2120              	.LFE476:
 2122              	 .section .text.optiga_shell_selftest,"ax",%progbits
 2123              	 .align 2
 2124              	 .thumb
 2125              	 .thumb_func
 2127              	optiga_shell_selftest:
 2128              	.LFB475:
 729:D:/School/diseratie/SEMS/xmc4800_evaluation_kit/optiga-trust-m/examples\optiga_shell.c ****     run_example(optiga_shell_init);
 2129              	 .loc 1 729 0
 2130              	 .cfi_startproc
 2131              	 
 2132              	 
 2133              	.LVL184:
 2134 0000 F0B5     	 push {r4,r5,r6,r7,lr}
 2135              	.LCFI57:
 2136              	 .cfi_def_cfa_offset 20
 2137              	 .cfi_offset 4,-20
 2138              	 .cfi_offset 5,-16
 2139              	 .cfi_offset 6,-12
 2140              	 .cfi_offset 7,-8
 2141              	 .cfi_offset 14,-4
 2142 0002 83B0     	 sub sp,sp,#12
 2143              	.LCFI58:
 2144              	 .cfi_def_cfa_offset 32
 2145              	.LBB98:
 2146              	.LBB99:
 723:D:/School/diseratie/SEMS/xmc4800_evaluation_kit/optiga-trust-m/examples\optiga_shell.c ****     optiga_lib_print_string_with_newline(""); 
 2147              	 .loc 1 723 0
 2148 0004 FFF7FEFF 	 bl optiga_shell_init
 2149              	.LVL185:
 2150              	.LBE99:
 2151              	.LBE98:
 2152              	.LBB103:
 2153              	.LBB104:
 2154              	.LBB105:
 2155              	.LBB106:
 204:D:/School/diseratie/SEMS/xmc4800_evaluation_kit/optiga-trust-m/examples\optiga_shell.c ****     
 2156              	 .loc 1 204 0
 2157 0008 02AD     	 add r5,sp,#8
 2158              	.LBE106:
 2159              	.LBE105:
 2160              	.LBE104:
 2161              	.LBE103:
 2162              	.LBB119:
 2163              	.LBB100:
 724:D:/School/diseratie/SEMS/xmc4800_evaluation_kit/optiga-trust-m/examples\optiga_shell.c ****     pal_os_timer_delay_in_milliseconds(2000);
 2164              	 .loc 1 724 0
 2165 000a AE48     	 ldr r0,.L149
 2166              	.LBE100:
 2167              	.LBE119:
 2168              	.LBB120:
 2169              	.LBB115:
 2170              	.LBB111:
 2171              	.LBB107:
 213:D:/School/diseratie/SEMS/xmc4800_evaluation_kit/optiga-trust-m/examples\optiga_shell.c ****         
 2172              	 .loc 1 213 0
 2173 000c AE4C     	 ldr r4,.L149+4
 217:D:/School/diseratie/SEMS/xmc4800_evaluation_kit/optiga-trust-m/examples\optiga_shell.c **** 
 2174              	 .loc 1 217 0
 2175 000e AF4F     	 ldr r7,.L149+8
 2176              	.LBE107:
 2177              	.LBE111:
 2178              	.LBE115:
 2179              	.LBE120:
 2180              	.LBB121:
 2181              	.LBB101:
 724:D:/School/diseratie/SEMS/xmc4800_evaluation_kit/optiga-trust-m/examples\optiga_shell.c ****     pal_os_timer_delay_in_milliseconds(2000);
 2182              	 .loc 1 724 0
 2183 0010 FFF7FEFF 	 bl optiga_lib_print_string_with_newline
 2184              	.LVL186:
 2185              	.LBE101:
 2186              	.LBE121:
 2187              	.LBB122:
 2188              	.LBB116:
 2189              	.LBB112:
 2190              	.LBB108:
 204:D:/School/diseratie/SEMS/xmc4800_evaluation_kit/optiga-trust-m/examples\optiga_shell.c ****     
 2191              	 .loc 1 204 0
 2192 0014 0026     	 movs r6,#0
 2193              	.LBE108:
 2194              	.LBE112:
 2195              	.LBE116:
 2196              	.LBE122:
 2197              	.LBB123:
 2198              	.LBB102:
 725:D:/School/diseratie/SEMS/xmc4800_evaluation_kit/optiga-trust-m/examples\optiga_shell.c **** }
 2199              	 .loc 1 725 0
 2200 0016 4FF4FA60 	 mov r0,#2000
 2201 001a FFF7FEFF 	 bl pal_os_timer_delay_in_milliseconds
 2202              	.LVL187:
 2203              	.LBE102:
 2204              	.LBE123:
 2205              	.LBB124:
 2206              	.LBB117:
 2207              	.LBB113:
 2208              	.LBB109:
 204:D:/School/diseratie/SEMS/xmc4800_evaluation_kit/optiga-trust-m/examples\optiga_shell.c ****     
 2209              	 .loc 1 204 0
 2210 001e 45F8046D 	 str r6,[r5,#-4]!
 213:D:/School/diseratie/SEMS/xmc4800_evaluation_kit/optiga-trust-m/examples\optiga_shell.c ****         
 2211              	 .loc 1 213 0
 2212 0022 0123     	 movs r3,#1
 215:D:/School/diseratie/SEMS/xmc4800_evaluation_kit/optiga-trust-m/examples\optiga_shell.c ****         
 2213              	 .loc 1 215 0
 2214 0024 2846     	 mov r0,r5
 2215 0026 1946     	 mov r1,r3
 213:D:/School/diseratie/SEMS/xmc4800_evaluation_kit/optiga-trust-m/examples\optiga_shell.c ****         
 2216              	 .loc 1 213 0
 2217 0028 2380     	 strh r3,[r4]
 215:D:/School/diseratie/SEMS/xmc4800_evaluation_kit/optiga-trust-m/examples\optiga_shell.c ****         
 2218              	 .loc 1 215 0
 2219 002a FFF7FEFF 	 bl example_performance_measurement
 2220              	.LVL188:
 217:D:/School/diseratie/SEMS/xmc4800_evaluation_kit/optiga-trust-m/examples\optiga_shell.c **** 
 2221              	 .loc 1 217 0
 2222 002e 3146     	 mov r1,r6
 2223 0030 3868     	 ldr r0,[r7]
 2224 0032 FFF7FEFF 	 bl optiga_util_close_application
 2225              	.LVL189:
 219:D:/School/diseratie/SEMS/xmc4800_evaluation_kit/optiga-trust-m/examples\optiga_shell.c ****         {
 2226              	 .loc 1 219 0
 2227 0036 0028     	 cmp r0,#0
 2228 0038 00F06183 	 beq .L140
 2229              	.LVL190:
 2230              	.L139:
 2231              	.LBE109:
 2232              	.LBE113:
 724:D:/School/diseratie/SEMS/xmc4800_evaluation_kit/optiga-trust-m/examples\optiga_shell.c ****     pal_os_timer_delay_in_milliseconds(2000);
 2233              	 .loc 1 724 0
 2234 003c A148     	 ldr r0,.L149
 2235 003e FFF7FEFF 	 bl optiga_lib_print_string_with_newline
 2236              	.LVL191:
 725:D:/School/diseratie/SEMS/xmc4800_evaluation_kit/optiga-trust-m/examples\optiga_shell.c **** }
 2237              	 .loc 1 725 0
 2238 0042 4FF4FA60 	 mov r0,#2000
 2239 0046 FFF7FEFF 	 bl pal_os_timer_delay_in_milliseconds
 2240              	.LVL192:
 2241              	.LBE117:
 2242              	.LBE124:
 2243              	.LBB125:
 2244              	.LBB126:
 2245              	.LBB127:
 2246              	.LBB128:
 250:D:/School/diseratie/SEMS/xmc4800_evaluation_kit/optiga-trust-m/examples\optiga_shell.c **** #endif
 2247              	 .loc 1 250 0
 2248 004a A148     	 ldr r0,.L149+12
 2249 004c A149     	 ldr r1,.L149+16
 2250 004e A24A     	 ldr r2,.L149+20
 2251 0050 FFF7FEFF 	 bl optiga_lib_print_message
 2252              	.LVL193:
 252:D:/School/diseratie/SEMS/xmc4800_evaluation_kit/optiga-trust-m/examples\optiga_shell.c ****     OPTIGA_SHELL_LOG_MESSAGE("1 Step: Read Certificate ");
 2253              	 .loc 1 252 0
 2254 0054 A148     	 ldr r0,.L149+24
 2255 0056 9F49     	 ldr r1,.L149+16
 2256 0058 9F4A     	 ldr r2,.L149+20
 2257 005a FFF7FEFF 	 bl optiga_lib_print_message
 2258              	.LVL194:
 253:D:/School/diseratie/SEMS/xmc4800_evaluation_kit/optiga-trust-m/examples\optiga_shell.c ****     OPTIGA_SHELL_LOG_MESSAGE("2 Step: Read Certificate Metadata");
 2259              	 .loc 1 253 0
 2260 005e A048     	 ldr r0,.L149+28
 2261 0060 9C49     	 ldr r1,.L149+16
 2262 0062 9D4A     	 ldr r2,.L149+20
 2263 0064 FFF7FEFF 	 bl optiga_lib_print_message
 2264              	.LVL195:
 254:D:/School/diseratie/SEMS/xmc4800_evaluation_kit/optiga-trust-m/examples\optiga_shell.c **** #ifndef OPTIGA_INIT_DEINIT_DONE_EXCLUSIVELY
 2265              	 .loc 1 254 0
 2266 0068 9E48     	 ldr r0,.L149+32
 2267 006a 9A49     	 ldr r1,.L149+16
 2268 006c 9A4A     	 ldr r2,.L149+20
 2269 006e FFF7FEFF 	 bl optiga_lib_print_message
 2270              	.LVL196:
 256:D:/School/diseratie/SEMS/xmc4800_evaluation_kit/optiga-trust-m/examples\optiga_shell.c **** #endif
 2271              	 .loc 1 256 0
 2272 0072 9849     	 ldr r1,.L149+16
 2273 0074 984A     	 ldr r2,.L149+20
 2274 0076 9C48     	 ldr r0,.L149+36
 2275 0078 FFF7FEFF 	 bl optiga_lib_print_message
 2276              	.LVL197:
 258:D:/School/diseratie/SEMS/xmc4800_evaluation_kit/optiga-trust-m/examples\optiga_shell.c **** }
 2277              	 .loc 1 258 0
 2278 007c FFF7FEFF 	 bl example_optiga_util_read_data
 2279              	.LVL198:
 2280              	.LBE128:
 2281              	.LBE127:
 724:D:/School/diseratie/SEMS/xmc4800_evaluation_kit/optiga-trust-m/examples\optiga_shell.c ****     pal_os_timer_delay_in_milliseconds(2000);
 2282              	 .loc 1 724 0
 2283 0080 9048     	 ldr r0,.L149
 2284 0082 FFF7FEFF 	 bl optiga_lib_print_string_with_newline
 2285              	.LVL199:
 725:D:/School/diseratie/SEMS/xmc4800_evaluation_kit/optiga-trust-m/examples\optiga_shell.c **** }
 2286              	 .loc 1 725 0
 2287 0086 4FF4FA60 	 mov r0,#2000
 2288 008a FFF7FEFF 	 bl pal_os_timer_delay_in_milliseconds
 2289              	.LVL200:
 2290              	.LBE126:
 2291              	.LBE125:
 2292              	.LBB129:
 2293              	.LBB130:
 2294              	.LBB131:
 2295              	.LBB132:
 264:D:/School/diseratie/SEMS/xmc4800_evaluation_kit/optiga-trust-m/examples\optiga_shell.c **** #endif
 2296              	 .loc 1 264 0
 2297 008e 9048     	 ldr r0,.L149+12
 2298 0090 9049     	 ldr r1,.L149+16
 2299 0092 914A     	 ldr r2,.L149+20
 2300 0094 FFF7FEFF 	 bl optiga_lib_print_message
 2301              	.LVL201:
 266:D:/School/diseratie/SEMS/xmc4800_evaluation_kit/optiga-trust-m/examples\optiga_shell.c ****     OPTIGA_SHELL_LOG_MESSAGE("1 Step: Write Sample Certificate in Trust Anchor Data Object ");
 2302              	 .loc 1 266 0
 2303 0098 9448     	 ldr r0,.L149+40
 2304 009a 8E49     	 ldr r1,.L149+16
 2305 009c 8E4A     	 ldr r2,.L149+20
 2306 009e FFF7FEFF 	 bl optiga_lib_print_message
 2307              	.LVL202:
 267:D:/School/diseratie/SEMS/xmc4800_evaluation_kit/optiga-trust-m/examples\optiga_shell.c ****     OPTIGA_SHELL_LOG_MESSAGE("2 Step: Write new Metadata");
 2308              	 .loc 1 267 0
 2309 00a2 9348     	 ldr r0,.L149+44
 2310 00a4 8B49     	 ldr r1,.L149+16
 2311 00a6 8C4A     	 ldr r2,.L149+20
 2312 00a8 FFF7FEFF 	 bl optiga_lib_print_message
 2313              	.LVL203:
 268:D:/School/diseratie/SEMS/xmc4800_evaluation_kit/optiga-trust-m/examples\optiga_shell.c **** #ifndef OPTIGA_INIT_DEINIT_DONE_EXCLUSIVELY
 2314              	 .loc 1 268 0
 2315 00ac 9148     	 ldr r0,.L149+48
 2316 00ae 8949     	 ldr r1,.L149+16
 2317 00b0 894A     	 ldr r2,.L149+20
 2318 00b2 FFF7FEFF 	 bl optiga_lib_print_message
 2319              	.LVL204:
 270:D:/School/diseratie/SEMS/xmc4800_evaluation_kit/optiga-trust-m/examples\optiga_shell.c **** #endif
 2320              	 .loc 1 270 0
 2321 00b6 8749     	 ldr r1,.L149+16
 2322 00b8 874A     	 ldr r2,.L149+20
 2323 00ba 8B48     	 ldr r0,.L149+36
 2324 00bc FFF7FEFF 	 bl optiga_lib_print_message
 2325              	.LVL205:
 272:D:/School/diseratie/SEMS/xmc4800_evaluation_kit/optiga-trust-m/examples\optiga_shell.c **** }
 2326              	 .loc 1 272 0
 2327 00c0 FFF7FEFF 	 bl example_optiga_util_write_data
 2328              	.LVL206:
 2329              	.LBE132:
 2330              	.LBE131:
 724:D:/School/diseratie/SEMS/xmc4800_evaluation_kit/optiga-trust-m/examples\optiga_shell.c ****     pal_os_timer_delay_in_milliseconds(2000);
 2331              	 .loc 1 724 0
 2332 00c4 7F48     	 ldr r0,.L149
 2333 00c6 FFF7FEFF 	 bl optiga_lib_print_string_with_newline
 2334              	.LVL207:
 725:D:/School/diseratie/SEMS/xmc4800_evaluation_kit/optiga-trust-m/examples\optiga_shell.c **** }
 2335              	 .loc 1 725 0
 2336 00ca 4FF4FA60 	 mov r0,#2000
 2337 00ce FFF7FEFF 	 bl pal_os_timer_delay_in_milliseconds
 2338              	.LVL208:
 2339              	.LBE130:
 2340              	.LBE129:
 2341              	.LBB133:
 2342              	.LBB134:
 2343              	.LBB135:
 2344              	.LBB136:
 278:D:/School/diseratie/SEMS/xmc4800_evaluation_kit/optiga-trust-m/examples\optiga_shell.c **** #endif
 2345              	 .loc 1 278 0
 2346 00d2 7F48     	 ldr r0,.L149+12
 2347 00d4 7F49     	 ldr r1,.L149+16
 2348 00d6 804A     	 ldr r2,.L149+20
 2349 00d8 FFF7FEFF 	 bl optiga_lib_print_message
 2350              	.LVL209:
 280:D:/School/diseratie/SEMS/xmc4800_evaluation_kit/optiga-trust-m/examples\optiga_shell.c ****     OPTIGA_SHELL_LOG_MESSAGE("1 Step: Read Coprocessor UID from OID(0xE0C2) ");
 2351              	 .loc 1 280 0
 2352 00dc 8648     	 ldr r0,.L149+52
 2353 00de 7D49     	 ldr r1,.L149+16
 2354 00e0 7D4A     	 ldr r2,.L149+20
 2355 00e2 FFF7FEFF 	 bl optiga_lib_print_message
 2356              	.LVL210:
 281:D:/School/diseratie/SEMS/xmc4800_evaluation_kit/optiga-trust-m/examples\optiga_shell.c **** #ifndef OPTIGA_INIT_DEINIT_DONE_EXCLUSIVELY
 2357              	 .loc 1 281 0
 2358 00e6 8548     	 ldr r0,.L149+56
 2359 00e8 7A49     	 ldr r1,.L149+16
 2360 00ea 7B4A     	 ldr r2,.L149+20
 2361 00ec FFF7FEFF 	 bl optiga_lib_print_message
 2362              	.LVL211:
 283:D:/School/diseratie/SEMS/xmc4800_evaluation_kit/optiga-trust-m/examples\optiga_shell.c **** #endif
 2363              	 .loc 1 283 0
 2364 00f0 7849     	 ldr r1,.L149+16
 2365 00f2 794A     	 ldr r2,.L149+20
 2366 00f4 8248     	 ldr r0,.L149+60
 2367 00f6 FFF7FEFF 	 bl optiga_lib_print_message
 2368              	.LVL212:
 285:D:/School/diseratie/SEMS/xmc4800_evaluation_kit/optiga-trust-m/examples\optiga_shell.c **** }
 2369              	 .loc 1 285 0
 2370 00fa FFF7FEFF 	 bl example_read_coprocessor_id
 2371              	.LVL213:
 2372              	.LBE136:
 2373              	.LBE135:
 724:D:/School/diseratie/SEMS/xmc4800_evaluation_kit/optiga-trust-m/examples\optiga_shell.c ****     pal_os_timer_delay_in_milliseconds(2000);
 2374              	 .loc 1 724 0
 2375 00fe 7148     	 ldr r0,.L149
 2376 0100 FFF7FEFF 	 bl optiga_lib_print_string_with_newline
 2377              	.LVL214:
 725:D:/School/diseratie/SEMS/xmc4800_evaluation_kit/optiga-trust-m/examples\optiga_shell.c **** }
 2378              	 .loc 1 725 0
 2379 0104 4FF4FA60 	 mov r0,#2000
 2380 0108 FFF7FEFF 	 bl pal_os_timer_delay_in_milliseconds
 2381              	.LVL215:
 2382              	.LBE134:
 2383              	.LBE133:
 2384              	.LBB137:
 2385              	.LBB138:
 2386              	.LBB139:
 2387              	.LBB140:
 291:D:/School/diseratie/SEMS/xmc4800_evaluation_kit/optiga-trust-m/examples\optiga_shell.c **** #endif
 2388              	 .loc 1 291 0
 2389 010c 7048     	 ldr r0,.L149+12
 2390 010e 7149     	 ldr r1,.L149+16
 2391 0110 714A     	 ldr r2,.L149+20
 2392 0112 FFF7FEFF 	 bl optiga_lib_print_message
 2393              	.LVL216:
 293:D:/School/diseratie/SEMS/xmc4800_evaluation_kit/optiga-trust-m/examples\optiga_shell.c ****     OPTIGA_SHELL_LOG_MESSAGE("1 Step: Read and Check existing Metadata for the Binding Secret");
 2394              	 .loc 1 293 0
 2395 0116 7B48     	 ldr r0,.L149+64
 2396 0118 6E49     	 ldr r1,.L149+16
 2397 011a 6F4A     	 ldr r2,.L149+20
 2398 011c FFF7FEFF 	 bl optiga_lib_print_message
 2399              	.LVL217:
 294:D:/School/diseratie/SEMS/xmc4800_evaluation_kit/optiga-trust-m/examples\optiga_shell.c ****     OPTIGA_SHELL_LOG_MESSAGE("2 Step: Generate Random for the new Binding Secret");
 2400              	 .loc 1 294 0
 2401 0120 7948     	 ldr r0,.L149+68
 2402 0122 6C49     	 ldr r1,.L149+16
 2403 0124 6C4A     	 ldr r2,.L149+20
 2404 0126 FFF7FEFF 	 bl optiga_lib_print_message
 2405              	.LVL218:
 295:D:/School/diseratie/SEMS/xmc4800_evaluation_kit/optiga-trust-m/examples\optiga_shell.c ****     OPTIGA_SHELL_LOG_MESSAGE("3 Step: Write new Binding Secret");
 2406              	 .loc 1 295 0
 2407 012a 7848     	 ldr r0,.L149+72
 2408 012c 6949     	 ldr r1,.L149+16
 2409 012e 6A4A     	 ldr r2,.L149+20
 2410 0130 FFF7FEFF 	 bl optiga_lib_print_message
 2411              	.LVL219:
 296:D:/School/diseratie/SEMS/xmc4800_evaluation_kit/optiga-trust-m/examples\optiga_shell.c ****     OPTIGA_SHELL_LOG_MESSAGE("4 Step: Store new Binding Secret on the Host");
 2412              	 .loc 1 296 0
 2413 0134 7648     	 ldr r0,.L149+76
 2414 0136 6749     	 ldr r1,.L149+16
 2415 0138 674A     	 ldr r2,.L149+20
 2416 013a FFF7FEFF 	 bl optiga_lib_print_message
 2417              	.LVL220:
 297:D:/School/diseratie/SEMS/xmc4800_evaluation_kit/optiga-trust-m/examples\optiga_shell.c **** #ifndef OPTIGA_INIT_DEINIT_DONE_EXCLUSIVELY
 2418              	 .loc 1 297 0
 2419 013e 7548     	 ldr r0,.L149+80
 2420 0140 6449     	 ldr r1,.L149+16
 2421 0142 654A     	 ldr r2,.L149+20
 2422 0144 FFF7FEFF 	 bl optiga_lib_print_message
 2423              	.LVL221:
 299:D:/School/diseratie/SEMS/xmc4800_evaluation_kit/optiga-trust-m/examples\optiga_shell.c **** #endif
 2424              	 .loc 1 299 0
 2425 0148 6249     	 ldr r1,.L149+16
 2426 014a 634A     	 ldr r2,.L149+20
 2427 014c 7248     	 ldr r0,.L149+84
 2428 014e FFF7FEFF 	 bl optiga_lib_print_message
 2429              	.LVL222:
 301:D:/School/diseratie/SEMS/xmc4800_evaluation_kit/optiga-trust-m/examples\optiga_shell.c **** }
 2430              	 .loc 1 301 0
 2431 0152 FFF7FEFF 	 bl example_pair_host_and_optiga_using_pre_shared_secret
 2432              	.LVL223:
 2433              	.LBE140:
 2434              	.LBE139:
 724:D:/School/diseratie/SEMS/xmc4800_evaluation_kit/optiga-trust-m/examples\optiga_shell.c ****     pal_os_timer_delay_in_milliseconds(2000);
 2435              	 .loc 1 724 0
 2436 0156 5B48     	 ldr r0,.L149
 2437 0158 FFF7FEFF 	 bl optiga_lib_print_string_with_newline
 2438              	.LVL224:
 725:D:/School/diseratie/SEMS/xmc4800_evaluation_kit/optiga-trust-m/examples\optiga_shell.c **** }
 2439              	 .loc 1 725 0
 2440 015c 4FF4FA60 	 mov r0,#2000
 2441 0160 FFF7FEFF 	 bl pal_os_timer_delay_in_milliseconds
 2442              	.LVL225:
 2443              	.LBE138:
 2444              	.LBE137:
 2445              	.LBB141:
 2446              	.LBB142:
 2447              	.LBB143:
 2448              	.LBB144:
 326:D:/School/diseratie/SEMS/xmc4800_evaluation_kit/optiga-trust-m/examples\optiga_shell.c **** #endif
 2449              	 .loc 1 326 0
 2450 0164 5A48     	 ldr r0,.L149+12
 2451 0166 5B49     	 ldr r1,.L149+16
 2452 0168 5B4A     	 ldr r2,.L149+20
 2453 016a FFF7FEFF 	 bl optiga_lib_print_message
 2454              	.LVL226:
 328:D:/School/diseratie/SEMS/xmc4800_evaluation_kit/optiga-trust-m/examples\optiga_shell.c ****     OPTIGA_SHELL_LOG_MESSAGE("1 Step: Write Initial Counter Value");
 2455              	 .loc 1 328 0
 2456 016e 6B48     	 ldr r0,.L149+88
 2457 0170 5849     	 ldr r1,.L149+16
 2458 0172 594A     	 ldr r2,.L149+20
 2459 0174 FFF7FEFF 	 bl optiga_lib_print_message
 2460              	.LVL227:
 329:D:/School/diseratie/SEMS/xmc4800_evaluation_kit/optiga-trust-m/examples\optiga_shell.c ****     OPTIGA_SHELL_LOG_MESSAGE("2 Step: Increase Counter Object");
 2461              	 .loc 1 329 0
 2462 0178 6948     	 ldr r0,.L149+92
 2463 017a 5649     	 ldr r1,.L149+16
 2464 017c 564A     	 ldr r2,.L149+20
 2465 017e FFF7FEFF 	 bl optiga_lib_print_message
 2466              	.LVL228:
 330:D:/School/diseratie/SEMS/xmc4800_evaluation_kit/optiga-trust-m/examples\optiga_shell.c **** #ifndef OPTIGA_INIT_DEINIT_DONE_EXCLUSIVELY
 2467              	 .loc 1 330 0
 2468 0182 6848     	 ldr r0,.L149+96
 2469 0184 5349     	 ldr r1,.L149+16
 2470 0186 544A     	 ldr r2,.L149+20
 2471 0188 FFF7FEFF 	 bl optiga_lib_print_message
 2472              	.LVL229:
 332:D:/School/diseratie/SEMS/xmc4800_evaluation_kit/optiga-trust-m/examples\optiga_shell.c **** #endif
 2473              	 .loc 1 332 0
 2474 018c 5149     	 ldr r1,.L149+16
 2475 018e 524A     	 ldr r2,.L149+20
 2476 0190 5548     	 ldr r0,.L149+36
 2477 0192 FFF7FEFF 	 bl optiga_lib_print_message
 2478              	.LVL230:
 334:D:/School/diseratie/SEMS/xmc4800_evaluation_kit/optiga-trust-m/examples\optiga_shell.c **** }
 2479              	 .loc 1 334 0
 2480 0196 FFF7FEFF 	 bl example_optiga_util_update_count
 2481              	.LVL231:
 2482              	.LBE144:
 2483              	.LBE143:
 724:D:/School/diseratie/SEMS/xmc4800_evaluation_kit/optiga-trust-m/examples\optiga_shell.c ****     pal_os_timer_delay_in_milliseconds(2000);
 2484              	 .loc 1 724 0
 2485 019a 4A48     	 ldr r0,.L149
 2486 019c FFF7FEFF 	 bl optiga_lib_print_string_with_newline
 2487              	.LVL232:
 725:D:/School/diseratie/SEMS/xmc4800_evaluation_kit/optiga-trust-m/examples\optiga_shell.c **** }
 2488              	 .loc 1 725 0
 2489 01a0 4FF4FA60 	 mov r0,#2000
 2490 01a4 FFF7FEFF 	 bl pal_os_timer_delay_in_milliseconds
 2491              	.LVL233:
 2492              	.LBE142:
 2493              	.LBE141:
 2494              	.LBB145:
 2495              	.LBB146:
 2496              	.LBB147:
 2497              	.LBB148:
 340:D:/School/diseratie/SEMS/xmc4800_evaluation_kit/optiga-trust-m/examples\optiga_shell.c **** #endif
 2498              	 .loc 1 340 0
 2499 01a8 4948     	 ldr r0,.L149+12
 2500 01aa 4A49     	 ldr r1,.L149+16
 2501 01ac 4A4A     	 ldr r2,.L149+20
 2502 01ae FFF7FEFF 	 bl optiga_lib_print_message
 2503              	.LVL234:
 342:D:/School/diseratie/SEMS/xmc4800_evaluation_kit/optiga-trust-m/examples\optiga_shell.c ****     OPTIGA_SHELL_LOG_MESSAGE("1 Step: Update Metadata for the Object to be updated and the Trust An
 2504              	 .loc 1 342 0
 2505 01b2 5D48     	 ldr r0,.L149+100
 2506 01b4 4749     	 ldr r1,.L149+16
 2507 01b6 484A     	 ldr r2,.L149+20
 2508 01b8 FFF7FEFF 	 bl optiga_lib_print_message
 2509              	.LVL235:
 343:D:/School/diseratie/SEMS/xmc4800_evaluation_kit/optiga-trust-m/examples\optiga_shell.c ****     OPTIGA_SHELL_LOG_MESSAGE("2 Step: Write Trust Anchor used by the Trust M to verify the update")
 2510              	 .loc 1 343 0
 2511 01bc 5B48     	 ldr r0,.L149+104
 2512 01be 4549     	 ldr r1,.L149+16
 2513 01c0 454A     	 ldr r2,.L149+20
 2514 01c2 FFF7FEFF 	 bl optiga_lib_print_message
 2515              	.LVL236:
 344:D:/School/diseratie/SEMS/xmc4800_evaluation_kit/optiga-trust-m/examples\optiga_shell.c ****     OPTIGA_SHELL_LOG_MESSAGE("3 Step: Start Protected update with prepared manifest and fragments")
 2516              	 .loc 1 344 0
 2517 01c6 5A48     	 ldr r0,.L149+108
 2518 01c8 4249     	 ldr r1,.L149+16
 2519 01ca 434A     	 ldr r2,.L149+20
 2520 01cc FFF7FEFF 	 bl optiga_lib_print_message
 2521              	.LVL237:
 345:D:/School/diseratie/SEMS/xmc4800_evaluation_kit/optiga-trust-m/examples\optiga_shell.c **** #ifndef OPTIGA_INIT_DEINIT_DONE_EXCLUSIVELY
 2522              	 .loc 1 345 0
 2523 01d0 5848     	 ldr r0,.L149+112
 2524 01d2 4049     	 ldr r1,.L149+16
 2525 01d4 404A     	 ldr r2,.L149+20
 2526 01d6 FFF7FEFF 	 bl optiga_lib_print_message
 2527              	.LVL238:
 347:D:/School/diseratie/SEMS/xmc4800_evaluation_kit/optiga-trust-m/examples\optiga_shell.c **** #endif
 2528              	 .loc 1 347 0
 2529 01da 3E49     	 ldr r1,.L149+16
 2530 01dc 3E4A     	 ldr r2,.L149+20
 2531 01de 5648     	 ldr r0,.L149+116
 2532 01e0 FFF7FEFF 	 bl optiga_lib_print_message
 2533              	.LVL239:
 349:D:/School/diseratie/SEMS/xmc4800_evaluation_kit/optiga-trust-m/examples\optiga_shell.c **** }
 2534              	 .loc 1 349 0
 2535 01e4 FFF7FEFF 	 bl example_optiga_util_protected_update
 2536              	.LVL240:
 2537              	.LBE148:
 2538              	.LBE147:
 724:D:/School/diseratie/SEMS/xmc4800_evaluation_kit/optiga-trust-m/examples\optiga_shell.c ****     pal_os_timer_delay_in_milliseconds(2000);
 2539              	 .loc 1 724 0
 2540 01e8 3648     	 ldr r0,.L149
 2541 01ea FFF7FEFF 	 bl optiga_lib_print_string_with_newline
 2542              	.LVL241:
 725:D:/School/diseratie/SEMS/xmc4800_evaluation_kit/optiga-trust-m/examples\optiga_shell.c **** }
 2543              	 .loc 1 725 0
 2544 01ee 4FF4FA60 	 mov r0,#2000
 2545 01f2 FFF7FEFF 	 bl pal_os_timer_delay_in_milliseconds
 2546              	.LVL242:
 2547              	.LBE146:
 2548              	.LBE145:
 2549              	.LBB149:
 2550              	.LBB150:
 2551              	.LBB151:
 2552              	.LBB152:
 356:D:/School/diseratie/SEMS/xmc4800_evaluation_kit/optiga-trust-m/examples\optiga_shell.c **** #endif
 2553              	 .loc 1 356 0
 2554 01f6 3648     	 ldr r0,.L149+12
 2555 01f8 3649     	 ldr r1,.L149+16
 2556 01fa 374A     	 ldr r2,.L149+20
 2557 01fc FFF7FEFF 	 bl optiga_lib_print_message
 2558              	.LVL243:
 358:D:/School/diseratie/SEMS/xmc4800_evaluation_kit/optiga-trust-m/examples\optiga_shell.c ****     OPTIGA_SHELL_LOG_MESSAGE("1 Step: Hash given data with Start, Update and Finalize calls");
 2559              	 .loc 1 358 0
 2560 0200 4E48     	 ldr r0,.L149+120
 2561 0202 3449     	 ldr r1,.L149+16
 2562 0204 344A     	 ldr r2,.L149+20
 2563 0206 FFF7FEFF 	 bl optiga_lib_print_message
 2564              	.LVL244:
 359:D:/School/diseratie/SEMS/xmc4800_evaluation_kit/optiga-trust-m/examples\optiga_shell.c **** #ifndef OPTIGA_INIT_DEINIT_DONE_EXCLUSIVELY
 2565              	 .loc 1 359 0
 2566 020a 4D48     	 ldr r0,.L149+124
 2567 020c 3149     	 ldr r1,.L149+16
 2568 020e 324A     	 ldr r2,.L149+20
 2569 0210 FFF7FEFF 	 bl optiga_lib_print_message
 2570              	.LVL245:
 361:D:/School/diseratie/SEMS/xmc4800_evaluation_kit/optiga-trust-m/examples\optiga_shell.c **** #endif
 2571              	 .loc 1 361 0
 2572 0214 2F49     	 ldr r1,.L149+16
 2573 0216 304A     	 ldr r2,.L149+20
 2574 0218 3948     	 ldr r0,.L149+60
 2575 021a FFF7FEFF 	 bl optiga_lib_print_message
 2576              	.LVL246:
 363:D:/School/diseratie/SEMS/xmc4800_evaluation_kit/optiga-trust-m/examples\optiga_shell.c **** }
 2577              	 .loc 1 363 0
 2578 021e FFF7FEFF 	 bl example_optiga_crypt_hash
 2579              	.LVL247:
 2580              	.LBE152:
 2581              	.LBE151:
 724:D:/School/diseratie/SEMS/xmc4800_evaluation_kit/optiga-trust-m/examples\optiga_shell.c ****     pal_os_timer_delay_in_milliseconds(2000);
 2582              	 .loc 1 724 0
 2583 0222 2848     	 ldr r0,.L149
 2584 0224 FFF7FEFF 	 bl optiga_lib_print_string_with_newline
 2585              	.LVL248:
 725:D:/School/diseratie/SEMS/xmc4800_evaluation_kit/optiga-trust-m/examples\optiga_shell.c **** }
 2586              	 .loc 1 725 0
 2587 0228 4FF4FA60 	 mov r0,#2000
 2588 022c FFF7FEFF 	 bl pal_os_timer_delay_in_milliseconds
 2589              	.LVL249:
 2590              	.LBE150:
 2591              	.LBE149:
 2592              	.LBB153:
 2593              	.LBB154:
 2594              	.LBB155:
 2595              	.LBB156:
 369:D:/School/diseratie/SEMS/xmc4800_evaluation_kit/optiga-trust-m/examples\optiga_shell.c **** #endif
 2596              	 .loc 1 369 0
 2597 0230 2748     	 ldr r0,.L149+12
 2598 0232 2849     	 ldr r1,.L149+16
 2599 0234 284A     	 ldr r2,.L149+20
 2600 0236 FFF7FEFF 	 bl optiga_lib_print_message
 2601              	.LVL250:
 371:D:/School/diseratie/SEMS/xmc4800_evaluation_kit/optiga-trust-m/examples\optiga_shell.c ****     OPTIGA_SHELL_LOG_MESSAGE("1 Step: Generate hash of given user data ");
 2602              	 .loc 1 371 0
 2603 023a 4248     	 ldr r0,.L149+128
 2604 023c 2549     	 ldr r1,.L149+16
 2605 023e 264A     	 ldr r2,.L149+20
 2606 0240 FFF7FEFF 	 bl optiga_lib_print_message
 2607              	.LVL251:
 372:D:/School/diseratie/SEMS/xmc4800_evaluation_kit/optiga-trust-m/examples\optiga_shell.c **** #ifndef OPTIGA_INIT_DEINIT_DONE_EXCLUSIVELY
 2608              	 .loc 1 372 0
 2609 0244 4048     	 ldr r0,.L149+132
 2610 0246 2349     	 ldr r1,.L149+16
 2611 0248 234A     	 ldr r2,.L149+20
 2612 024a FFF7FEFF 	 bl optiga_lib_print_message
 2613              	.LVL252:
 374:D:/School/diseratie/SEMS/xmc4800_evaluation_kit/optiga-trust-m/examples\optiga_shell.c **** #endif
 2614              	 .loc 1 374 0
 2615 024e 2149     	 ldr r1,.L149+16
 2616 0250 214A     	 ldr r2,.L149+20
 2617 0252 2B48     	 ldr r0,.L149+60
 2618 0254 FFF7FEFF 	 bl optiga_lib_print_message
 2619              	.LVL253:
 376:D:/School/diseratie/SEMS/xmc4800_evaluation_kit/optiga-trust-m/examples\optiga_shell.c **** }
 2620              	 .loc 1 376 0
 2621 0258 FFF7FEFF 	 bl example_optiga_crypt_hash_data
 2622              	.LVL254:
 2623              	.LBE156:
 2624              	.LBE155:
 724:D:/School/diseratie/SEMS/xmc4800_evaluation_kit/optiga-trust-m/examples\optiga_shell.c ****     pal_os_timer_delay_in_milliseconds(2000);
 2625              	 .loc 1 724 0
 2626 025c 1948     	 ldr r0,.L149
 2627 025e FFF7FEFF 	 bl optiga_lib_print_string_with_newline
 2628              	.LVL255:
 725:D:/School/diseratie/SEMS/xmc4800_evaluation_kit/optiga-trust-m/examples\optiga_shell.c **** }
 2629              	 .loc 1 725 0
 2630 0262 4FF4FA60 	 mov r0,#2000
 2631 0266 FFF7FEFF 	 bl pal_os_timer_delay_in_milliseconds
 2632              	.LVL256:
 2633              	.LBE154:
 2634              	.LBE153:
 2635              	.LBB157:
 2636              	.LBB158:
 2637              	.LBB159:
 2638              	.LBB160:
 384:D:/School/diseratie/SEMS/xmc4800_evaluation_kit/optiga-trust-m/examples\optiga_shell.c **** #endif
 2639              	 .loc 1 384 0
 2640 026a 1948     	 ldr r0,.L149+12
 2641 026c 1949     	 ldr r1,.L149+16
 2642 026e 1A4A     	 ldr r2,.L149+20
 2643 0270 FFF7FEFF 	 bl optiga_lib_print_message
 2644              	.LVL257:
 386:D:/School/diseratie/SEMS/xmc4800_evaluation_kit/optiga-trust-m/examples\optiga_shell.c ****     OPTIGA_SHELL_LOG_MESSAGE("1 Step: Write prepared Shared Secret into an Arbitrary Data Object");
 2645              	 .loc 1 386 0
 2646 0274 3548     	 ldr r0,.L149+136
 2647 0276 1749     	 ldr r1,.L149+16
 2648 0278 174A     	 ldr r2,.L149+20
 2649 027a FFF7FEFF 	 bl optiga_lib_print_message
 2650              	.LVL258:
 387:D:/School/diseratie/SEMS/xmc4800_evaluation_kit/optiga-trust-m/examples\optiga_shell.c ****     OPTIGA_SHELL_LOG_MESSAGE("2 Step: Update Metadata of the Object to use the Arbitrary Data Objec
 2651              	 .loc 1 387 0
 2652 027e 3448     	 ldr r0,.L149+140
 2653 0280 1449     	 ldr r1,.L149+16
 2654 0282 154A     	 ldr r2,.L149+20
 2655 0284 FFF7FEFF 	 bl optiga_lib_print_message
 2656              	.LVL259:
 388:D:/School/diseratie/SEMS/xmc4800_evaluation_kit/optiga-trust-m/examples\optiga_shell.c ****     OPTIGA_SHELL_LOG_MESSAGE("3 Step: Generate Shared Secret using the Shared Secret from the Arbit
 2657              	 .loc 1 388 0
 2658 0288 3248     	 ldr r0,.L149+144
 2659 028a 1249     	 ldr r1,.L149+16
 2660 028c 124A     	 ldr r2,.L149+20
 2661 028e FFF7FEFF 	 bl optiga_lib_print_message
 2662              	.LVL260:
 389:D:/School/diseratie/SEMS/xmc4800_evaluation_kit/optiga-trust-m/examples\optiga_shell.c ****     OPTIGA_SHELL_LOG_MESSAGE("4 Step: Restore Metadata of the Arbitrary Data Object");
 2663              	 .loc 1 389 0
 2664 0292 3148     	 ldr r0,.L149+148
 2665 0294 0F49     	 ldr r1,.L149+16
 2666 0296 104A     	 ldr r2,.L149+20
 2667 0298 FFF7FEFF 	 bl optiga_lib_print_message
 2668              	.LVL261:
 390:D:/School/diseratie/SEMS/xmc4800_evaluation_kit/optiga-trust-m/examples\optiga_shell.c **** #ifndef OPTIGA_INIT_DEINIT_DONE_EXCLUSIVELY
 2669              	 .loc 1 390 0
 2670 029c 2F48     	 ldr r0,.L149+152
 2671 029e 0D49     	 ldr r1,.L149+16
 2672 02a0 0D4A     	 ldr r2,.L149+20
 2673 02a2 FFF7FEFF 	 bl optiga_lib_print_message
 2674              	.LVL262:
 392:D:/School/diseratie/SEMS/xmc4800_evaluation_kit/optiga-trust-m/examples\optiga_shell.c **** #endif
 2675              	 .loc 1 392 0
 2676 02a6 0B49     	 ldr r1,.L149+16
 2677 02a8 0B4A     	 ldr r2,.L149+20
 2678 02aa 1B48     	 ldr r0,.L149+84
 2679 02ac FFF7FEFF 	 bl optiga_lib_print_message
 2680              	.LVL263:
 394:D:/School/diseratie/SEMS/xmc4800_evaluation_kit/optiga-trust-m/examples\optiga_shell.c **** }
 2681              	 .loc 1 394 0
 2682 02b0 FFF7FEFF 	 bl example_optiga_crypt_tls_prf_sha256
 2683              	.LVL264:
 2684              	.LBE160:
 2685              	.LBE159:
 724:D:/School/diseratie/SEMS/xmc4800_evaluation_kit/optiga-trust-m/examples\optiga_shell.c ****     pal_os_timer_delay_in_milliseconds(2000);
 2686              	 .loc 1 724 0
 2687 02b4 0348     	 ldr r0,.L149
 2688 02b6 FFF7FEFF 	 bl optiga_lib_print_string_with_newline
 2689              	.LVL265:
 725:D:/School/diseratie/SEMS/xmc4800_evaluation_kit/optiga-trust-m/examples\optiga_shell.c **** }
 2690              	 .loc 1 725 0
 2691 02ba 4FF4FA60 	 mov r0,#2000
 2692 02be FFF7FEFF 	 bl pal_os_timer_delay_in_milliseconds
 2693              	.LVL266:
 2694 02c2 4DE0     	 b .L150
 2695              	.L151:
 2696              	 .align 2
 2697              	.L149:
 2698 02c4 FC100000 	 .word .LC80
 2699 02c8 00000000 	 .word .LANCHOR0
 2700 02cc 00000000 	 .word .LANCHOR1
 2701 02d0 00000000 	 .word .LC0
 2702 02d4 34000000 	 .word .LC1
 2703 02d8 48000000 	 .word .LC2
 2704 02dc DC0F0000 	 .word .LC72
 2705 02e0 00100000 	 .word .LC73
 2706 02e4 1C100000 	 .word .LC74
 2707 02e8 F40A0000 	 .word .LC50
 2708 02ec 580F0000 	 .word .LC69
 2709 02f0 800F0000 	 .word .LC70
 2710 02f4 C00F0000 	 .word .LC71
 2711 02f8 D00E0000 	 .word .LC67
 2712 02fc 280F0000 	 .word .LC68
 2713 0300 90030000 	 .word .LC16
 2714 0304 D80D0000 	 .word .LC62
 2715 0308 080E0000 	 .word .LC63
 2716 030c 480E0000 	 .word .LC64
 2717 0310 7C0E0000 	 .word .LC65
 2718 0314 A00E0000 	 .word .LC66
 2719 0318 78010000 	 .word .LC8
 2720 031c 900A0000 	 .word .LC47
 2721 0320 B00A0000 	 .word .LC48
 2722 0324 D40A0000 	 .word .LC49
 2723 0328 58090000 	 .word .LC42
 2724 032c 7C090000 	 .word .LC43
 2725 0330 E0090000 	 .word .LC44
 2726 0334 240A0000 	 .word .LC45
 2727 0338 680A0000 	 .word .LC46
 2728 033c 00090000 	 .word .LC40
 2729 0340 18090000 	 .word .LC41
 2730 0344 AC080000 	 .word .LC38
 2731 0348 D4080000 	 .word .LC39
 2732 034c 3C070000 	 .word .LC33
 2733 0350 70070000 	 .word .LC34
 2734 0354 B4070000 	 .word .LC35
 2735 0358 1C080000 	 .word .LC36
 2736 035c 74080000 	 .word .LC37
 2737              	.L150:
 2738              	.LVL267:
 2739              	.LBE158:
 2740              	.LBE157:
 2741              	.LBB161:
 2742              	.LBB162:
 2743              	.LBB163:
 2744              	.LBB164:
 402:D:/School/diseratie/SEMS/xmc4800_evaluation_kit/optiga-trust-m/examples\optiga_shell.c **** #endif
 2745              	 .loc 1 402 0
 2746 0360 AC48     	 ldr r0,.L152
 2747 0362 AD49     	 ldr r1,.L152+4
 2748 0364 AD4A     	 ldr r2,.L152+8
 2749 0366 FFF7FEFF 	 bl optiga_lib_print_message
 2750              	.LVL268:
 404:D:/School/diseratie/SEMS/xmc4800_evaluation_kit/optiga-trust-m/examples\optiga_shell.c ****     OPTIGA_SHELL_LOG_MESSAGE("1 Step: Generate 32 bytes random");
 2751              	 .loc 1 404 0
 2752 036a AD48     	 ldr r0,.L152+12
 2753 036c AA49     	 ldr r1,.L152+4
 2754 036e AB4A     	 ldr r2,.L152+8
 2755 0370 FFF7FEFF 	 bl optiga_lib_print_message
 2756              	.LVL269:
 405:D:/School/diseratie/SEMS/xmc4800_evaluation_kit/optiga-trust-m/examples\optiga_shell.c **** #ifndef OPTIGA_INIT_DEINIT_DONE_EXCLUSIVELY
 2757              	 .loc 1 405 0
 2758 0374 AB48     	 ldr r0,.L152+16
 2759 0376 A849     	 ldr r1,.L152+4
 2760 0378 A84A     	 ldr r2,.L152+8
 2761 037a FFF7FEFF 	 bl optiga_lib_print_message
 2762              	.LVL270:
 407:D:/School/diseratie/SEMS/xmc4800_evaluation_kit/optiga-trust-m/examples\optiga_shell.c **** #endif
 2763              	 .loc 1 407 0
 2764 037e A649     	 ldr r1,.L152+4
 2765 0380 A64A     	 ldr r2,.L152+8
 2766 0382 A948     	 ldr r0,.L152+20
 2767 0384 FFF7FEFF 	 bl optiga_lib_print_message
 2768              	.LVL271:
 409:D:/School/diseratie/SEMS/xmc4800_evaluation_kit/optiga-trust-m/examples\optiga_shell.c **** }
 2769              	 .loc 1 409 0
 2770 0388 FFF7FEFF 	 bl example_optiga_crypt_random
 2771              	.LVL272:
 2772              	.LBE164:
 2773              	.LBE163:
 724:D:/School/diseratie/SEMS/xmc4800_evaluation_kit/optiga-trust-m/examples\optiga_shell.c ****     pal_os_timer_delay_in_milliseconds(2000);
 2774              	 .loc 1 724 0
 2775 038c A748     	 ldr r0,.L152+24
 2776 038e FFF7FEFF 	 bl optiga_lib_print_string_with_newline
 2777              	.LVL273:
 725:D:/School/diseratie/SEMS/xmc4800_evaluation_kit/optiga-trust-m/examples\optiga_shell.c **** }
 2778              	 .loc 1 725 0
 2779 0392 4FF4FA60 	 mov r0,#2000
 2780 0396 FFF7FEFF 	 bl pal_os_timer_delay_in_milliseconds
 2781              	.LVL274:
 2782              	.LBE162:
 2783              	.LBE161:
 2784              	.LBB165:
 2785              	.LBB166:
 2786              	.LBB167:
 2787              	.LBB168:
 417:D:/School/diseratie/SEMS/xmc4800_evaluation_kit/optiga-trust-m/examples\optiga_shell.c **** #endif
 2788              	 .loc 1 417 0
 2789 039a 9E48     	 ldr r0,.L152
 2790 039c 9E49     	 ldr r1,.L152+4
 2791 039e 9F4A     	 ldr r2,.L152+8
 2792 03a0 FFF7FEFF 	 bl optiga_lib_print_message
 2793              	.LVL275:
 419:D:/School/diseratie/SEMS/xmc4800_evaluation_kit/optiga-trust-m/examples\optiga_shell.c ****     OPTIGA_SHELL_LOG_MESSAGE("1 Step: Generate ECC NIST P-256 Key Pair and export the public key");
 2794              	 .loc 1 419 0
 2795 03a4 A248     	 ldr r0,.L152+28
 2796 03a6 9C49     	 ldr r1,.L152+4
 2797 03a8 9C4A     	 ldr r2,.L152+8
 2798 03aa FFF7FEFF 	 bl optiga_lib_print_message
 2799              	.LVL276:
 420:D:/School/diseratie/SEMS/xmc4800_evaluation_kit/optiga-trust-m/examples\optiga_shell.c **** #ifndef OPTIGA_INIT_DEINIT_DONE_EXCLUSIVELY
 2800              	 .loc 1 420 0
 2801 03ae A148     	 ldr r0,.L152+32
 2802 03b0 9949     	 ldr r1,.L152+4
 2803 03b2 9A4A     	 ldr r2,.L152+8
 2804 03b4 FFF7FEFF 	 bl optiga_lib_print_message
 2805              	.LVL277:
 422:D:/School/diseratie/SEMS/xmc4800_evaluation_kit/optiga-trust-m/examples\optiga_shell.c **** #endif
 2806              	 .loc 1 422 0
 2807 03b8 9749     	 ldr r1,.L152+4
 2808 03ba 984A     	 ldr r2,.L152+8
 2809 03bc 9A48     	 ldr r0,.L152+20
 2810 03be FFF7FEFF 	 bl optiga_lib_print_message
 2811              	.LVL278:
 424:D:/School/diseratie/SEMS/xmc4800_evaluation_kit/optiga-trust-m/examples\optiga_shell.c **** }
 2812              	 .loc 1 424 0
 2813 03c2 FFF7FEFF 	 bl example_optiga_crypt_ecc_generate_keypair
 2814              	.LVL279:
 2815              	.LBE168:
 2816              	.LBE167:
 724:D:/School/diseratie/SEMS/xmc4800_evaluation_kit/optiga-trust-m/examples\optiga_shell.c ****     pal_os_timer_delay_in_milliseconds(2000);
 2817              	 .loc 1 724 0
 2818 03c6 9948     	 ldr r0,.L152+24
 2819 03c8 FFF7FEFF 	 bl optiga_lib_print_string_with_newline
 2820              	.LVL280:
 725:D:/School/diseratie/SEMS/xmc4800_evaluation_kit/optiga-trust-m/examples\optiga_shell.c **** }
 2821              	 .loc 1 725 0
 2822 03cc 4FF4FA60 	 mov r0,#2000
 2823 03d0 FFF7FEFF 	 bl pal_os_timer_delay_in_milliseconds
 2824              	.LVL281:
 2825              	.LBE166:
 2826              	.LBE165:
 2827              	.LBB169:
 2828              	.LBB170:
 2829              	.LBB171:
 2830              	.LBB172:
 450:D:/School/diseratie/SEMS/xmc4800_evaluation_kit/optiga-trust-m/examples\optiga_shell.c **** #endif
 2831              	 .loc 1 450 0
 2832 03d4 8F48     	 ldr r0,.L152
 2833 03d6 9049     	 ldr r1,.L152+4
 2834 03d8 904A     	 ldr r2,.L152+8
 2835 03da FFF7FEFF 	 bl optiga_lib_print_message
 2836              	.LVL282:
 452:D:/School/diseratie/SEMS/xmc4800_evaluation_kit/optiga-trust-m/examples\optiga_shell.c ****     OPTIGA_SHELL_LOG_MESSAGE("1 Step: Sign prepared Data and export the signature");
 2837              	 .loc 1 452 0
 2838 03de 9648     	 ldr r0,.L152+36
 2839 03e0 8D49     	 ldr r1,.L152+4
 2840 03e2 8E4A     	 ldr r2,.L152+8
 2841 03e4 FFF7FEFF 	 bl optiga_lib_print_message
 2842              	.LVL283:
 453:D:/School/diseratie/SEMS/xmc4800_evaluation_kit/optiga-trust-m/examples\optiga_shell.c **** #ifndef OPTIGA_INIT_DEINIT_DONE_EXCLUSIVELY
 2843              	 .loc 1 453 0
 2844 03e8 9448     	 ldr r0,.L152+40
 2845 03ea 8B49     	 ldr r1,.L152+4
 2846 03ec 8B4A     	 ldr r2,.L152+8
 2847 03ee FFF7FEFF 	 bl optiga_lib_print_message
 2848              	.LVL284:
 455:D:/School/diseratie/SEMS/xmc4800_evaluation_kit/optiga-trust-m/examples\optiga_shell.c **** #endif
 2849              	 .loc 1 455 0
 2850 03f2 8949     	 ldr r1,.L152+4
 2851 03f4 894A     	 ldr r2,.L152+8
 2852 03f6 8C48     	 ldr r0,.L152+20
 2853 03f8 FFF7FEFF 	 bl optiga_lib_print_message
 2854              	.LVL285:
 457:D:/School/diseratie/SEMS/xmc4800_evaluation_kit/optiga-trust-m/examples\optiga_shell.c **** }
 2855              	 .loc 1 457 0
 2856 03fc FFF7FEFF 	 bl example_optiga_crypt_ecdsa_sign
 2857              	.LVL286:
 2858              	.LBE172:
 2859              	.LBE171:
 724:D:/School/diseratie/SEMS/xmc4800_evaluation_kit/optiga-trust-m/examples\optiga_shell.c ****     pal_os_timer_delay_in_milliseconds(2000);
 2860              	 .loc 1 724 0
 2861 0400 8A48     	 ldr r0,.L152+24
 2862 0402 FFF7FEFF 	 bl optiga_lib_print_string_with_newline
 2863              	.LVL287:
 725:D:/School/diseratie/SEMS/xmc4800_evaluation_kit/optiga-trust-m/examples\optiga_shell.c **** }
 2864              	 .loc 1 725 0
 2865 0406 4FF4FA60 	 mov r0,#2000
 2866 040a FFF7FEFF 	 bl pal_os_timer_delay_in_milliseconds
 2867              	.LVL288:
 2868              	.LBE170:
 2869              	.LBE169:
 2870              	.LBB173:
 2871              	.LBB174:
 2872              	.LBB175:
 2873              	.LBB176:
 465:D:/School/diseratie/SEMS/xmc4800_evaluation_kit/optiga-trust-m/examples\optiga_shell.c **** #endif
 2874              	 .loc 1 465 0
 2875 040e 8148     	 ldr r0,.L152
 2876 0410 8149     	 ldr r1,.L152+4
 2877 0412 824A     	 ldr r2,.L152+8
 2878 0414 FFF7FEFF 	 bl optiga_lib_print_message
 2879              	.LVL289:
 467:D:/School/diseratie/SEMS/xmc4800_evaluation_kit/optiga-trust-m/examples\optiga_shell.c ****     OPTIGA_SHELL_LOG_MESSAGE("1 Step: Verify prepared signature, with prepared public key and diges
 2880              	 .loc 1 467 0
 2881 0418 8948     	 ldr r0,.L152+44
 2882 041a 7F49     	 ldr r1,.L152+4
 2883 041c 7F4A     	 ldr r2,.L152+8
 2884 041e FFF7FEFF 	 bl optiga_lib_print_message
 2885              	.LVL290:
 468:D:/School/diseratie/SEMS/xmc4800_evaluation_kit/optiga-trust-m/examples\optiga_shell.c **** #ifndef OPTIGA_INIT_DEINIT_DONE_EXCLUSIVELY
 2886              	 .loc 1 468 0
 2887 0422 8848     	 ldr r0,.L152+48
 2888 0424 7C49     	 ldr r1,.L152+4
 2889 0426 7D4A     	 ldr r2,.L152+8
 2890 0428 FFF7FEFF 	 bl optiga_lib_print_message
 2891              	.LVL291:
 470:D:/School/diseratie/SEMS/xmc4800_evaluation_kit/optiga-trust-m/examples\optiga_shell.c **** #endif
 2892              	 .loc 1 470 0
 2893 042c 7A49     	 ldr r1,.L152+4
 2894 042e 7B4A     	 ldr r2,.L152+8
 2895 0430 7D48     	 ldr r0,.L152+20
 2896 0432 FFF7FEFF 	 bl optiga_lib_print_message
 2897              	.LVL292:
 472:D:/School/diseratie/SEMS/xmc4800_evaluation_kit/optiga-trust-m/examples\optiga_shell.c **** }
 2898              	 .loc 1 472 0
 2899 0436 FFF7FEFF 	 bl example_optiga_crypt_ecdsa_verify
 2900              	.LVL293:
 2901              	.LBE176:
 2902              	.LBE175:
 724:D:/School/diseratie/SEMS/xmc4800_evaluation_kit/optiga-trust-m/examples\optiga_shell.c ****     pal_os_timer_delay_in_milliseconds(2000);
 2903              	 .loc 1 724 0
 2904 043a 7C48     	 ldr r0,.L152+24
 2905 043c FFF7FEFF 	 bl optiga_lib_print_string_with_newline
 2906              	.LVL294:
 725:D:/School/diseratie/SEMS/xmc4800_evaluation_kit/optiga-trust-m/examples\optiga_shell.c **** }
 2907              	 .loc 1 725 0
 2908 0440 4FF4FA60 	 mov r0,#2000
 2909 0444 FFF7FEFF 	 bl pal_os_timer_delay_in_milliseconds
 2910              	.LVL295:
 2911              	.LBE174:
 2912              	.LBE173:
 2913              	.LBB177:
 2914              	.LBB178:
 2915              	.LBB179:
 2916              	.LBB180:
 432:D:/School/diseratie/SEMS/xmc4800_evaluation_kit/optiga-trust-m/examples\optiga_shell.c **** #endif
 2917              	 .loc 1 432 0
 2918 0448 7248     	 ldr r0,.L152
 2919 044a 7349     	 ldr r1,.L152+4
 2920 044c 734A     	 ldr r2,.L152+8
 2921 044e FFF7FEFF 	 bl optiga_lib_print_message
 2922              	.LVL296:
 434:D:/School/diseratie/SEMS/xmc4800_evaluation_kit/optiga-trust-m/examples\optiga_shell.c ****     OPTIGA_SHELL_LOG_MESSAGE("1 Step: Select Protected I2C Connection");
 2923              	 .loc 1 434 0
 2924 0452 7D48     	 ldr r0,.L152+52
 2925 0454 7049     	 ldr r1,.L152+4
 2926 0456 714A     	 ldr r2,.L152+8
 2927 0458 FFF7FEFF 	 bl optiga_lib_print_message
 2928              	.LVL297:
 435:D:/School/diseratie/SEMS/xmc4800_evaluation_kit/optiga-trust-m/examples\optiga_shell.c ****     OPTIGA_SHELL_LOG_MESSAGE("2 Step: Generate new ECC NIST P-256 Key Pair");
 2929              	 .loc 1 435 0
 2930 045c 7B48     	 ldr r0,.L152+56
 2931 045e 6E49     	 ldr r1,.L152+4
 2932 0460 6E4A     	 ldr r2,.L152+8
 2933 0462 FFF7FEFF 	 bl optiga_lib_print_message
 2934              	.LVL298:
 436:D:/School/diseratie/SEMS/xmc4800_evaluation_kit/optiga-trust-m/examples\optiga_shell.c ****     OPTIGA_SHELL_LOG_MESSAGE("3 Step: Select Protected I2C Connection");
 2935              	 .loc 1 436 0
 2936 0466 7A48     	 ldr r0,.L152+60
 2937 0468 6B49     	 ldr r1,.L152+4
 2938 046a 6C4A     	 ldr r2,.L152+8
 2939 046c FFF7FEFF 	 bl optiga_lib_print_message
 2940              	.LVL299:
 437:D:/School/diseratie/SEMS/xmc4800_evaluation_kit/optiga-trust-m/examples\optiga_shell.c ****     OPTIGA_SHELL_LOG_MESSAGE("4 Step: Generate Shared Secret and export it");
 2941              	 .loc 1 437 0
 2942 0470 7848     	 ldr r0,.L152+64
 2943 0472 6949     	 ldr r1,.L152+4
 2944 0474 694A     	 ldr r2,.L152+8
 2945 0476 FFF7FEFF 	 bl optiga_lib_print_message
 2946              	.LVL300:
 438:D:/School/diseratie/SEMS/xmc4800_evaluation_kit/optiga-trust-m/examples\optiga_shell.c **** #ifndef OPTIGA_INIT_DEINIT_DONE_EXCLUSIVELY
 2947              	 .loc 1 438 0
 2948 047a 7748     	 ldr r0,.L152+68
 2949 047c 6649     	 ldr r1,.L152+4
 2950 047e 674A     	 ldr r2,.L152+8
 2951 0480 FFF7FEFF 	 bl optiga_lib_print_message
 2952              	.LVL301:
 440:D:/School/diseratie/SEMS/xmc4800_evaluation_kit/optiga-trust-m/examples\optiga_shell.c **** #endif
 2953              	 .loc 1 440 0
 2954 0484 6449     	 ldr r1,.L152+4
 2955 0486 654A     	 ldr r2,.L152+8
 2956 0488 7448     	 ldr r0,.L152+72
 2957 048a FFF7FEFF 	 bl optiga_lib_print_message
 2958              	.LVL302:
 442:D:/School/diseratie/SEMS/xmc4800_evaluation_kit/optiga-trust-m/examples\optiga_shell.c **** }
 2959              	 .loc 1 442 0
 2960 048e FFF7FEFF 	 bl example_optiga_crypt_ecdh
 2961              	.LVL303:
 2962              	.LBE180:
 2963              	.LBE179:
 724:D:/School/diseratie/SEMS/xmc4800_evaluation_kit/optiga-trust-m/examples\optiga_shell.c ****     pal_os_timer_delay_in_milliseconds(2000);
 2964              	 .loc 1 724 0
 2965 0492 6648     	 ldr r0,.L152+24
 2966 0494 FFF7FEFF 	 bl optiga_lib_print_string_with_newline
 2967              	.LVL304:
 725:D:/School/diseratie/SEMS/xmc4800_evaluation_kit/optiga-trust-m/examples\optiga_shell.c **** }
 2968              	 .loc 1 725 0
 2969 0498 4FF4FA60 	 mov r0,#2000
 2970 049c FFF7FEFF 	 bl pal_os_timer_delay_in_milliseconds
 2971              	.LVL305:
 2972              	.LBE178:
 2973              	.LBE177:
 2974              	.LBB181:
 2975              	.LBB182:
 2976              	.LBB183:
 2977              	.LBB184:
 510:D:/School/diseratie/SEMS/xmc4800_evaluation_kit/optiga-trust-m/examples\optiga_shell.c **** #endif
 2978              	 .loc 1 510 0
 2979 04a0 5C48     	 ldr r0,.L152
 2980 04a2 5D49     	 ldr r1,.L152+4
 2981 04a4 5D4A     	 ldr r2,.L152+8
 2982 04a6 FFF7FEFF 	 bl optiga_lib_print_message
 2983              	.LVL306:
 512:D:/School/diseratie/SEMS/xmc4800_evaluation_kit/optiga-trust-m/examples\optiga_shell.c ****     OPTIGA_SHELL_LOG_MESSAGE("1 Step: Generate RSA 1024 Key Pair and export the public key");
 2984              	 .loc 1 512 0
 2985 04aa 6D48     	 ldr r0,.L152+76
 2986 04ac 5A49     	 ldr r1,.L152+4
 2987 04ae 5B4A     	 ldr r2,.L152+8
 2988 04b0 FFF7FEFF 	 bl optiga_lib_print_message
 2989              	.LVL307:
 513:D:/School/diseratie/SEMS/xmc4800_evaluation_kit/optiga-trust-m/examples\optiga_shell.c **** #ifndef OPTIGA_INIT_DEINIT_DONE_EXCLUSIVELY
 2990              	 .loc 1 513 0
 2991 04b4 6B48     	 ldr r0,.L152+80
 2992 04b6 5849     	 ldr r1,.L152+4
 2993 04b8 584A     	 ldr r2,.L152+8
 2994 04ba FFF7FEFF 	 bl optiga_lib_print_message
 2995              	.LVL308:
 515:D:/School/diseratie/SEMS/xmc4800_evaluation_kit/optiga-trust-m/examples\optiga_shell.c **** #endif
 2996              	 .loc 1 515 0
 2997 04be 5649     	 ldr r1,.L152+4
 2998 04c0 564A     	 ldr r2,.L152+8
 2999 04c2 5948     	 ldr r0,.L152+20
 3000 04c4 FFF7FEFF 	 bl optiga_lib_print_message
 3001              	.LVL309:
 517:D:/School/diseratie/SEMS/xmc4800_evaluation_kit/optiga-trust-m/examples\optiga_shell.c **** }
 3002              	 .loc 1 517 0
 3003 04c8 FFF7FEFF 	 bl example_optiga_crypt_rsa_generate_keypair
 3004              	.LVL310:
 3005              	.LBE184:
 3006              	.LBE183:
 724:D:/School/diseratie/SEMS/xmc4800_evaluation_kit/optiga-trust-m/examples\optiga_shell.c ****     pal_os_timer_delay_in_milliseconds(2000);
 3007              	 .loc 1 724 0
 3008 04cc 5748     	 ldr r0,.L152+24
 3009 04ce FFF7FEFF 	 bl optiga_lib_print_string_with_newline
 3010              	.LVL311:
 725:D:/School/diseratie/SEMS/xmc4800_evaluation_kit/optiga-trust-m/examples\optiga_shell.c **** }
 3011              	 .loc 1 725 0
 3012 04d2 4FF4FA60 	 mov r0,#2000
 3013 04d6 FFF7FEFF 	 bl pal_os_timer_delay_in_milliseconds
 3014              	.LVL312:
 3015              	.LBE182:
 3016              	.LBE181:
 3017              	.LBB185:
 3018              	.LBB186:
 3019              	.LBB187:
 3020              	.LBB188:
 480:D:/School/diseratie/SEMS/xmc4800_evaluation_kit/optiga-trust-m/examples\optiga_shell.c **** #endif
 3021              	 .loc 1 480 0
 3022 04da 4E48     	 ldr r0,.L152
 3023 04dc 4E49     	 ldr r1,.L152+4
 3024 04de 4F4A     	 ldr r2,.L152+8
 3025 04e0 FFF7FEFF 	 bl optiga_lib_print_message
 3026              	.LVL313:
 482:D:/School/diseratie/SEMS/xmc4800_evaluation_kit/optiga-trust-m/examples\optiga_shell.c ****     OPTIGA_SHELL_LOG_MESSAGE("1 Step: Sign prepared Data and export the signature");
 3027              	 .loc 1 482 0
 3028 04e4 6048     	 ldr r0,.L152+84
 3029 04e6 4C49     	 ldr r1,.L152+4
 3030 04e8 4C4A     	 ldr r2,.L152+8
 3031 04ea FFF7FEFF 	 bl optiga_lib_print_message
 3032              	.LVL314:
 483:D:/School/diseratie/SEMS/xmc4800_evaluation_kit/optiga-trust-m/examples\optiga_shell.c **** #ifndef OPTIGA_INIT_DEINIT_DONE_EXCLUSIVELY
 3033              	 .loc 1 483 0
 3034 04ee 5348     	 ldr r0,.L152+40
 3035 04f0 4949     	 ldr r1,.L152+4
 3036 04f2 4A4A     	 ldr r2,.L152+8
 3037 04f4 FFF7FEFF 	 bl optiga_lib_print_message
 3038              	.LVL315:
 485:D:/School/diseratie/SEMS/xmc4800_evaluation_kit/optiga-trust-m/examples\optiga_shell.c **** #endif
 3039              	 .loc 1 485 0
 3040 04f8 4749     	 ldr r1,.L152+4
 3041 04fa 484A     	 ldr r2,.L152+8
 3042 04fc 4A48     	 ldr r0,.L152+20
 3043 04fe FFF7FEFF 	 bl optiga_lib_print_message
 3044              	.LVL316:
 487:D:/School/diseratie/SEMS/xmc4800_evaluation_kit/optiga-trust-m/examples\optiga_shell.c **** }
 3045              	 .loc 1 487 0
 3046 0502 FFF7FEFF 	 bl example_optiga_crypt_rsa_sign
 3047              	.LVL317:
 3048              	.LBE188:
 3049              	.LBE187:
 724:D:/School/diseratie/SEMS/xmc4800_evaluation_kit/optiga-trust-m/examples\optiga_shell.c ****     pal_os_timer_delay_in_milliseconds(2000);
 3050              	 .loc 1 724 0
 3051 0506 4948     	 ldr r0,.L152+24
 3052 0508 FFF7FEFF 	 bl optiga_lib_print_string_with_newline
 3053              	.LVL318:
 725:D:/School/diseratie/SEMS/xmc4800_evaluation_kit/optiga-trust-m/examples\optiga_shell.c **** }
 3054              	 .loc 1 725 0
 3055 050c 4FF4FA60 	 mov r0,#2000
 3056 0510 FFF7FEFF 	 bl pal_os_timer_delay_in_milliseconds
 3057              	.LVL319:
 3058              	.LBE186:
 3059              	.LBE185:
 3060              	.LBB189:
 3061              	.LBB190:
 3062              	.LBB191:
 3063              	.LBB192:
 495:D:/School/diseratie/SEMS/xmc4800_evaluation_kit/optiga-trust-m/examples\optiga_shell.c **** #endif
 3064              	 .loc 1 495 0
 3065 0514 3F48     	 ldr r0,.L152
 3066 0516 4049     	 ldr r1,.L152+4
 3067 0518 404A     	 ldr r2,.L152+8
 3068 051a FFF7FEFF 	 bl optiga_lib_print_message
 3069              	.LVL320:
 497:D:/School/diseratie/SEMS/xmc4800_evaluation_kit/optiga-trust-m/examples\optiga_shell.c ****     OPTIGA_SHELL_LOG_MESSAGE("1 Step: Verify prepared signature, with prepared public key and diges
 3070              	 .loc 1 497 0
 3071 051e 5248     	 ldr r0,.L152+84
 3072 0520 3D49     	 ldr r1,.L152+4
 3073 0522 3E4A     	 ldr r2,.L152+8
 3074 0524 FFF7FEFF 	 bl optiga_lib_print_message
 3075              	.LVL321:
 498:D:/School/diseratie/SEMS/xmc4800_evaluation_kit/optiga-trust-m/examples\optiga_shell.c **** #ifndef OPTIGA_INIT_DEINIT_DONE_EXCLUSIVELY
 3076              	 .loc 1 498 0
 3077 0528 4648     	 ldr r0,.L152+48
 3078 052a 3B49     	 ldr r1,.L152+4
 3079 052c 3B4A     	 ldr r2,.L152+8
 3080 052e FFF7FEFF 	 bl optiga_lib_print_message
 3081              	.LVL322:
 500:D:/School/diseratie/SEMS/xmc4800_evaluation_kit/optiga-trust-m/examples\optiga_shell.c **** #endif
 3082              	 .loc 1 500 0
 3083 0532 3949     	 ldr r1,.L152+4
 3084 0534 394A     	 ldr r2,.L152+8
 3085 0536 3C48     	 ldr r0,.L152+20
 3086 0538 FFF7FEFF 	 bl optiga_lib_print_message
 3087              	.LVL323:
 502:D:/School/diseratie/SEMS/xmc4800_evaluation_kit/optiga-trust-m/examples\optiga_shell.c **** }
 3088              	 .loc 1 502 0
 3089 053c FFF7FEFF 	 bl example_optiga_crypt_rsa_verify
 3090              	.LVL324:
 3091              	.LBE192:
 3092              	.LBE191:
 724:D:/School/diseratie/SEMS/xmc4800_evaluation_kit/optiga-trust-m/examples\optiga_shell.c ****     pal_os_timer_delay_in_milliseconds(2000);
 3093              	 .loc 1 724 0
 3094 0540 3A48     	 ldr r0,.L152+24
 3095 0542 FFF7FEFF 	 bl optiga_lib_print_string_with_newline
 3096              	.LVL325:
 725:D:/School/diseratie/SEMS/xmc4800_evaluation_kit/optiga-trust-m/examples\optiga_shell.c **** }
 3097              	 .loc 1 725 0
 3098 0546 4FF4FA60 	 mov r0,#2000
 3099 054a FFF7FEFF 	 bl pal_os_timer_delay_in_milliseconds
 3100              	.LVL326:
 3101              	.LBE190:
 3102              	.LBE189:
 3103              	.LBB193:
 3104              	.LBB194:
 3105              	.LBB195:
 3106              	.LBB196:
 562:D:/School/diseratie/SEMS/xmc4800_evaluation_kit/optiga-trust-m/examples\optiga_shell.c **** #endif
 3107              	 .loc 1 562 0
 3108 054e 3148     	 ldr r0,.L152
 3109 0550 3149     	 ldr r1,.L152+4
 3110 0552 324A     	 ldr r2,.L152+8
 3111 0554 FFF7FEFF 	 bl optiga_lib_print_message
 3112              	.LVL327:
 564:D:/School/diseratie/SEMS/xmc4800_evaluation_kit/optiga-trust-m/examples\optiga_shell.c ****     OPTIGA_SHELL_LOG_MESSAGE("1 Step: Encrypt a message with RSAES PKCS#1 Ver1.5 Scheme");
 3113              	 .loc 1 564 0
 3114 0558 4448     	 ldr r0,.L152+88
 3115 055a 2F49     	 ldr r1,.L152+4
 3116 055c 2F4A     	 ldr r2,.L152+8
 3117 055e FFF7FEFF 	 bl optiga_lib_print_message
 3118              	.LVL328:
 565:D:/School/diseratie/SEMS/xmc4800_evaluation_kit/optiga-trust-m/examples\optiga_shell.c **** #ifndef OPTIGA_INIT_DEINIT_DONE_EXCLUSIVELY
 3119              	 .loc 1 565 0
 3120 0562 4348     	 ldr r0,.L152+92
 3121 0564 2C49     	 ldr r1,.L152+4
 3122 0566 2D4A     	 ldr r2,.L152+8
 3123 0568 FFF7FEFF 	 bl optiga_lib_print_message
 3124              	.LVL329:
 567:D:/School/diseratie/SEMS/xmc4800_evaluation_kit/optiga-trust-m/examples\optiga_shell.c **** #endif
 3125              	 .loc 1 567 0
 3126 056c 2A49     	 ldr r1,.L152+4
 3127 056e 2B4A     	 ldr r2,.L152+8
 3128 0570 2D48     	 ldr r0,.L152+20
 3129 0572 FFF7FEFF 	 bl optiga_lib_print_message
 3130              	.LVL330:
 569:D:/School/diseratie/SEMS/xmc4800_evaluation_kit/optiga-trust-m/examples\optiga_shell.c **** }
 3131              	 .loc 1 569 0
 3132 0576 FFF7FEFF 	 bl example_optiga_crypt_rsa_encrypt_message
 3133              	.LVL331:
 3134              	.LBE196:
 3135              	.LBE195:
 724:D:/School/diseratie/SEMS/xmc4800_evaluation_kit/optiga-trust-m/examples\optiga_shell.c ****     pal_os_timer_delay_in_milliseconds(2000);
 3136              	 .loc 1 724 0
 3137 057a 2C48     	 ldr r0,.L152+24
 3138 057c FFF7FEFF 	 bl optiga_lib_print_string_with_newline
 3139              	.LVL332:
 725:D:/School/diseratie/SEMS/xmc4800_evaluation_kit/optiga-trust-m/examples\optiga_shell.c **** }
 3140              	 .loc 1 725 0
 3141 0580 4FF4FA60 	 mov r0,#2000
 3142 0584 FFF7FEFF 	 bl pal_os_timer_delay_in_milliseconds
 3143              	.LVL333:
 3144              	.LBE194:
 3145              	.LBE193:
 3146              	.LBB197:
 3147              	.LBB198:
 3148              	.LBB199:
 3149              	.LBB200:
 577:D:/School/diseratie/SEMS/xmc4800_evaluation_kit/optiga-trust-m/examples\optiga_shell.c **** #endif
 3150              	 .loc 1 577 0
 3151 0588 2248     	 ldr r0,.L152
 3152 058a 2349     	 ldr r1,.L152+4
 3153 058c 234A     	 ldr r2,.L152+8
 3154 058e FFF7FEFF 	 bl optiga_lib_print_message
 3155              	.LVL334:
 579:D:/School/diseratie/SEMS/xmc4800_evaluation_kit/optiga-trust-m/examples\optiga_shell.c ****     OPTIGA_SHELL_LOG_MESSAGE("1 Step: Encrypt a message with RSAES PKCS#1 Ver1.5 Scheme stored on c
 3156              	 .loc 1 579 0
 3157 0592 3848     	 ldr r0,.L152+96
 3158 0594 2049     	 ldr r1,.L152+4
 3159 0596 214A     	 ldr r2,.L152+8
 3160 0598 FFF7FEFF 	 bl optiga_lib_print_message
 3161              	.LVL335:
 580:D:/School/diseratie/SEMS/xmc4800_evaluation_kit/optiga-trust-m/examples\optiga_shell.c **** #ifndef OPTIGA_INIT_DEINIT_DONE_EXCLUSIVELY
 3162              	 .loc 1 580 0
 3163 059c 3648     	 ldr r0,.L152+100
 3164 059e 1E49     	 ldr r1,.L152+4
 3165 05a0 1E4A     	 ldr r2,.L152+8
 3166 05a2 FFF7FEFF 	 bl optiga_lib_print_message
 3167              	.LVL336:
 582:D:/School/diseratie/SEMS/xmc4800_evaluation_kit/optiga-trust-m/examples\optiga_shell.c **** #endif
 3168              	 .loc 1 582 0
 3169 05a6 1C49     	 ldr r1,.L152+4
 3170 05a8 1C4A     	 ldr r2,.L152+8
 3171 05aa 1F48     	 ldr r0,.L152+20
 3172 05ac FFF7FEFF 	 bl optiga_lib_print_message
 3173              	.LVL337:
 584:D:/School/diseratie/SEMS/xmc4800_evaluation_kit/optiga-trust-m/examples\optiga_shell.c **** }
 3174              	 .loc 1 584 0
 3175 05b0 FFF7FEFF 	 bl example_optiga_crypt_rsa_encrypt_session
 3176              	.LVL338:
 3177              	.LBE200:
 3178              	.LBE199:
 724:D:/School/diseratie/SEMS/xmc4800_evaluation_kit/optiga-trust-m/examples\optiga_shell.c ****     pal_os_timer_delay_in_milliseconds(2000);
 3179              	 .loc 1 724 0
 3180 05b4 1D48     	 ldr r0,.L152+24
 3181 05b6 FFF7FEFF 	 bl optiga_lib_print_string_with_newline
 3182              	.LVL339:
 725:D:/School/diseratie/SEMS/xmc4800_evaluation_kit/optiga-trust-m/examples\optiga_shell.c **** }
 3183              	 .loc 1 725 0
 3184 05ba 4FF4FA60 	 mov r0,#2000
 3185 05be FFF7FEFF 	 bl pal_os_timer_delay_in_milliseconds
 3186              	.LVL340:
 3187              	.LBE198:
 3188              	.LBE197:
 3189              	.LBB201:
 3190              	.LBB202:
 3191              	.LBB203:
 3192              	.LBB204:
 544:D:/School/diseratie/SEMS/xmc4800_evaluation_kit/optiga-trust-m/examples\optiga_shell.c **** #endif
 3193              	 .loc 1 544 0
 3194 05c2 1448     	 ldr r0,.L152
 3195 05c4 1449     	 ldr r1,.L152+4
 3196 05c6 154A     	 ldr r2,.L152+8
 3197 05c8 FFF7FEFF 	 bl optiga_lib_print_message
 3198              	.LVL341:
 546:D:/School/diseratie/SEMS/xmc4800_evaluation_kit/optiga-trust-m/examples\optiga_shell.c ****     OPTIGA_SHELL_LOG_MESSAGE("1 Step: Generate RSA 1024 Key Pair and export the public key");
 3199              	 .loc 1 546 0
 3200 05cc 2B48     	 ldr r0,.L152+104
 3201 05ce 1249     	 ldr r1,.L152+4
 3202 05d0 124A     	 ldr r2,.L152+8
 3203 05d2 FFF7FEFF 	 bl optiga_lib_print_message
 3204              	.LVL342:
 547:D:/School/diseratie/SEMS/xmc4800_evaluation_kit/optiga-trust-m/examples\optiga_shell.c ****     OPTIGA_SHELL_LOG_MESSAGE("2 Step: Generate 70 bytes RSA Pre master secret which is stored in ac
 3205              	 .loc 1 547 0
 3206 05d6 2348     	 ldr r0,.L152+80
 3207 05d8 0F49     	 ldr r1,.L152+4
 3208 05da 104A     	 ldr r2,.L152+8
 3209 05dc FFF7FEFF 	 bl optiga_lib_print_message
 3210              	.LVL343:
 548:D:/School/diseratie/SEMS/xmc4800_evaluation_kit/optiga-trust-m/examples\optiga_shell.c ****     OPTIGA_SHELL_LOG_MESSAGE("3 Step: Select Protected I2C Connection");
 3211              	 .loc 1 548 0
 3212 05e0 2748     	 ldr r0,.L152+108
 3213 05e2 0D49     	 ldr r1,.L152+4
 3214 05e4 0D4A     	 ldr r2,.L152+8
 3215 05e6 FFF7FEFF 	 bl optiga_lib_print_message
 3216              	.LVL344:
 549:D:/School/diseratie/SEMS/xmc4800_evaluation_kit/optiga-trust-m/examples\optiga_shell.c ****     OPTIGA_SHELL_LOG_MESSAGE("4 Step: Encrypt Session Data with RSA Public Key");
 3217              	 .loc 1 549 0
 3218 05ea 1A48     	 ldr r0,.L152+64
 3219 05ec 0A49     	 ldr r1,.L152+4
 3220 05ee 0B4A     	 ldr r2,.L152+8
 3221 05f0 FFF7FEFF 	 bl optiga_lib_print_message
 3222              	.LVL345:
 550:D:/School/diseratie/SEMS/xmc4800_evaluation_kit/optiga-trust-m/examples\optiga_shell.c ****     OPTIGA_SHELL_LOG_MESSAGE("5 Step: Decrypt the message with RSAES PKCS#1 Ver1.5 Scheme and store
 3223              	 .loc 1 550 0
 3224 05f4 2348     	 ldr r0,.L152+112
 3225 05f6 0849     	 ldr r1,.L152+4
 3226 05f8 084A     	 ldr r2,.L152+8
 3227 05fa FFF7FEFF 	 bl optiga_lib_print_message
 3228              	.LVL346:
 551:D:/School/diseratie/SEMS/xmc4800_evaluation_kit/optiga-trust-m/examples\optiga_shell.c **** #ifndef OPTIGA_INIT_DEINIT_DONE_EXCLUSIVELY
 3229              	 .loc 1 551 0
 3230 05fe 2248     	 ldr r0,.L152+116
 3231 0600 0549     	 ldr r1,.L152+4
 3232 0602 064A     	 ldr r2,.L152+8
 3233 0604 FFF7FEFF 	 bl optiga_lib_print_message
 3234              	.LVL347:
 553:D:/School/diseratie/SEMS/xmc4800_evaluation_kit/optiga-trust-m/examples\optiga_shell.c **** #endif
 3235              	 .loc 1 553 0
 3236 0608 0349     	 ldr r1,.L152+4
 3237 060a 044A     	 ldr r2,.L152+8
 3238 060c 1F48     	 ldr r0,.L152+120
 3239 060e FFF7FEFF 	 bl optiga_lib_print_message
 3240              	.LVL348:
 3241 0612 3DE0     	 b .L153
 3242              	.L154:
 3243              	 .align 2
 3244              	.L152:
 3245 0614 00000000 	 .word .LC0
 3246 0618 34000000 	 .word .LC1
 3247 061c 48000000 	 .word .LC2
 3248 0620 F4060000 	 .word .LC31
 3249 0624 18070000 	 .word .LC32
 3250 0628 90030000 	 .word .LC16
 3251 062c FC100000 	 .word .LC80
 3252 0630 8C060000 	 .word .LC29
 3253 0634 B0060000 	 .word .LC30
 3254 0638 3C060000 	 .word .LC28
 3255 063c B4040000 	 .word .LC21
 3256 0640 E4050000 	 .word .LC27
 3257 0644 6C040000 	 .word .LC20
 3258 0648 0C050000 	 .word .LC23
 3259 064c 5C050000 	 .word .LC24
 3260 0650 84050000 	 .word .LC25
 3261 0654 04010000 	 .word .LC6
 3262 0658 B4050000 	 .word .LC26
 3263 065c 78010000 	 .word .LC8
 3264 0660 E8040000 	 .word .LC22
 3265 0664 88000000 	 .word .LC4
 3266 0668 20040000 	 .word .LC19
 3267 066c B8030000 	 .word .LC17
 3268 0670 E4030000 	 .word .LC18
 3269 0674 EC020000 	 .word .LC14
 3270 0678 34030000 	 .word .LC15
 3271 067c A0010000 	 .word .LC9
 3272 0680 E4010000 	 .word .LC10
 3273 0684 3C020000 	 .word .LC11
 3274 0688 70020000 	 .word .LC12
 3275 068c C4020000 	 .word .LC13
 3276              	.L153:
 555:D:/School/diseratie/SEMS/xmc4800_evaluation_kit/optiga-trust-m/examples\optiga_shell.c **** }
 3277              	 .loc 1 555 0
 3278 0690 FFF7FEFF 	 bl example_optiga_crypt_rsa_decrypt_and_store
 3279              	.LVL349:
 3280              	.LBE204:
 3281              	.LBE203:
 724:D:/School/diseratie/SEMS/xmc4800_evaluation_kit/optiga-trust-m/examples\optiga_shell.c ****     pal_os_timer_delay_in_milliseconds(2000);
 3282              	 .loc 1 724 0
 3283 0694 2848     	 ldr r0,.L155
 3284 0696 FFF7FEFF 	 bl optiga_lib_print_string_with_newline
 3285              	.LVL350:
 725:D:/School/diseratie/SEMS/xmc4800_evaluation_kit/optiga-trust-m/examples\optiga_shell.c **** }
 3286              	 .loc 1 725 0
 3287 069a 4FF4FA60 	 mov r0,#2000
 3288 069e FFF7FEFF 	 bl pal_os_timer_delay_in_milliseconds
 3289              	.LVL351:
 3290              	.LBE202:
 3291              	.LBE201:
 3292              	.LBB205:
 3293              	.LBB206:
 3294              	.LBB207:
 3295              	.LBB208:
 525:D:/School/diseratie/SEMS/xmc4800_evaluation_kit/optiga-trust-m/examples\optiga_shell.c **** #endif
 3296              	 .loc 1 525 0
 3297 06a2 2648     	 ldr r0,.L155+4
 3298 06a4 2649     	 ldr r1,.L155+8
 3299 06a6 274A     	 ldr r2,.L155+12
 3300 06a8 FFF7FEFF 	 bl optiga_lib_print_message
 3301              	.LVL352:
 527:D:/School/diseratie/SEMS/xmc4800_evaluation_kit/optiga-trust-m/examples\optiga_shell.c ****     OPTIGA_SHELL_LOG_MESSAGE("1 Step: Generate RSA 1024 Key Pair and export the public key");
 3302              	 .loc 1 527 0
 3303 06ac 2648     	 ldr r0,.L155+16
 3304 06ae 2449     	 ldr r1,.L155+8
 3305 06b0 244A     	 ldr r2,.L155+12
 3306 06b2 FFF7FEFF 	 bl optiga_lib_print_message
 3307              	.LVL353:
 528:D:/School/diseratie/SEMS/xmc4800_evaluation_kit/optiga-trust-m/examples\optiga_shell.c ****     OPTIGA_SHELL_LOG_MESSAGE("2 Step: Encrypt a message with RSAES PKCS#1 Ver1.5 Scheme");
 3308              	 .loc 1 528 0
 3309 06b6 2548     	 ldr r0,.L155+20
 3310 06b8 2149     	 ldr r1,.L155+8
 3311 06ba 224A     	 ldr r2,.L155+12
 3312 06bc FFF7FEFF 	 bl optiga_lib_print_message
 3313              	.LVL354:
 529:D:/School/diseratie/SEMS/xmc4800_evaluation_kit/optiga-trust-m/examples\optiga_shell.c ****     OPTIGA_SHELL_LOG_MESSAGE("3 Step: Select Protected I2C Connection");
 3314              	 .loc 1 529 0
 3315 06c0 2348     	 ldr r0,.L155+24
 3316 06c2 1F49     	 ldr r1,.L155+8
 3317 06c4 1F4A     	 ldr r2,.L155+12
 3318 06c6 FFF7FEFF 	 bl optiga_lib_print_message
 3319              	.LVL355:
 530:D:/School/diseratie/SEMS/xmc4800_evaluation_kit/optiga-trust-m/examples\optiga_shell.c ****     OPTIGA_SHELL_LOG_MESSAGE("4 Step: Decrypt the message with RSAES PKCS#1 Ver1.5 Scheme and expor
 3320              	 .loc 1 530 0
 3321 06ca 2248     	 ldr r0,.L155+28
 3322 06cc 1C49     	 ldr r1,.L155+8
 3323 06ce 1D4A     	 ldr r2,.L155+12
 3324 06d0 FFF7FEFF 	 bl optiga_lib_print_message
 3325              	.LVL356:
 531:D:/School/diseratie/SEMS/xmc4800_evaluation_kit/optiga-trust-m/examples\optiga_shell.c **** #ifndef OPTIGA_INIT_DEINIT_DONE_EXCLUSIVELY
 3326              	 .loc 1 531 0
 3327 06d4 2048     	 ldr r0,.L155+32
 3328 06d6 1A49     	 ldr r1,.L155+8
 3329 06d8 1A4A     	 ldr r2,.L155+12
 3330 06da FFF7FEFF 	 bl optiga_lib_print_message
 3331              	.LVL357:
 533:D:/School/diseratie/SEMS/xmc4800_evaluation_kit/optiga-trust-m/examples\optiga_shell.c **** #endif
 3332              	 .loc 1 533 0
 3333 06de 1849     	 ldr r1,.L155+8
 3334 06e0 184A     	 ldr r2,.L155+12
 3335 06e2 1E48     	 ldr r0,.L155+36
 3336 06e4 FFF7FEFF 	 bl optiga_lib_print_message
 3337              	.LVL358:
 535:D:/School/diseratie/SEMS/xmc4800_evaluation_kit/optiga-trust-m/examples\optiga_shell.c **** }
 3338              	 .loc 1 535 0
 3339 06e8 FFF7FEFF 	 bl example_optiga_crypt_rsa_decrypt_and_export
 3340              	.LVL359:
 3341              	.LBE208:
 3342              	.LBE207:
 724:D:/School/diseratie/SEMS/xmc4800_evaluation_kit/optiga-trust-m/examples\optiga_shell.c ****     pal_os_timer_delay_in_milliseconds(2000);
 3343              	 .loc 1 724 0
 3344 06ec 1248     	 ldr r0,.L155
 3345 06ee FFF7FEFF 	 bl optiga_lib_print_string_with_newline
 3346              	.LVL360:
 725:D:/School/diseratie/SEMS/xmc4800_evaluation_kit/optiga-trust-m/examples\optiga_shell.c **** }
 3347              	 .loc 1 725 0
 3348 06f2 4FF4FA60 	 mov r0,#2000
 3349 06f6 FFF7FEFF 	 bl pal_os_timer_delay_in_milliseconds
 3350              	.LVL361:
 3351              	.LBE206:
 3352              	.LBE205:
 804:D:/School/diseratie/SEMS/xmc4800_evaluation_kit/optiga-trust-m/examples\optiga_shell.c **** 
 3353              	 .loc 1 804 0
 3354 06fa 03B0     	 add sp,sp,#12
 3355              	.LCFI59:
 3356              	 .cfi_remember_state
 3357              	 .cfi_def_cfa_offset 20
 3358              	 
 3359 06fc F0BD     	 pop {r4,r5,r6,r7,pc}
 3360              	.LVL362:
 3361              	.L140:
 3362              	.LCFI60:
 3363              	 .cfi_restore_state
 3364              	.LBB209:
 3365              	.LBB118:
 3366              	.LBB114:
 3367              	.LBB110:
 224:D:/School/diseratie/SEMS/xmc4800_evaluation_kit/optiga-trust-m/examples\optiga_shell.c ****         {
 3368              	 .loc 1 224 0
 3369 06fe 2388     	 ldrh r3,[r4]
 3370 0700 174A     	 ldr r2,.L155+40
 3371 0702 9BB2     	 uxth r3,r3
 3372 0704 012B     	 cmp r3,#1
 3373 0706 FAD0     	 beq .L140
 229:D:/School/diseratie/SEMS/xmc4800_evaluation_kit/optiga-trust-m/examples\optiga_shell.c ****         {
 3374              	 .loc 1 229 0
 3375 0708 1488     	 ldrh r4,[r2]
 3376 070a A4B2     	 uxth r4,r4
 3377 070c 54B1     	 cbz r4,.L141
 231:D:/School/diseratie/SEMS/xmc4800_evaluation_kit/optiga-trust-m/examples\optiga_shell.c ****             //optiga util close application failed
 3378              	 .loc 1 231 0
 3379 070e 1388     	 ldrh r3,[r2]
 3380 0710 9BB2     	 uxth r3,r3
 3381              	.LVL363:
 244:D:/School/diseratie/SEMS/xmc4800_evaluation_kit/optiga-trust-m/examples\optiga_shell.c **** }
 3382              	 .loc 1 244 0
 3383 0712 002B     	 cmp r3,#0
 3384 0714 7FF492AC 	 bne .L139
 3385              	.LVL364:
 3386              	.L142:
 3387 0718 1249     	 ldr r1,.L155+44
 3388 071a 019A     	 ldr r2,[sp,#4]
 3389 071c 1248     	 ldr r0,.L155+48
 3390 071e FFF7FEFF 	 bl sprintf
 3391              	.LVL365:
 3392 0722 8BE4     	 b .L139
 3393              	.LVL366:
 3394              	.L141:
 236:D:/School/diseratie/SEMS/xmc4800_evaluation_kit/optiga-trust-m/examples\optiga_shell.c ****         
 3395              	 .loc 1 236 0
 3396 0724 2846     	 mov r0,r5
 3397              	.LVL367:
 3398 0726 2146     	 mov r1,r4
 3399 0728 FFF7FEFF 	 bl example_performance_measurement
 3400              	.LVL368:
 240:D:/School/diseratie/SEMS/xmc4800_evaluation_kit/optiga-trust-m/examples\optiga_shell.c ****         me_util = NULL;
 3401              	 .loc 1 240 0
 3402 072c 3868     	 ldr r0,[r7]
 3403 072e FFF7FEFF 	 bl optiga_util_destroy
 3404              	.LVL369:
 241:D:/School/diseratie/SEMS/xmc4800_evaluation_kit/optiga-trust-m/examples\optiga_shell.c ****     }while(FALSE);
 3405              	 .loc 1 241 0
 3406 0732 3C60     	 str r4,[r7]
 3407              	.LVL370:
 3408 0734 F0E7     	 b .L142
 3409              	.L156:
 3410 0736 00BF     	 .align 2
 3411              	.L155:
 3412 0738 FC100000 	 .word .LC80
 3413 073c 00000000 	 .word .LC0
 3414 0740 34000000 	 .word .LC1
 3415 0744 48000000 	 .word .LC2
 3416 0748 50000000 	 .word .LC3
 3417 074c 88000000 	 .word .LC4
 3418 0750 C8000000 	 .word .LC5
 3419 0754 04010000 	 .word .LC6
 3420 0758 2C010000 	 .word .LC7
 3421 075c 78010000 	 .word .LC8
 3422 0760 00000000 	 .word .LANCHOR0
 3423 0764 40100000 	 .word .LC75
 3424 0768 00000000 	 .word performance_buffer_string
 3425              	.LBE110:
 3426              	.LBE114:
 3427              	.LBE118:
 3428              	.LBE209:
 3429              	 .cfi_endproc
 3430              	.LFE475:
 3432              	 .section .text.run_example,"ax",%progbits
 3433              	 .align 2
 3434              	 .global run_example
 3435              	 .thumb
 3436              	 .thumb_func
 3438              	run_example:
 3439              	.LFB474:
 722:D:/School/diseratie/SEMS/xmc4800_evaluation_kit/optiga-trust-m/examples\optiga_shell.c ****     test_case();  
 3440              	 .loc 1 722 0
 3441              	 .cfi_startproc
 3442              	 
 3443              	 
 3444              	.LVL371:
 3445 0000 08B5     	 push {r3,lr}
 3446              	.LCFI61:
 3447              	 .cfi_def_cfa_offset 8
 3448              	 .cfi_offset 3,-8
 3449              	 .cfi_offset 14,-4
 723:D:/School/diseratie/SEMS/xmc4800_evaluation_kit/optiga-trust-m/examples\optiga_shell.c ****     optiga_lib_print_string_with_newline(""); 
 3450              	 .loc 1 723 0
 3451 0002 8047     	 blx r0
 3452              	.LVL372:
 724:D:/School/diseratie/SEMS/xmc4800_evaluation_kit/optiga-trust-m/examples\optiga_shell.c ****     pal_os_timer_delay_in_milliseconds(2000);
 3453              	 .loc 1 724 0
 3454 0004 0448     	 ldr r0,.L159
 3455 0006 FFF7FEFF 	 bl optiga_lib_print_string_with_newline
 3456              	.LVL373:
 725:D:/School/diseratie/SEMS/xmc4800_evaluation_kit/optiga-trust-m/examples\optiga_shell.c **** }
 3457              	 .loc 1 725 0
 3458 000a 4FF4FA60 	 mov r0,#2000
 726:D:/School/diseratie/SEMS/xmc4800_evaluation_kit/optiga-trust-m/examples\optiga_shell.c **** 
 3459              	 .loc 1 726 0
 3460 000e BDE80840 	 pop {r3,lr}
 3461              	.LCFI62:
 3462              	 .cfi_restore 14
 3463              	 .cfi_restore 3
 3464              	 .cfi_def_cfa_offset 0
 725:D:/School/diseratie/SEMS/xmc4800_evaluation_kit/optiga-trust-m/examples\optiga_shell.c **** }
 3465              	 .loc 1 725 0
 3466 0012 FFF7FEBF 	 b pal_os_timer_delay_in_milliseconds
 3467              	.LVL374:
 3468              	.L160:
 3469 0016 00BF     	 .align 2
 3470              	.L159:
 3471 0018 FC100000 	 .word .LC80
 3472              	 .cfi_endproc
 3473              	.LFE474:
 3475              	 .section .text.optiga_shell_begin,"ax",%progbits
 3476              	 .align 2
 3477              	 .global optiga_shell_begin
 3478              	 .thumb
 3479              	 .thumb_func
 3481              	optiga_shell_begin:
 3482              	.LFB480:
 907:D:/School/diseratie/SEMS/xmc4800_evaluation_kit/optiga-trust-m/examples\optiga_shell.c **** 
 908:D:/School/diseratie/SEMS/xmc4800_evaluation_kit/optiga-trust-m/examples\optiga_shell.c **** static void optiga_shell_trim_cmd(char_t * user_cmd)
 909:D:/School/diseratie/SEMS/xmc4800_evaluation_kit/optiga-trust-m/examples\optiga_shell.c **** {
 910:D:/School/diseratie/SEMS/xmc4800_evaluation_kit/optiga-trust-m/examples\optiga_shell.c ****     char_t* i = user_cmd;
 911:D:/School/diseratie/SEMS/xmc4800_evaluation_kit/optiga-trust-m/examples\optiga_shell.c ****     char_t* j = user_cmd;
 912:D:/School/diseratie/SEMS/xmc4800_evaluation_kit/optiga-trust-m/examples\optiga_shell.c ****     while(*j != 0)
 913:D:/School/diseratie/SEMS/xmc4800_evaluation_kit/optiga-trust-m/examples\optiga_shell.c ****     {
 914:D:/School/diseratie/SEMS/xmc4800_evaluation_kit/optiga-trust-m/examples\optiga_shell.c ****         *i = *j++;
 915:D:/School/diseratie/SEMS/xmc4800_evaluation_kit/optiga-trust-m/examples\optiga_shell.c ****         if(*i != ' ')
 916:D:/School/diseratie/SEMS/xmc4800_evaluation_kit/optiga-trust-m/examples\optiga_shell.c ****             i++;
 917:D:/School/diseratie/SEMS/xmc4800_evaluation_kit/optiga-trust-m/examples\optiga_shell.c ****     }
 918:D:/School/diseratie/SEMS/xmc4800_evaluation_kit/optiga-trust-m/examples\optiga_shell.c ****     *i = 0;
 919:D:/School/diseratie/SEMS/xmc4800_evaluation_kit/optiga-trust-m/examples\optiga_shell.c ****     if(strlen(user_cmd)>strlen("optiga --"))
 920:D:/School/diseratie/SEMS/xmc4800_evaluation_kit/optiga-trust-m/examples\optiga_shell.c ****     {
 921:D:/School/diseratie/SEMS/xmc4800_evaluation_kit/optiga-trust-m/examples\optiga_shell.c ****         strcpy(user_cmd,user_cmd+strlen("optiga --")-1);
 922:D:/School/diseratie/SEMS/xmc4800_evaluation_kit/optiga-trust-m/examples\optiga_shell.c ****     }
 923:D:/School/diseratie/SEMS/xmc4800_evaluation_kit/optiga-trust-m/examples\optiga_shell.c **** }
 924:D:/School/diseratie/SEMS/xmc4800_evaluation_kit/optiga-trust-m/examples\optiga_shell.c **** 
 925:D:/School/diseratie/SEMS/xmc4800_evaluation_kit/optiga-trust-m/examples\optiga_shell.c **** static void optiga_shell_execute_example(char_t * user_cmd)
 926:D:/School/diseratie/SEMS/xmc4800_evaluation_kit/optiga-trust-m/examples\optiga_shell.c **** {
 927:D:/School/diseratie/SEMS/xmc4800_evaluation_kit/optiga-trust-m/examples\optiga_shell.c ****     uint8_t number_of_cmds = OPTIGA_SIZE_OF_CMDS;
 928:D:/School/diseratie/SEMS/xmc4800_evaluation_kit/optiga-trust-m/examples\optiga_shell.c ****     uint8_t index,cmd_found = 0;
 929:D:/School/diseratie/SEMS/xmc4800_evaluation_kit/optiga-trust-m/examples\optiga_shell.c ****     char_t * optiga_cmd_option = "optiga --";
 930:D:/School/diseratie/SEMS/xmc4800_evaluation_kit/optiga-trust-m/examples\optiga_shell.c ****     optiga_example_cmd_t * current_cmd;
 931:D:/School/diseratie/SEMS/xmc4800_evaluation_kit/optiga-trust-m/examples\optiga_shell.c **** 
 932:D:/School/diseratie/SEMS/xmc4800_evaluation_kit/optiga-trust-m/examples\optiga_shell.c ****     
 933:D:/School/diseratie/SEMS/xmc4800_evaluation_kit/optiga-trust-m/examples\optiga_shell.c ****     do
 934:D:/School/diseratie/SEMS/xmc4800_evaluation_kit/optiga-trust-m/examples\optiga_shell.c ****     {
 935:D:/School/diseratie/SEMS/xmc4800_evaluation_kit/optiga-trust-m/examples\optiga_shell.c ****         if (0 != strncmp(user_cmd,optiga_cmd_option,9))
 936:D:/School/diseratie/SEMS/xmc4800_evaluation_kit/optiga-trust-m/examples\optiga_shell.c ****         {
 937:D:/School/diseratie/SEMS/xmc4800_evaluation_kit/optiga-trust-m/examples\optiga_shell.c ****             break;
 938:D:/School/diseratie/SEMS/xmc4800_evaluation_kit/optiga-trust-m/examples\optiga_shell.c ****         }
 939:D:/School/diseratie/SEMS/xmc4800_evaluation_kit/optiga-trust-m/examples\optiga_shell.c ****         optiga_shell_trim_cmd(user_cmd);
 940:D:/School/diseratie/SEMS/xmc4800_evaluation_kit/optiga-trust-m/examples\optiga_shell.c ****         for(index = 0; index < number_of_cmds; index++)
 941:D:/School/diseratie/SEMS/xmc4800_evaluation_kit/optiga-trust-m/examples\optiga_shell.c ****         {
 942:D:/School/diseratie/SEMS/xmc4800_evaluation_kit/optiga-trust-m/examples\optiga_shell.c ****             current_cmd = &optiga_cmds[index];
 943:D:/School/diseratie/SEMS/xmc4800_evaluation_kit/optiga-trust-m/examples\optiga_shell.c ****             if(0 == strcmp(user_cmd,current_cmd->cmd_options))
 944:D:/School/diseratie/SEMS/xmc4800_evaluation_kit/optiga-trust-m/examples\optiga_shell.c ****             {
 945:D:/School/diseratie/SEMS/xmc4800_evaluation_kit/optiga-trust-m/examples\optiga_shell.c ****                 if(NULL != current_cmd->cmd_handler)
 946:D:/School/diseratie/SEMS/xmc4800_evaluation_kit/optiga-trust-m/examples\optiga_shell.c ****                 {
 947:D:/School/diseratie/SEMS/xmc4800_evaluation_kit/optiga-trust-m/examples\optiga_shell.c ****                     current_cmd->cmd_handler();
 948:D:/School/diseratie/SEMS/xmc4800_evaluation_kit/optiga-trust-m/examples\optiga_shell.c ****                     optiga_lib_print_string_with_newline("");
 949:D:/School/diseratie/SEMS/xmc4800_evaluation_kit/optiga-trust-m/examples\optiga_shell.c ****                     cmd_found = 1;
 950:D:/School/diseratie/SEMS/xmc4800_evaluation_kit/optiga-trust-m/examples\optiga_shell.c ****                     break;
 951:D:/School/diseratie/SEMS/xmc4800_evaluation_kit/optiga-trust-m/examples\optiga_shell.c ****                 }
 952:D:/School/diseratie/SEMS/xmc4800_evaluation_kit/optiga-trust-m/examples\optiga_shell.c ****                 else
 953:D:/School/diseratie/SEMS/xmc4800_evaluation_kit/optiga-trust-m/examples\optiga_shell.c ****                 {
 954:D:/School/diseratie/SEMS/xmc4800_evaluation_kit/optiga-trust-m/examples\optiga_shell.c ****                     optiga_lib_print_string_with_newline("No example exists for this request");
 955:D:/School/diseratie/SEMS/xmc4800_evaluation_kit/optiga-trust-m/examples\optiga_shell.c ****                     break;
 956:D:/School/diseratie/SEMS/xmc4800_evaluation_kit/optiga-trust-m/examples\optiga_shell.c ****                 }
 957:D:/School/diseratie/SEMS/xmc4800_evaluation_kit/optiga-trust-m/examples\optiga_shell.c ****             }
 958:D:/School/diseratie/SEMS/xmc4800_evaluation_kit/optiga-trust-m/examples\optiga_shell.c ****         }
 959:D:/School/diseratie/SEMS/xmc4800_evaluation_kit/optiga-trust-m/examples\optiga_shell.c ****     } while (FALSE);
 960:D:/School/diseratie/SEMS/xmc4800_evaluation_kit/optiga-trust-m/examples\optiga_shell.c ****     if(!cmd_found)
 961:D:/School/diseratie/SEMS/xmc4800_evaluation_kit/optiga-trust-m/examples\optiga_shell.c ****     {
 962:D:/School/diseratie/SEMS/xmc4800_evaluation_kit/optiga-trust-m/examples\optiga_shell.c ****         optiga_lib_print_string_with_newline("");
 963:D:/School/diseratie/SEMS/xmc4800_evaluation_kit/optiga-trust-m/examples\optiga_shell.c ****         optiga_lib_print_string_with_newline("No example exists for this request chose below option
 964:D:/School/diseratie/SEMS/xmc4800_evaluation_kit/optiga-trust-m/examples\optiga_shell.c ****         optiga_shell_show_usage();
 965:D:/School/diseratie/SEMS/xmc4800_evaluation_kit/optiga-trust-m/examples\optiga_shell.c ****     }
 966:D:/School/diseratie/SEMS/xmc4800_evaluation_kit/optiga-trust-m/examples\optiga_shell.c **** 
 967:D:/School/diseratie/SEMS/xmc4800_evaluation_kit/optiga-trust-m/examples\optiga_shell.c **** }
 968:D:/School/diseratie/SEMS/xmc4800_evaluation_kit/optiga-trust-m/examples\optiga_shell.c **** 
 969:D:/School/diseratie/SEMS/xmc4800_evaluation_kit/optiga-trust-m/examples\optiga_shell.c **** static void optiga_shell_show_prompt()
 970:D:/School/diseratie/SEMS/xmc4800_evaluation_kit/optiga-trust-m/examples\optiga_shell.c **** {
 971:D:/School/diseratie/SEMS/xmc4800_evaluation_kit/optiga-trust-m/examples\optiga_shell.c ****     optiga_lib_print_string("$");
 972:D:/School/diseratie/SEMS/xmc4800_evaluation_kit/optiga-trust-m/examples\optiga_shell.c **** }
 973:D:/School/diseratie/SEMS/xmc4800_evaluation_kit/optiga-trust-m/examples\optiga_shell.c **** 
 974:D:/School/diseratie/SEMS/xmc4800_evaluation_kit/optiga-trust-m/examples\optiga_shell.c **** void optiga_shell_begin(void)
 975:D:/School/diseratie/SEMS/xmc4800_evaluation_kit/optiga-trust-m/examples\optiga_shell.c **** {
 3483              	 .loc 1 975 0
 3484              	 .cfi_startproc
 3485              	 
 3486              	 
 3487 0000 2DE9F041 	 push {r4,r5,r6,r7,r8,lr}
 3488              	.LCFI63:
 3489              	 .cfi_def_cfa_offset 24
 3490              	 .cfi_offset 4,-24
 3491              	 .cfi_offset 5,-20
 3492              	 .cfi_offset 6,-16
 3493              	 .cfi_offset 7,-12
 3494              	 .cfi_offset 8,-8
 3495              	 .cfi_offset 14,-4
 3496 0004 8EB0     	 sub sp,sp,#56
 3497              	.LCFI64:
 3498              	 .cfi_def_cfa_offset 80
 976:D:/School/diseratie/SEMS/xmc4800_evaluation_kit/optiga-trust-m/examples\optiga_shell.c ****     uint8_t ch = 0;
 3499              	 .loc 1 976 0
 3500 0006 0EAD     	 add r5,sp,#56
 3501              	.LBB222:
 3502              	.LBB223:
 971:D:/School/diseratie/SEMS/xmc4800_evaluation_kit/optiga-trust-m/examples\optiga_shell.c **** }
 3503              	 .loc 1 971 0
 3504 0008 4A48     	 ldr r0,.L193
 3505 000a 4B4F     	 ldr r7,.L193+4
 3506              	.LBE223:
 3507              	.LBE222:
 3508              	 .loc 1 976 0
 3509 000c 0024     	 movs r4,#0
 3510 000e 05F8354D 	 strb r4,[r5,#-53]!
 3511              	.LVL375:
 3512              	.LBB225:
 3513              	.LBB224:
 971:D:/School/diseratie/SEMS/xmc4800_evaluation_kit/optiga-trust-m/examples\optiga_shell.c **** }
 3514              	 .loc 1 971 0
 3515 0012 FFF7FEFF 	 bl optiga_lib_print_string
 3516              	.LVL376:
 3517              	.LBE224:
 3518              	.LBE225:
 977:D:/School/diseratie/SEMS/xmc4800_evaluation_kit/optiga-trust-m/examples\optiga_shell.c ****     char_t user_cmd[50];
 978:D:/School/diseratie/SEMS/xmc4800_evaluation_kit/optiga-trust-m/examples\optiga_shell.c ****     uint8_t index = 0;
 979:D:/School/diseratie/SEMS/xmc4800_evaluation_kit/optiga-trust-m/examples\optiga_shell.c **** 
 980:D:/School/diseratie/SEMS/xmc4800_evaluation_kit/optiga-trust-m/examples\optiga_shell.c ****     optiga_shell_show_prompt();
 981:D:/School/diseratie/SEMS/xmc4800_evaluation_kit/optiga-trust-m/examples\optiga_shell.c ****     optiga_shell_show_usage();
 3519              	 .loc 1 981 0
 3520 0016 FFF7FEFF 	 bl optiga_shell_show_usage
 3521              	.LVL377:
 3522              	.LBB226:
 3523              	.LBB227:
 971:D:/School/diseratie/SEMS/xmc4800_evaluation_kit/optiga-trust-m/examples\optiga_shell.c **** }
 3524              	 .loc 1 971 0
 3525 001a 4648     	 ldr r0,.L193
 3526 001c FFF7FEFF 	 bl optiga_lib_print_string
 3527              	.LVL378:
 3528 0020 07F59C76 	 add r6,r7,#312
 3529              	.LVL379:
 3530              	.L163:
 3531              	.LBE227:
 3532              	.LBE226:
 982:D:/School/diseratie/SEMS/xmc4800_evaluation_kit/optiga-trust-m/examples\optiga_shell.c ****     optiga_shell_show_prompt();
 983:D:/School/diseratie/SEMS/xmc4800_evaluation_kit/optiga-trust-m/examples\optiga_shell.c **** 
 984:D:/School/diseratie/SEMS/xmc4800_evaluation_kit/optiga-trust-m/examples\optiga_shell.c ****     //lint --e{716} Suppress the infinite loop
 985:D:/School/diseratie/SEMS/xmc4800_evaluation_kit/optiga-trust-m/examples\optiga_shell.c ****     while(TRUE)
 986:D:/School/diseratie/SEMS/xmc4800_evaluation_kit/optiga-trust-m/examples\optiga_shell.c ****     {
 987:D:/School/diseratie/SEMS/xmc4800_evaluation_kit/optiga-trust-m/examples\optiga_shell.c ****         if (0 == pal_logger_read(&logger_console,&ch,1))
 3533              	 .loc 1 987 0
 3534 0024 4548     	 ldr r0,.L193+8
 3535 0026 2946     	 mov r1,r5
 3536 0028 0122     	 movs r2,#1
 3537 002a FFF7FEFF 	 bl pal_logger_read
 3538              	.LVL380:
 3539 002e 0028     	 cmp r0,#0
 3540 0030 F8D1     	 bne .L163
 988:D:/School/diseratie/SEMS/xmc4800_evaluation_kit/optiga-trust-m/examples\optiga_shell.c ****         {
 989:D:/School/diseratie/SEMS/xmc4800_evaluation_kit/optiga-trust-m/examples\optiga_shell.c **** 
 990:D:/School/diseratie/SEMS/xmc4800_evaluation_kit/optiga-trust-m/examples\optiga_shell.c ****             if(ch == 0x0d || ch == 0x0a)
 3541              	 .loc 1 990 0
 3542 0032 9DF80330 	 ldrb r3,[sp,#3]
 3543 0036 0D2B     	 cmp r3,#13
 3544 0038 0FD0     	 beq .L164
 3545              	 .loc 1 990 0 is_stmt 0 discriminator 1
 3546 003a 0A2B     	 cmp r3,#10
 3547 003c 0DD0     	 beq .L164
 991:D:/School/diseratie/SEMS/xmc4800_evaluation_kit/optiga-trust-m/examples\optiga_shell.c ****             {
 992:D:/School/diseratie/SEMS/xmc4800_evaluation_kit/optiga-trust-m/examples\optiga_shell.c ****                 user_cmd[index++] = 0;
 993:D:/School/diseratie/SEMS/xmc4800_evaluation_kit/optiga-trust-m/examples\optiga_shell.c ****                 index = 0;
 994:D:/School/diseratie/SEMS/xmc4800_evaluation_kit/optiga-trust-m/examples\optiga_shell.c ****                 optiga_lib_print_string_with_newline("");
 995:D:/School/diseratie/SEMS/xmc4800_evaluation_kit/optiga-trust-m/examples\optiga_shell.c ****                 //start cmd parsing
 996:D:/School/diseratie/SEMS/xmc4800_evaluation_kit/optiga-trust-m/examples\optiga_shell.c ****                 optiga_shell_execute_example((char_t * )user_cmd);
 997:D:/School/diseratie/SEMS/xmc4800_evaluation_kit/optiga-trust-m/examples\optiga_shell.c ****                 optiga_shell_show_prompt();
 998:D:/School/diseratie/SEMS/xmc4800_evaluation_kit/optiga-trust-m/examples\optiga_shell.c ****             }
 999:D:/School/diseratie/SEMS/xmc4800_evaluation_kit/optiga-trust-m/examples\optiga_shell.c ****             else
1000:D:/School/diseratie/SEMS/xmc4800_evaluation_kit/optiga-trust-m/examples\optiga_shell.c ****             {
1001:D:/School/diseratie/SEMS/xmc4800_evaluation_kit/optiga-trust-m/examples\optiga_shell.c ****                 //keep adding
1002:D:/School/diseratie/SEMS/xmc4800_evaluation_kit/optiga-trust-m/examples\optiga_shell.c ****                 //lint --e{534,713} The return value is not used hence not checked*/
1003:D:/School/diseratie/SEMS/xmc4800_evaluation_kit/optiga-trust-m/examples\optiga_shell.c ****                 pal_logger_write(&logger_console, &ch, 1);
 3548              	 .loc 1 1003 0 is_stmt 1
 3549 003e 0122     	 movs r2,#1
 3550 0040 3E48     	 ldr r0,.L193+8
 3551 0042 2946     	 mov r1,r5
 3552 0044 FFF7FEFF 	 bl pal_logger_write
 3553              	.LVL381:
1004:D:/School/diseratie/SEMS/xmc4800_evaluation_kit/optiga-trust-m/examples\optiga_shell.c ****                 user_cmd[index++] = ch;
 3554              	 .loc 1 1004 0
 3555 0048 0EAB     	 add r3,sp,#56
 3556 004a 2344     	 add r3,r3,r4
 3557 004c 9DF80320 	 ldrb r2,[sp,#3]
 3558 0050 03F8342C 	 strb r2,[r3,#-52]
 3559 0054 0134     	 adds r4,r4,#1
 3560              	.LVL382:
 3561 0056 E4B2     	 uxtb r4,r4
 3562 0058 E4E7     	 b .L163
 3563              	.LVL383:
 3564              	.L164:
 992:D:/School/diseratie/SEMS/xmc4800_evaluation_kit/optiga-trust-m/examples\optiga_shell.c ****                 index = 0;
 3565              	 .loc 1 992 0
 3566 005a 0EAB     	 add r3,sp,#56
 3567 005c 1C44     	 add r4,r4,r3
 3568              	.LVL384:
 994:D:/School/diseratie/SEMS/xmc4800_evaluation_kit/optiga-trust-m/examples\optiga_shell.c ****                 //start cmd parsing
 3569              	 .loc 1 994 0
 3570 005e 3848     	 ldr r0,.L193+12
 992:D:/School/diseratie/SEMS/xmc4800_evaluation_kit/optiga-trust-m/examples\optiga_shell.c ****                 index = 0;
 3571              	 .loc 1 992 0
 3572 0060 0023     	 movs r3,#0
 3573 0062 04F8343C 	 strb r3,[r4,#-52]
 3574              	.LVL385:
 994:D:/School/diseratie/SEMS/xmc4800_evaluation_kit/optiga-trust-m/examples\optiga_shell.c ****                 //start cmd parsing
 3575              	 .loc 1 994 0
 3576 0066 FFF7FEFF 	 bl optiga_lib_print_string_with_newline
 3577              	.LVL386:
 3578              	.LBB228:
 3579              	.LBB229:
 935:D:/School/diseratie/SEMS/xmc4800_evaluation_kit/optiga-trust-m/examples\optiga_shell.c ****         {
 3580              	 .loc 1 935 0
 3581 006a 01A8     	 add r0,sp,#4
 3582              	.LVL387:
 3583 006c 3549     	 ldr r1,.L193+16
 3584 006e 0922     	 movs r2,#9
 3585 0070 FFF7FEFF 	 bl strncmp
 3586              	.LVL388:
 3587 0074 28B3     	 cbz r0,.L192
 3588              	.L174:
 962:D:/School/diseratie/SEMS/xmc4800_evaluation_kit/optiga-trust-m/examples\optiga_shell.c ****         optiga_lib_print_string_with_newline("No example exists for this request chose below option
 3589              	 .loc 1 962 0
 3590 0076 3248     	 ldr r0,.L193+12
 3591 0078 2F4C     	 ldr r4,.L193+4
 3592 007a FFF7FEFF 	 bl optiga_lib_print_string_with_newline
 3593              	.LVL389:
 963:D:/School/diseratie/SEMS/xmc4800_evaluation_kit/optiga-trust-m/examples\optiga_shell.c ****         optiga_shell_show_usage();
 3594              	 .loc 1 963 0
 3595 007e 3248     	 ldr r0,.L193+20
 3596 0080 FFF7FEFF 	 bl optiga_lib_print_string_with_newline
 3597              	.LVL390:
 3598              	.LBB230:
 3599              	.LBB231:
 895:D:/School/diseratie/SEMS/xmc4800_evaluation_kit/optiga-trust-m/examples\optiga_shell.c ****     optiga_lib_print_string_with_newline("    usage                : optiga -<cmd>");
 3600              	 .loc 1 895 0
 3601 0084 2E48     	 ldr r0,.L193+12
 3602 0086 FFF7FEFF 	 bl optiga_lib_print_string_with_newline
 3603              	.LVL391:
 896:D:/School/diseratie/SEMS/xmc4800_evaluation_kit/optiga-trust-m/examples\optiga_shell.c ****     for(index = 0; index < number_of_cmds; index++)
 3604              	 .loc 1 896 0
 3605 008a 3048     	 ldr r0,.L193+24
 3606 008c FFF7FEFF 	 bl optiga_lib_print_string_with_newline
 3607              	.LVL392:
 3608 0090 02E0     	 b .L177
 3609              	.LVL393:
 3610              	.L176:
 3611 0092 0C34     	 adds r4,r4,#12
 897:D:/School/diseratie/SEMS/xmc4800_evaluation_kit/optiga-trust-m/examples\optiga_shell.c ****     {
 3612              	 .loc 1 897 0
 3613 0094 B442     	 cmp r4,r6
 3614 0096 0FD0     	 beq .L173
 3615              	.L177:
 900:D:/School/diseratie/SEMS/xmc4800_evaluation_kit/optiga-trust-m/examples\optiga_shell.c ****         {
 3616              	 .loc 1 900 0
 3617 0098 2D48     	 ldr r0,.L193+28
 3618 009a 6168     	 ldr r1,[r4,#4]
 3619 009c FFF7FEFF 	 bl strcmp
 3620              	.LVL394:
 3621 00a0 0028     	 cmp r0,#0
 3622 00a2 F6D0     	 beq .L176
 902:D:/School/diseratie/SEMS/xmc4800_evaluation_kit/optiga-trust-m/examples\optiga_shell.c ****             optiga_lib_print_string_with_newline(current_cmd->cmd_options);
 3623              	 .loc 1 902 0
 3624 00a4 2068     	 ldr r0,[r4]
 3625 00a6 FFF7FEFF 	 bl optiga_lib_print_string
 3626              	.LVL395:
 3627 00aa 0C34     	 adds r4,r4,#12
 903:D:/School/diseratie/SEMS/xmc4800_evaluation_kit/optiga-trust-m/examples\optiga_shell.c ****         }
 3628              	 .loc 1 903 0
 3629 00ac 54F8080C 	 ldr r0,[r4,#-8]
 3630 00b0 FFF7FEFF 	 bl optiga_lib_print_string_with_newline
 3631              	.LVL396:
 897:D:/School/diseratie/SEMS/xmc4800_evaluation_kit/optiga-trust-m/examples\optiga_shell.c ****     {
 3632              	 .loc 1 897 0
 3633 00b4 B442     	 cmp r4,r6
 3634 00b6 EFD1     	 bne .L177
 3635              	.L173:
 3636              	.LBE231:
 3637              	.LBE230:
 3638              	.LBE229:
 3639              	.LBE228:
 3640              	.LBB236:
 3641              	.LBB237:
 971:D:/School/diseratie/SEMS/xmc4800_evaluation_kit/optiga-trust-m/examples\optiga_shell.c **** }
 3642              	 .loc 1 971 0
 3643 00b8 1E48     	 ldr r0,.L193
 3644 00ba FFF7FEFF 	 bl optiga_lib_print_string
 3645              	.LVL397:
 3646              	.LBE237:
 3647              	.LBE236:
 993:D:/School/diseratie/SEMS/xmc4800_evaluation_kit/optiga-trust-m/examples\optiga_shell.c ****                 optiga_lib_print_string_with_newline("");
 3648              	 .loc 1 993 0
 3649 00be 0024     	 movs r4,#0
 3650 00c0 B0E7     	 b .L163
 3651              	.LVL398:
 3652              	.L192:
 3653 00c2 01A9     	 add r1,sp,#4
 3654              	.LVL399:
 3655              	.LBB239:
 3656              	.LBB234:
 935:D:/School/diseratie/SEMS/xmc4800_evaluation_kit/optiga-trust-m/examples\optiga_shell.c ****         {
 3657              	 .loc 1 935 0
 3658 00c4 0A46     	 mov r2,r1
 3659 00c6 03E0     	 b .L167
 3660              	.LVL400:
 3661              	.L169:
 3662              	.LBB232:
 3663              	.LBB233:
 915:D:/School/diseratie/SEMS/xmc4800_evaluation_kit/optiga-trust-m/examples\optiga_shell.c ****             i++;
 3664              	 .loc 1 915 0
 3665 00c8 202B     	 cmp r3,#32
 914:D:/School/diseratie/SEMS/xmc4800_evaluation_kit/optiga-trust-m/examples\optiga_shell.c ****         if(*i != ' ')
 3666              	 .loc 1 914 0
 3667 00ca 1370     	 strb r3,[r2]
 916:D:/School/diseratie/SEMS/xmc4800_evaluation_kit/optiga-trust-m/examples\optiga_shell.c ****     }
 3668              	 .loc 1 916 0
 3669 00cc 18BF     	 it ne
 3670 00ce 0132     	 addne r2,r2,#1
 3671              	.LVL401:
 3672              	.L167:
 912:D:/School/diseratie/SEMS/xmc4800_evaluation_kit/optiga-trust-m/examples\optiga_shell.c ****     {
 3673              	 .loc 1 912 0
 3674 00d0 11F8013B 	 ldrb r3,[r1],#1
 3675              	.LVL402:
 3676 00d4 002B     	 cmp r3,#0
 3677 00d6 F7D1     	 bne .L169
 919:D:/School/diseratie/SEMS/xmc4800_evaluation_kit/optiga-trust-m/examples\optiga_shell.c ****     {
 3678              	 .loc 1 919 0
 3679 00d8 01A8     	 add r0,sp,#4
 3680              	.LVL403:
 918:D:/School/diseratie/SEMS/xmc4800_evaluation_kit/optiga-trust-m/examples\optiga_shell.c ****     if(strlen(user_cmd)>strlen("optiga --"))
 3681              	 .loc 1 918 0
 3682 00da 1370     	 strb r3,[r2]
 919:D:/School/diseratie/SEMS/xmc4800_evaluation_kit/optiga-trust-m/examples\optiga_shell.c ****     {
 3683              	 .loc 1 919 0
 3684 00dc FFF7FEFF 	 bl strlen
 3685              	.LVL404:
 3686 00e0 0928     	 cmp r0,#9
 3687 00e2 03D9     	 bls .L170
 921:D:/School/diseratie/SEMS/xmc4800_evaluation_kit/optiga-trust-m/examples\optiga_shell.c ****     }
 3688              	 .loc 1 921 0
 3689 00e4 01A8     	 add r0,sp,#4
 3690              	.LVL405:
 3691 00e6 03A9     	 add r1,sp,#12
 3692 00e8 FFF7FEFF 	 bl strcpy
 3693              	.LVL406:
 3694              	.L170:
 3695 00ec DFF84880 	 ldr r8,.L193+4
 3696              	.LBE233:
 3697              	.LBE232:
 935:D:/School/diseratie/SEMS/xmc4800_evaluation_kit/optiga-trust-m/examples\optiga_shell.c ****         {
 3698              	 .loc 1 935 0
 3699 00f0 0024     	 movs r4,#0
 3700 00f2 02E0     	 b .L175
 3701              	.LVL407:
 3702              	.L171:
 3703 00f4 0134     	 adds r4,r4,#1
 3704              	.LVL408:
 940:D:/School/diseratie/SEMS/xmc4800_evaluation_kit/optiga-trust-m/examples\optiga_shell.c ****         {
 3705              	 .loc 1 940 0
 3706 00f6 1A2C     	 cmp r4,#26
 3707 00f8 BDD0     	 beq .L174
 3708              	.LVL409:
 3709              	.L175:
 943:D:/School/diseratie/SEMS/xmc4800_evaluation_kit/optiga-trust-m/examples\optiga_shell.c ****             {
 3710              	 .loc 1 943 0
 3711 00fa D8F80410 	 ldr r1,[r8,#4]
 3712 00fe 01A8     	 add r0,sp,#4
 3713              	.LVL410:
 3714 0100 FFF7FEFF 	 bl strcmp
 3715              	.LVL411:
 3716 0104 08F10C08 	 add r8,r8,#12
 3717 0108 0028     	 cmp r0,#0
 3718 010a F3D1     	 bne .L171
 945:D:/School/diseratie/SEMS/xmc4800_evaluation_kit/optiga-trust-m/examples\optiga_shell.c ****                 {
 3719              	 .loc 1 945 0
 3720 010c 04EB4404 	 add r4,r4,r4,lsl#1
 3721              	.LVL412:
 3722 0110 07EB8403 	 add r3,r7,r4,lsl#2
 3723 0114 9B68     	 ldr r3,[r3,#8]
 3724 0116 43B1     	 cbz r3,.L172
 947:D:/School/diseratie/SEMS/xmc4800_evaluation_kit/optiga-trust-m/examples\optiga_shell.c ****                     optiga_lib_print_string_with_newline("");
 3725              	 .loc 1 947 0
 3726 0118 9847     	 blx r3
 3727              	.LVL413:
 948:D:/School/diseratie/SEMS/xmc4800_evaluation_kit/optiga-trust-m/examples\optiga_shell.c ****                     cmd_found = 1;
 3728              	 .loc 1 948 0
 3729 011a 0948     	 ldr r0,.L193+12
 3730 011c FFF7FEFF 	 bl optiga_lib_print_string_with_newline
 3731              	.LVL414:
 3732              	.LBE234:
 3733              	.LBE239:
 3734              	.LBB240:
 3735              	.LBB238:
 971:D:/School/diseratie/SEMS/xmc4800_evaluation_kit/optiga-trust-m/examples\optiga_shell.c **** }
 3736              	 .loc 1 971 0
 3737 0120 0448     	 ldr r0,.L193
 3738 0122 FFF7FEFF 	 bl optiga_lib_print_string
 3739              	.LVL415:
 3740              	.LBE238:
 3741              	.LBE240:
 993:D:/School/diseratie/SEMS/xmc4800_evaluation_kit/optiga-trust-m/examples\optiga_shell.c ****                 optiga_lib_print_string_with_newline("");
 3742              	 .loc 1 993 0
 3743 0126 0024     	 movs r4,#0
 3744 0128 7CE7     	 b .L163
 3745              	.LVL416:
 3746              	.L172:
 3747              	.LBB241:
 3748              	.LBB235:
 954:D:/School/diseratie/SEMS/xmc4800_evaluation_kit/optiga-trust-m/examples\optiga_shell.c ****                     break;
 3749              	 .loc 1 954 0
 3750 012a 0A48     	 ldr r0,.L193+32
 3751 012c FFF7FEFF 	 bl optiga_lib_print_string_with_newline
 3752              	.LVL417:
 3753 0130 A1E7     	 b .L174
 3754              	.L194:
 3755 0132 00BF     	 .align 2
 3756              	.L193:
 3757 0134 34110000 	 .word .LC83
 3758 0138 00000000 	 .word .LANCHOR2
 3759 013c 00000000 	 .word logger_console
 3760 0140 FC100000 	 .word .LC80
 3761 0144 38110000 	 .word .LC84
 3762 0148 68110000 	 .word .LC86
 3763 014c 00110000 	 .word .LC81
 3764 0150 2C110000 	 .word .LC82
 3765 0154 44110000 	 .word .LC85
 3766              	.LBE235:
 3767              	.LBE241:
 3768              	 .cfi_endproc
 3769              	.LFE480:
 3771              	 .section .text.optiga_shell_wait_for_user,"ax",%progbits
 3772              	 .align 2
 3773              	 .global optiga_shell_wait_for_user
 3774              	 .thumb
 3775              	 .thumb_func
 3777              	optiga_shell_wait_for_user:
 3778              	.LFB481:
1005:D:/School/diseratie/SEMS/xmc4800_evaluation_kit/optiga-trust-m/examples\optiga_shell.c ****             }
1006:D:/School/diseratie/SEMS/xmc4800_evaluation_kit/optiga-trust-m/examples\optiga_shell.c ****         }
1007:D:/School/diseratie/SEMS/xmc4800_evaluation_kit/optiga-trust-m/examples\optiga_shell.c ****     }
1008:D:/School/diseratie/SEMS/xmc4800_evaluation_kit/optiga-trust-m/examples\optiga_shell.c **** }
1009:D:/School/diseratie/SEMS/xmc4800_evaluation_kit/optiga-trust-m/examples\optiga_shell.c **** 
1010:D:/School/diseratie/SEMS/xmc4800_evaluation_kit/optiga-trust-m/examples\optiga_shell.c **** void optiga_shell_wait_for_user(void)
1011:D:/School/diseratie/SEMS/xmc4800_evaluation_kit/optiga-trust-m/examples\optiga_shell.c **** {
 3779              	 .loc 1 1011 0
 3780              	 .cfi_startproc
 3781              	 
 3782              	 
 3783              	.LVL418:
 3784 0000 00B5     	 push {lr}
 3785              	.LCFI65:
 3786              	 .cfi_def_cfa_offset 4
 3787              	 .cfi_offset 14,-4
 3788 0002 83B0     	 sub sp,sp,#12
 3789              	.LCFI66:
 3790              	 .cfi_def_cfa_offset 16
1012:D:/School/diseratie/SEMS/xmc4800_evaluation_kit/optiga-trust-m/examples\optiga_shell.c ****     uint16_t bytes = 0;
1013:D:/School/diseratie/SEMS/xmc4800_evaluation_kit/optiga-trust-m/examples\optiga_shell.c ****     uint8_t ch = 0;
 3791              	 .loc 1 1013 0
 3792 0004 0023     	 movs r3,#0
 3793 0006 8DF80730 	 strb r3,[sp,#7]
 3794 000a 09E0     	 b .L197
 3795              	.LVL419:
 3796              	.L196:
1014:D:/School/diseratie/SEMS/xmc4800_evaluation_kit/optiga-trust-m/examples\optiga_shell.c ****     //lint --e{716} Suppress the infinite loop
1015:D:/School/diseratie/SEMS/xmc4800_evaluation_kit/optiga-trust-m/examples\optiga_shell.c ****     while(TRUE)
1016:D:/School/diseratie/SEMS/xmc4800_evaluation_kit/optiga-trust-m/examples\optiga_shell.c ****     {
1017:D:/School/diseratie/SEMS/xmc4800_evaluation_kit/optiga-trust-m/examples\optiga_shell.c ****         bytes = USBD_VCOM_BytesReceived();
1018:D:/School/diseratie/SEMS/xmc4800_evaluation_kit/optiga-trust-m/examples\optiga_shell.c ****         if (bytes)
1019:D:/School/diseratie/SEMS/xmc4800_evaluation_kit/optiga-trust-m/examples\optiga_shell.c ****         {
1020:D:/School/diseratie/SEMS/xmc4800_evaluation_kit/optiga-trust-m/examples\optiga_shell.c ****             //lint --e{534} The return value is not used hence not checked*/
1021:D:/School/diseratie/SEMS/xmc4800_evaluation_kit/optiga-trust-m/examples\optiga_shell.c ****             pal_logger_read(&logger_console,&ch,1);
1022:D:/School/diseratie/SEMS/xmc4800_evaluation_kit/optiga-trust-m/examples\optiga_shell.c ****             break;
1023:D:/School/diseratie/SEMS/xmc4800_evaluation_kit/optiga-trust-m/examples\optiga_shell.c ****         }
1024:D:/School/diseratie/SEMS/xmc4800_evaluation_kit/optiga-trust-m/examples\optiga_shell.c ****         else
1025:D:/School/diseratie/SEMS/xmc4800_evaluation_kit/optiga-trust-m/examples\optiga_shell.c ****         {
1026:D:/School/diseratie/SEMS/xmc4800_evaluation_kit/optiga-trust-m/examples\optiga_shell.c ****             optiga_lib_print_string_with_newline("Press any key to start optiga mini shell");
 3797              	 .loc 1 1026 0
 3798 000c 0B48     	 ldr r0,.L200
 3799              	.LVL420:
 3800 000e FFF7FEFF 	 bl optiga_lib_print_string_with_newline
 3801              	.LVL421:
1027:D:/School/diseratie/SEMS/xmc4800_evaluation_kit/optiga-trust-m/examples\optiga_shell.c ****             pal_os_timer_delay_in_milliseconds(2000);
 3802              	 .loc 1 1027 0
 3803 0012 4FF4FA60 	 mov r0,#2000
 3804 0016 FFF7FEFF 	 bl pal_os_timer_delay_in_milliseconds
 3805              	.LVL422:
1028:D:/School/diseratie/SEMS/xmc4800_evaluation_kit/optiga-trust-m/examples\optiga_shell.c ****         }
1029:D:/School/diseratie/SEMS/xmc4800_evaluation_kit/optiga-trust-m/examples\optiga_shell.c ****         bytes = 0;
1030:D:/School/diseratie/SEMS/xmc4800_evaluation_kit/optiga-trust-m/examples\optiga_shell.c ****         CDC_Device_USBTask(&USBD_VCOM_cdc_interface);
 3806              	 .loc 1 1030 0
 3807 001a 0948     	 ldr r0,.L200+4
 3808 001c FFF7FEFF 	 bl CDC_Device_USBTask
 3809              	.LVL423:
 3810              	.L197:
1017:D:/School/diseratie/SEMS/xmc4800_evaluation_kit/optiga-trust-m/examples\optiga_shell.c ****         if (bytes)
 3811              	 .loc 1 1017 0
 3812 0020 FFF7FEFF 	 bl USBD_VCOM_BytesReceived
 3813              	.LVL424:
1018:D:/School/diseratie/SEMS/xmc4800_evaluation_kit/optiga-trust-m/examples\optiga_shell.c ****         {
 3814              	 .loc 1 1018 0
 3815 0024 0028     	 cmp r0,#0
 3816 0026 F1D0     	 beq .L196
1021:D:/School/diseratie/SEMS/xmc4800_evaluation_kit/optiga-trust-m/examples\optiga_shell.c ****             break;
 3817              	 .loc 1 1021 0
 3818 0028 0DF10701 	 add r1,sp,#7
 3819 002c 0122     	 movs r2,#1
 3820 002e 0548     	 ldr r0,.L200+8
 3821              	.LVL425:
 3822 0030 FFF7FEFF 	 bl pal_logger_read
 3823              	.LVL426:
1031:D:/School/diseratie/SEMS/xmc4800_evaluation_kit/optiga-trust-m/examples\optiga_shell.c ****     }
1032:D:/School/diseratie/SEMS/xmc4800_evaluation_kit/optiga-trust-m/examples\optiga_shell.c **** }
 3824              	 .loc 1 1032 0
 3825 0034 03B0     	 add sp,sp,#12
 3826              	.LCFI67:
 3827              	 .cfi_def_cfa_offset 4
 3828              	 
 3829 0036 5DF804FB 	 ldr pc,[sp],#4
 3830              	.L201:
 3831 003a 00BF     	 .align 2
 3832              	.L200:
 3833 003c A0110000 	 .word .LC87
 3834 0040 00000000 	 .word USBD_VCOM_cdc_interface
 3835 0044 00000000 	 .word logger_console
 3836              	 .cfi_endproc
 3837              	.LFE481:
 3839              	 .global optiga_cmds
 3840              	 .global me_util
 3841              	 .section .data.optiga_cmds,"aw",%progbits
 3842              	 .align 2
 3843              	 .set .LANCHOR2,.+0
 3846              	optiga_cmds:
 3847 0000 FC100000 	 .word .LC80
 3848 0004 2C110000 	 .word .LC82
 3849 0008 00000000 	 .word optiga_shell_show_usage
 3850 000c CC110000 	 .word .LC88
 3851 0010 08120000 	 .word .LC89
 3852 0014 00000000 	 .word optiga_shell_init
 3853 0018 10120000 	 .word .LC90
 3854 001c 4C120000 	 .word .LC91
 3855 0020 00000000 	 .word optiga_shell_deinit
 3856 0024 54120000 	 .word .LC92
 3857 0028 90120000 	 .word .LC93
 3858 002c 00000000 	 .word optiga_shell_selftest
 3859 0030 9C120000 	 .word .LC94
 3860 0034 D8120000 	 .word .LC95
 3861 0038 00000000 	 .word optiga_shell_util_read_data
 3862 003c E4120000 	 .word .LC96
 3863 0040 20130000 	 .word .LC97
 3864 0044 00000000 	 .word optiga_shell_util_write_data
 3865 0048 2C130000 	 .word .LC98
 3866 004c 68130000 	 .word .LC99
 3867 0050 00000000 	 .word optiga_shell_util_read_coprocessor_id
 3868 0054 74130000 	 .word .LC100
 3869 0058 B0130000 	 .word .LC101
 3870 005c 00000000 	 .word optiga_shell_pair_host_optiga
 3871 0060 B8130000 	 .word .LC102
 3872 0064 F4130000 	 .word .LC103
 3873 0068 00000000 	 .word optiga_shell_util_hibernate_restore
 3874 006c 00140000 	 .word .LC104
 3875 0070 3C140000 	 .word .LC105
 3876 0074 00000000 	 .word optiga_shell_util_update_count
 3877 0078 44140000 	 .word .LC106
 3878 007c 80140000 	 .word .LC107
 3879 0080 00000000 	 .word optiga_shell_util_protected_update
 3880 0084 8C140000 	 .word .LC108
 3881 0088 C8140000 	 .word .LC109
 3882 008c 00000000 	 .word optiga_shell_crypt_hash
 3883 0090 D0140000 	 .word .LC110
 3884 0094 0C150000 	 .word .LC111
 3885 0098 00000000 	 .word optiga_shell_crypt_hash_data
 3886 009c 18150000 	 .word .LC112
 3887 00a0 54150000 	 .word .LC113
 3888 00a4 00000000 	 .word optiga_shell_crypt_tls_prf_sha256
 3889 00a8 58150000 	 .word .LC114
 3890 00ac 94150000 	 .word .LC115
 3891 00b0 00000000 	 .word optiga_shell_crypt_random
 3892 00b4 9C150000 	 .word .LC116
 3893 00b8 D8150000 	 .word .LC117
 3894 00bc 00000000 	 .word optiga_shell_crypt_ecc_generate_keypair
 3895 00c0 E4150000 	 .word .LC118
 3896 00c4 20160000 	 .word .LC119
 3897 00c8 00000000 	 .word optiga_shell_crypt_ecdsa_sign
 3898 00cc 2C160000 	 .word .LC120
 3899 00d0 68160000 	 .word .LC121
 3900 00d4 00000000 	 .word optiga_shell_crypt_ecdsa_verify
 3901 00d8 74160000 	 .word .LC122
 3902 00dc B0160000 	 .word .LC123
 3903 00e0 00000000 	 .word optiga_shell_crypt_ecdh
 3904 00e4 B8160000 	 .word .LC124
 3905 00e8 F4160000 	 .word .LC125
 3906 00ec 00000000 	 .word optiga_shell_crypt_rsa_generate_keypair
 3907 00f0 00170000 	 .word .LC126
 3908 00f4 3C170000 	 .word .LC127
 3909 00f8 00000000 	 .word optiga_shell_crypt_rsa_sign
 3910 00fc 44170000 	 .word .LC128
 3911 0100 80170000 	 .word .LC129
 3912 0104 00000000 	 .word optiga_shell_crypt_rsa_verify
 3913 0108 8C170000 	 .word .LC130
 3914 010c C8170000 	 .word .LC131
 3915 0110 00000000 	 .word optiga_shell_crypt_rsa_encrypt_message
 3916 0114 D4170000 	 .word .LC132
 3917 0118 10180000 	 .word .LC133
 3918 011c 00000000 	 .word optiga_shell_crypt_rsa_encrypt_session
 3919 0120 20180000 	 .word .LC134
 3920 0124 5C180000 	 .word .LC135
 3921 0128 00000000 	 .word optiga_shell_crypt_rsa_decrypt_and_store
 3922 012c 68180000 	 .word .LC136
 3923 0130 A4180000 	 .word .LC137
 3924 0134 00000000 	 .word optiga_shell_crypt_rsa_decrypt_and_export
 3925              	 .section .rodata.str1.4,"aMS",%progbits,1
 3926              	 .align 2
 3927              	.LC0:
 3928 0000 496E6974 	 .ascii "Initializing OPTIGA for example demonstration...\000"
 3928      69616C69 
 3928      7A696E67 
 3928      204F5054 
 3928      49474120 
 3929 0031 000000   	 .space 3
 3930              	.LC1:
 3931 0034 5B6F7074 	 .ascii "[optiga shell]  : \000"
 3931      69676120 
 3931      7368656C 
 3931      6C5D2020 
 3931      3A2000
 3932 0047 00       	 .space 1
 3933              	.LC2:
 3934 0048 1B5B3932 	 .ascii "\033[92m\000"
 3934      6D00
 3935 004e 0000     	 .space 2
 3936              	.LC3:
 3937 0050 53746172 	 .ascii "Starting Decrypt and Export Data with RSA Key Examp"
 3937      74696E67 
 3937      20446563 
 3937      72797074 
 3937      20616E64 
 3938 0083 6C6500   	 .ascii "le\000"
 3939 0086 0000     	 .space 2
 3940              	.LC4:
 3941 0088 31205374 	 .ascii "1 Step: Generate RSA 1024 Key Pair and export the p"
 3941      65703A20 
 3941      47656E65 
 3941      72617465 
 3941      20525341 
 3942 00bb 75626C69 	 .ascii "ublic key\000"
 3942      63206B65 
 3942      7900
 3943 00c5 000000   	 .space 3
 3944              	.LC5:
 3945 00c8 32205374 	 .ascii "2 Step: Encrypt a message with RSAES PKCS#1 Ver1.5 "
 3945      65703A20 
 3945      456E6372 
 3945      79707420 
 3945      61206D65 
 3946 00fb 53636865 	 .ascii "Scheme\000"
 3946      6D6500
 3947 0102 0000     	 .space 2
 3948              	.LC6:
 3949 0104 33205374 	 .ascii "3 Step: Select Protected I2C Connection\000"
 3949      65703A20 
 3949      53656C65 
 3949      63742050 
 3949      726F7465 
 3950              	.LC7:
 3951 012c 34205374 	 .ascii "4 Step: Decrypt the message with RSAES PKCS#1 Ver1."
 3951      65703A20 
 3951      44656372 
 3951      79707420 
 3951      74686520 
 3952 015f 35205363 	 .ascii "5 Scheme and export it\000"
 3952      68656D65 
 3952      20616E64 
 3952      20657870 
 3952      6F727420 
 3953 0176 0000     	 .space 2
 3954              	.LC8:
 3955 0178 35205374 	 .ascii "5 Step: Close the application on OPTIGA\000"
 3955      65703A20 
 3955      436C6F73 
 3955      65207468 
 3955      65206170 
 3956              	.LC9:
 3957 01a0 53746172 	 .ascii "Starting Decrypt and Store Data on the chip with RS"
 3957      74696E67 
 3957      20446563 
 3957      72797074 
 3957      20616E64 
 3958 01d3 41204B65 	 .ascii "A Key Example\000"
 3958      79204578 
 3958      616D706C 
 3958      6500
 3959 01e1 000000   	 .space 3
 3960              	.LC10:
 3961 01e4 32205374 	 .ascii "2 Step: Generate 70 bytes RSA Pre master secret whi"
 3961      65703A20 
 3961      47656E65 
 3961      72617465 
 3961      20373020 
 3962 0217 63682069 	 .ascii "ch is stored in acquired session OID\000"
 3962      73207374 
 3962      6F726564 
 3962      20696E20 
 3962      61637175 
 3963              	.LC11:
 3964 023c 34205374 	 .ascii "4 Step: Encrypt Session Data with RSA Public Key\000"
 3964      65703A20 
 3964      456E6372 
 3964      79707420 
 3964      53657373 
 3965 026d 000000   	 .space 3
 3966              	.LC12:
 3967 0270 35205374 	 .ascii "5 Step: Decrypt the message with RSAES PKCS#1 Ver1."
 3967      65703A20 
 3967      44656372 
 3967      79707420 
 3967      74686520 
 3968 02a3 35205363 	 .ascii "5 Scheme and store it on chip\000"
 3968      68656D65 
 3968      20616E64 
 3968      2073746F 
 3968      72652069 
 3969 02c1 000000   	 .space 3
 3970              	.LC13:
 3971 02c4 36205374 	 .ascii "6 Step: Close the application on OPTIGA\000"
 3971      65703A20 
 3971      436C6F73 
 3971      65207468 
 3971      65206170 
 3972              	.LC14:
 3973 02ec 53746172 	 .ascii "Starting Encrypt Data in Session Object on chip wit"
 3973      74696E67 
 3973      20456E63 
 3973      72797074 
 3973      20446174 
 3974 031f 68205253 	 .ascii "h RSA Key Example\000"
 3974      41204B65 
 3974      79204578 
 3974      616D706C 
 3974      6500
 3975 0331 000000   	 .space 3
 3976              	.LC15:
 3977 0334 31205374 	 .ascii "1 Step: Encrypt a message with RSAES PKCS#1 Ver1.5 "
 3977      65703A20 
 3977      456E6372 
 3977      79707420 
 3977      61206D65 
 3978 0367 53636865 	 .ascii "Scheme stored on chip in Session Object\000"
 3978      6D652073 
 3978      746F7265 
 3978      64206F6E 
 3978      20636869 
 3979 038f 00       	 .space 1
 3980              	.LC16:
 3981 0390 32205374 	 .ascii "2 Step: Close the application on OPTIGA\000"
 3981      65703A20 
 3981      436C6F73 
 3981      65207468 
 3981      65206170 
 3982              	.LC17:
 3983 03b8 53746172 	 .ascii "Starting Encrypt Data with RSA Key Example\000"
 3983      74696E67 
 3983      20456E63 
 3983      72797074 
 3983      20446174 
 3984 03e3 00       	 .space 1
 3985              	.LC18:
 3986 03e4 31205374 	 .ascii "1 Step: Encrypt a message with RSAES PKCS#1 Ver1.5 "
 3986      65703A20 
 3986      456E6372 
 3986      79707420 
 3986      61206D65 
 3987 0417 53636865 	 .ascii "Scheme\000"
 3987      6D6500
 3988 041e 0000     	 .space 2
 3989              	.LC19:
 3990 0420 53746172 	 .ascii "Starting signing example for PKCS#1 Ver1.5 SHA256 S"
 3990      74696E67 
 3990      20736967 
 3990      6E696E67 
 3990      20657861 
 3991 0453 69676E61 	 .ascii "ignature scheme (RSA)\000"
 3991      74757265 
 3991      20736368 
 3991      656D6520 
 3991      28525341 
 3992 0469 000000   	 .space 3
 3993              	.LC20:
 3994 046c 31205374 	 .ascii "1 Step: Verify prepared signature, with prepared pu"
 3994      65703A20 
 3994      56657269 
 3994      66792070 
 3994      72657061 
 3995 049f 626C6963 	 .ascii "blic key and digest\000"
 3995      206B6579 
 3995      20616E64 
 3995      20646967 
 3995      65737400 
 3996 04b3 00       	 .space 1
 3997              	.LC21:
 3998 04b4 31205374 	 .ascii "1 Step: Sign prepared Data and export the signature"
 3998      65703A20 
 3998      5369676E 
 3998      20707265 
 3998      70617265 
 3999 04e7 00       	 .ascii "\000"
 4000              	.LC22:
 4001 04e8 53746172 	 .ascii "Starting generate RSA Key Example\000"
 4001      74696E67 
 4001      2067656E 
 4001      65726174 
 4001      65205253 
 4002 050a 0000     	 .space 2
 4003              	.LC23:
 4004 050c 53746172 	 .ascii "Starting Elliptic-curve Diffie\342\200\223Hellman ("
 4004      74696E67 
 4004      20456C6C 
 4004      69707469 
 4004      632D6375 
 4005 0536 45434448 	 .ascii "ECDH) Key Agreement Protocol Example\000"
 4005      29204B65 
 4005      79204167 
 4005      7265656D 
 4005      656E7420 
 4006 055b 00       	 .space 1
 4007              	.LC24:
 4008 055c 31205374 	 .ascii "1 Step: Select Protected I2C Connection\000"
 4008      65703A20 
 4008      53656C65 
 4008      63742050 
 4008      726F7465 
 4009              	.LC25:
 4010 0584 32205374 	 .ascii "2 Step: Generate new ECC NIST P-256 Key Pair\000"
 4010      65703A20 
 4010      47656E65 
 4010      72617465 
 4010      206E6577 
 4011 05b1 000000   	 .space 3
 4012              	.LC26:
 4013 05b4 34205374 	 .ascii "4 Step: Generate Shared Secret and export it\000"
 4013      65703A20 
 4013      47656E65 
 4013      72617465 
 4013      20536861 
 4014 05e1 000000   	 .space 3
 4015              	.LC27:
 4016 05e4 53746172 	 .ascii "Starting verification example for Elliptic-curve Di"
 4016      74696E67 
 4016      20766572 
 4016      69666963 
 4016      6174696F 
 4017 0617 67697461 	 .ascii "gital Signature Algorithm (ECDSA)\000"
 4017      6C205369 
 4017      676E6174 
 4017      75726520 
 4017      416C676F 
 4018 0639 000000   	 .space 3
 4019              	.LC28:
 4020 063c 53746172 	 .ascii "Starting signing example for Elliptic-curve Digital"
 4020      74696E67 
 4020      20736967 
 4020      6E696E67 
 4020      20657861 
 4021 066f 20536967 	 .ascii " Signature Algorithm (ECDSA)\000"
 4021      6E617475 
 4021      72652041 
 4021      6C676F72 
 4021      6974686D 
 4022              	.LC29:
 4023 068c 53746172 	 .ascii "Starting generate ECC Key Example\000"
 4023      74696E67 
 4023      2067656E 
 4023      65726174 
 4023      65204543 
 4024 06ae 0000     	 .space 2
 4025              	.LC30:
 4026 06b0 31205374 	 .ascii "1 Step: Generate ECC NIST P-256 Key Pair and export"
 4026      65703A20 
 4026      47656E65 
 4026      72617465 
 4026      20454343 
 4027 06e3 20746865 	 .ascii " the public key\000"
 4027      20707562 
 4027      6C696320 
 4027      6B657900 
 4028 06f3 00       	 .space 1
 4029              	.LC31:
 4030 06f4 53746172 	 .ascii "Starting Generate Random Example\000"
 4030      74696E67 
 4030      2047656E 
 4030      65726174 
 4030      65205261 
 4031 0715 000000   	 .space 3
 4032              	.LC32:
 4033 0718 31205374 	 .ascii "1 Step: Generate 32 bytes random\000"
 4033      65703A20 
 4033      47656E65 
 4033      72617465 
 4033      20333220 
 4034 0739 000000   	 .space 3
 4035              	.LC33:
 4036 073c 53746172 	 .ascii "Starting TLS PRF SHA256 (Key Deriviation) Example\000"
 4036      74696E67 
 4036      20544C53 
 4036      20505246 
 4036      20534841 
 4037 076e 0000     	 .space 2
 4038              	.LC34:
 4039 0770 31205374 	 .ascii "1 Step: Write prepared Shared Secret into an Arbitr"
 4039      65703A20 
 4039      57726974 
 4039      65207072 
 4039      65706172 
 4040 07a3 61727920 	 .ascii "ary Data Object\000"
 4040      44617461 
 4040      204F626A 
 4040      65637400 
 4041 07b3 00       	 .space 1
 4042              	.LC35:
 4043 07b4 32205374 	 .ascii "2 Step: Update Metadata of the Object to use the Ar"
 4043      65703A20 
 4043      55706461 
 4043      7465204D 
 4043      65746164 
 4044 07e7 62697472 	 .ascii "bitrary Data Object only via Shielded I2C Connectio"
 4044      61727920 
 4044      44617461 
 4044      204F626A 
 4044      65637420 
 4045 081a 6E00     	 .ascii "n\000"
 4046              	.LC36:
 4047 081c 33205374 	 .ascii "3 Step: Generate Shared Secret using the Shared Sec"
 4047      65703A20 
 4047      47656E65 
 4047      72617465 
 4047      20536861 
 4048 084f 72657420 	 .ascii "ret from the Arbitrary Data Object\000"
 4048      66726F6D 
 4048      20746865 
 4048      20417262 
 4048      69747261 
 4049 0872 0000     	 .space 2
 4050              	.LC37:
 4051 0874 34205374 	 .ascii "4 Step: Restore Metadata of the Arbitrary Data Obje"
 4051      65703A20 
 4051      52657374 
 4051      6F726520 
 4051      4D657461 
 4052 08a7 637400   	 .ascii "ct\000"
 4053 08aa 0000     	 .space 2
 4054              	.LC38:
 4055 08ac 53746172 	 .ascii "Starting generation of digest Example\000"
 4055      74696E67 
 4055      2067656E 
 4055      65726174 
 4055      696F6E20 
 4056 08d2 0000     	 .space 2
 4057              	.LC39:
 4058 08d4 31205374 	 .ascii "1 Step: Generate hash of given user data \000"
 4058      65703A20 
 4058      47656E65 
 4058      72617465 
 4058      20686173 
 4059 08fe 0000     	 .space 2
 4060              	.LC40:
 4061 0900 53746172 	 .ascii "Starting Hash Example\000"
 4061      74696E67 
 4061      20486173 
 4061      68204578 
 4061      616D706C 
 4062 0916 0000     	 .space 2
 4063              	.LC41:
 4064 0918 31205374 	 .ascii "1 Step: Hash given data with Start, Update and Fina"
 4064      65703A20 
 4064      48617368 
 4064      20676976 
 4064      656E2064 
 4065 094b 6C697A65 	 .ascii "lize calls\000"
 4065      2063616C 
 4065      6C7300
 4066 0956 0000     	 .space 2
 4067              	.LC42:
 4068 0958 53746172 	 .ascii "Starting Protected Update Example\000"
 4068      74696E67 
 4068      2050726F 
 4068      74656374 
 4068      65642055 
 4069 097a 0000     	 .space 2
 4070              	.LC43:
 4071 097c 31205374 	 .ascii "1 Step: Update Metadata for the Object to be update"
 4071      65703A20 
 4071      55706461 
 4071      7465204D 
 4071      65746164 
 4072 09af 6420616E 	 .ascii "d and the Trust Anchor used to verify the update\000"
 4072      64207468 
 4072      65205472 
 4072      75737420 
 4072      416E6368 
 4073              	.LC44:
 4074 09e0 32205374 	 .ascii "2 Step: Write Trust Anchor used by the Trust M to v"
 4074      65703A20 
 4074      57726974 
 4074      65205472 
 4074      75737420 
 4075 0a13 65726966 	 .ascii "erify the update\000"
 4075      79207468 
 4075      65207570 
 4075      64617465 
 4075      00
 4076              	.LC45:
 4077 0a24 33205374 	 .ascii "3 Step: Start Protected update with prepared manife"
 4077      65703A20 
 4077      53746172 
 4077      74205072 
 4077      6F746563 
 4078 0a57 73742061 	 .ascii "st and fragments\000"
 4078      6E642066 
 4078      7261676D 
 4078      656E7473 
 4078      00
 4079              	.LC46:
 4080 0a68 34205374 	 .ascii "4 Step: Close the application on OPTIGA\000"
 4080      65703A20 
 4080      436C6F73 
 4080      65207468 
 4080      65206170 
 4081              	.LC47:
 4082 0a90 53746172 	 .ascii "Starting Update Counter Example\000"
 4082      74696E67 
 4082      20557064 
 4082      61746520 
 4082      436F756E 
 4083              	.LC48:
 4084 0ab0 31205374 	 .ascii "1 Step: Write Initial Counter Value\000"
 4084      65703A20 
 4084      57726974 
 4084      6520496E 
 4084      69746961 
 4085              	.LC49:
 4086 0ad4 32205374 	 .ascii "2 Step: Increase Counter Object\000"
 4086      65703A20 
 4086      496E6372 
 4086      65617365 
 4086      20436F75 
 4087              	.LC50:
 4088 0af4 33205374 	 .ascii "3 Step: Close the application on OPTIGA\000"
 4088      65703A20 
 4088      436C6F73 
 4088      65207468 
 4088      65206170 
 4089              	.LC51:
 4090 0b1c 53746172 	 .ascii "Starting Hibernate and Restore Example\000"
 4090      74696E67 
 4090      20486962 
 4090      65726E61 
 4090      74652061 
 4091 0b43 00       	 .space 1
 4092              	.LC52:
 4093 0b44 31205374 	 .ascii "1 Step: Open Application on the security chip\000"
 4093      65703A20 
 4093      4F70656E 
 4093      20417070 
 4093      6C696361 
 4094 0b72 0000     	 .space 2
 4095              	.LC53:
 4096 0b74 32205374 	 .ascii "2 Step: Pair the host and the security chip\000"
 4096      65703A20 
 4096      50616972 
 4096      20746865 
 4096      20686F73 
 4097              	.LC54:
 4098 0ba0 34205374 	 .ascii "4 Step: Generate ECC NIST P-256 Key pair and store "
 4098      65703A20 
 4098      47656E65 
 4098      72617465 
 4098      20454343 
 4099 0bd3 69742069 	 .ascii "it in Session Data Object, export the public key\000"
 4099      6E205365 
 4099      7373696F 
 4099      6E204461 
 4099      7461204F 
 4100              	.LC55:
 4101 0c04 35205374 	 .ascii "5 Step: Check Security Event Counter and wait till "
 4101      65703A20 
 4101      43686563 
 4101      6B205365 
 4101      63757269 
 4102 0c37 69742072 	 .ascii "it reaches 0\000"
 4102      65616368 
 4102      65732030 
 4102      00
 4103              	.LC56:
 4104 0c44 36205374 	 .ascii "6 Step: Perform Close application with Hibernate pa"
 4104      65703A20 
 4104      50657266 
 4104      6F726D20 
 4104      436C6F73 
 4105 0c77 72616D65 	 .ascii "rameter set to True\000"
 4105      74657220 
 4105      73657420 
 4105      746F2054 
 4105      72756500 
 4106 0c8b 00       	 .space 1
 4107              	.LC57:
 4108 0c8c 37205374 	 .ascii "7 Step: Open Application on the security chip\000"
 4108      65703A20 
 4108      4F70656E 
 4108      20417070 
 4108      6C696361 
 4109 0cba 0000     	 .space 2
 4110              	.LC58:
 4111 0cbc 38205374 	 .ascii "8 Step: Sign prepared data with private key stored "
 4111      65703A20 
 4111      5369676E 
 4111      20707265 
 4111      70617265 
 4112 0cef 696E2053 	 .ascii "in Session Data Object\000"
 4112      65737369 
 4112      6F6E2044 
 4112      61746120 
 4112      4F626A65 
 4113 0d06 0000     	 .space 2
 4114              	.LC59:
 4115 0d08 39205374 	 .ascii "9 Step: Verify the signature with the public key ge"
 4115      65703A20 
 4115      56657269 
 4115      66792074 
 4115      68652073 
 4116 0d3b 6E657261 	 .ascii "nerated previously\000"
 4116      74656420 
 4116      70726576 
 4116      696F7573 
 4116      6C7900
 4117 0d4e 0000     	 .space 2
 4118              	.LC60:
 4119 0d50 31302053 	 .ascii "10 Step: Close Applicaiton on the chip\000"
 4119      7465703A 
 4119      20436C6F 
 4119      73652041 
 4119      70706C69 
 4120 0d77 00       	 .space 1
 4121              	.LC61:
 4122 0d78 496D706F 	 .ascii "Important note: To continue with other examples you"
 4122      7274616E 
 4122      74206E6F 
 4122      74653A20 
 4122      546F2063 
 4123 0dab 206E6565 	 .ascii " need to call the init parameter once again\000"
 4123      6420746F 
 4123      2063616C 
 4123      6C207468 
 4123      6520696E 
 4124 0dd7 00       	 .space 1
 4125              	.LC62:
 4126 0dd8 53746172 	 .ascii "Starting Pairing of Host and Trust M Example\000"
 4126      74696E67 
 4126      20506169 
 4126      72696E67 
 4126      206F6620 
 4127 0e05 000000   	 .space 3
 4128              	.LC63:
 4129 0e08 31205374 	 .ascii "1 Step: Read and Check existing Metadata for the Bi"
 4129      65703A20 
 4129      52656164 
 4129      20616E64 
 4129      20436865 
 4130 0e3b 6E64696E 	 .ascii "nding Secret\000"
 4130      67205365 
 4130      63726574 
 4130      00
 4131              	.LC64:
 4132 0e48 32205374 	 .ascii "2 Step: Generate Random for the new Binding Secret\000"
 4132      65703A20 
 4132      47656E65 
 4132      72617465 
 4132      2052616E 
 4133 0e7b 00       	 .space 1
 4134              	.LC65:
 4135 0e7c 33205374 	 .ascii "3 Step: Write new Binding Secret\000"
 4135      65703A20 
 4135      57726974 
 4135      65206E65 
 4135      77204269 
 4136 0e9d 000000   	 .space 3
 4137              	.LC66:
 4138 0ea0 34205374 	 .ascii "4 Step: Store new Binding Secret on the Host\000"
 4138      65703A20 
 4138      53746F72 
 4138      65206E65 
 4138      77204269 
 4139 0ecd 000000   	 .space 3
 4140              	.LC67:
 4141 0ed0 53746172 	 .ascii "Starting reading of Coprocessor ID and displaying i"
 4141      74696E67 
 4141      20726561 
 4141      64696E67 
 4141      206F6620 
 4142 0f03 74277320 	 .ascii "t's individual components Example\000"
 4142      696E6469 
 4142      76696475 
 4142      616C2063 
 4142      6F6D706F 
 4143 0f25 000000   	 .space 3
 4144              	.LC68:
 4145 0f28 31205374 	 .ascii "1 Step: Read Coprocessor UID from OID(0xE0C2) \000"
 4145      65703A20 
 4145      52656164 
 4145      20436F70 
 4145      726F6365 
 4146 0f57 00       	 .space 1
 4147              	.LC69:
 4148 0f58 53746172 	 .ascii "Starting Write Data/Metadata Example\000"
 4148      74696E67 
 4148      20577269 
 4148      74652044 
 4148      6174612F 
 4149 0f7d 000000   	 .space 3
 4150              	.LC70:
 4151 0f80 31205374 	 .ascii "1 Step: Write Sample Certificate in Trust Anchor Da"
 4151      65703A20 
 4151      57726974 
 4151      65205361 
 4151      6D706C65 
 4152 0fb3 7461204F 	 .ascii "ta Object \000"
 4152      626A6563 
 4152      742000
 4153 0fbe 0000     	 .space 2
 4154              	.LC71:
 4155 0fc0 32205374 	 .ascii "2 Step: Write new Metadata\000"
 4155      65703A20 
 4155      57726974 
 4155      65206E65 
 4155      77204D65 
 4156 0fdb 00       	 .space 1
 4157              	.LC72:
 4158 0fdc 53746172 	 .ascii "Starting Read Data/Metadata Example\000"
 4158      74696E67 
 4158      20526561 
 4158      64204461 
 4158      74612F4D 
 4159              	.LC73:
 4160 1000 31205374 	 .ascii "1 Step: Read Certificate \000"
 4160      65703A20 
 4160      52656164 
 4160      20436572 
 4160      74696669 
 4161 101a 0000     	 .space 2
 4162              	.LC74:
 4163 101c 32205374 	 .ascii "2 Step: Read Certificate Metadata\000"
 4163      65703A20 
 4163      52656164 
 4163      20436572 
 4163      74696669 
 4164 103e 0000     	 .space 2
 4165              	.LC75:
 4166 1040 4578616D 	 .ascii "Example takes %d msec\000"
 4166      706C6520 
 4166      74616B65 
 4166      73202564 
 4166      206D7365 
 4167 1056 0000     	 .space 2
 4168              	.LC76:
 4169 1058 496E6974 	 .ascii "Initializing OPTIGA completed...\012\012\000"
 4169      69616C69 
 4169      7A696E67 
 4169      204F5054 
 4169      49474120 
 4170 107b 00       	 .space 1
 4171              	.LC77:
 4172 107c 50616972 	 .ascii "Pairing of host and OPTIGA completed...\000"
 4172      696E6720 
 4172      6F662068 
 4172      6F737420 
 4172      616E6420 
 4173              	.LC78:
 4174 10a4 53657474 	 .ascii "Setting current limitation to maximum...\000"
 4174      696E6720 
 4174      63757272 
 4174      656E7420 
 4174      6C696D69 
 4175 10cd 000000   	 .space 3
 4176              	.LC79:
 4177 10d0 53746172 	 .ascii "Starting OPTIGA example demonstration..\012\000"
 4177      74696E67 
 4177      204F5054 
 4177      49474120 
 4177      6578616D 
 4178 10f9 000000   	 .space 3
 4179              	.LC80:
 4180 10fc 00       	 .ascii "\000"
 4181 10fd 000000   	 .space 3
 4182              	.LC81:
 4183 1100 20202020 	 .ascii "    usage                : optiga -<cmd>\000"
 4183      75736167 
 4183      65202020 
 4183      20202020 
 4183      20202020 
 4184 1129 000000   	 .space 3
 4185              	.LC82:
 4186 112c 68656C70 	 .ascii "help\000"
 4186      00
 4187 1131 000000   	 .space 3
 4188              	.LC83:
 4189 1134 2400     	 .ascii "$\000"
 4190 1136 0000     	 .space 2
 4191              	.LC84:
 4192 1138 6F707469 	 .ascii "optiga --\000"
 4192      6761202D 
 4192      2D00
 4193 1142 0000     	 .space 2
 4194              	.LC85:
 4195 1144 4E6F2065 	 .ascii "No example exists for this request\000"
 4195      78616D70 
 4195      6C652065 
 4195      78697374 
 4195      7320666F 
 4196 1167 00       	 .space 1
 4197              	.LC86:
 4198 1168 4E6F2065 	 .ascii "No example exists for this request chose below opti"
 4198      78616D70 
 4198      6C652065 
 4198      78697374 
 4198      7320666F 
 4199 119b 6F6E7300 	 .ascii "ons\000"
 4200 119f 00       	 .space 1
 4201              	.LC87:
 4202 11a0 50726573 	 .ascii "Press any key to start optiga mini shell\000"
 4202      7320616E 
 4202      79206B65 
 4202      7920746F 
 4202      20737461 
 4203 11c9 000000   	 .space 3
 4204              	.LC88:
 4205 11cc 20202020 	 .ascii "    initialize optiga                        : opti"
 4205      696E6974 
 4205      69616C69 
 4205      7A65206F 
 4205      70746967 
 4206 11ff 6761202D 	 .ascii "ga --\000"
 4206      2D00
 4207 1205 000000   	 .space 3
 4208              	.LC89:
 4209 1208 696E6974 	 .ascii "init\000"
 4209      00
 4210 120d 000000   	 .space 3
 4211              	.LC90:
 4212 1210 20202020 	 .ascii "    de-initialize optiga                     : opti"
 4212      64652D69 
 4212      6E697469 
 4212      616C697A 
 4212      65206F70 
 4213 1243 6761202D 	 .ascii "ga --\000"
 4213      2D00
 4214 1249 000000   	 .space 3
 4215              	.LC91:
 4216 124c 6465696E 	 .ascii "deinit\000"
 4216      697400
 4217 1253 00       	 .space 1
 4218              	.LC92:
 4219 1254 20202020 	 .ascii "    run all tests at once                    : opti"
 4219      72756E20 
 4219      616C6C20 
 4219      74657374 
 4219      73206174 
 4220 1287 6761202D 	 .ascii "ga --\000"
 4220      2D00
 4221 128d 000000   	 .space 3
 4222              	.LC93:
 4223 1290 73656C66 	 .ascii "selftest\000"
 4223      74657374 
 4223      00
 4224 1299 000000   	 .space 3
 4225              	.LC94:
 4226 129c 20202020 	 .ascii "    read data                                : opti"
 4226      72656164 
 4226      20646174 
 4226      61202020 
 4226      20202020 
 4227 12cf 6761202D 	 .ascii "ga --\000"
 4227      2D00
 4228 12d5 000000   	 .space 3
 4229              	.LC95:
 4230 12d8 72656164 	 .ascii "readdata\000"
 4230      64617461 
 4230      00
 4231 12e1 000000   	 .space 3
 4232              	.LC96:
 4233 12e4 20202020 	 .ascii "    write data                               : opti"
 4233      77726974 
 4233      65206461 
 4233      74612020 
 4233      20202020 
 4234 1317 6761202D 	 .ascii "ga --\000"
 4234      2D00
 4235 131d 000000   	 .space 3
 4236              	.LC97:
 4237 1320 77726974 	 .ascii "writedata\000"
 4237      65646174 
 4237      6100
 4238 132a 0000     	 .space 2
 4239              	.LC98:
 4240 132c 20202020 	 .ascii "    read coprocessor id                      : opti"
 4240      72656164 
 4240      20636F70 
 4240      726F6365 
 4240      73736F72 
 4241 135f 6761202D 	 .ascii "ga --\000"
 4241      2D00
 4242 1365 000000   	 .space 3
 4243              	.LC99:
 4244 1368 636F7072 	 .ascii "coprocid\000"
 4244      6F636964 
 4244      00
 4245 1371 000000   	 .space 3
 4246              	.LC100:
 4247 1374 20202020 	 .ascii "    binding host with optiga                 : opti"
 4247      62696E64 
 4247      696E6720 
 4247      686F7374 
 4247      20776974 
 4248 13a7 6761202D 	 .ascii "ga --\000"
 4248      2D00
 4249 13ad 000000   	 .space 3
 4250              	.LC101:
 4251 13b0 62696E64 	 .ascii "bind\000"
 4251      00
 4252 13b5 000000   	 .space 3
 4253              	.LC102:
 4254 13b8 20202020 	 .ascii "    hibernate and restore                    : opti"
 4254      68696265 
 4254      726E6174 
 4254      6520616E 
 4254      64207265 
 4255 13eb 6761202D 	 .ascii "ga --\000"
 4255      2D00
 4256 13f1 000000   	 .space 3
 4257              	.LC103:
 4258 13f4 68696265 	 .ascii "hibernate\000"
 4258      726E6174 
 4258      6500
 4259 13fe 0000     	 .space 2
 4260              	.LC104:
 4261 1400 20202020 	 .ascii "    update counter                           : opti"
 4261      75706461 
 4261      74652063 
 4261      6F756E74 
 4261      65722020 
 4262 1433 6761202D 	 .ascii "ga --\000"
 4262      2D00
 4263 1439 000000   	 .space 3
 4264              	.LC105:
 4265 143c 636F756E 	 .ascii "counter\000"
 4265      74657200 
 4266              	.LC106:
 4267 1444 20202020 	 .ascii "    protected update                         : opti"
 4267      70726F74 
 4267      65637465 
 4267      64207570 
 4267      64617465 
 4268 1477 6761202D 	 .ascii "ga --\000"
 4268      2D00
 4269 147d 000000   	 .space 3
 4270              	.LC107:
 4271 1480 70726F74 	 .ascii "protected\000"
 4271      65637465 
 4271      6400
 4272 148a 0000     	 .space 2
 4273              	.LC108:
 4274 148c 20202020 	 .ascii "    hashing of data                          : opti"
 4274      68617368 
 4274      696E6720 
 4274      6F662064 
 4274      61746120 
 4275 14bf 6761202D 	 .ascii "ga --\000"
 4275      2D00
 4276 14c5 000000   	 .space 3
 4277              	.LC109:
 4278 14c8 68617368 	 .ascii "hash\000"
 4278      00
 4279 14cd 000000   	 .space 3
 4280              	.LC110:
 4281 14d0 20202020 	 .ascii "    hash single function                     : opti"
 4281      68617368 
 4281      2073696E 
 4281      676C6520 
 4281      66756E63 
 4282 1503 6761202D 	 .ascii "ga --\000"
 4282      2D00
 4283 1509 000000   	 .space 3
 4284              	.LC111:
 4285 150c 68617368 	 .ascii "hashsha256\000"
 4285      73686132 
 4285      353600
 4286 1517 00       	 .space 1
 4287              	.LC112:
 4288 1518 20202020 	 .ascii "    tls prf sha256                           : opti"
 4288      746C7320 
 4288      70726620 
 4288      73686132 
 4288      35362020 
 4289 154b 6761202D 	 .ascii "ga --\000"
 4289      2D00
 4290 1551 000000   	 .space 3
 4291              	.LC113:
 4292 1554 70726600 	 .ascii "prf\000"
 4293              	.LC114:
 4294 1558 20202020 	 .ascii "    random number generation                 : opti"
 4294      72616E64 
 4294      6F6D206E 
 4294      756D6265 
 4294      72206765 
 4295 158b 6761202D 	 .ascii "ga --\000"
 4295      2D00
 4296 1591 000000   	 .space 3
 4297              	.LC115:
 4298 1594 72616E64 	 .ascii "random\000"
 4298      6F6D00
 4299 159b 00       	 .space 1
 4300              	.LC116:
 4301 159c 20202020 	 .ascii "    ecc key pair generation                  : opti"
 4301      65636320 
 4301      6B657920 
 4301      70616972 
 4301      2067656E 
 4302 15cf 6761202D 	 .ascii "ga --\000"
 4302      2D00
 4303 15d5 000000   	 .space 3
 4304              	.LC117:
 4305 15d8 6563636B 	 .ascii "ecckeygen\000"
 4305      65796765 
 4305      6E00
 4306 15e2 0000     	 .space 2
 4307              	.LC118:
 4308 15e4 20202020 	 .ascii "    ecdsa sign                               : opti"
 4308      65636473 
 4308      61207369 
 4308      676E2020 
 4308      20202020 
 4309 1617 6761202D 	 .ascii "ga --\000"
 4309      2D00
 4310 161d 000000   	 .space 3
 4311              	.LC119:
 4312 1620 65636473 	 .ascii "ecdsasign\000"
 4312      61736967 
 4312      6E00
 4313 162a 0000     	 .space 2
 4314              	.LC120:
 4315 162c 20202020 	 .ascii "    ecdsa verify sign                        : opti"
 4315      65636473 
 4315      61207665 
 4315      72696679 
 4315      20736967 
 4316 165f 6761202D 	 .ascii "ga --\000"
 4316      2D00
 4317 1665 000000   	 .space 3
 4318              	.LC121:
 4319 1668 65636473 	 .ascii "ecdsaverify\000"
 4319      61766572 
 4319      69667900 
 4320              	.LC122:
 4321 1674 20202020 	 .ascii "    ecc diffie hellman                       : opti"
 4321      65636320 
 4321      64696666 
 4321      69652068 
 4321      656C6C6D 
 4322 16a7 6761202D 	 .ascii "ga --\000"
 4322      2D00
 4323 16ad 000000   	 .space 3
 4324              	.LC123:
 4325 16b0 65636468 	 .ascii "ecdh\000"
 4325      00
 4326 16b5 000000   	 .space 3
 4327              	.LC124:
 4328 16b8 20202020 	 .ascii "    rsa key pair generation                  : opti"
 4328      72736120 
 4328      6B657920 
 4328      70616972 
 4328      2067656E 
 4329 16eb 6761202D 	 .ascii "ga --\000"
 4329      2D00
 4330 16f1 000000   	 .space 3
 4331              	.LC125:
 4332 16f4 7273616B 	 .ascii "rsakeygen\000"
 4332      65796765 
 4332      6E00
 4333 16fe 0000     	 .space 2
 4334              	.LC126:
 4335 1700 20202020 	 .ascii "    rsa sign                                 : opti"
 4335      72736120 
 4335      7369676E 
 4335      20202020 
 4335      20202020 
 4336 1733 6761202D 	 .ascii "ga --\000"
 4336      2D00
 4337 1739 000000   	 .space 3
 4338              	.LC127:
 4339 173c 72736173 	 .ascii "rsasign\000"
 4339      69676E00 
 4340              	.LC128:
 4341 1744 20202020 	 .ascii "    rsa verify sign                          : opti"
 4341      72736120 
 4341      76657269 
 4341      66792073 
 4341      69676E20 
 4342 1777 6761202D 	 .ascii "ga --\000"
 4342      2D00
 4343 177d 000000   	 .space 3
 4344              	.LC129:
 4345 1780 72736176 	 .ascii "rsaverify\000"
 4345      65726966 
 4345      7900
 4346 178a 0000     	 .space 2
 4347              	.LC130:
 4348 178c 20202020 	 .ascii "    rsa encrypt message                      : opti"
 4348      72736120 
 4348      656E6372 
 4348      79707420 
 4348      6D657373 
 4349 17bf 6761202D 	 .ascii "ga --\000"
 4349      2D00
 4350 17c5 000000   	 .space 3
 4351              	.LC131:
 4352 17c8 72736165 	 .ascii "rsaencmsg\000"
 4352      6E636D73 
 4352      6700
 4353 17d2 0000     	 .space 2
 4354              	.LC132:
 4355 17d4 20202020 	 .ascii "    rsa encrypt session                      : opti"
 4355      72736120 
 4355      656E6372 
 4355      79707420 
 4355      73657373 
 4356 1807 6761202D 	 .ascii "ga --\000"
 4356      2D00
 4357 180d 000000   	 .space 3
 4358              	.LC133:
 4359 1810 72736165 	 .ascii "rsaencsession\000"
 4359      6E637365 
 4359      7373696F 
 4359      6E00
 4360 181e 0000     	 .space 2
 4361              	.LC134:
 4362 1820 20202020 	 .ascii "    rsa decrypt and store                    : opti"
 4362      72736120 
 4362      64656372 
 4362      79707420 
 4362      616E6420 
 4363 1853 6761202D 	 .ascii "ga --\000"
 4363      2D00
 4364 1859 000000   	 .space 3
 4365              	.LC135:
 4366 185c 72736164 	 .ascii "rsadecstore\000"
 4366      65637374 
 4366      6F726500 
 4367              	.LC136:
 4368 1868 20202020 	 .ascii "    rsa decrypt and export                   : opti"
 4368      72736120 
 4368      64656372 
 4368      79707420 
 4368      616E6420 
 4369 189b 6761202D 	 .ascii "ga --\000"
 4369      2D00
 4370 18a1 000000   	 .space 3
 4371              	.LC137:
 4372 18a4 72736164 	 .ascii "rsadecexp\000"
 4372      65636578 
 4372      7000
 4373 18ae 0000     	 .section .bss.me_util,"aw",%nobits
 4374              	 .align 2
 4375              	 .set .LANCHOR1,.+0
 4378              	me_util:
 4379 0000 00000000 	 .space 4
 4380              	 .section .bss.optiga_lib_status,"aw",%nobits
 4381              	 .align 1
 4382              	 .set .LANCHOR0,.+0
 4385              	optiga_lib_status:
 4386 0000 0000     	 .space 2
 4387              	 .text
 4388              	.Letext0:
 4389              	 .file 2 "c:\\infineon\\tools\\dave ide\\4.5.0.202105191637\\eclipse\\arm-gcc-49\\lib\\gcc\\arm-none-eabi\\4.9.3\\include\\stddef.h"
 4390              	 .file 3 "c:\\infineon\\tools\\dave ide\\4.5.0.202105191637\\eclipse\\arm-gcc-49\\arm-none-eabi\\include\\machine\\_default_types.h"
 4391              	 .file 4 "c:\\infineon\\tools\\dave ide\\4.5.0.202105191637\\eclipse\\arm-gcc-49\\arm-none-eabi\\include\\stdint.h"
 4392              	 .file 5 "D:/School/diseratie/SEMS/xmc4800_evaluation_kit/xmc4800_iot_kit/common/Libraries/CMSIS/Infineon/XMC4800_series/Include/XMC4800.h"
 4393              	 .file 6 "D:/School/diseratie/SEMS/xmc4800_evaluation_kit/xmc4800_iot_kit/common/Libraries/XMCLib/inc/xmc_usic.h"
 4394              	 .file 7 "D:/School/diseratie/SEMS/xmc4800_evaluation_kit/xmc4800_iot_kit/common/Libraries/XMCLib/inc/xmc_usbd_regs.h"
 4395              	 .file 8 "D:/School/diseratie/SEMS/xmc4800_evaluation_kit/xmc4800_iot_kit/common/Libraries/XMCLib/inc/xmc_usbd.h"
 4396              	 .file 9 "D:/School/diseratie/SEMS/xmc4800_evaluation_kit/xmc4800_iot_kit/common/Dave/Generated/USBD/usbd.h"
 4397              	 .file 10 "d:\\school\\diseratie\\sems\\xmc4800_evaluation_kit\\xmc4800_iot_kit\\common\\dave\\generated\\usbd\\usb\\core\\endpoint.h"
 4398              	 .file 11 "d:\\school\\diseratie\\sems\\xmc4800_evaluation_kit\\xmc4800_iot_kit\\common\\dave\\generated\\usbd_vcom\\class_driver\\common\\cdc_class_common.h"
 4399              	 .file 12 "d:\\school\\diseratie\\sems\\xmc4800_evaluation_kit\\xmc4800_iot_kit\\common\\dave\\generated\\usbd_vcom\\class_driver\\device/cdc_class_device.h"
 4400              	 .file 13 "D:/School/diseratie/SEMS/xmc4800_evaluation_kit/optiga-trust-m/optiga/include/optiga/common/optiga_lib_types.h"
 4401              	 .file 14 "D:/School/diseratie/SEMS/xmc4800_evaluation_kit/optiga-trust-m/optiga/include/optiga/common/optiga_lib_common.h"
 4402              	 .file 15 "D:/School/diseratie/SEMS/xmc4800_evaluation_kit/optiga-trust-m/optiga/include/optiga/cmd/optiga_cmd.h"
 4403              	 .file 16 "D:/School/diseratie/SEMS/xmc4800_evaluation_kit/optiga-trust-m/optiga/include/optiga/optiga_util.h"
 4404              	 .file 17 "D:/School/diseratie/SEMS/xmc4800_evaluation_kit/optiga-trust-m/optiga/include/optiga/pal/pal.h"
 4405              	 .file 18 "D:/School/diseratie/SEMS/xmc4800_evaluation_kit/optiga-trust-m/optiga/include/optiga/pal/pal_logger.h"
 4406              	 .file 19 "D:/School/diseratie/SEMS/xmc4800_evaluation_kit/xmc4800_iot_kit/common/Libraries/CMSIS/Include/core_cm4.h"
 4407              	 .file 20 "D:/School/diseratie/SEMS/xmc4800_evaluation_kit/xmc4800_iot_kit/common/Libraries/CMSIS/Infineon/XMC4800_series/Include/system_XMC4800.h"
 4408              	 .file 21 "D:/School/diseratie/SEMS/xmc4800_evaluation_kit/xmc4800_iot_kit/common/Dave/Generated/USBD/usbd_extern.h"
 4409              	 .file 22 "D:/School/diseratie/SEMS/xmc4800_evaluation_kit/xmc4800_iot_kit/common/Dave/Generated/USBD_VCOM/usbd_vcom_extern.h"
 4410              	 .file 23 "D:/School/diseratie/SEMS/xmc4800_evaluation_kit/optiga-trust-m/examples/optiga/include/optiga_example.h"
 4411              	 .file 24 "D:/School/diseratie/SEMS/xmc4800_evaluation_kit/optiga-trust-m/optiga/include/optiga/common/optiga_lib_logger.h"
 4412              	 .file 25 "c:\\infineon\\tools\\dave ide\\4.5.0.202105191637\\eclipse\\arm-gcc-49\\arm-none-eabi\\include\\stdio.h"
 4413              	 .file 26 "c:\\infineon\\tools\\dave ide\\4.5.0.202105191637\\eclipse\\arm-gcc-49\\arm-none-eabi\\include\\string.h"
 4414              	 .file 27 "D:/School/diseratie/SEMS/xmc4800_evaluation_kit/optiga-trust-m/optiga/include/optiga/pal/pal_os_timer.h"
 4415              	 .file 28 "D:/School/diseratie/SEMS/xmc4800_evaluation_kit/xmc4800_iot_kit/common/Dave/Generated/USBD_VCOM/usbd_vcom.h"
DEFINED SYMBOLS
                            *ABS*:00000000 optiga_shell.c
    {standard input}:20     .text.optiga_util_callback:00000000 $t
    {standard input}:24     .text.optiga_util_callback:00000000 optiga_util_callback
    {standard input}:40     .text.optiga_util_callback:00000008 $d
    {standard input}:45     .text.optiga_shell_crypt_rsa_decrypt_and_export:00000000 $t
    {standard input}:49     .text.optiga_shell_crypt_rsa_decrypt_and_export:00000000 optiga_shell_crypt_rsa_decrypt_and_export
    {standard input}:120    .text.optiga_shell_crypt_rsa_decrypt_and_export:00000054 $d
    {standard input}:133    .text.optiga_shell_crypt_rsa_decrypt_and_store:00000000 $t
    {standard input}:137    .text.optiga_shell_crypt_rsa_decrypt_and_store:00000000 optiga_shell_crypt_rsa_decrypt_and_store
    {standard input}:214    .text.optiga_shell_crypt_rsa_decrypt_and_store:00000060 $d
    {standard input}:228    .text.optiga_shell_crypt_rsa_encrypt_session:00000000 $t
    {standard input}:232    .text.optiga_shell_crypt_rsa_encrypt_session:00000000 optiga_shell_crypt_rsa_encrypt_session
    {standard input}:285    .text.optiga_shell_crypt_rsa_encrypt_session:00000038 $d
    {standard input}:295    .text.optiga_shell_crypt_rsa_encrypt_message:00000000 $t
    {standard input}:299    .text.optiga_shell_crypt_rsa_encrypt_message:00000000 optiga_shell_crypt_rsa_encrypt_message
    {standard input}:352    .text.optiga_shell_crypt_rsa_encrypt_message:00000038 $d
    {standard input}:362    .text.optiga_shell_crypt_rsa_verify:00000000 $t
    {standard input}:366    .text.optiga_shell_crypt_rsa_verify:00000000 optiga_shell_crypt_rsa_verify
    {standard input}:419    .text.optiga_shell_crypt_rsa_verify:00000038 $d
    {standard input}:429    .text.optiga_shell_crypt_rsa_sign:00000000 $t
    {standard input}:433    .text.optiga_shell_crypt_rsa_sign:00000000 optiga_shell_crypt_rsa_sign
    {standard input}:486    .text.optiga_shell_crypt_rsa_sign:00000038 $d
    {standard input}:496    .text.optiga_shell_crypt_rsa_generate_keypair:00000000 $t
    {standard input}:500    .text.optiga_shell_crypt_rsa_generate_keypair:00000000 optiga_shell_crypt_rsa_generate_keypair
    {standard input}:553    .text.optiga_shell_crypt_rsa_generate_keypair:00000038 $d
    {standard input}:563    .text.optiga_shell_crypt_ecdh:00000000 $t
    {standard input}:567    .text.optiga_shell_crypt_ecdh:00000000 optiga_shell_crypt_ecdh
    {standard input}:638    .text.optiga_shell_crypt_ecdh:00000054 $d
    {standard input}:651    .text.optiga_shell_crypt_ecdsa_verify:00000000 $t
    {standard input}:655    .text.optiga_shell_crypt_ecdsa_verify:00000000 optiga_shell_crypt_ecdsa_verify
    {standard input}:708    .text.optiga_shell_crypt_ecdsa_verify:00000038 $d
    {standard input}:718    .text.optiga_shell_crypt_ecdsa_sign:00000000 $t
    {standard input}:722    .text.optiga_shell_crypt_ecdsa_sign:00000000 optiga_shell_crypt_ecdsa_sign
    {standard input}:775    .text.optiga_shell_crypt_ecdsa_sign:00000038 $d
    {standard input}:785    .text.optiga_shell_crypt_ecc_generate_keypair:00000000 $t
    {standard input}:789    .text.optiga_shell_crypt_ecc_generate_keypair:00000000 optiga_shell_crypt_ecc_generate_keypair
    {standard input}:842    .text.optiga_shell_crypt_ecc_generate_keypair:00000038 $d
    {standard input}:852    .text.optiga_shell_crypt_random:00000000 $t
    {standard input}:856    .text.optiga_shell_crypt_random:00000000 optiga_shell_crypt_random
    {standard input}:909    .text.optiga_shell_crypt_random:00000038 $d
    {standard input}:919    .text.optiga_shell_crypt_tls_prf_sha256:00000000 $t
    {standard input}:923    .text.optiga_shell_crypt_tls_prf_sha256:00000000 optiga_shell_crypt_tls_prf_sha256
    {standard input}:994    .text.optiga_shell_crypt_tls_prf_sha256:00000054 $d
    {standard input}:1007   .text.optiga_shell_crypt_hash_data:00000000 $t
    {standard input}:1011   .text.optiga_shell_crypt_hash_data:00000000 optiga_shell_crypt_hash_data
    {standard input}:1064   .text.optiga_shell_crypt_hash_data:00000038 $d
    {standard input}:1074   .text.optiga_shell_crypt_hash:00000000 $t
    {standard input}:1078   .text.optiga_shell_crypt_hash:00000000 optiga_shell_crypt_hash
    {standard input}:1131   .text.optiga_shell_crypt_hash:00000038 $d
    {standard input}:1141   .text.optiga_shell_util_protected_update:00000000 $t
    {standard input}:1145   .text.optiga_shell_util_protected_update:00000000 optiga_shell_util_protected_update
    {standard input}:1210   .text.optiga_shell_util_protected_update:0000004c $d
    {standard input}:1222   .text.optiga_shell_util_update_count:00000000 $t
    {standard input}:1226   .text.optiga_shell_util_update_count:00000000 optiga_shell_util_update_count
    {standard input}:1285   .text.optiga_shell_util_update_count:00000040 $d
    {standard input}:1296   .text.optiga_shell_util_hibernate_restore:00000000 $t
    {standard input}:1300   .text.optiga_shell_util_hibernate_restore:00000000 optiga_shell_util_hibernate_restore
    {standard input}:1401   .text.optiga_shell_util_hibernate_restore:00000088 $d
    {standard input}:1419   .text.optiga_shell_pair_host_optiga:00000000 $t
    {standard input}:1423   .text.optiga_shell_pair_host_optiga:00000000 optiga_shell_pair_host_optiga
    {standard input}:1494   .text.optiga_shell_pair_host_optiga:00000054 $d
    {standard input}:1507   .text.optiga_shell_util_read_coprocessor_id:00000000 $t
    {standard input}:1511   .text.optiga_shell_util_read_coprocessor_id:00000000 optiga_shell_util_read_coprocessor_id
    {standard input}:1564   .text.optiga_shell_util_read_coprocessor_id:00000038 $d
    {standard input}:1574   .text.optiga_shell_util_write_data:00000000 $t
    {standard input}:1578   .text.optiga_shell_util_write_data:00000000 optiga_shell_util_write_data
    {standard input}:1637   .text.optiga_shell_util_write_data:00000040 $d
    {standard input}:1648   .text.optiga_shell_util_read_data:00000000 $t
    {standard input}:1652   .text.optiga_shell_util_read_data:00000000 optiga_shell_util_read_data
    {standard input}:1711   .text.optiga_shell_util_read_data:00000040 $d
    {standard input}:1722   .text.optiga_shell_deinit:00000000 $t
    {standard input}:1726   .text.optiga_shell_deinit:00000000 optiga_shell_deinit
    {standard input}:1833   .text.optiga_shell_deinit:00000064 $d
    {standard input}:1841   .text.optiga_shell_init:00000000 $t
    {standard input}:1845   .text.optiga_shell_init:00000000 optiga_shell_init
    {standard input}:2039   .text.optiga_shell_init:000000d4 $d
    {standard input}:2054   .text.optiga_shell_show_usage:00000000 $t
    {standard input}:2058   .text.optiga_shell_show_usage:00000000 optiga_shell_show_usage
    {standard input}:2115   .text.optiga_shell_show_usage:00000040 $d
    {standard input}:2123   .text.optiga_shell_selftest:00000000 $t
    {standard input}:2127   .text.optiga_shell_selftest:00000000 optiga_shell_selftest
    {standard input}:2698   .text.optiga_shell_selftest:000002c4 $d
    {standard input}:2746   .text.optiga_shell_selftest:00000360 $t
    {standard input}:3245   .text.optiga_shell_selftest:00000614 $d
    {standard input}:3278   .text.optiga_shell_selftest:00000690 $t
    {standard input}:3412   .text.optiga_shell_selftest:00000738 $d
    {standard input}:3433   .text.run_example:00000000 $t
    {standard input}:3438   .text.run_example:00000000 run_example
    {standard input}:3471   .text.run_example:00000018 $d
    {standard input}:3476   .text.optiga_shell_begin:00000000 $t
    {standard input}:3481   .text.optiga_shell_begin:00000000 optiga_shell_begin
    {standard input}:3757   .text.optiga_shell_begin:00000134 $d
    {standard input}:3772   .text.optiga_shell_wait_for_user:00000000 $t
    {standard input}:3777   .text.optiga_shell_wait_for_user:00000000 optiga_shell_wait_for_user
    {standard input}:3833   .text.optiga_shell_wait_for_user:0000003c $d
    {standard input}:3846   .data.optiga_cmds:00000000 optiga_cmds
    {standard input}:4378   .bss.me_util:00000000 me_util
    {standard input}:3842   .data.optiga_cmds:00000000 $d
    {standard input}:3926   .rodata.str1.4:00000000 $d
    {standard input}:4374   .bss.me_util:00000000 $d
    {standard input}:4381   .bss.optiga_lib_status:00000000 $d
    {standard input}:4385   .bss.optiga_lib_status:00000000 optiga_lib_status
                     .debug_frame:00000010 $d

UNDEFINED SYMBOLS
optiga_lib_print_message
example_optiga_crypt_rsa_decrypt_and_export
example_optiga_crypt_rsa_decrypt_and_store
example_optiga_crypt_rsa_encrypt_session
example_optiga_crypt_rsa_encrypt_message
example_optiga_crypt_rsa_verify
example_optiga_crypt_rsa_sign
example_optiga_crypt_rsa_generate_keypair
example_optiga_crypt_ecdh
example_optiga_crypt_ecdsa_verify
example_optiga_crypt_ecdsa_sign
example_optiga_crypt_ecc_generate_keypair
example_optiga_crypt_random
example_optiga_crypt_tls_prf_sha256
example_optiga_crypt_hash_data
example_optiga_crypt_hash
example_optiga_util_protected_update
example_optiga_util_update_count
example_optiga_util_hibernate_restore
example_pair_host_and_optiga_using_pre_shared_secret
example_read_coprocessor_id
example_optiga_util_write_data
example_optiga_util_read_data
example_performance_measurement
optiga_util_close_application
sprintf
optiga_util_destroy
performance_buffer_string
optiga_util_open_application
optiga_util_create
pair_host_and_optiga_using_pre_shared_secret
optiga_util_write_data
optiga_lib_print_string_with_newline
strcmp
optiga_lib_print_string
pal_os_timer_delay_in_milliseconds
pal_logger_read
pal_logger_write
strncmp
strlen
strcpy
logger_console
CDC_Device_USBTask
USBD_VCOM_BytesReceived
USBD_VCOM_cdc_interface
