   1              	 .syntax unified
   2              	 .cpu cortex-m4
   3              	 .eabi_attribute 27,3
   4              	 .fpu fpv4-sp-d16
   5              	 .eabi_attribute 20,1
   6              	 .eabi_attribute 21,1
   7              	 .eabi_attribute 23,3
   8              	 .eabi_attribute 24,1
   9              	 .eabi_attribute 25,1
  10              	 .eabi_attribute 26,1
  11              	 .eabi_attribute 30,2
  12              	 .eabi_attribute 34,1
  13              	 .eabi_attribute 18,4
  14              	 .thumb
  15              	 .file "optiga_shell.c"
  16              	 .text
  17              	.Ltext0:
  18              	 .cfi_sections .debug_frame
  19              	 .section .text.optiga_util_callback,"ax",%progbits
  20              	 .align 2
  21              	 .thumb
  22              	 .thumb_func
  24              	optiga_util_callback:
  25              	.LFB454:
  26              	 .file 1 "D:/School/diseratie/SEMS/xmc4800_evaluation_kit/optiga-trust-m/examples/optiga_shell.c"
   1:D:/School/diseratie/SEMS/xmc4800_evaluation_kit/optiga-trust-m/examples\optiga_shell.c **** /**
   2:D:/School/diseratie/SEMS/xmc4800_evaluation_kit/optiga-trust-m/examples\optiga_shell.c **** * \copyright
   3:D:/School/diseratie/SEMS/xmc4800_evaluation_kit/optiga-trust-m/examples\optiga_shell.c **** * MIT License
   4:D:/School/diseratie/SEMS/xmc4800_evaluation_kit/optiga-trust-m/examples\optiga_shell.c **** *
   5:D:/School/diseratie/SEMS/xmc4800_evaluation_kit/optiga-trust-m/examples\optiga_shell.c **** * Copyright (c) 2020 Infineon Technologies AG
   6:D:/School/diseratie/SEMS/xmc4800_evaluation_kit/optiga-trust-m/examples\optiga_shell.c **** *
   7:D:/School/diseratie/SEMS/xmc4800_evaluation_kit/optiga-trust-m/examples\optiga_shell.c **** * Permission is hereby granted, free of charge, to any person obtaining a copy
   8:D:/School/diseratie/SEMS/xmc4800_evaluation_kit/optiga-trust-m/examples\optiga_shell.c **** * of this software and associated documentation files (the "Software"), to deal
   9:D:/School/diseratie/SEMS/xmc4800_evaluation_kit/optiga-trust-m/examples\optiga_shell.c **** * in the Software without restriction, including without limitation the rights
  10:D:/School/diseratie/SEMS/xmc4800_evaluation_kit/optiga-trust-m/examples\optiga_shell.c **** * to use, copy, modify, merge, publish, distribute, sublicense, and/or sell
  11:D:/School/diseratie/SEMS/xmc4800_evaluation_kit/optiga-trust-m/examples\optiga_shell.c **** * copies of the Software, and to permit persons to whom the Software is
  12:D:/School/diseratie/SEMS/xmc4800_evaluation_kit/optiga-trust-m/examples\optiga_shell.c **** * furnished to do so, subject to the following conditions:
  13:D:/School/diseratie/SEMS/xmc4800_evaluation_kit/optiga-trust-m/examples\optiga_shell.c **** *
  14:D:/School/diseratie/SEMS/xmc4800_evaluation_kit/optiga-trust-m/examples\optiga_shell.c **** * The above copyright notice and this permission notice shall be included in all
  15:D:/School/diseratie/SEMS/xmc4800_evaluation_kit/optiga-trust-m/examples\optiga_shell.c **** * copies or substantial portions of the Software.
  16:D:/School/diseratie/SEMS/xmc4800_evaluation_kit/optiga-trust-m/examples\optiga_shell.c **** *
  17:D:/School/diseratie/SEMS/xmc4800_evaluation_kit/optiga-trust-m/examples\optiga_shell.c **** * THE SOFTWARE IS PROVIDED "AS IS", WITHOUT WARRANTY OF ANY KIND, EXPRESS OR
  18:D:/School/diseratie/SEMS/xmc4800_evaluation_kit/optiga-trust-m/examples\optiga_shell.c **** * IMPLIED, INCLUDING BUT NOT LIMITED TO THE WARRANTIES OF MERCHANTABILITY,
  19:D:/School/diseratie/SEMS/xmc4800_evaluation_kit/optiga-trust-m/examples\optiga_shell.c **** * FITNESS FOR A PARTICULAR PURPOSE AND NONINFRINGEMENT. IN NO EVENT SHALL THE
  20:D:/School/diseratie/SEMS/xmc4800_evaluation_kit/optiga-trust-m/examples\optiga_shell.c **** * AUTHORS OR COPYRIGHT HOLDERS BE LIABLE FOR ANY CLAIM, DAMAGES OR OTHER
  21:D:/School/diseratie/SEMS/xmc4800_evaluation_kit/optiga-trust-m/examples\optiga_shell.c **** * LIABILITY, WHETHER IN AN ACTION OF CONTRACT, TORT OR OTHERWISE, ARISING FROM,
  22:D:/School/diseratie/SEMS/xmc4800_evaluation_kit/optiga-trust-m/examples\optiga_shell.c **** * OUT OF OR IN CONNECTION WITH THE SOFTWARE OR THE USE OR OTHER DEALINGS IN THE
  23:D:/School/diseratie/SEMS/xmc4800_evaluation_kit/optiga-trust-m/examples\optiga_shell.c **** * SOFTWARE
  24:D:/School/diseratie/SEMS/xmc4800_evaluation_kit/optiga-trust-m/examples\optiga_shell.c **** *
  25:D:/School/diseratie/SEMS/xmc4800_evaluation_kit/optiga-trust-m/examples\optiga_shell.c **** * \endcopyright
  26:D:/School/diseratie/SEMS/xmc4800_evaluation_kit/optiga-trust-m/examples\optiga_shell.c **** *
  27:D:/School/diseratie/SEMS/xmc4800_evaluation_kit/optiga-trust-m/examples\optiga_shell.c **** * \author Infineon Technologies AG
  28:D:/School/diseratie/SEMS/xmc4800_evaluation_kit/optiga-trust-m/examples\optiga_shell.c **** *
  29:D:/School/diseratie/SEMS/xmc4800_evaluation_kit/optiga-trust-m/examples\optiga_shell.c **** * \file optiga_shell.c
  30:D:/School/diseratie/SEMS/xmc4800_evaluation_kit/optiga-trust-m/examples\optiga_shell.c **** *
  31:D:/School/diseratie/SEMS/xmc4800_evaluation_kit/optiga-trust-m/examples\optiga_shell.c **** * \brief   This file provides the shell prompt implementation.
  32:D:/School/diseratie/SEMS/xmc4800_evaluation_kit/optiga-trust-m/examples\optiga_shell.c **** *
  33:D:/School/diseratie/SEMS/xmc4800_evaluation_kit/optiga-trust-m/examples\optiga_shell.c **** * \ingroup grOptigaExamples
  34:D:/School/diseratie/SEMS/xmc4800_evaluation_kit/optiga-trust-m/examples\optiga_shell.c **** *
  35:D:/School/diseratie/SEMS/xmc4800_evaluation_kit/optiga-trust-m/examples\optiga_shell.c **** * @{
  36:D:/School/diseratie/SEMS/xmc4800_evaluation_kit/optiga-trust-m/examples\optiga_shell.c **** */
  37:D:/School/diseratie/SEMS/xmc4800_evaluation_kit/optiga-trust-m/examples\optiga_shell.c **** 
  38:D:/School/diseratie/SEMS/xmc4800_evaluation_kit/optiga-trust-m/examples\optiga_shell.c **** #include <DAVE.h>
  39:D:/School/diseratie/SEMS/xmc4800_evaluation_kit/optiga-trust-m/examples\optiga_shell.c **** #include "optiga/optiga_crypt.h"
  40:D:/School/diseratie/SEMS/xmc4800_evaluation_kit/optiga-trust-m/examples\optiga_shell.c **** #include "optiga/optiga_util.h"
  41:D:/School/diseratie/SEMS/xmc4800_evaluation_kit/optiga-trust-m/examples\optiga_shell.c **** #include "optiga/common/optiga_lib_logger.h"
  42:D:/School/diseratie/SEMS/xmc4800_evaluation_kit/optiga-trust-m/examples\optiga_shell.c **** #include "optiga/pal/pal_os_event.h"
  43:D:/School/diseratie/SEMS/xmc4800_evaluation_kit/optiga-trust-m/examples\optiga_shell.c **** #include "optiga/pal/pal.h"
  44:D:/School/diseratie/SEMS/xmc4800_evaluation_kit/optiga-trust-m/examples\optiga_shell.c **** #include "optiga/pal/pal_os_timer.h"
  45:D:/School/diseratie/SEMS/xmc4800_evaluation_kit/optiga-trust-m/examples\optiga_shell.c **** #include "optiga_example.h"
  46:D:/School/diseratie/SEMS/xmc4800_evaluation_kit/optiga-trust-m/examples\optiga_shell.c **** #include "optiga/pal/pal_logger.h"
  47:D:/School/diseratie/SEMS/xmc4800_evaluation_kit/optiga-trust-m/examples\optiga_shell.c **** 
  48:D:/School/diseratie/SEMS/xmc4800_evaluation_kit/optiga-trust-m/examples\optiga_shell.c **** #define OPTIGA_SHELL_MODULE "[optiga shell]  : "
  49:D:/School/diseratie/SEMS/xmc4800_evaluation_kit/optiga-trust-m/examples\optiga_shell.c **** #define OPTIGA_SHELL_LOG_MESSAGE(msg) \
  50:D:/School/diseratie/SEMS/xmc4800_evaluation_kit/optiga-trust-m/examples\optiga_shell.c ****                             optiga_lib_print_message(msg, OPTIGA_SHELL_MODULE, OPTIGA_LIB_LOGGER_CO
  51:D:/School/diseratie/SEMS/xmc4800_evaluation_kit/optiga-trust-m/examples\optiga_shell.c ****                             
  52:D:/School/diseratie/SEMS/xmc4800_evaluation_kit/optiga-trust-m/examples\optiga_shell.c **** #define OPTIGA_SHELL_LOG_ERROR_MESSAGE(msg) \
  53:D:/School/diseratie/SEMS/xmc4800_evaluation_kit/optiga-trust-m/examples\optiga_shell.c ****                             optiga_lib_print_message(msg, OPTIGA_SHELL_MODULE, OPTIGA_LIB_LOGGER_CO
  54:D:/School/diseratie/SEMS/xmc4800_evaluation_kit/optiga-trust-m/examples\optiga_shell.c **** 
  55:D:/School/diseratie/SEMS/xmc4800_evaluation_kit/optiga-trust-m/examples\optiga_shell.c **** #ifdef OPTIGA_COMMS_SHIELDED_CONNECTION
  56:D:/School/diseratie/SEMS/xmc4800_evaluation_kit/optiga-trust-m/examples\optiga_shell.c **** extern optiga_lib_status_t pair_host_and_optiga_using_pre_shared_secret(void);
  57:D:/School/diseratie/SEMS/xmc4800_evaluation_kit/optiga-trust-m/examples\optiga_shell.c **** #endif
  58:D:/School/diseratie/SEMS/xmc4800_evaluation_kit/optiga-trust-m/examples\optiga_shell.c **** 
  59:D:/School/diseratie/SEMS/xmc4800_evaluation_kit/optiga-trust-m/examples\optiga_shell.c **** extern void example_optiga_crypt_hash (void);
  60:D:/School/diseratie/SEMS/xmc4800_evaluation_kit/optiga-trust-m/examples\optiga_shell.c **** extern void example_optiga_crypt_ecc_generate_keypair(void);
  61:D:/School/diseratie/SEMS/xmc4800_evaluation_kit/optiga-trust-m/examples\optiga_shell.c **** extern void example_optiga_crypt_ecdsa_sign(void);
  62:D:/School/diseratie/SEMS/xmc4800_evaluation_kit/optiga-trust-m/examples\optiga_shell.c **** extern void example_optiga_crypt_ecdsa_verify(void);
  63:D:/School/diseratie/SEMS/xmc4800_evaluation_kit/optiga-trust-m/examples\optiga_shell.c **** extern void example_optiga_crypt_ecdh(void);
  64:D:/School/diseratie/SEMS/xmc4800_evaluation_kit/optiga-trust-m/examples\optiga_shell.c **** extern void example_optiga_crypt_random(void);
  65:D:/School/diseratie/SEMS/xmc4800_evaluation_kit/optiga-trust-m/examples\optiga_shell.c **** extern void example_optiga_crypt_tls_prf_sha256(void);
  66:D:/School/diseratie/SEMS/xmc4800_evaluation_kit/optiga-trust-m/examples\optiga_shell.c **** extern void example_optiga_util_read_data(void);
  67:D:/School/diseratie/SEMS/xmc4800_evaluation_kit/optiga-trust-m/examples\optiga_shell.c **** extern void example_optiga_util_write_data(void);
  68:D:/School/diseratie/SEMS/xmc4800_evaluation_kit/optiga-trust-m/examples\optiga_shell.c **** extern void example_optiga_crypt_rsa_generate_keypair(void);
  69:D:/School/diseratie/SEMS/xmc4800_evaluation_kit/optiga-trust-m/examples\optiga_shell.c **** extern void example_optiga_crypt_rsa_sign(void);
  70:D:/School/diseratie/SEMS/xmc4800_evaluation_kit/optiga-trust-m/examples\optiga_shell.c **** extern void example_optiga_crypt_rsa_verify(void);
  71:D:/School/diseratie/SEMS/xmc4800_evaluation_kit/optiga-trust-m/examples\optiga_shell.c **** extern void example_optiga_crypt_rsa_decrypt_and_export(void);
  72:D:/School/diseratie/SEMS/xmc4800_evaluation_kit/optiga-trust-m/examples\optiga_shell.c **** extern void example_optiga_crypt_rsa_decrypt_and_store(void);
  73:D:/School/diseratie/SEMS/xmc4800_evaluation_kit/optiga-trust-m/examples\optiga_shell.c **** extern void example_optiga_crypt_rsa_encrypt_message(void);
  74:D:/School/diseratie/SEMS/xmc4800_evaluation_kit/optiga-trust-m/examples\optiga_shell.c **** extern void example_optiga_crypt_rsa_encrypt_session(void);
  75:D:/School/diseratie/SEMS/xmc4800_evaluation_kit/optiga-trust-m/examples\optiga_shell.c **** extern void example_optiga_util_update_count(void);
  76:D:/School/diseratie/SEMS/xmc4800_evaluation_kit/optiga-trust-m/examples\optiga_shell.c **** extern void example_optiga_util_protected_update(void);
  77:D:/School/diseratie/SEMS/xmc4800_evaluation_kit/optiga-trust-m/examples\optiga_shell.c **** extern void example_read_coprocessor_id(void);
  78:D:/School/diseratie/SEMS/xmc4800_evaluation_kit/optiga-trust-m/examples\optiga_shell.c **** extern void example_optiga_crypt_hash_data(void);
  79:D:/School/diseratie/SEMS/xmc4800_evaluation_kit/optiga-trust-m/examples\optiga_shell.c **** #ifdef OPTIGA_COMMS_SHIELDED_CONNECTION 
  80:D:/School/diseratie/SEMS/xmc4800_evaluation_kit/optiga-trust-m/examples\optiga_shell.c **** extern void example_pair_host_and_optiga_using_pre_shared_secret(void);
  81:D:/School/diseratie/SEMS/xmc4800_evaluation_kit/optiga-trust-m/examples\optiga_shell.c **** #endif
  82:D:/School/diseratie/SEMS/xmc4800_evaluation_kit/optiga-trust-m/examples\optiga_shell.c **** extern void example_optiga_util_hibernate_restore(void);
  83:D:/School/diseratie/SEMS/xmc4800_evaluation_kit/optiga-trust-m/examples\optiga_shell.c **** extern void example_optiga_crypt_symmetric_encrypt_decrypt_ecb(void);
  84:D:/School/diseratie/SEMS/xmc4800_evaluation_kit/optiga-trust-m/examples\optiga_shell.c **** extern void example_optiga_crypt_symmetric_encrypt_decrypt_cbc(void);
  85:D:/School/diseratie/SEMS/xmc4800_evaluation_kit/optiga-trust-m/examples\optiga_shell.c **** extern void example_optiga_crypt_symmetric_encrypt_cbcmac(void);
  86:D:/School/diseratie/SEMS/xmc4800_evaluation_kit/optiga-trust-m/examples\optiga_shell.c **** extern void example_optiga_crypt_hmac(void);
  87:D:/School/diseratie/SEMS/xmc4800_evaluation_kit/optiga-trust-m/examples\optiga_shell.c **** extern void example_optiga_crypt_hkdf(void);
  88:D:/School/diseratie/SEMS/xmc4800_evaluation_kit/optiga-trust-m/examples\optiga_shell.c **** extern void example_optiga_crypt_symmetric_generate_key(void);
  89:D:/School/diseratie/SEMS/xmc4800_evaluation_kit/optiga-trust-m/examples\optiga_shell.c **** extern void example_optiga_hmac_verify_with_authorization_reference(void);
  90:D:/School/diseratie/SEMS/xmc4800_evaluation_kit/optiga-trust-m/examples\optiga_shell.c **** extern void example_optiga_crypt_clear_auto_state(void);
  91:D:/School/diseratie/SEMS/xmc4800_evaluation_kit/optiga-trust-m/examples\optiga_shell.c **** 
  92:D:/School/diseratie/SEMS/xmc4800_evaluation_kit/optiga-trust-m/examples\optiga_shell.c **** extern pal_logger_t logger_console;
  93:D:/School/diseratie/SEMS/xmc4800_evaluation_kit/optiga-trust-m/examples\optiga_shell.c **** /**
  94:D:/School/diseratie/SEMS/xmc4800_evaluation_kit/optiga-trust-m/examples\optiga_shell.c ****  * Callback when optiga_util_xxxx operation is completed asynchronously
  95:D:/School/diseratie/SEMS/xmc4800_evaluation_kit/optiga-trust-m/examples\optiga_shell.c ****  */
  96:D:/School/diseratie/SEMS/xmc4800_evaluation_kit/optiga-trust-m/examples\optiga_shell.c **** static volatile optiga_lib_status_t optiga_lib_status;
  97:D:/School/diseratie/SEMS/xmc4800_evaluation_kit/optiga-trust-m/examples\optiga_shell.c **** //lint --e{818,715} suppress "argument "context" is not used in the sample provided"
  98:D:/School/diseratie/SEMS/xmc4800_evaluation_kit/optiga-trust-m/examples\optiga_shell.c **** static void optiga_util_callback(void * context, optiga_lib_status_t return_status)
  99:D:/School/diseratie/SEMS/xmc4800_evaluation_kit/optiga-trust-m/examples\optiga_shell.c **** {
  27              	 .loc 1 99 0
  28              	 .cfi_startproc
  29              	 
  30              	 
  31              	 
  32              	.LVL0:
 100:D:/School/diseratie/SEMS/xmc4800_evaluation_kit/optiga-trust-m/examples\optiga_shell.c ****     optiga_lib_status = return_status;
  33              	 .loc 1 100 0
  34 0000 014B     	 ldr r3,.L2
  35 0002 1980     	 strh r1,[r3]
  36 0004 7047     	 bx lr
  37              	.L3:
  38 0006 00BF     	 .align 2
  39              	.L2:
  40 0008 00000000 	 .word .LANCHOR0
  41              	 .cfi_endproc
  42              	.LFE454:
  44              	 .section .text.optiga_shell_crypt_hmac_verify_with_authorization_reference,"ax",%progbits
  45              	 .align 2
  46              	 .thumb
  47              	 .thumb_func
  49              	optiga_shell_crypt_hmac_verify_with_authorization_reference:
  50              	.LFB485:
 101:D:/School/diseratie/SEMS/xmc4800_evaluation_kit/optiga-trust-m/examples\optiga_shell.c **** }
 102:D:/School/diseratie/SEMS/xmc4800_evaluation_kit/optiga-trust-m/examples\optiga_shell.c **** 
 103:D:/School/diseratie/SEMS/xmc4800_evaluation_kit/optiga-trust-m/examples\optiga_shell.c **** optiga_util_t * me_util = NULL;
 104:D:/School/diseratie/SEMS/xmc4800_evaluation_kit/optiga-trust-m/examples\optiga_shell.c **** 
 105:D:/School/diseratie/SEMS/xmc4800_evaluation_kit/optiga-trust-m/examples\optiga_shell.c **** typedef struct optiga_example_cmd
 106:D:/School/diseratie/SEMS/xmc4800_evaluation_kit/optiga-trust-m/examples\optiga_shell.c **** {
 107:D:/School/diseratie/SEMS/xmc4800_evaluation_kit/optiga-trust-m/examples\optiga_shell.c ****     const char_t * cmd_description;
 108:D:/School/diseratie/SEMS/xmc4800_evaluation_kit/optiga-trust-m/examples\optiga_shell.c ****     const char_t * cmd_options;
 109:D:/School/diseratie/SEMS/xmc4800_evaluation_kit/optiga-trust-m/examples\optiga_shell.c ****     void (*cmd_handler)(void);
 110:D:/School/diseratie/SEMS/xmc4800_evaluation_kit/optiga-trust-m/examples\optiga_shell.c **** }optiga_example_cmd_t;
 111:D:/School/diseratie/SEMS/xmc4800_evaluation_kit/optiga-trust-m/examples\optiga_shell.c **** 
 112:D:/School/diseratie/SEMS/xmc4800_evaluation_kit/optiga-trust-m/examples\optiga_shell.c **** static void optiga_shell_init(void)
 113:D:/School/diseratie/SEMS/xmc4800_evaluation_kit/optiga-trust-m/examples\optiga_shell.c **** {
 114:D:/School/diseratie/SEMS/xmc4800_evaluation_kit/optiga-trust-m/examples\optiga_shell.c ****     optiga_lib_status_t return_status = !OPTIGA_LIB_SUCCESS;
 115:D:/School/diseratie/SEMS/xmc4800_evaluation_kit/optiga-trust-m/examples\optiga_shell.c ****     uint32_t time_taken = 0;
 116:D:/School/diseratie/SEMS/xmc4800_evaluation_kit/optiga-trust-m/examples\optiga_shell.c ****     uint16_t optiga_oid = 0xE0C4;
 117:D:/School/diseratie/SEMS/xmc4800_evaluation_kit/optiga-trust-m/examples\optiga_shell.c ****     uint8_t required_current[] = {0x0F};
 118:D:/School/diseratie/SEMS/xmc4800_evaluation_kit/optiga-trust-m/examples\optiga_shell.c **** 
 119:D:/School/diseratie/SEMS/xmc4800_evaluation_kit/optiga-trust-m/examples\optiga_shell.c ****     do
 120:D:/School/diseratie/SEMS/xmc4800_evaluation_kit/optiga-trust-m/examples\optiga_shell.c ****     {
 121:D:/School/diseratie/SEMS/xmc4800_evaluation_kit/optiga-trust-m/examples\optiga_shell.c ****         if (NULL == me_util)
 122:D:/School/diseratie/SEMS/xmc4800_evaluation_kit/optiga-trust-m/examples\optiga_shell.c ****         {
 123:D:/School/diseratie/SEMS/xmc4800_evaluation_kit/optiga-trust-m/examples\optiga_shell.c ****             //Create an instance of optiga_util to open the application on OPTIGA.
 124:D:/School/diseratie/SEMS/xmc4800_evaluation_kit/optiga-trust-m/examples\optiga_shell.c ****             me_util = optiga_util_create(0, optiga_util_callback, NULL);
 125:D:/School/diseratie/SEMS/xmc4800_evaluation_kit/optiga-trust-m/examples\optiga_shell.c ****             if (NULL == me_util)
 126:D:/School/diseratie/SEMS/xmc4800_evaluation_kit/optiga-trust-m/examples\optiga_shell.c ****             {
 127:D:/School/diseratie/SEMS/xmc4800_evaluation_kit/optiga-trust-m/examples\optiga_shell.c ****                 break;
 128:D:/School/diseratie/SEMS/xmc4800_evaluation_kit/optiga-trust-m/examples\optiga_shell.c ****             }
 129:D:/School/diseratie/SEMS/xmc4800_evaluation_kit/optiga-trust-m/examples\optiga_shell.c ****         }
 130:D:/School/diseratie/SEMS/xmc4800_evaluation_kit/optiga-trust-m/examples\optiga_shell.c **** 
 131:D:/School/diseratie/SEMS/xmc4800_evaluation_kit/optiga-trust-m/examples\optiga_shell.c ****         OPTIGA_EXAMPLE_LOG_MESSAGE("Initializing OPTIGA for example demonstration...\n");
 132:D:/School/diseratie/SEMS/xmc4800_evaluation_kit/optiga-trust-m/examples\optiga_shell.c ****         /**
 133:D:/School/diseratie/SEMS/xmc4800_evaluation_kit/optiga-trust-m/examples\optiga_shell.c ****          * Open the application on OPTIGA which is a precondition to perform any other operations
 134:D:/School/diseratie/SEMS/xmc4800_evaluation_kit/optiga-trust-m/examples\optiga_shell.c ****          * using optiga_util_open_application
 135:D:/School/diseratie/SEMS/xmc4800_evaluation_kit/optiga-trust-m/examples\optiga_shell.c ****          */
 136:D:/School/diseratie/SEMS/xmc4800_evaluation_kit/optiga-trust-m/examples\optiga_shell.c ****         optiga_lib_status = OPTIGA_LIB_BUSY;
 137:D:/School/diseratie/SEMS/xmc4800_evaluation_kit/optiga-trust-m/examples\optiga_shell.c ****         
 138:D:/School/diseratie/SEMS/xmc4800_evaluation_kit/optiga-trust-m/examples\optiga_shell.c ****         START_PERFORMANCE_MEASUREMENT(time_taken);
 139:D:/School/diseratie/SEMS/xmc4800_evaluation_kit/optiga-trust-m/examples\optiga_shell.c ****         
 140:D:/School/diseratie/SEMS/xmc4800_evaluation_kit/optiga-trust-m/examples\optiga_shell.c ****         return_status = optiga_util_open_application(me_util, 0);
 141:D:/School/diseratie/SEMS/xmc4800_evaluation_kit/optiga-trust-m/examples\optiga_shell.c **** 
 142:D:/School/diseratie/SEMS/xmc4800_evaluation_kit/optiga-trust-m/examples\optiga_shell.c ****         if (OPTIGA_LIB_SUCCESS != return_status)
 143:D:/School/diseratie/SEMS/xmc4800_evaluation_kit/optiga-trust-m/examples\optiga_shell.c ****         {
 144:D:/School/diseratie/SEMS/xmc4800_evaluation_kit/optiga-trust-m/examples\optiga_shell.c ****             break;
 145:D:/School/diseratie/SEMS/xmc4800_evaluation_kit/optiga-trust-m/examples\optiga_shell.c ****         }
 146:D:/School/diseratie/SEMS/xmc4800_evaluation_kit/optiga-trust-m/examples\optiga_shell.c ****         while (optiga_lib_status == OPTIGA_LIB_BUSY)
 147:D:/School/diseratie/SEMS/xmc4800_evaluation_kit/optiga-trust-m/examples\optiga_shell.c ****         {
 148:D:/School/diseratie/SEMS/xmc4800_evaluation_kit/optiga-trust-m/examples\optiga_shell.c ****             //Wait until the optiga_util_open_application is completed
 149:D:/School/diseratie/SEMS/xmc4800_evaluation_kit/optiga-trust-m/examples\optiga_shell.c ****         }
 150:D:/School/diseratie/SEMS/xmc4800_evaluation_kit/optiga-trust-m/examples\optiga_shell.c ****         if (OPTIGA_LIB_SUCCESS != optiga_lib_status)
 151:D:/School/diseratie/SEMS/xmc4800_evaluation_kit/optiga-trust-m/examples\optiga_shell.c ****         {
 152:D:/School/diseratie/SEMS/xmc4800_evaluation_kit/optiga-trust-m/examples\optiga_shell.c ****             return_status = optiga_lib_status;
 153:D:/School/diseratie/SEMS/xmc4800_evaluation_kit/optiga-trust-m/examples\optiga_shell.c ****             //optiga util open application failed
 154:D:/School/diseratie/SEMS/xmc4800_evaluation_kit/optiga-trust-m/examples\optiga_shell.c ****             break;
 155:D:/School/diseratie/SEMS/xmc4800_evaluation_kit/optiga-trust-m/examples\optiga_shell.c ****         }
 156:D:/School/diseratie/SEMS/xmc4800_evaluation_kit/optiga-trust-m/examples\optiga_shell.c ****         
 157:D:/School/diseratie/SEMS/xmc4800_evaluation_kit/optiga-trust-m/examples\optiga_shell.c ****         READ_PERFORMANCE_MEASUREMENT(time_taken);
 158:D:/School/diseratie/SEMS/xmc4800_evaluation_kit/optiga-trust-m/examples\optiga_shell.c ****         
 159:D:/School/diseratie/SEMS/xmc4800_evaluation_kit/optiga-trust-m/examples\optiga_shell.c ****         OPTIGA_SHELL_LOG_MESSAGE("Initializing OPTIGA completed...\n\n");
 160:D:/School/diseratie/SEMS/xmc4800_evaluation_kit/optiga-trust-m/examples\optiga_shell.c **** #ifdef OPTIGA_COMMS_SHIELDED_CONNECTION 
 161:D:/School/diseratie/SEMS/xmc4800_evaluation_kit/optiga-trust-m/examples\optiga_shell.c ****         OPTIGA_EXAMPLE_LOG_MESSAGE("pair_host_and_optiga_using_pre_shared_secret");
 162:D:/School/diseratie/SEMS/xmc4800_evaluation_kit/optiga-trust-m/examples\optiga_shell.c ****         // Usercase: Generate the pre-shared secret on host and write it to OPTIGA
 163:D:/School/diseratie/SEMS/xmc4800_evaluation_kit/optiga-trust-m/examples\optiga_shell.c ****         return_status = pair_host_and_optiga_using_pre_shared_secret();
 164:D:/School/diseratie/SEMS/xmc4800_evaluation_kit/optiga-trust-m/examples\optiga_shell.c ****         if (OPTIGA_LIB_SUCCESS != return_status)
 165:D:/School/diseratie/SEMS/xmc4800_evaluation_kit/optiga-trust-m/examples\optiga_shell.c ****         {
 166:D:/School/diseratie/SEMS/xmc4800_evaluation_kit/optiga-trust-m/examples\optiga_shell.c ****             //Pairing of host and optiga failed
 167:D:/School/diseratie/SEMS/xmc4800_evaluation_kit/optiga-trust-m/examples\optiga_shell.c ****             break;
 168:D:/School/diseratie/SEMS/xmc4800_evaluation_kit/optiga-trust-m/examples\optiga_shell.c ****         }
 169:D:/School/diseratie/SEMS/xmc4800_evaluation_kit/optiga-trust-m/examples\optiga_shell.c ****         OPTIGA_SHELL_LOG_MESSAGE("Pairing of host and OPTIGA completed...");
 170:D:/School/diseratie/SEMS/xmc4800_evaluation_kit/optiga-trust-m/examples\optiga_shell.c **** #endif
 171:D:/School/diseratie/SEMS/xmc4800_evaluation_kit/optiga-trust-m/examples\optiga_shell.c ****         // Setting current limitation to maximum supported value(15)
 172:D:/School/diseratie/SEMS/xmc4800_evaluation_kit/optiga-trust-m/examples\optiga_shell.c ****         optiga_lib_status = OPTIGA_LIB_BUSY;
 173:D:/School/diseratie/SEMS/xmc4800_evaluation_kit/optiga-trust-m/examples\optiga_shell.c ****         return_status = optiga_util_write_data(me_util,
 174:D:/School/diseratie/SEMS/xmc4800_evaluation_kit/optiga-trust-m/examples\optiga_shell.c ****                                                optiga_oid,
 175:D:/School/diseratie/SEMS/xmc4800_evaluation_kit/optiga-trust-m/examples\optiga_shell.c ****                                                OPTIGA_UTIL_ERASE_AND_WRITE,
 176:D:/School/diseratie/SEMS/xmc4800_evaluation_kit/optiga-trust-m/examples\optiga_shell.c ****                                                0,
 177:D:/School/diseratie/SEMS/xmc4800_evaluation_kit/optiga-trust-m/examples\optiga_shell.c ****                                                required_current,
 178:D:/School/diseratie/SEMS/xmc4800_evaluation_kit/optiga-trust-m/examples\optiga_shell.c ****                                                1);
 179:D:/School/diseratie/SEMS/xmc4800_evaluation_kit/optiga-trust-m/examples\optiga_shell.c **** 
 180:D:/School/diseratie/SEMS/xmc4800_evaluation_kit/optiga-trust-m/examples\optiga_shell.c ****         if (OPTIGA_LIB_SUCCESS != return_status)
 181:D:/School/diseratie/SEMS/xmc4800_evaluation_kit/optiga-trust-m/examples\optiga_shell.c ****         {
 182:D:/School/diseratie/SEMS/xmc4800_evaluation_kit/optiga-trust-m/examples\optiga_shell.c ****             break;
 183:D:/School/diseratie/SEMS/xmc4800_evaluation_kit/optiga-trust-m/examples\optiga_shell.c ****         }
 184:D:/School/diseratie/SEMS/xmc4800_evaluation_kit/optiga-trust-m/examples\optiga_shell.c **** 
 185:D:/School/diseratie/SEMS/xmc4800_evaluation_kit/optiga-trust-m/examples\optiga_shell.c ****         while (OPTIGA_LIB_BUSY == optiga_lib_status)
 186:D:/School/diseratie/SEMS/xmc4800_evaluation_kit/optiga-trust-m/examples\optiga_shell.c ****         {
 187:D:/School/diseratie/SEMS/xmc4800_evaluation_kit/optiga-trust-m/examples\optiga_shell.c ****             //Wait until the optiga_util_write_data operation is completed
 188:D:/School/diseratie/SEMS/xmc4800_evaluation_kit/optiga-trust-m/examples\optiga_shell.c ****         }
 189:D:/School/diseratie/SEMS/xmc4800_evaluation_kit/optiga-trust-m/examples\optiga_shell.c ****         if (OPTIGA_LIB_SUCCESS != optiga_lib_status)
 190:D:/School/diseratie/SEMS/xmc4800_evaluation_kit/optiga-trust-m/examples\optiga_shell.c ****         {
 191:D:/School/diseratie/SEMS/xmc4800_evaluation_kit/optiga-trust-m/examples\optiga_shell.c ****             return_status = optiga_lib_status;
 192:D:/School/diseratie/SEMS/xmc4800_evaluation_kit/optiga-trust-m/examples\optiga_shell.c ****             break;
 193:D:/School/diseratie/SEMS/xmc4800_evaluation_kit/optiga-trust-m/examples\optiga_shell.c ****         }
 194:D:/School/diseratie/SEMS/xmc4800_evaluation_kit/optiga-trust-m/examples\optiga_shell.c ****         OPTIGA_SHELL_LOG_MESSAGE("Setting current limitation to maximum...");
 195:D:/School/diseratie/SEMS/xmc4800_evaluation_kit/optiga-trust-m/examples\optiga_shell.c ****         OPTIGA_SHELL_LOG_MESSAGE("Starting OPTIGA example demonstration..\n");
 196:D:/School/diseratie/SEMS/xmc4800_evaluation_kit/optiga-trust-m/examples\optiga_shell.c ****     }while(FALSE);
 197:D:/School/diseratie/SEMS/xmc4800_evaluation_kit/optiga-trust-m/examples\optiga_shell.c ****     OPTIGA_EXAMPLE_LOG_STATUS(return_status);
 198:D:/School/diseratie/SEMS/xmc4800_evaluation_kit/optiga-trust-m/examples\optiga_shell.c ****     OPTIGA_EXAMPLE_LOG_PERFORMANCE_VALUE(time_taken, return_status);
 199:D:/School/diseratie/SEMS/xmc4800_evaluation_kit/optiga-trust-m/examples\optiga_shell.c **** }
 200:D:/School/diseratie/SEMS/xmc4800_evaluation_kit/optiga-trust-m/examples\optiga_shell.c **** 
 201:D:/School/diseratie/SEMS/xmc4800_evaluation_kit/optiga-trust-m/examples\optiga_shell.c **** static void optiga_shell_deinit(void)
 202:D:/School/diseratie/SEMS/xmc4800_evaluation_kit/optiga-trust-m/examples\optiga_shell.c **** {
 203:D:/School/diseratie/SEMS/xmc4800_evaluation_kit/optiga-trust-m/examples\optiga_shell.c ****     optiga_lib_status_t return_status = !OPTIGA_LIB_SUCCESS;
 204:D:/School/diseratie/SEMS/xmc4800_evaluation_kit/optiga-trust-m/examples\optiga_shell.c ****     uint32_t time_taken = 0;
 205:D:/School/diseratie/SEMS/xmc4800_evaluation_kit/optiga-trust-m/examples\optiga_shell.c ****     
 206:D:/School/diseratie/SEMS/xmc4800_evaluation_kit/optiga-trust-m/examples\optiga_shell.c ****     do
 207:D:/School/diseratie/SEMS/xmc4800_evaluation_kit/optiga-trust-m/examples\optiga_shell.c ****     {
 208:D:/School/diseratie/SEMS/xmc4800_evaluation_kit/optiga-trust-m/examples\optiga_shell.c ****         OPTIGA_EXAMPLE_LOG_MESSAGE("Deinitializing OPTIGA for example demonstration...\n");
 209:D:/School/diseratie/SEMS/xmc4800_evaluation_kit/optiga-trust-m/examples\optiga_shell.c ****         /**
 210:D:/School/diseratie/SEMS/xmc4800_evaluation_kit/optiga-trust-m/examples\optiga_shell.c ****          * Close the application on OPTIGA after all the operations are executed
 211:D:/School/diseratie/SEMS/xmc4800_evaluation_kit/optiga-trust-m/examples\optiga_shell.c ****          * using optiga_util_close_application
 212:D:/School/diseratie/SEMS/xmc4800_evaluation_kit/optiga-trust-m/examples\optiga_shell.c ****          */
 213:D:/School/diseratie/SEMS/xmc4800_evaluation_kit/optiga-trust-m/examples\optiga_shell.c ****         optiga_lib_status = OPTIGA_LIB_BUSY;
 214:D:/School/diseratie/SEMS/xmc4800_evaluation_kit/optiga-trust-m/examples\optiga_shell.c ****         
 215:D:/School/diseratie/SEMS/xmc4800_evaluation_kit/optiga-trust-m/examples\optiga_shell.c ****         START_PERFORMANCE_MEASUREMENT(time_taken);
 216:D:/School/diseratie/SEMS/xmc4800_evaluation_kit/optiga-trust-m/examples\optiga_shell.c ****         
 217:D:/School/diseratie/SEMS/xmc4800_evaluation_kit/optiga-trust-m/examples\optiga_shell.c ****         return_status = optiga_util_close_application(me_util, 0);
 218:D:/School/diseratie/SEMS/xmc4800_evaluation_kit/optiga-trust-m/examples\optiga_shell.c **** 
 219:D:/School/diseratie/SEMS/xmc4800_evaluation_kit/optiga-trust-m/examples\optiga_shell.c ****         if (OPTIGA_LIB_SUCCESS != return_status)
 220:D:/School/diseratie/SEMS/xmc4800_evaluation_kit/optiga-trust-m/examples\optiga_shell.c ****         {
 221:D:/School/diseratie/SEMS/xmc4800_evaluation_kit/optiga-trust-m/examples\optiga_shell.c ****             break;
 222:D:/School/diseratie/SEMS/xmc4800_evaluation_kit/optiga-trust-m/examples\optiga_shell.c ****         }
 223:D:/School/diseratie/SEMS/xmc4800_evaluation_kit/optiga-trust-m/examples\optiga_shell.c **** 
 224:D:/School/diseratie/SEMS/xmc4800_evaluation_kit/optiga-trust-m/examples\optiga_shell.c ****         while (optiga_lib_status == OPTIGA_LIB_BUSY)
 225:D:/School/diseratie/SEMS/xmc4800_evaluation_kit/optiga-trust-m/examples\optiga_shell.c ****         {
 226:D:/School/diseratie/SEMS/xmc4800_evaluation_kit/optiga-trust-m/examples\optiga_shell.c ****             //Wait until the optiga_util_close_application is completed
 227:D:/School/diseratie/SEMS/xmc4800_evaluation_kit/optiga-trust-m/examples\optiga_shell.c ****         }
 228:D:/School/diseratie/SEMS/xmc4800_evaluation_kit/optiga-trust-m/examples\optiga_shell.c **** 
 229:D:/School/diseratie/SEMS/xmc4800_evaluation_kit/optiga-trust-m/examples\optiga_shell.c ****         if (OPTIGA_LIB_SUCCESS != optiga_lib_status)
 230:D:/School/diseratie/SEMS/xmc4800_evaluation_kit/optiga-trust-m/examples\optiga_shell.c ****         {
 231:D:/School/diseratie/SEMS/xmc4800_evaluation_kit/optiga-trust-m/examples\optiga_shell.c ****             return_status = optiga_lib_status;
 232:D:/School/diseratie/SEMS/xmc4800_evaluation_kit/optiga-trust-m/examples\optiga_shell.c ****             //optiga util close application failed
 233:D:/School/diseratie/SEMS/xmc4800_evaluation_kit/optiga-trust-m/examples\optiga_shell.c ****             break;
 234:D:/School/diseratie/SEMS/xmc4800_evaluation_kit/optiga-trust-m/examples\optiga_shell.c ****         }
 235:D:/School/diseratie/SEMS/xmc4800_evaluation_kit/optiga-trust-m/examples\optiga_shell.c **** 
 236:D:/School/diseratie/SEMS/xmc4800_evaluation_kit/optiga-trust-m/examples\optiga_shell.c ****         READ_PERFORMANCE_MEASUREMENT(time_taken);
 237:D:/School/diseratie/SEMS/xmc4800_evaluation_kit/optiga-trust-m/examples\optiga_shell.c ****         
 238:D:/School/diseratie/SEMS/xmc4800_evaluation_kit/optiga-trust-m/examples\optiga_shell.c ****         // destroy util and crypt instances
 239:D:/School/diseratie/SEMS/xmc4800_evaluation_kit/optiga-trust-m/examples\optiga_shell.c ****         //lint --e{534} suppress "Error handling is not required so return value is not checked"
 240:D:/School/diseratie/SEMS/xmc4800_evaluation_kit/optiga-trust-m/examples\optiga_shell.c ****         optiga_util_destroy(me_util);
 241:D:/School/diseratie/SEMS/xmc4800_evaluation_kit/optiga-trust-m/examples\optiga_shell.c ****         me_util = NULL;
 242:D:/School/diseratie/SEMS/xmc4800_evaluation_kit/optiga-trust-m/examples\optiga_shell.c ****     }while(FALSE);
 243:D:/School/diseratie/SEMS/xmc4800_evaluation_kit/optiga-trust-m/examples\optiga_shell.c ****     OPTIGA_EXAMPLE_LOG_STATUS(return_status);
 244:D:/School/diseratie/SEMS/xmc4800_evaluation_kit/optiga-trust-m/examples\optiga_shell.c ****     OPTIGA_EXAMPLE_LOG_PERFORMANCE_VALUE(time_taken, return_status);
 245:D:/School/diseratie/SEMS/xmc4800_evaluation_kit/optiga-trust-m/examples\optiga_shell.c **** }
 246:D:/School/diseratie/SEMS/xmc4800_evaluation_kit/optiga-trust-m/examples\optiga_shell.c **** 
 247:D:/School/diseratie/SEMS/xmc4800_evaluation_kit/optiga-trust-m/examples\optiga_shell.c **** static void optiga_shell_util_read_data(void)
 248:D:/School/diseratie/SEMS/xmc4800_evaluation_kit/optiga-trust-m/examples\optiga_shell.c **** {
 249:D:/School/diseratie/SEMS/xmc4800_evaluation_kit/optiga-trust-m/examples\optiga_shell.c **** #ifndef OPTIGA_INIT_DEINIT_DONE_EXCLUSIVELY
 250:D:/School/diseratie/SEMS/xmc4800_evaluation_kit/optiga-trust-m/examples\optiga_shell.c ****     OPTIGA_SHELL_LOG_MESSAGE("Initializing OPTIGA for example demonstration...");
 251:D:/School/diseratie/SEMS/xmc4800_evaluation_kit/optiga-trust-m/examples\optiga_shell.c **** #endif
 252:D:/School/diseratie/SEMS/xmc4800_evaluation_kit/optiga-trust-m/examples\optiga_shell.c ****     OPTIGA_SHELL_LOG_MESSAGE("Starting Read Data/Metadata Example");
 253:D:/School/diseratie/SEMS/xmc4800_evaluation_kit/optiga-trust-m/examples\optiga_shell.c ****     OPTIGA_SHELL_LOG_MESSAGE("1 Step: Read Certificate ");
 254:D:/School/diseratie/SEMS/xmc4800_evaluation_kit/optiga-trust-m/examples\optiga_shell.c ****     OPTIGA_SHELL_LOG_MESSAGE("2 Step: Read Certificate Metadata");
 255:D:/School/diseratie/SEMS/xmc4800_evaluation_kit/optiga-trust-m/examples\optiga_shell.c **** #ifndef OPTIGA_INIT_DEINIT_DONE_EXCLUSIVELY
 256:D:/School/diseratie/SEMS/xmc4800_evaluation_kit/optiga-trust-m/examples\optiga_shell.c ****     OPTIGA_SHELL_LOG_MESSAGE("3 Step: Close the application on OPTIGA");
 257:D:/School/diseratie/SEMS/xmc4800_evaluation_kit/optiga-trust-m/examples\optiga_shell.c **** #endif
 258:D:/School/diseratie/SEMS/xmc4800_evaluation_kit/optiga-trust-m/examples\optiga_shell.c ****     example_optiga_util_read_data();
 259:D:/School/diseratie/SEMS/xmc4800_evaluation_kit/optiga-trust-m/examples\optiga_shell.c **** }
 260:D:/School/diseratie/SEMS/xmc4800_evaluation_kit/optiga-trust-m/examples\optiga_shell.c **** 
 261:D:/School/diseratie/SEMS/xmc4800_evaluation_kit/optiga-trust-m/examples\optiga_shell.c **** static void optiga_shell_util_write_data(void)
 262:D:/School/diseratie/SEMS/xmc4800_evaluation_kit/optiga-trust-m/examples\optiga_shell.c **** {
 263:D:/School/diseratie/SEMS/xmc4800_evaluation_kit/optiga-trust-m/examples\optiga_shell.c **** #ifndef OPTIGA_INIT_DEINIT_DONE_EXCLUSIVELY
 264:D:/School/diseratie/SEMS/xmc4800_evaluation_kit/optiga-trust-m/examples\optiga_shell.c ****     OPTIGA_SHELL_LOG_MESSAGE("Initializing OPTIGA for example demonstration...");
 265:D:/School/diseratie/SEMS/xmc4800_evaluation_kit/optiga-trust-m/examples\optiga_shell.c **** #endif
 266:D:/School/diseratie/SEMS/xmc4800_evaluation_kit/optiga-trust-m/examples\optiga_shell.c ****     OPTIGA_SHELL_LOG_MESSAGE("Starting Write Data/Metadata Example");
 267:D:/School/diseratie/SEMS/xmc4800_evaluation_kit/optiga-trust-m/examples\optiga_shell.c ****     OPTIGA_SHELL_LOG_MESSAGE("1 Step: Write Sample Certificate in Trust Anchor Data Object ");
 268:D:/School/diseratie/SEMS/xmc4800_evaluation_kit/optiga-trust-m/examples\optiga_shell.c ****     OPTIGA_SHELL_LOG_MESSAGE("2 Step: Write new Metadata");
 269:D:/School/diseratie/SEMS/xmc4800_evaluation_kit/optiga-trust-m/examples\optiga_shell.c **** #ifndef OPTIGA_INIT_DEINIT_DONE_EXCLUSIVELY
 270:D:/School/diseratie/SEMS/xmc4800_evaluation_kit/optiga-trust-m/examples\optiga_shell.c ****     OPTIGA_SHELL_LOG_MESSAGE("3 Step: Close the application on OPTIGA");
 271:D:/School/diseratie/SEMS/xmc4800_evaluation_kit/optiga-trust-m/examples\optiga_shell.c **** #endif
 272:D:/School/diseratie/SEMS/xmc4800_evaluation_kit/optiga-trust-m/examples\optiga_shell.c ****     example_optiga_util_write_data();
 273:D:/School/diseratie/SEMS/xmc4800_evaluation_kit/optiga-trust-m/examples\optiga_shell.c **** }
 274:D:/School/diseratie/SEMS/xmc4800_evaluation_kit/optiga-trust-m/examples\optiga_shell.c **** 
 275:D:/School/diseratie/SEMS/xmc4800_evaluation_kit/optiga-trust-m/examples\optiga_shell.c **** static void optiga_shell_util_read_coprocessor_id(void)
 276:D:/School/diseratie/SEMS/xmc4800_evaluation_kit/optiga-trust-m/examples\optiga_shell.c **** {
 277:D:/School/diseratie/SEMS/xmc4800_evaluation_kit/optiga-trust-m/examples\optiga_shell.c **** #ifndef OPTIGA_INIT_DEINIT_DONE_EXCLUSIVELY
 278:D:/School/diseratie/SEMS/xmc4800_evaluation_kit/optiga-trust-m/examples\optiga_shell.c ****     OPTIGA_SHELL_LOG_MESSAGE("Initializing OPTIGA for example demonstration...");
 279:D:/School/diseratie/SEMS/xmc4800_evaluation_kit/optiga-trust-m/examples\optiga_shell.c **** #endif
 280:D:/School/diseratie/SEMS/xmc4800_evaluation_kit/optiga-trust-m/examples\optiga_shell.c ****     OPTIGA_SHELL_LOG_MESSAGE("Starting reading of Coprocessor ID and displaying it's individual com
 281:D:/School/diseratie/SEMS/xmc4800_evaluation_kit/optiga-trust-m/examples\optiga_shell.c ****     OPTIGA_SHELL_LOG_MESSAGE("1 Step: Read Coprocessor UID from OID(0xE0C2) ");
 282:D:/School/diseratie/SEMS/xmc4800_evaluation_kit/optiga-trust-m/examples\optiga_shell.c **** #ifndef OPTIGA_INIT_DEINIT_DONE_EXCLUSIVELY
 283:D:/School/diseratie/SEMS/xmc4800_evaluation_kit/optiga-trust-m/examples\optiga_shell.c ****     OPTIGA_SHELL_LOG_MESSAGE("2 Step: Close the application on OPTIGA");
 284:D:/School/diseratie/SEMS/xmc4800_evaluation_kit/optiga-trust-m/examples\optiga_shell.c **** #endif
 285:D:/School/diseratie/SEMS/xmc4800_evaluation_kit/optiga-trust-m/examples\optiga_shell.c ****     example_read_coprocessor_id();
 286:D:/School/diseratie/SEMS/xmc4800_evaluation_kit/optiga-trust-m/examples\optiga_shell.c **** }
 287:D:/School/diseratie/SEMS/xmc4800_evaluation_kit/optiga-trust-m/examples\optiga_shell.c **** #ifdef OPTIGA_COMMS_SHIELDED_CONNECTION 
 288:D:/School/diseratie/SEMS/xmc4800_evaluation_kit/optiga-trust-m/examples\optiga_shell.c **** static void optiga_shell_pair_host_optiga(void)
 289:D:/School/diseratie/SEMS/xmc4800_evaluation_kit/optiga-trust-m/examples\optiga_shell.c **** {
 290:D:/School/diseratie/SEMS/xmc4800_evaluation_kit/optiga-trust-m/examples\optiga_shell.c **** #ifndef OPTIGA_INIT_DEINIT_DONE_EXCLUSIVELY
 291:D:/School/diseratie/SEMS/xmc4800_evaluation_kit/optiga-trust-m/examples\optiga_shell.c ****     OPTIGA_SHELL_LOG_MESSAGE("Initializing OPTIGA for example demonstration...");
 292:D:/School/diseratie/SEMS/xmc4800_evaluation_kit/optiga-trust-m/examples\optiga_shell.c **** #endif
 293:D:/School/diseratie/SEMS/xmc4800_evaluation_kit/optiga-trust-m/examples\optiga_shell.c ****     OPTIGA_SHELL_LOG_MESSAGE("Starting Pairing of Host and Trust M Example");
 294:D:/School/diseratie/SEMS/xmc4800_evaluation_kit/optiga-trust-m/examples\optiga_shell.c ****     OPTIGA_SHELL_LOG_MESSAGE("1 Step: Read and Check existing Metadata for the Binding Secret");
 295:D:/School/diseratie/SEMS/xmc4800_evaluation_kit/optiga-trust-m/examples\optiga_shell.c ****     OPTIGA_SHELL_LOG_MESSAGE("2 Step: Generate Random for the new Binding Secret");
 296:D:/School/diseratie/SEMS/xmc4800_evaluation_kit/optiga-trust-m/examples\optiga_shell.c ****     OPTIGA_SHELL_LOG_MESSAGE("3 Step: Write new Binding Secret");
 297:D:/School/diseratie/SEMS/xmc4800_evaluation_kit/optiga-trust-m/examples\optiga_shell.c ****     OPTIGA_SHELL_LOG_MESSAGE("4 Step: Store new Binding Secret on the Host");
 298:D:/School/diseratie/SEMS/xmc4800_evaluation_kit/optiga-trust-m/examples\optiga_shell.c **** #ifndef OPTIGA_INIT_DEINIT_DONE_EXCLUSIVELY
 299:D:/School/diseratie/SEMS/xmc4800_evaluation_kit/optiga-trust-m/examples\optiga_shell.c ****     OPTIGA_SHELL_LOG_MESSAGE("5 Step: Close the application on OPTIGA");
 300:D:/School/diseratie/SEMS/xmc4800_evaluation_kit/optiga-trust-m/examples\optiga_shell.c **** #endif
 301:D:/School/diseratie/SEMS/xmc4800_evaluation_kit/optiga-trust-m/examples\optiga_shell.c ****     example_pair_host_and_optiga_using_pre_shared_secret();
 302:D:/School/diseratie/SEMS/xmc4800_evaluation_kit/optiga-trust-m/examples\optiga_shell.c **** }
 303:D:/School/diseratie/SEMS/xmc4800_evaluation_kit/optiga-trust-m/examples\optiga_shell.c **** #endif
 304:D:/School/diseratie/SEMS/xmc4800_evaluation_kit/optiga-trust-m/examples\optiga_shell.c **** #if defined (OPTIGA_CRYPT_ECC_GENERATE_KEYPAIR_ENABLED) && defined (OPTIGA_CRYPT_ECDSA_SIGN_ENABLED
 305:D:/School/diseratie/SEMS/xmc4800_evaluation_kit/optiga-trust-m/examples\optiga_shell.c **** static void optiga_shell_util_hibernate_restore(void)
 306:D:/School/diseratie/SEMS/xmc4800_evaluation_kit/optiga-trust-m/examples\optiga_shell.c **** {
 307:D:/School/diseratie/SEMS/xmc4800_evaluation_kit/optiga-trust-m/examples\optiga_shell.c ****     OPTIGA_SHELL_LOG_MESSAGE("Starting Hibernate and Restore Example");
 308:D:/School/diseratie/SEMS/xmc4800_evaluation_kit/optiga-trust-m/examples\optiga_shell.c ****     OPTIGA_SHELL_LOG_MESSAGE("1 Step: Open Application on the security chip");
 309:D:/School/diseratie/SEMS/xmc4800_evaluation_kit/optiga-trust-m/examples\optiga_shell.c ****     OPTIGA_SHELL_LOG_MESSAGE("2 Step: Pair the host and the security chip");
 310:D:/School/diseratie/SEMS/xmc4800_evaluation_kit/optiga-trust-m/examples\optiga_shell.c ****     OPTIGA_SHELL_LOG_MESSAGE("3 Step: Select Protected I2C Connection");
 311:D:/School/diseratie/SEMS/xmc4800_evaluation_kit/optiga-trust-m/examples\optiga_shell.c ****     OPTIGA_SHELL_LOG_MESSAGE("4 Step: Generate ECC NIST P-256 Key pair and store it in Session Data
 312:D:/School/diseratie/SEMS/xmc4800_evaluation_kit/optiga-trust-m/examples\optiga_shell.c ****     OPTIGA_SHELL_LOG_MESSAGE("5 Step: Check Security Event Counter and wait till it reaches 0");
 313:D:/School/diseratie/SEMS/xmc4800_evaluation_kit/optiga-trust-m/examples\optiga_shell.c ****     OPTIGA_SHELL_LOG_MESSAGE("6 Step: Perform Close application with Hibernate parameter set to Tru
 314:D:/School/diseratie/SEMS/xmc4800_evaluation_kit/optiga-trust-m/examples\optiga_shell.c ****     OPTIGA_SHELL_LOG_MESSAGE("7 Step: Open Application on the security chip");
 315:D:/School/diseratie/SEMS/xmc4800_evaluation_kit/optiga-trust-m/examples\optiga_shell.c ****     OPTIGA_SHELL_LOG_MESSAGE("8 Step: Sign prepared data with private key stored in Session Data Ob
 316:D:/School/diseratie/SEMS/xmc4800_evaluation_kit/optiga-trust-m/examples\optiga_shell.c ****     OPTIGA_SHELL_LOG_MESSAGE("9 Step: Verify the signature with the public key generated previously
 317:D:/School/diseratie/SEMS/xmc4800_evaluation_kit/optiga-trust-m/examples\optiga_shell.c ****     OPTIGA_SHELL_LOG_MESSAGE("10 Step: Close Applicaiton on the chip");
 318:D:/School/diseratie/SEMS/xmc4800_evaluation_kit/optiga-trust-m/examples\optiga_shell.c ****     OPTIGA_SHELL_LOG_MESSAGE("Important note: To continue with other examples you need to call the 
 319:D:/School/diseratie/SEMS/xmc4800_evaluation_kit/optiga-trust-m/examples\optiga_shell.c ****     example_optiga_util_hibernate_restore();
 320:D:/School/diseratie/SEMS/xmc4800_evaluation_kit/optiga-trust-m/examples\optiga_shell.c **** }
 321:D:/School/diseratie/SEMS/xmc4800_evaluation_kit/optiga-trust-m/examples\optiga_shell.c **** #endif
 322:D:/School/diseratie/SEMS/xmc4800_evaluation_kit/optiga-trust-m/examples\optiga_shell.c **** 
 323:D:/School/diseratie/SEMS/xmc4800_evaluation_kit/optiga-trust-m/examples\optiga_shell.c **** static void optiga_shell_util_update_count(void)
 324:D:/School/diseratie/SEMS/xmc4800_evaluation_kit/optiga-trust-m/examples\optiga_shell.c **** {
 325:D:/School/diseratie/SEMS/xmc4800_evaluation_kit/optiga-trust-m/examples\optiga_shell.c **** #ifndef OPTIGA_INIT_DEINIT_DONE_EXCLUSIVELY
 326:D:/School/diseratie/SEMS/xmc4800_evaluation_kit/optiga-trust-m/examples\optiga_shell.c ****     OPTIGA_SHELL_LOG_MESSAGE("Initializing OPTIGA for example demonstration...");
 327:D:/School/diseratie/SEMS/xmc4800_evaluation_kit/optiga-trust-m/examples\optiga_shell.c **** #endif
 328:D:/School/diseratie/SEMS/xmc4800_evaluation_kit/optiga-trust-m/examples\optiga_shell.c ****     OPTIGA_SHELL_LOG_MESSAGE("Starting Update Counter Example");
 329:D:/School/diseratie/SEMS/xmc4800_evaluation_kit/optiga-trust-m/examples\optiga_shell.c ****     OPTIGA_SHELL_LOG_MESSAGE("1 Step: Write Initial Counter Value");
 330:D:/School/diseratie/SEMS/xmc4800_evaluation_kit/optiga-trust-m/examples\optiga_shell.c ****     OPTIGA_SHELL_LOG_MESSAGE("2 Step: Increase Counter Object");
 331:D:/School/diseratie/SEMS/xmc4800_evaluation_kit/optiga-trust-m/examples\optiga_shell.c **** #ifndef OPTIGA_INIT_DEINIT_DONE_EXCLUSIVELY
 332:D:/School/diseratie/SEMS/xmc4800_evaluation_kit/optiga-trust-m/examples\optiga_shell.c ****     OPTIGA_SHELL_LOG_MESSAGE("3 Step: Close the application on OPTIGA");
 333:D:/School/diseratie/SEMS/xmc4800_evaluation_kit/optiga-trust-m/examples\optiga_shell.c **** #endif
 334:D:/School/diseratie/SEMS/xmc4800_evaluation_kit/optiga-trust-m/examples\optiga_shell.c ****     example_optiga_util_update_count();
 335:D:/School/diseratie/SEMS/xmc4800_evaluation_kit/optiga-trust-m/examples\optiga_shell.c **** }
 336:D:/School/diseratie/SEMS/xmc4800_evaluation_kit/optiga-trust-m/examples\optiga_shell.c **** 
 337:D:/School/diseratie/SEMS/xmc4800_evaluation_kit/optiga-trust-m/examples\optiga_shell.c **** static void optiga_shell_util_protected_update(void)
 338:D:/School/diseratie/SEMS/xmc4800_evaluation_kit/optiga-trust-m/examples\optiga_shell.c **** {
 339:D:/School/diseratie/SEMS/xmc4800_evaluation_kit/optiga-trust-m/examples\optiga_shell.c **** #ifndef OPTIGA_INIT_DEINIT_DONE_EXCLUSIVELY
 340:D:/School/diseratie/SEMS/xmc4800_evaluation_kit/optiga-trust-m/examples\optiga_shell.c ****     OPTIGA_SHELL_LOG_MESSAGE("Initializing OPTIGA for example demonstration...");
 341:D:/School/diseratie/SEMS/xmc4800_evaluation_kit/optiga-trust-m/examples\optiga_shell.c **** #endif
 342:D:/School/diseratie/SEMS/xmc4800_evaluation_kit/optiga-trust-m/examples\optiga_shell.c ****     OPTIGA_SHELL_LOG_MESSAGE("Starting Protected Update Example");
 343:D:/School/diseratie/SEMS/xmc4800_evaluation_kit/optiga-trust-m/examples\optiga_shell.c ****     OPTIGA_SHELL_LOG_MESSAGE("1 Step: Update Metadata for the Object to be updated and the Trust An
 344:D:/School/diseratie/SEMS/xmc4800_evaluation_kit/optiga-trust-m/examples\optiga_shell.c ****     OPTIGA_SHELL_LOG_MESSAGE("2 Step: Write Trust Anchor used by the Trust M to verify the update")
 345:D:/School/diseratie/SEMS/xmc4800_evaluation_kit/optiga-trust-m/examples\optiga_shell.c ****     OPTIGA_SHELL_LOG_MESSAGE("3 Step: Start Protected update with prepared manifest and fragments")
 346:D:/School/diseratie/SEMS/xmc4800_evaluation_kit/optiga-trust-m/examples\optiga_shell.c **** #ifndef OPTIGA_INIT_DEINIT_DONE_EXCLUSIVELY
 347:D:/School/diseratie/SEMS/xmc4800_evaluation_kit/optiga-trust-m/examples\optiga_shell.c ****     OPTIGA_SHELL_LOG_MESSAGE("4 Step: Close the application on OPTIGA");
 348:D:/School/diseratie/SEMS/xmc4800_evaluation_kit/optiga-trust-m/examples\optiga_shell.c **** #endif
 349:D:/School/diseratie/SEMS/xmc4800_evaluation_kit/optiga-trust-m/examples\optiga_shell.c ****     example_optiga_util_protected_update();
 350:D:/School/diseratie/SEMS/xmc4800_evaluation_kit/optiga-trust-m/examples\optiga_shell.c **** }
 351:D:/School/diseratie/SEMS/xmc4800_evaluation_kit/optiga-trust-m/examples\optiga_shell.c **** 
 352:D:/School/diseratie/SEMS/xmc4800_evaluation_kit/optiga-trust-m/examples\optiga_shell.c **** #ifdef OPTIGA_CRYPT_HASH_ENABLED
 353:D:/School/diseratie/SEMS/xmc4800_evaluation_kit/optiga-trust-m/examples\optiga_shell.c **** static void optiga_shell_crypt_hash(void)
 354:D:/School/diseratie/SEMS/xmc4800_evaluation_kit/optiga-trust-m/examples\optiga_shell.c **** {
 355:D:/School/diseratie/SEMS/xmc4800_evaluation_kit/optiga-trust-m/examples\optiga_shell.c **** #ifndef OPTIGA_INIT_DEINIT_DONE_EXCLUSIVELY
 356:D:/School/diseratie/SEMS/xmc4800_evaluation_kit/optiga-trust-m/examples\optiga_shell.c ****     OPTIGA_SHELL_LOG_MESSAGE("Initializing OPTIGA for example demonstration...");
 357:D:/School/diseratie/SEMS/xmc4800_evaluation_kit/optiga-trust-m/examples\optiga_shell.c **** #endif
 358:D:/School/diseratie/SEMS/xmc4800_evaluation_kit/optiga-trust-m/examples\optiga_shell.c ****     OPTIGA_SHELL_LOG_MESSAGE("Starting Hash Example");
 359:D:/School/diseratie/SEMS/xmc4800_evaluation_kit/optiga-trust-m/examples\optiga_shell.c ****     OPTIGA_SHELL_LOG_MESSAGE("1 Step: Hash given data with Start, Update and Finalize calls");
 360:D:/School/diseratie/SEMS/xmc4800_evaluation_kit/optiga-trust-m/examples\optiga_shell.c **** #ifndef OPTIGA_INIT_DEINIT_DONE_EXCLUSIVELY
 361:D:/School/diseratie/SEMS/xmc4800_evaluation_kit/optiga-trust-m/examples\optiga_shell.c ****     OPTIGA_SHELL_LOG_MESSAGE("2 Step: Close the application on OPTIGA");
 362:D:/School/diseratie/SEMS/xmc4800_evaluation_kit/optiga-trust-m/examples\optiga_shell.c **** #endif
 363:D:/School/diseratie/SEMS/xmc4800_evaluation_kit/optiga-trust-m/examples\optiga_shell.c ****     example_optiga_crypt_hash();
 364:D:/School/diseratie/SEMS/xmc4800_evaluation_kit/optiga-trust-m/examples\optiga_shell.c **** }
 365:D:/School/diseratie/SEMS/xmc4800_evaluation_kit/optiga-trust-m/examples\optiga_shell.c **** 
 366:D:/School/diseratie/SEMS/xmc4800_evaluation_kit/optiga-trust-m/examples\optiga_shell.c **** static void optiga_shell_crypt_hash_data(void)
 367:D:/School/diseratie/SEMS/xmc4800_evaluation_kit/optiga-trust-m/examples\optiga_shell.c **** {
 368:D:/School/diseratie/SEMS/xmc4800_evaluation_kit/optiga-trust-m/examples\optiga_shell.c **** #ifndef OPTIGA_INIT_DEINIT_DONE_EXCLUSIVELY
 369:D:/School/diseratie/SEMS/xmc4800_evaluation_kit/optiga-trust-m/examples\optiga_shell.c ****     OPTIGA_SHELL_LOG_MESSAGE("Initializing OPTIGA for example demonstration...");
 370:D:/School/diseratie/SEMS/xmc4800_evaluation_kit/optiga-trust-m/examples\optiga_shell.c **** #endif
 371:D:/School/diseratie/SEMS/xmc4800_evaluation_kit/optiga-trust-m/examples\optiga_shell.c ****     OPTIGA_SHELL_LOG_MESSAGE("Starting generation of digest Example");
 372:D:/School/diseratie/SEMS/xmc4800_evaluation_kit/optiga-trust-m/examples\optiga_shell.c ****     OPTIGA_SHELL_LOG_MESSAGE("1 Step: Generate hash of given user data ");
 373:D:/School/diseratie/SEMS/xmc4800_evaluation_kit/optiga-trust-m/examples\optiga_shell.c **** #ifndef OPTIGA_INIT_DEINIT_DONE_EXCLUSIVELY
 374:D:/School/diseratie/SEMS/xmc4800_evaluation_kit/optiga-trust-m/examples\optiga_shell.c ****     OPTIGA_SHELL_LOG_MESSAGE("2 Step: Close the application on OPTIGA");
 375:D:/School/diseratie/SEMS/xmc4800_evaluation_kit/optiga-trust-m/examples\optiga_shell.c **** #endif
 376:D:/School/diseratie/SEMS/xmc4800_evaluation_kit/optiga-trust-m/examples\optiga_shell.c ****     example_optiga_crypt_hash_data();
 377:D:/School/diseratie/SEMS/xmc4800_evaluation_kit/optiga-trust-m/examples\optiga_shell.c **** }
 378:D:/School/diseratie/SEMS/xmc4800_evaluation_kit/optiga-trust-m/examples\optiga_shell.c **** #endif
 379:D:/School/diseratie/SEMS/xmc4800_evaluation_kit/optiga-trust-m/examples\optiga_shell.c **** 
 380:D:/School/diseratie/SEMS/xmc4800_evaluation_kit/optiga-trust-m/examples\optiga_shell.c **** #ifdef OPTIGA_CRYPT_TLS_PRF_SHA256_ENABLED
 381:D:/School/diseratie/SEMS/xmc4800_evaluation_kit/optiga-trust-m/examples\optiga_shell.c **** static void optiga_shell_crypt_tls_prf_sha256(void)
 382:D:/School/diseratie/SEMS/xmc4800_evaluation_kit/optiga-trust-m/examples\optiga_shell.c **** {
 383:D:/School/diseratie/SEMS/xmc4800_evaluation_kit/optiga-trust-m/examples\optiga_shell.c **** #ifndef OPTIGA_INIT_DEINIT_DONE_EXCLUSIVELY
 384:D:/School/diseratie/SEMS/xmc4800_evaluation_kit/optiga-trust-m/examples\optiga_shell.c ****     OPTIGA_SHELL_LOG_MESSAGE("Initializing OPTIGA for example demonstration...");
 385:D:/School/diseratie/SEMS/xmc4800_evaluation_kit/optiga-trust-m/examples\optiga_shell.c **** #endif
 386:D:/School/diseratie/SEMS/xmc4800_evaluation_kit/optiga-trust-m/examples\optiga_shell.c ****     OPTIGA_SHELL_LOG_MESSAGE("Starting TLS PRF SHA256 (Key Deriviation) Example");
 387:D:/School/diseratie/SEMS/xmc4800_evaluation_kit/optiga-trust-m/examples\optiga_shell.c ****     OPTIGA_SHELL_LOG_MESSAGE("1 Step: Write prepared Shared Secret into an Arbitrary Data Object");
 388:D:/School/diseratie/SEMS/xmc4800_evaluation_kit/optiga-trust-m/examples\optiga_shell.c ****     OPTIGA_SHELL_LOG_MESSAGE("2 Step: Update Metadata of the Object to use the Arbitrary Data Objec
 389:D:/School/diseratie/SEMS/xmc4800_evaluation_kit/optiga-trust-m/examples\optiga_shell.c ****     OPTIGA_SHELL_LOG_MESSAGE("3 Step: Generate Shared Secret using the Shared Secret from the Arbit
 390:D:/School/diseratie/SEMS/xmc4800_evaluation_kit/optiga-trust-m/examples\optiga_shell.c ****     OPTIGA_SHELL_LOG_MESSAGE("4 Step: Restore Metadata of the Arbitrary Data Object");
 391:D:/School/diseratie/SEMS/xmc4800_evaluation_kit/optiga-trust-m/examples\optiga_shell.c **** #ifndef OPTIGA_INIT_DEINIT_DONE_EXCLUSIVELY
 392:D:/School/diseratie/SEMS/xmc4800_evaluation_kit/optiga-trust-m/examples\optiga_shell.c ****     OPTIGA_SHELL_LOG_MESSAGE("5 Step: Close the application on OPTIGA");
 393:D:/School/diseratie/SEMS/xmc4800_evaluation_kit/optiga-trust-m/examples\optiga_shell.c **** #endif
 394:D:/School/diseratie/SEMS/xmc4800_evaluation_kit/optiga-trust-m/examples\optiga_shell.c ****     example_optiga_crypt_tls_prf_sha256();
 395:D:/School/diseratie/SEMS/xmc4800_evaluation_kit/optiga-trust-m/examples\optiga_shell.c **** }
 396:D:/School/diseratie/SEMS/xmc4800_evaluation_kit/optiga-trust-m/examples\optiga_shell.c **** #endif
 397:D:/School/diseratie/SEMS/xmc4800_evaluation_kit/optiga-trust-m/examples\optiga_shell.c **** 
 398:D:/School/diseratie/SEMS/xmc4800_evaluation_kit/optiga-trust-m/examples\optiga_shell.c **** #ifdef OPTIGA_CRYPT_RANDOM_ENABLED
 399:D:/School/diseratie/SEMS/xmc4800_evaluation_kit/optiga-trust-m/examples\optiga_shell.c **** static void optiga_shell_crypt_random(void)
 400:D:/School/diseratie/SEMS/xmc4800_evaluation_kit/optiga-trust-m/examples\optiga_shell.c **** {
 401:D:/School/diseratie/SEMS/xmc4800_evaluation_kit/optiga-trust-m/examples\optiga_shell.c **** #ifndef OPTIGA_INIT_DEINIT_DONE_EXCLUSIVELY
 402:D:/School/diseratie/SEMS/xmc4800_evaluation_kit/optiga-trust-m/examples\optiga_shell.c ****     OPTIGA_SHELL_LOG_MESSAGE("Initializing OPTIGA for example demonstration...");
 403:D:/School/diseratie/SEMS/xmc4800_evaluation_kit/optiga-trust-m/examples\optiga_shell.c **** #endif
 404:D:/School/diseratie/SEMS/xmc4800_evaluation_kit/optiga-trust-m/examples\optiga_shell.c ****     OPTIGA_SHELL_LOG_MESSAGE("Starting Generate Random Example");
 405:D:/School/diseratie/SEMS/xmc4800_evaluation_kit/optiga-trust-m/examples\optiga_shell.c ****     OPTIGA_SHELL_LOG_MESSAGE("1 Step: Generate 32 bytes random");
 406:D:/School/diseratie/SEMS/xmc4800_evaluation_kit/optiga-trust-m/examples\optiga_shell.c **** #ifndef OPTIGA_INIT_DEINIT_DONE_EXCLUSIVELY
 407:D:/School/diseratie/SEMS/xmc4800_evaluation_kit/optiga-trust-m/examples\optiga_shell.c ****     OPTIGA_SHELL_LOG_MESSAGE("2 Step: Close the application on OPTIGA");
 408:D:/School/diseratie/SEMS/xmc4800_evaluation_kit/optiga-trust-m/examples\optiga_shell.c **** #endif
 409:D:/School/diseratie/SEMS/xmc4800_evaluation_kit/optiga-trust-m/examples\optiga_shell.c ****     example_optiga_crypt_random();
 410:D:/School/diseratie/SEMS/xmc4800_evaluation_kit/optiga-trust-m/examples\optiga_shell.c **** }
 411:D:/School/diseratie/SEMS/xmc4800_evaluation_kit/optiga-trust-m/examples\optiga_shell.c **** #endif
 412:D:/School/diseratie/SEMS/xmc4800_evaluation_kit/optiga-trust-m/examples\optiga_shell.c **** 
 413:D:/School/diseratie/SEMS/xmc4800_evaluation_kit/optiga-trust-m/examples\optiga_shell.c **** #ifdef OPTIGA_CRYPT_ECC_GENERATE_KEYPAIR_ENABLED
 414:D:/School/diseratie/SEMS/xmc4800_evaluation_kit/optiga-trust-m/examples\optiga_shell.c **** static void optiga_shell_crypt_ecc_generate_keypair(void)
 415:D:/School/diseratie/SEMS/xmc4800_evaluation_kit/optiga-trust-m/examples\optiga_shell.c **** {
 416:D:/School/diseratie/SEMS/xmc4800_evaluation_kit/optiga-trust-m/examples\optiga_shell.c **** #ifndef OPTIGA_INIT_DEINIT_DONE_EXCLUSIVELY
 417:D:/School/diseratie/SEMS/xmc4800_evaluation_kit/optiga-trust-m/examples\optiga_shell.c ****     OPTIGA_SHELL_LOG_MESSAGE("Initializing OPTIGA for example demonstration...");
 418:D:/School/diseratie/SEMS/xmc4800_evaluation_kit/optiga-trust-m/examples\optiga_shell.c **** #endif
 419:D:/School/diseratie/SEMS/xmc4800_evaluation_kit/optiga-trust-m/examples\optiga_shell.c ****     OPTIGA_SHELL_LOG_MESSAGE("Starting generate ECC Key Example");
 420:D:/School/diseratie/SEMS/xmc4800_evaluation_kit/optiga-trust-m/examples\optiga_shell.c ****     OPTIGA_SHELL_LOG_MESSAGE("1 Step: Generate ECC NIST P-256 Key Pair and export the public key");
 421:D:/School/diseratie/SEMS/xmc4800_evaluation_kit/optiga-trust-m/examples\optiga_shell.c **** #ifndef OPTIGA_INIT_DEINIT_DONE_EXCLUSIVELY
 422:D:/School/diseratie/SEMS/xmc4800_evaluation_kit/optiga-trust-m/examples\optiga_shell.c ****     OPTIGA_SHELL_LOG_MESSAGE("2 Step: Close the application on OPTIGA");
 423:D:/School/diseratie/SEMS/xmc4800_evaluation_kit/optiga-trust-m/examples\optiga_shell.c **** #endif
 424:D:/School/diseratie/SEMS/xmc4800_evaluation_kit/optiga-trust-m/examples\optiga_shell.c ****     example_optiga_crypt_ecc_generate_keypair();
 425:D:/School/diseratie/SEMS/xmc4800_evaluation_kit/optiga-trust-m/examples\optiga_shell.c **** }
 426:D:/School/diseratie/SEMS/xmc4800_evaluation_kit/optiga-trust-m/examples\optiga_shell.c **** #endif
 427:D:/School/diseratie/SEMS/xmc4800_evaluation_kit/optiga-trust-m/examples\optiga_shell.c **** 
 428:D:/School/diseratie/SEMS/xmc4800_evaluation_kit/optiga-trust-m/examples\optiga_shell.c **** #ifdef OPTIGA_CRYPT_ECDH_ENABLED
 429:D:/School/diseratie/SEMS/xmc4800_evaluation_kit/optiga-trust-m/examples\optiga_shell.c **** static void optiga_shell_crypt_ecdh(void)
 430:D:/School/diseratie/SEMS/xmc4800_evaluation_kit/optiga-trust-m/examples\optiga_shell.c **** {
 431:D:/School/diseratie/SEMS/xmc4800_evaluation_kit/optiga-trust-m/examples\optiga_shell.c **** #ifndef OPTIGA_INIT_DEINIT_DONE_EXCLUSIVELY
 432:D:/School/diseratie/SEMS/xmc4800_evaluation_kit/optiga-trust-m/examples\optiga_shell.c ****     OPTIGA_SHELL_LOG_MESSAGE("Initializing OPTIGA for example demonstration...");
 433:D:/School/diseratie/SEMS/xmc4800_evaluation_kit/optiga-trust-m/examples\optiga_shell.c **** #endif
 434:D:/School/diseratie/SEMS/xmc4800_evaluation_kit/optiga-trust-m/examples\optiga_shell.c ****     OPTIGA_SHELL_LOG_MESSAGE("Starting Elliptic-curve DiffieHellman (ECDH) Key Agreement Protoco
 435:D:/School/diseratie/SEMS/xmc4800_evaluation_kit/optiga-trust-m/examples\optiga_shell.c ****     OPTIGA_SHELL_LOG_MESSAGE("1 Step: Select Protected I2C Connection");
 436:D:/School/diseratie/SEMS/xmc4800_evaluation_kit/optiga-trust-m/examples\optiga_shell.c ****     OPTIGA_SHELL_LOG_MESSAGE("2 Step: Generate new ECC NIST P-256 Key Pair");
 437:D:/School/diseratie/SEMS/xmc4800_evaluation_kit/optiga-trust-m/examples\optiga_shell.c ****     OPTIGA_SHELL_LOG_MESSAGE("3 Step: Select Protected I2C Connection");
 438:D:/School/diseratie/SEMS/xmc4800_evaluation_kit/optiga-trust-m/examples\optiga_shell.c ****     OPTIGA_SHELL_LOG_MESSAGE("4 Step: Generate Shared Secret and export it");
 439:D:/School/diseratie/SEMS/xmc4800_evaluation_kit/optiga-trust-m/examples\optiga_shell.c **** #ifndef OPTIGA_INIT_DEINIT_DONE_EXCLUSIVELY
 440:D:/School/diseratie/SEMS/xmc4800_evaluation_kit/optiga-trust-m/examples\optiga_shell.c ****     OPTIGA_SHELL_LOG_MESSAGE("5 Step: Close the application on OPTIGA");
 441:D:/School/diseratie/SEMS/xmc4800_evaluation_kit/optiga-trust-m/examples\optiga_shell.c **** #endif
 442:D:/School/diseratie/SEMS/xmc4800_evaluation_kit/optiga-trust-m/examples\optiga_shell.c ****     example_optiga_crypt_ecdh();
 443:D:/School/diseratie/SEMS/xmc4800_evaluation_kit/optiga-trust-m/examples\optiga_shell.c **** }
 444:D:/School/diseratie/SEMS/xmc4800_evaluation_kit/optiga-trust-m/examples\optiga_shell.c **** #endif
 445:D:/School/diseratie/SEMS/xmc4800_evaluation_kit/optiga-trust-m/examples\optiga_shell.c **** 
 446:D:/School/diseratie/SEMS/xmc4800_evaluation_kit/optiga-trust-m/examples\optiga_shell.c **** #ifdef OPTIGA_CRYPT_ECDSA_SIGN_ENABLED
 447:D:/School/diseratie/SEMS/xmc4800_evaluation_kit/optiga-trust-m/examples\optiga_shell.c **** static void optiga_shell_crypt_ecdsa_sign(void)
 448:D:/School/diseratie/SEMS/xmc4800_evaluation_kit/optiga-trust-m/examples\optiga_shell.c **** {
 449:D:/School/diseratie/SEMS/xmc4800_evaluation_kit/optiga-trust-m/examples\optiga_shell.c **** #ifndef OPTIGA_INIT_DEINIT_DONE_EXCLUSIVELY
 450:D:/School/diseratie/SEMS/xmc4800_evaluation_kit/optiga-trust-m/examples\optiga_shell.c ****     OPTIGA_SHELL_LOG_MESSAGE("Initializing OPTIGA for example demonstration...");
 451:D:/School/diseratie/SEMS/xmc4800_evaluation_kit/optiga-trust-m/examples\optiga_shell.c **** #endif
 452:D:/School/diseratie/SEMS/xmc4800_evaluation_kit/optiga-trust-m/examples\optiga_shell.c ****     OPTIGA_SHELL_LOG_MESSAGE("Starting signing example for Elliptic-curve Digital Signature Algorit
 453:D:/School/diseratie/SEMS/xmc4800_evaluation_kit/optiga-trust-m/examples\optiga_shell.c ****     OPTIGA_SHELL_LOG_MESSAGE("1 Step: Sign prepared Data and export the signature");
 454:D:/School/diseratie/SEMS/xmc4800_evaluation_kit/optiga-trust-m/examples\optiga_shell.c **** #ifndef OPTIGA_INIT_DEINIT_DONE_EXCLUSIVELY
 455:D:/School/diseratie/SEMS/xmc4800_evaluation_kit/optiga-trust-m/examples\optiga_shell.c ****     OPTIGA_SHELL_LOG_MESSAGE("2 Step: Close the application on OPTIGA");
 456:D:/School/diseratie/SEMS/xmc4800_evaluation_kit/optiga-trust-m/examples\optiga_shell.c **** #endif
 457:D:/School/diseratie/SEMS/xmc4800_evaluation_kit/optiga-trust-m/examples\optiga_shell.c ****     example_optiga_crypt_ecdsa_sign();
 458:D:/School/diseratie/SEMS/xmc4800_evaluation_kit/optiga-trust-m/examples\optiga_shell.c **** }
 459:D:/School/diseratie/SEMS/xmc4800_evaluation_kit/optiga-trust-m/examples\optiga_shell.c **** #endif
 460:D:/School/diseratie/SEMS/xmc4800_evaluation_kit/optiga-trust-m/examples\optiga_shell.c **** 
 461:D:/School/diseratie/SEMS/xmc4800_evaluation_kit/optiga-trust-m/examples\optiga_shell.c **** #ifdef OPTIGA_CRYPT_ECDSA_VERIFY_ENABLED
 462:D:/School/diseratie/SEMS/xmc4800_evaluation_kit/optiga-trust-m/examples\optiga_shell.c **** static void optiga_shell_crypt_ecdsa_verify(void)
 463:D:/School/diseratie/SEMS/xmc4800_evaluation_kit/optiga-trust-m/examples\optiga_shell.c **** {
 464:D:/School/diseratie/SEMS/xmc4800_evaluation_kit/optiga-trust-m/examples\optiga_shell.c **** #ifndef OPTIGA_INIT_DEINIT_DONE_EXCLUSIVELY
 465:D:/School/diseratie/SEMS/xmc4800_evaluation_kit/optiga-trust-m/examples\optiga_shell.c ****     OPTIGA_SHELL_LOG_MESSAGE("Initializing OPTIGA for example demonstration...");
 466:D:/School/diseratie/SEMS/xmc4800_evaluation_kit/optiga-trust-m/examples\optiga_shell.c **** #endif
 467:D:/School/diseratie/SEMS/xmc4800_evaluation_kit/optiga-trust-m/examples\optiga_shell.c ****     OPTIGA_SHELL_LOG_MESSAGE("Starting verification example for Elliptic-curve Digital Signature Al
 468:D:/School/diseratie/SEMS/xmc4800_evaluation_kit/optiga-trust-m/examples\optiga_shell.c ****     OPTIGA_SHELL_LOG_MESSAGE("1 Step: Verify prepared signature, with prepared public key and diges
 469:D:/School/diseratie/SEMS/xmc4800_evaluation_kit/optiga-trust-m/examples\optiga_shell.c **** #ifndef OPTIGA_INIT_DEINIT_DONE_EXCLUSIVELY
 470:D:/School/diseratie/SEMS/xmc4800_evaluation_kit/optiga-trust-m/examples\optiga_shell.c ****     OPTIGA_SHELL_LOG_MESSAGE("2 Step: Close the application on OPTIGA");
 471:D:/School/diseratie/SEMS/xmc4800_evaluation_kit/optiga-trust-m/examples\optiga_shell.c **** #endif
 472:D:/School/diseratie/SEMS/xmc4800_evaluation_kit/optiga-trust-m/examples\optiga_shell.c ****     example_optiga_crypt_ecdsa_verify();
 473:D:/School/diseratie/SEMS/xmc4800_evaluation_kit/optiga-trust-m/examples\optiga_shell.c **** }
 474:D:/School/diseratie/SEMS/xmc4800_evaluation_kit/optiga-trust-m/examples\optiga_shell.c **** #endif
 475:D:/School/diseratie/SEMS/xmc4800_evaluation_kit/optiga-trust-m/examples\optiga_shell.c **** 
 476:D:/School/diseratie/SEMS/xmc4800_evaluation_kit/optiga-trust-m/examples\optiga_shell.c **** #ifdef OPTIGA_CRYPT_RSA_SIGN_ENABLED
 477:D:/School/diseratie/SEMS/xmc4800_evaluation_kit/optiga-trust-m/examples\optiga_shell.c **** static void optiga_shell_crypt_rsa_sign(void)
 478:D:/School/diseratie/SEMS/xmc4800_evaluation_kit/optiga-trust-m/examples\optiga_shell.c **** {
 479:D:/School/diseratie/SEMS/xmc4800_evaluation_kit/optiga-trust-m/examples\optiga_shell.c **** #ifndef OPTIGA_INIT_DEINIT_DONE_EXCLUSIVELY
 480:D:/School/diseratie/SEMS/xmc4800_evaluation_kit/optiga-trust-m/examples\optiga_shell.c ****     OPTIGA_SHELL_LOG_MESSAGE("Initializing OPTIGA for example demonstration...");
 481:D:/School/diseratie/SEMS/xmc4800_evaluation_kit/optiga-trust-m/examples\optiga_shell.c **** #endif
 482:D:/School/diseratie/SEMS/xmc4800_evaluation_kit/optiga-trust-m/examples\optiga_shell.c ****     OPTIGA_SHELL_LOG_MESSAGE("Starting signing example for PKCS#1 Ver1.5 SHA256 Signature scheme (R
 483:D:/School/diseratie/SEMS/xmc4800_evaluation_kit/optiga-trust-m/examples\optiga_shell.c ****     OPTIGA_SHELL_LOG_MESSAGE("1 Step: Sign prepared Data and export the signature");
 484:D:/School/diseratie/SEMS/xmc4800_evaluation_kit/optiga-trust-m/examples\optiga_shell.c **** #ifndef OPTIGA_INIT_DEINIT_DONE_EXCLUSIVELY
 485:D:/School/diseratie/SEMS/xmc4800_evaluation_kit/optiga-trust-m/examples\optiga_shell.c ****     OPTIGA_SHELL_LOG_MESSAGE("2 Step: Close the application on OPTIGA");
 486:D:/School/diseratie/SEMS/xmc4800_evaluation_kit/optiga-trust-m/examples\optiga_shell.c **** #endif
 487:D:/School/diseratie/SEMS/xmc4800_evaluation_kit/optiga-trust-m/examples\optiga_shell.c ****     example_optiga_crypt_rsa_sign();
 488:D:/School/diseratie/SEMS/xmc4800_evaluation_kit/optiga-trust-m/examples\optiga_shell.c **** }
 489:D:/School/diseratie/SEMS/xmc4800_evaluation_kit/optiga-trust-m/examples\optiga_shell.c **** #endif
 490:D:/School/diseratie/SEMS/xmc4800_evaluation_kit/optiga-trust-m/examples\optiga_shell.c **** 
 491:D:/School/diseratie/SEMS/xmc4800_evaluation_kit/optiga-trust-m/examples\optiga_shell.c **** #ifdef OPTIGA_CRYPT_RSA_VERIFY_ENABLED
 492:D:/School/diseratie/SEMS/xmc4800_evaluation_kit/optiga-trust-m/examples\optiga_shell.c **** static void optiga_shell_crypt_rsa_verify(void)
 493:D:/School/diseratie/SEMS/xmc4800_evaluation_kit/optiga-trust-m/examples\optiga_shell.c **** {
 494:D:/School/diseratie/SEMS/xmc4800_evaluation_kit/optiga-trust-m/examples\optiga_shell.c **** #ifndef OPTIGA_INIT_DEINIT_DONE_EXCLUSIVELY
 495:D:/School/diseratie/SEMS/xmc4800_evaluation_kit/optiga-trust-m/examples\optiga_shell.c ****     OPTIGA_SHELL_LOG_MESSAGE("Initializing OPTIGA for example demonstration...");
 496:D:/School/diseratie/SEMS/xmc4800_evaluation_kit/optiga-trust-m/examples\optiga_shell.c **** #endif
 497:D:/School/diseratie/SEMS/xmc4800_evaluation_kit/optiga-trust-m/examples\optiga_shell.c ****     OPTIGA_SHELL_LOG_MESSAGE("Starting signing example for PKCS#1 Ver1.5 SHA256 Signature scheme (R
 498:D:/School/diseratie/SEMS/xmc4800_evaluation_kit/optiga-trust-m/examples\optiga_shell.c ****     OPTIGA_SHELL_LOG_MESSAGE("1 Step: Verify prepared signature, with prepared public key and diges
 499:D:/School/diseratie/SEMS/xmc4800_evaluation_kit/optiga-trust-m/examples\optiga_shell.c **** #ifndef OPTIGA_INIT_DEINIT_DONE_EXCLUSIVELY
 500:D:/School/diseratie/SEMS/xmc4800_evaluation_kit/optiga-trust-m/examples\optiga_shell.c ****     OPTIGA_SHELL_LOG_MESSAGE("2 Step: Close the application on OPTIGA");
 501:D:/School/diseratie/SEMS/xmc4800_evaluation_kit/optiga-trust-m/examples\optiga_shell.c **** #endif
 502:D:/School/diseratie/SEMS/xmc4800_evaluation_kit/optiga-trust-m/examples\optiga_shell.c ****     example_optiga_crypt_rsa_verify();
 503:D:/School/diseratie/SEMS/xmc4800_evaluation_kit/optiga-trust-m/examples\optiga_shell.c **** }
 504:D:/School/diseratie/SEMS/xmc4800_evaluation_kit/optiga-trust-m/examples\optiga_shell.c **** #endif
 505:D:/School/diseratie/SEMS/xmc4800_evaluation_kit/optiga-trust-m/examples\optiga_shell.c **** 
 506:D:/School/diseratie/SEMS/xmc4800_evaluation_kit/optiga-trust-m/examples\optiga_shell.c **** #ifdef OPTIGA_CRYPT_RSA_GENERATE_KEYPAIR_ENABLED
 507:D:/School/diseratie/SEMS/xmc4800_evaluation_kit/optiga-trust-m/examples\optiga_shell.c **** static void optiga_shell_crypt_rsa_generate_keypair(void)
 508:D:/School/diseratie/SEMS/xmc4800_evaluation_kit/optiga-trust-m/examples\optiga_shell.c **** {
 509:D:/School/diseratie/SEMS/xmc4800_evaluation_kit/optiga-trust-m/examples\optiga_shell.c **** #ifndef OPTIGA_INIT_DEINIT_DONE_EXCLUSIVELY
 510:D:/School/diseratie/SEMS/xmc4800_evaluation_kit/optiga-trust-m/examples\optiga_shell.c ****     OPTIGA_SHELL_LOG_MESSAGE("Initializing OPTIGA for example demonstration...");
 511:D:/School/diseratie/SEMS/xmc4800_evaluation_kit/optiga-trust-m/examples\optiga_shell.c **** #endif
 512:D:/School/diseratie/SEMS/xmc4800_evaluation_kit/optiga-trust-m/examples\optiga_shell.c ****     OPTIGA_SHELL_LOG_MESSAGE("Starting generate RSA Key Example");
 513:D:/School/diseratie/SEMS/xmc4800_evaluation_kit/optiga-trust-m/examples\optiga_shell.c ****     OPTIGA_SHELL_LOG_MESSAGE("1 Step: Generate RSA 1024 Key Pair and export the public key");
 514:D:/School/diseratie/SEMS/xmc4800_evaluation_kit/optiga-trust-m/examples\optiga_shell.c **** #ifndef OPTIGA_INIT_DEINIT_DONE_EXCLUSIVELY
 515:D:/School/diseratie/SEMS/xmc4800_evaluation_kit/optiga-trust-m/examples\optiga_shell.c ****     OPTIGA_SHELL_LOG_MESSAGE("2 Step: Close the application on OPTIGA");
 516:D:/School/diseratie/SEMS/xmc4800_evaluation_kit/optiga-trust-m/examples\optiga_shell.c **** #endif
 517:D:/School/diseratie/SEMS/xmc4800_evaluation_kit/optiga-trust-m/examples\optiga_shell.c ****     example_optiga_crypt_rsa_generate_keypair();
 518:D:/School/diseratie/SEMS/xmc4800_evaluation_kit/optiga-trust-m/examples\optiga_shell.c **** }
 519:D:/School/diseratie/SEMS/xmc4800_evaluation_kit/optiga-trust-m/examples\optiga_shell.c **** #endif
 520:D:/School/diseratie/SEMS/xmc4800_evaluation_kit/optiga-trust-m/examples\optiga_shell.c **** 
 521:D:/School/diseratie/SEMS/xmc4800_evaluation_kit/optiga-trust-m/examples\optiga_shell.c **** #ifdef OPTIGA_CRYPT_RSA_DECRYPT_ENABLED
 522:D:/School/diseratie/SEMS/xmc4800_evaluation_kit/optiga-trust-m/examples\optiga_shell.c **** static void optiga_shell_crypt_rsa_decrypt_and_export(void)
 523:D:/School/diseratie/SEMS/xmc4800_evaluation_kit/optiga-trust-m/examples\optiga_shell.c **** {
 524:D:/School/diseratie/SEMS/xmc4800_evaluation_kit/optiga-trust-m/examples\optiga_shell.c **** #ifndef OPTIGA_INIT_DEINIT_DONE_EXCLUSIVELY
 525:D:/School/diseratie/SEMS/xmc4800_evaluation_kit/optiga-trust-m/examples\optiga_shell.c ****     OPTIGA_SHELL_LOG_MESSAGE("Initializing OPTIGA for example demonstration...");
 526:D:/School/diseratie/SEMS/xmc4800_evaluation_kit/optiga-trust-m/examples\optiga_shell.c **** #endif
 527:D:/School/diseratie/SEMS/xmc4800_evaluation_kit/optiga-trust-m/examples\optiga_shell.c ****     OPTIGA_SHELL_LOG_MESSAGE("Starting Decrypt and Export Data with RSA Key Example");
 528:D:/School/diseratie/SEMS/xmc4800_evaluation_kit/optiga-trust-m/examples\optiga_shell.c ****     OPTIGA_SHELL_LOG_MESSAGE("1 Step: Generate RSA 1024 Key Pair and export the public key");
 529:D:/School/diseratie/SEMS/xmc4800_evaluation_kit/optiga-trust-m/examples\optiga_shell.c ****     OPTIGA_SHELL_LOG_MESSAGE("2 Step: Encrypt a message with RSAES PKCS#1 Ver1.5 Scheme");
 530:D:/School/diseratie/SEMS/xmc4800_evaluation_kit/optiga-trust-m/examples\optiga_shell.c ****     OPTIGA_SHELL_LOG_MESSAGE("3 Step: Select Protected I2C Connection");
 531:D:/School/diseratie/SEMS/xmc4800_evaluation_kit/optiga-trust-m/examples\optiga_shell.c ****     OPTIGA_SHELL_LOG_MESSAGE("4 Step: Decrypt the message with RSAES PKCS#1 Ver1.5 Scheme and expor
 532:D:/School/diseratie/SEMS/xmc4800_evaluation_kit/optiga-trust-m/examples\optiga_shell.c **** #ifndef OPTIGA_INIT_DEINIT_DONE_EXCLUSIVELY
 533:D:/School/diseratie/SEMS/xmc4800_evaluation_kit/optiga-trust-m/examples\optiga_shell.c ****     OPTIGA_SHELL_LOG_MESSAGE("5 Step: Close the application on OPTIGA");
 534:D:/School/diseratie/SEMS/xmc4800_evaluation_kit/optiga-trust-m/examples\optiga_shell.c **** #endif
 535:D:/School/diseratie/SEMS/xmc4800_evaluation_kit/optiga-trust-m/examples\optiga_shell.c ****     example_optiga_crypt_rsa_decrypt_and_export();   
 536:D:/School/diseratie/SEMS/xmc4800_evaluation_kit/optiga-trust-m/examples\optiga_shell.c **** }
 537:D:/School/diseratie/SEMS/xmc4800_evaluation_kit/optiga-trust-m/examples\optiga_shell.c **** #endif
 538:D:/School/diseratie/SEMS/xmc4800_evaluation_kit/optiga-trust-m/examples\optiga_shell.c **** 
 539:D:/School/diseratie/SEMS/xmc4800_evaluation_kit/optiga-trust-m/examples\optiga_shell.c **** #ifdef OPTIGA_CRYPT_RSA_DECRYPT_ENABLED
 540:D:/School/diseratie/SEMS/xmc4800_evaluation_kit/optiga-trust-m/examples\optiga_shell.c **** static void optiga_shell_crypt_rsa_decrypt_and_store(void)
 541:D:/School/diseratie/SEMS/xmc4800_evaluation_kit/optiga-trust-m/examples\optiga_shell.c **** {
 542:D:/School/diseratie/SEMS/xmc4800_evaluation_kit/optiga-trust-m/examples\optiga_shell.c **** 
 543:D:/School/diseratie/SEMS/xmc4800_evaluation_kit/optiga-trust-m/examples\optiga_shell.c **** #ifndef OPTIGA_INIT_DEINIT_DONE_EXCLUSIVELY
 544:D:/School/diseratie/SEMS/xmc4800_evaluation_kit/optiga-trust-m/examples\optiga_shell.c ****     OPTIGA_SHELL_LOG_MESSAGE("Initializing OPTIGA for example demonstration...");
 545:D:/School/diseratie/SEMS/xmc4800_evaluation_kit/optiga-trust-m/examples\optiga_shell.c **** #endif
 546:D:/School/diseratie/SEMS/xmc4800_evaluation_kit/optiga-trust-m/examples\optiga_shell.c ****     OPTIGA_SHELL_LOG_MESSAGE("Starting Decrypt and Store Data on the chip with RSA Key Example");
 547:D:/School/diseratie/SEMS/xmc4800_evaluation_kit/optiga-trust-m/examples\optiga_shell.c ****     OPTIGA_SHELL_LOG_MESSAGE("1 Step: Generate RSA 1024 Key Pair and export the public key");
 548:D:/School/diseratie/SEMS/xmc4800_evaluation_kit/optiga-trust-m/examples\optiga_shell.c ****     OPTIGA_SHELL_LOG_MESSAGE("2 Step: Generate 70 bytes RSA Pre master secret which is stored in ac
 549:D:/School/diseratie/SEMS/xmc4800_evaluation_kit/optiga-trust-m/examples\optiga_shell.c ****     OPTIGA_SHELL_LOG_MESSAGE("3 Step: Select Protected I2C Connection");
 550:D:/School/diseratie/SEMS/xmc4800_evaluation_kit/optiga-trust-m/examples\optiga_shell.c ****     OPTIGA_SHELL_LOG_MESSAGE("4 Step: Encrypt Session Data with RSA Public Key");
 551:D:/School/diseratie/SEMS/xmc4800_evaluation_kit/optiga-trust-m/examples\optiga_shell.c ****     OPTIGA_SHELL_LOG_MESSAGE("5 Step: Decrypt the message with RSAES PKCS#1 Ver1.5 Scheme and store
 552:D:/School/diseratie/SEMS/xmc4800_evaluation_kit/optiga-trust-m/examples\optiga_shell.c **** #ifndef OPTIGA_INIT_DEINIT_DONE_EXCLUSIVELY
 553:D:/School/diseratie/SEMS/xmc4800_evaluation_kit/optiga-trust-m/examples\optiga_shell.c ****     OPTIGA_SHELL_LOG_MESSAGE("6 Step: Close the application on OPTIGA");
 554:D:/School/diseratie/SEMS/xmc4800_evaluation_kit/optiga-trust-m/examples\optiga_shell.c **** #endif
 555:D:/School/diseratie/SEMS/xmc4800_evaluation_kit/optiga-trust-m/examples\optiga_shell.c ****     example_optiga_crypt_rsa_decrypt_and_store();
 556:D:/School/diseratie/SEMS/xmc4800_evaluation_kit/optiga-trust-m/examples\optiga_shell.c **** }
 557:D:/School/diseratie/SEMS/xmc4800_evaluation_kit/optiga-trust-m/examples\optiga_shell.c **** #endif
 558:D:/School/diseratie/SEMS/xmc4800_evaluation_kit/optiga-trust-m/examples\optiga_shell.c **** #ifdef OPTIGA_CRYPT_RSA_DECRYPT_ENABLED
 559:D:/School/diseratie/SEMS/xmc4800_evaluation_kit/optiga-trust-m/examples\optiga_shell.c **** static void optiga_shell_crypt_rsa_encrypt_message(void)
 560:D:/School/diseratie/SEMS/xmc4800_evaluation_kit/optiga-trust-m/examples\optiga_shell.c **** {
 561:D:/School/diseratie/SEMS/xmc4800_evaluation_kit/optiga-trust-m/examples\optiga_shell.c **** #ifndef OPTIGA_INIT_DEINIT_DONE_EXCLUSIVELY
 562:D:/School/diseratie/SEMS/xmc4800_evaluation_kit/optiga-trust-m/examples\optiga_shell.c ****     OPTIGA_SHELL_LOG_MESSAGE("Initializing OPTIGA for example demonstration...");
 563:D:/School/diseratie/SEMS/xmc4800_evaluation_kit/optiga-trust-m/examples\optiga_shell.c **** #endif
 564:D:/School/diseratie/SEMS/xmc4800_evaluation_kit/optiga-trust-m/examples\optiga_shell.c ****     OPTIGA_SHELL_LOG_MESSAGE("Starting Encrypt Data with RSA Key Example");
 565:D:/School/diseratie/SEMS/xmc4800_evaluation_kit/optiga-trust-m/examples\optiga_shell.c ****     OPTIGA_SHELL_LOG_MESSAGE("1 Step: Encrypt a message with RSAES PKCS#1 Ver1.5 Scheme");
 566:D:/School/diseratie/SEMS/xmc4800_evaluation_kit/optiga-trust-m/examples\optiga_shell.c **** #ifndef OPTIGA_INIT_DEINIT_DONE_EXCLUSIVELY
 567:D:/School/diseratie/SEMS/xmc4800_evaluation_kit/optiga-trust-m/examples\optiga_shell.c ****     OPTIGA_SHELL_LOG_MESSAGE("2 Step: Close the application on OPTIGA");
 568:D:/School/diseratie/SEMS/xmc4800_evaluation_kit/optiga-trust-m/examples\optiga_shell.c **** #endif
 569:D:/School/diseratie/SEMS/xmc4800_evaluation_kit/optiga-trust-m/examples\optiga_shell.c ****     example_optiga_crypt_rsa_encrypt_message();
 570:D:/School/diseratie/SEMS/xmc4800_evaluation_kit/optiga-trust-m/examples\optiga_shell.c **** }
 571:D:/School/diseratie/SEMS/xmc4800_evaluation_kit/optiga-trust-m/examples\optiga_shell.c **** #endif
 572:D:/School/diseratie/SEMS/xmc4800_evaluation_kit/optiga-trust-m/examples\optiga_shell.c **** 
 573:D:/School/diseratie/SEMS/xmc4800_evaluation_kit/optiga-trust-m/examples\optiga_shell.c **** #ifdef OPTIGA_CRYPT_RSA_DECRYPT_ENABLED
 574:D:/School/diseratie/SEMS/xmc4800_evaluation_kit/optiga-trust-m/examples\optiga_shell.c **** static void optiga_shell_crypt_rsa_encrypt_session(void)
 575:D:/School/diseratie/SEMS/xmc4800_evaluation_kit/optiga-trust-m/examples\optiga_shell.c **** {
 576:D:/School/diseratie/SEMS/xmc4800_evaluation_kit/optiga-trust-m/examples\optiga_shell.c **** #ifndef OPTIGA_INIT_DEINIT_DONE_EXCLUSIVELY
 577:D:/School/diseratie/SEMS/xmc4800_evaluation_kit/optiga-trust-m/examples\optiga_shell.c ****     OPTIGA_SHELL_LOG_MESSAGE("Initializing OPTIGA for example demonstration...");
 578:D:/School/diseratie/SEMS/xmc4800_evaluation_kit/optiga-trust-m/examples\optiga_shell.c **** #endif
 579:D:/School/diseratie/SEMS/xmc4800_evaluation_kit/optiga-trust-m/examples\optiga_shell.c ****     OPTIGA_SHELL_LOG_MESSAGE("Starting Encrypt Data in Session Object on chip with RSA Key Example"
 580:D:/School/diseratie/SEMS/xmc4800_evaluation_kit/optiga-trust-m/examples\optiga_shell.c ****     OPTIGA_SHELL_LOG_MESSAGE("1 Step: Encrypt a message with RSAES PKCS#1 Ver1.5 Scheme stored on c
 581:D:/School/diseratie/SEMS/xmc4800_evaluation_kit/optiga-trust-m/examples\optiga_shell.c **** #ifndef OPTIGA_INIT_DEINIT_DONE_EXCLUSIVELY
 582:D:/School/diseratie/SEMS/xmc4800_evaluation_kit/optiga-trust-m/examples\optiga_shell.c ****     OPTIGA_SHELL_LOG_MESSAGE("2 Step: Close the application on OPTIGA");
 583:D:/School/diseratie/SEMS/xmc4800_evaluation_kit/optiga-trust-m/examples\optiga_shell.c **** #endif
 584:D:/School/diseratie/SEMS/xmc4800_evaluation_kit/optiga-trust-m/examples\optiga_shell.c ****     example_optiga_crypt_rsa_encrypt_session();
 585:D:/School/diseratie/SEMS/xmc4800_evaluation_kit/optiga-trust-m/examples\optiga_shell.c **** }
 586:D:/School/diseratie/SEMS/xmc4800_evaluation_kit/optiga-trust-m/examples\optiga_shell.c **** #endif
 587:D:/School/diseratie/SEMS/xmc4800_evaluation_kit/optiga-trust-m/examples\optiga_shell.c **** 
 588:D:/School/diseratie/SEMS/xmc4800_evaluation_kit/optiga-trust-m/examples\optiga_shell.c **** #if defined (OPTIGA_CRYPT_SYM_ENCRYPT_ENABLED) && defined (OPTIGA_CRYPT_SYM_DECRYPT_ENABLED)
 589:D:/School/diseratie/SEMS/xmc4800_evaluation_kit/optiga-trust-m/examples\optiga_shell.c **** static void optiga_shell_crypt_symmetric_encrypt_decrypt_ecb(void)
 590:D:/School/diseratie/SEMS/xmc4800_evaluation_kit/optiga-trust-m/examples\optiga_shell.c **** {
 591:D:/School/diseratie/SEMS/xmc4800_evaluation_kit/optiga-trust-m/examples\optiga_shell.c **** #ifndef OPTIGA_INIT_DEINIT_DONE_EXCLUSIVELY
 592:D:/School/diseratie/SEMS/xmc4800_evaluation_kit/optiga-trust-m/examples\optiga_shell.c ****     OPTIGA_SHELL_LOG_MESSAGE("Initializing OPTIGA for example demonstration...");
 593:D:/School/diseratie/SEMS/xmc4800_evaluation_kit/optiga-trust-m/examples\optiga_shell.c **** #endif
 594:D:/School/diseratie/SEMS/xmc4800_evaluation_kit/optiga-trust-m/examples\optiga_shell.c ****     OPTIGA_SHELL_LOG_MESSAGE("Starting symmetric Encrypt and Decrypt Data for ECB mode Example");
 595:D:/School/diseratie/SEMS/xmc4800_evaluation_kit/optiga-trust-m/examples\optiga_shell.c ****     OPTIGA_SHELL_LOG_MESSAGE("1 Step: Generate and store the AES 128 Symmetric key in OPTIGA Key st
 596:D:/School/diseratie/SEMS/xmc4800_evaluation_kit/optiga-trust-m/examples\optiga_shell.c ****     OPTIGA_SHELL_LOG_MESSAGE("2 Step: Encrypt the plain data with ECB mode");
 597:D:/School/diseratie/SEMS/xmc4800_evaluation_kit/optiga-trust-m/examples\optiga_shell.c ****     OPTIGA_SHELL_LOG_MESSAGE("3 Step: Decrypt the encrypted data from step 2");
 598:D:/School/diseratie/SEMS/xmc4800_evaluation_kit/optiga-trust-m/examples\optiga_shell.c **** #ifndef OPTIGA_INIT_DEINIT_DONE_EXCLUSIVELY
 599:D:/School/diseratie/SEMS/xmc4800_evaluation_kit/optiga-trust-m/examples\optiga_shell.c ****     OPTIGA_SHELL_LOG_MESSAGE("4 Step: Close the application on OPTIGA");
 600:D:/School/diseratie/SEMS/xmc4800_evaluation_kit/optiga-trust-m/examples\optiga_shell.c **** #endif
 601:D:/School/diseratie/SEMS/xmc4800_evaluation_kit/optiga-trust-m/examples\optiga_shell.c ****     example_optiga_crypt_symmetric_encrypt_decrypt_ecb();
 602:D:/School/diseratie/SEMS/xmc4800_evaluation_kit/optiga-trust-m/examples\optiga_shell.c **** }
 603:D:/School/diseratie/SEMS/xmc4800_evaluation_kit/optiga-trust-m/examples\optiga_shell.c **** 
 604:D:/School/diseratie/SEMS/xmc4800_evaluation_kit/optiga-trust-m/examples\optiga_shell.c **** static void optiga_shell_crypt_symmetric_encrypt_decrypt_cbc(void)
 605:D:/School/diseratie/SEMS/xmc4800_evaluation_kit/optiga-trust-m/examples\optiga_shell.c **** {
 606:D:/School/diseratie/SEMS/xmc4800_evaluation_kit/optiga-trust-m/examples\optiga_shell.c **** #ifndef OPTIGA_INIT_DEINIT_DONE_EXCLUSIVELY
 607:D:/School/diseratie/SEMS/xmc4800_evaluation_kit/optiga-trust-m/examples\optiga_shell.c ****     OPTIGA_SHELL_LOG_MESSAGE("Initializing OPTIGA for example demonstration...");
 608:D:/School/diseratie/SEMS/xmc4800_evaluation_kit/optiga-trust-m/examples\optiga_shell.c **** #endif
 609:D:/School/diseratie/SEMS/xmc4800_evaluation_kit/optiga-trust-m/examples\optiga_shell.c ****     OPTIGA_SHELL_LOG_MESSAGE("Starting symmetric Encrypt and Decrypt Data for CBC mode Example");
 610:D:/School/diseratie/SEMS/xmc4800_evaluation_kit/optiga-trust-m/examples\optiga_shell.c ****     OPTIGA_SHELL_LOG_MESSAGE("1 Step: Generate and store the AES 128 Symmetric key in OPTIGA Key st
 611:D:/School/diseratie/SEMS/xmc4800_evaluation_kit/optiga-trust-m/examples\optiga_shell.c ****     OPTIGA_SHELL_LOG_MESSAGE("2 Step: Encrypt the plain data with CBC mode");
 612:D:/School/diseratie/SEMS/xmc4800_evaluation_kit/optiga-trust-m/examples\optiga_shell.c ****     OPTIGA_SHELL_LOG_MESSAGE("3 Step: Decrypt the encrypted data from step 2");
 613:D:/School/diseratie/SEMS/xmc4800_evaluation_kit/optiga-trust-m/examples\optiga_shell.c **** #ifndef OPTIGA_INIT_DEINIT_DONE_EXCLUSIVELY
 614:D:/School/diseratie/SEMS/xmc4800_evaluation_kit/optiga-trust-m/examples\optiga_shell.c ****     OPTIGA_SHELL_LOG_MESSAGE("4 Step: Close the application on OPTIGA");
 615:D:/School/diseratie/SEMS/xmc4800_evaluation_kit/optiga-trust-m/examples\optiga_shell.c **** #endif
 616:D:/School/diseratie/SEMS/xmc4800_evaluation_kit/optiga-trust-m/examples\optiga_shell.c ****     example_optiga_crypt_symmetric_encrypt_decrypt_cbc();
 617:D:/School/diseratie/SEMS/xmc4800_evaluation_kit/optiga-trust-m/examples\optiga_shell.c **** }
 618:D:/School/diseratie/SEMS/xmc4800_evaluation_kit/optiga-trust-m/examples\optiga_shell.c **** 
 619:D:/School/diseratie/SEMS/xmc4800_evaluation_kit/optiga-trust-m/examples\optiga_shell.c **** static void optiga_shell_crypt_symmetric_encrypt_cbcmac(void)
 620:D:/School/diseratie/SEMS/xmc4800_evaluation_kit/optiga-trust-m/examples\optiga_shell.c **** {
 621:D:/School/diseratie/SEMS/xmc4800_evaluation_kit/optiga-trust-m/examples\optiga_shell.c **** #ifndef OPTIGA_INIT_DEINIT_DONE_EXCLUSIVELY
 622:D:/School/diseratie/SEMS/xmc4800_evaluation_kit/optiga-trust-m/examples\optiga_shell.c ****     OPTIGA_SHELL_LOG_MESSAGE("Initializing OPTIGA for example demonstration...");
 623:D:/School/diseratie/SEMS/xmc4800_evaluation_kit/optiga-trust-m/examples\optiga_shell.c **** #endif
 624:D:/School/diseratie/SEMS/xmc4800_evaluation_kit/optiga-trust-m/examples\optiga_shell.c ****     OPTIGA_SHELL_LOG_MESSAGE("Starting symmetric Encrypt Data for CBCMAC mode Example");
 625:D:/School/diseratie/SEMS/xmc4800_evaluation_kit/optiga-trust-m/examples\optiga_shell.c ****     OPTIGA_SHELL_LOG_MESSAGE("1 Step: Generate and store the AES 128 Symmetric key in OPTIGA Key st
 626:D:/School/diseratie/SEMS/xmc4800_evaluation_kit/optiga-trust-m/examples\optiga_shell.c ****     OPTIGA_SHELL_LOG_MESSAGE("2 Step: Encrypt the plain data with CBCMAC mode");
 627:D:/School/diseratie/SEMS/xmc4800_evaluation_kit/optiga-trust-m/examples\optiga_shell.c **** #ifndef OPTIGA_INIT_DEINIT_DONE_EXCLUSIVELY
 628:D:/School/diseratie/SEMS/xmc4800_evaluation_kit/optiga-trust-m/examples\optiga_shell.c ****     OPTIGA_SHELL_LOG_MESSAGE("3 Step: Close the application on OPTIGA");
 629:D:/School/diseratie/SEMS/xmc4800_evaluation_kit/optiga-trust-m/examples\optiga_shell.c **** #endif
 630:D:/School/diseratie/SEMS/xmc4800_evaluation_kit/optiga-trust-m/examples\optiga_shell.c ****     example_optiga_crypt_symmetric_encrypt_cbcmac();
 631:D:/School/diseratie/SEMS/xmc4800_evaluation_kit/optiga-trust-m/examples\optiga_shell.c **** }
 632:D:/School/diseratie/SEMS/xmc4800_evaluation_kit/optiga-trust-m/examples\optiga_shell.c **** #endif
 633:D:/School/diseratie/SEMS/xmc4800_evaluation_kit/optiga-trust-m/examples\optiga_shell.c **** 
 634:D:/School/diseratie/SEMS/xmc4800_evaluation_kit/optiga-trust-m/examples\optiga_shell.c **** #ifdef OPTIGA_CRYPT_HMAC_ENABLED
 635:D:/School/diseratie/SEMS/xmc4800_evaluation_kit/optiga-trust-m/examples\optiga_shell.c **** static void optiga_shell_crypt_hmac(void)
 636:D:/School/diseratie/SEMS/xmc4800_evaluation_kit/optiga-trust-m/examples\optiga_shell.c **** {
 637:D:/School/diseratie/SEMS/xmc4800_evaluation_kit/optiga-trust-m/examples\optiga_shell.c **** #ifndef OPTIGA_INIT_DEINIT_DONE_EXCLUSIVELY
 638:D:/School/diseratie/SEMS/xmc4800_evaluation_kit/optiga-trust-m/examples\optiga_shell.c ****     OPTIGA_SHELL_LOG_MESSAGE("Initializing OPTIGA for example demonstration...");
 639:D:/School/diseratie/SEMS/xmc4800_evaluation_kit/optiga-trust-m/examples\optiga_shell.c **** #endif
 640:D:/School/diseratie/SEMS/xmc4800_evaluation_kit/optiga-trust-m/examples\optiga_shell.c ****     OPTIGA_SHELL_LOG_MESSAGE("Starting HMAC-SHA256 generation Example");
 641:D:/School/diseratie/SEMS/xmc4800_evaluation_kit/optiga-trust-m/examples\optiga_shell.c ****     OPTIGA_SHELL_LOG_MESSAGE("1 Step: Change metadata for OID(0xF1D0) as Execute access condition =
 642:D:/School/diseratie/SEMS/xmc4800_evaluation_kit/optiga-trust-m/examples\optiga_shell.c ****     OPTIGA_SHELL_LOG_MESSAGE("2 Step: Generate HMAC");
 643:D:/School/diseratie/SEMS/xmc4800_evaluation_kit/optiga-trust-m/examples\optiga_shell.c **** #ifndef OPTIGA_INIT_DEINIT_DONE_EXCLUSIVELY
 644:D:/School/diseratie/SEMS/xmc4800_evaluation_kit/optiga-trust-m/examples\optiga_shell.c ****     OPTIGA_SHELL_LOG_MESSAGE("3 Step: Close the application on OPTIGA");
 645:D:/School/diseratie/SEMS/xmc4800_evaluation_kit/optiga-trust-m/examples\optiga_shell.c **** #endif
 646:D:/School/diseratie/SEMS/xmc4800_evaluation_kit/optiga-trust-m/examples\optiga_shell.c ****     example_optiga_crypt_hmac();
 647:D:/School/diseratie/SEMS/xmc4800_evaluation_kit/optiga-trust-m/examples\optiga_shell.c **** }
 648:D:/School/diseratie/SEMS/xmc4800_evaluation_kit/optiga-trust-m/examples\optiga_shell.c **** #endif
 649:D:/School/diseratie/SEMS/xmc4800_evaluation_kit/optiga-trust-m/examples\optiga_shell.c **** 
 650:D:/School/diseratie/SEMS/xmc4800_evaluation_kit/optiga-trust-m/examples\optiga_shell.c **** #ifdef OPTIGA_CRYPT_HKDF_ENABLED
 651:D:/School/diseratie/SEMS/xmc4800_evaluation_kit/optiga-trust-m/examples\optiga_shell.c **** static void optiga_shell_crypt_hkdf(void)
 652:D:/School/diseratie/SEMS/xmc4800_evaluation_kit/optiga-trust-m/examples\optiga_shell.c **** {
 653:D:/School/diseratie/SEMS/xmc4800_evaluation_kit/optiga-trust-m/examples\optiga_shell.c **** #ifndef OPTIGA_INIT_DEINIT_DONE_EXCLUSIVELY
 654:D:/School/diseratie/SEMS/xmc4800_evaluation_kit/optiga-trust-m/examples\optiga_shell.c ****     OPTIGA_SHELL_LOG_MESSAGE("Initializing OPTIGA for example demonstration...");
 655:D:/School/diseratie/SEMS/xmc4800_evaluation_kit/optiga-trust-m/examples\optiga_shell.c **** #endif
 656:D:/School/diseratie/SEMS/xmc4800_evaluation_kit/optiga-trust-m/examples\optiga_shell.c ****     OPTIGA_SHELL_LOG_MESSAGE("Starting HKDF-SHA256 key derivation Example");
 657:D:/School/diseratie/SEMS/xmc4800_evaluation_kit/optiga-trust-m/examples\optiga_shell.c ****     OPTIGA_SHELL_LOG_MESSAGE("1 Step: Write the shared secret to the Arbitrary data object F1D0");
 658:D:/School/diseratie/SEMS/xmc4800_evaluation_kit/optiga-trust-m/examples\optiga_shell.c ****     OPTIGA_SHELL_LOG_MESSAGE("2 Step: Change metadata of OID(0xF1D0) Data object type  =  Pre-share
 659:D:/School/diseratie/SEMS/xmc4800_evaluation_kit/optiga-trust-m/examples\optiga_shell.c ****     OPTIGA_SHELL_LOG_MESSAGE("3 Step: Derive HKDF");
 660:D:/School/diseratie/SEMS/xmc4800_evaluation_kit/optiga-trust-m/examples\optiga_shell.c **** #ifndef OPTIGA_INIT_DEINIT_DONE_EXCLUSIVELY
 661:D:/School/diseratie/SEMS/xmc4800_evaluation_kit/optiga-trust-m/examples\optiga_shell.c ****     OPTIGA_SHELL_LOG_MESSAGE("4 Step: Close the application on OPTIGA");
 662:D:/School/diseratie/SEMS/xmc4800_evaluation_kit/optiga-trust-m/examples\optiga_shell.c **** #endif
 663:D:/School/diseratie/SEMS/xmc4800_evaluation_kit/optiga-trust-m/examples\optiga_shell.c ****     example_optiga_crypt_hkdf();
 664:D:/School/diseratie/SEMS/xmc4800_evaluation_kit/optiga-trust-m/examples\optiga_shell.c **** }
 665:D:/School/diseratie/SEMS/xmc4800_evaluation_kit/optiga-trust-m/examples\optiga_shell.c **** #endif
 666:D:/School/diseratie/SEMS/xmc4800_evaluation_kit/optiga-trust-m/examples\optiga_shell.c **** 
 667:D:/School/diseratie/SEMS/xmc4800_evaluation_kit/optiga-trust-m/examples\optiga_shell.c **** #ifdef OPTIGA_CRYPT_SYM_GENERATE_KEY_ENABLED
 668:D:/School/diseratie/SEMS/xmc4800_evaluation_kit/optiga-trust-m/examples\optiga_shell.c **** static void optiga_shell_crypt_symmetric_generate_key(void)
 669:D:/School/diseratie/SEMS/xmc4800_evaluation_kit/optiga-trust-m/examples\optiga_shell.c **** {
 670:D:/School/diseratie/SEMS/xmc4800_evaluation_kit/optiga-trust-m/examples\optiga_shell.c **** #ifndef OPTIGA_INIT_DEINIT_DONE_EXCLUSIVELY
 671:D:/School/diseratie/SEMS/xmc4800_evaluation_kit/optiga-trust-m/examples\optiga_shell.c ****     OPTIGA_SHELL_LOG_MESSAGE("Initializing OPTIGA for example demonstration...");
 672:D:/School/diseratie/SEMS/xmc4800_evaluation_kit/optiga-trust-m/examples\optiga_shell.c **** #endif
 673:D:/School/diseratie/SEMS/xmc4800_evaluation_kit/optiga-trust-m/examples\optiga_shell.c ****     OPTIGA_SHELL_LOG_MESSAGE("Starting generation of symmetric AES-128 key");
 674:D:/School/diseratie/SEMS/xmc4800_evaluation_kit/optiga-trust-m/examples\optiga_shell.c ****     OPTIGA_SHELL_LOG_MESSAGE("1 Step: Generate symmetric AES-128 key and store it in OID(E200)");
 675:D:/School/diseratie/SEMS/xmc4800_evaluation_kit/optiga-trust-m/examples\optiga_shell.c **** #ifndef OPTIGA_INIT_DEINIT_DONE_EXCLUSIVELY
 676:D:/School/diseratie/SEMS/xmc4800_evaluation_kit/optiga-trust-m/examples\optiga_shell.c ****     OPTIGA_SHELL_LOG_MESSAGE("2 Step: Close the application on OPTIGA");
 677:D:/School/diseratie/SEMS/xmc4800_evaluation_kit/optiga-trust-m/examples\optiga_shell.c **** #endif
 678:D:/School/diseratie/SEMS/xmc4800_evaluation_kit/optiga-trust-m/examples\optiga_shell.c ****     example_optiga_crypt_symmetric_generate_key();
 679:D:/School/diseratie/SEMS/xmc4800_evaluation_kit/optiga-trust-m/examples\optiga_shell.c **** }
 680:D:/School/diseratie/SEMS/xmc4800_evaluation_kit/optiga-trust-m/examples\optiga_shell.c **** #endif
 681:D:/School/diseratie/SEMS/xmc4800_evaluation_kit/optiga-trust-m/examples\optiga_shell.c **** 
 682:D:/School/diseratie/SEMS/xmc4800_evaluation_kit/optiga-trust-m/examples\optiga_shell.c **** #if defined (OPTIGA_CRYPT_GENERATE_AUTH_CODE_ENABLED) && defined (OPTIGA_CRYPT_HMAC_VERIFY_ENABLED)
 683:D:/School/diseratie/SEMS/xmc4800_evaluation_kit/optiga-trust-m/examples\optiga_shell.c **** static void optiga_shell_crypt_hmac_verify_with_authorization_reference(void)
 684:D:/School/diseratie/SEMS/xmc4800_evaluation_kit/optiga-trust-m/examples\optiga_shell.c **** {
  51              	 .loc 1 684 0
  52              	 .cfi_startproc
  53              	 
  54              	 
  55 0000 38B5     	 push {r3,r4,r5,lr}
  56              	.LCFI0:
  57              	 .cfi_def_cfa_offset 16
  58              	 .cfi_offset 3,-16
  59              	 .cfi_offset 4,-12
  60              	 .cfi_offset 5,-8
  61              	 .cfi_offset 14,-4
 685:D:/School/diseratie/SEMS/xmc4800_evaluation_kit/optiga-trust-m/examples\optiga_shell.c **** #ifndef OPTIGA_INIT_DEINIT_DONE_EXCLUSIVELY
 686:D:/School/diseratie/SEMS/xmc4800_evaluation_kit/optiga-trust-m/examples\optiga_shell.c ****     OPTIGA_SHELL_LOG_MESSAGE("Initializing OPTIGA for example demonstration...");
  62              	 .loc 1 686 0
  63 0002 174D     	 ldr r5,.L6
  64 0004 174C     	 ldr r4,.L6+4
  65 0006 1848     	 ldr r0,.L6+8
  66 0008 2946     	 mov r1,r5
  67 000a 2246     	 mov r2,r4
  68 000c FFF7FEFF 	 bl optiga_lib_print_message
  69              	.LVL1:
 687:D:/School/diseratie/SEMS/xmc4800_evaluation_kit/optiga-trust-m/examples\optiga_shell.c **** #endif
 688:D:/School/diseratie/SEMS/xmc4800_evaluation_kit/optiga-trust-m/examples\optiga_shell.c ****     OPTIGA_SHELL_LOG_MESSAGE("Starting HMAC verify with authorization reference Example");
  70              	 .loc 1 688 0
  71 0010 2946     	 mov r1,r5
  72 0012 2246     	 mov r2,r4
  73 0014 1548     	 ldr r0,.L6+12
  74 0016 FFF7FEFF 	 bl optiga_lib_print_message
  75              	.LVL2:
 689:D:/School/diseratie/SEMS/xmc4800_evaluation_kit/optiga-trust-m/examples\optiga_shell.c ****     OPTIGA_SHELL_LOG_MESSAGE("1 Step: Get the User Secret and store it in OID(0xF1D0)");
  76              	 .loc 1 689 0
  77 001a 2946     	 mov r1,r5
  78 001c 2246     	 mov r2,r4
  79 001e 1448     	 ldr r0,.L6+16
  80 0020 FFF7FEFF 	 bl optiga_lib_print_message
  81              	.LVL3:
 690:D:/School/diseratie/SEMS/xmc4800_evaluation_kit/optiga-trust-m/examples\optiga_shell.c ****     OPTIGA_SHELL_LOG_MESSAGE("2 Step: Set the metadata of 0xF1E0 to Auto with 0xF1D0");
  82              	 .loc 1 690 0
  83 0024 2946     	 mov r1,r5
  84 0026 2246     	 mov r2,r4
  85 0028 1248     	 ldr r0,.L6+20
  86 002a FFF7FEFF 	 bl optiga_lib_print_message
  87              	.LVL4:
 691:D:/School/diseratie/SEMS/xmc4800_evaluation_kit/optiga-trust-m/examples\optiga_shell.c ****     OPTIGA_SHELL_LOG_MESSAGE("3 Step: Generate authorization code with optional data");
  88              	 .loc 1 691 0
  89 002e 2946     	 mov r1,r5
  90 0030 2246     	 mov r2,r4
  91 0032 1148     	 ldr r0,.L6+24
  92 0034 FFF7FEFF 	 bl optiga_lib_print_message
  93              	.LVL5:
 692:D:/School/diseratie/SEMS/xmc4800_evaluation_kit/optiga-trust-m/examples\optiga_shell.c ****     OPTIGA_SHELL_LOG_MESSAGE("4 Step: Calculate HMAC on host using mbedtls");
  94              	 .loc 1 692 0
  95 0038 2946     	 mov r1,r5
  96 003a 2246     	 mov r2,r4
  97 003c 0F48     	 ldr r0,.L6+28
  98 003e FFF7FEFF 	 bl optiga_lib_print_message
  99              	.LVL6:
 693:D:/School/diseratie/SEMS/xmc4800_evaluation_kit/optiga-trust-m/examples\optiga_shell.c ****     OPTIGA_SHELL_LOG_MESSAGE("5 Step: Perform HMAC verification");
 100              	 .loc 1 693 0
 101 0042 2946     	 mov r1,r5
 102 0044 2246     	 mov r2,r4
 103 0046 0E48     	 ldr r0,.L6+32
 104 0048 FFF7FEFF 	 bl optiga_lib_print_message
 105              	.LVL7:
 694:D:/School/diseratie/SEMS/xmc4800_evaluation_kit/optiga-trust-m/examples\optiga_shell.c **** #ifndef OPTIGA_INIT_DEINIT_DONE_EXCLUSIVELY
 695:D:/School/diseratie/SEMS/xmc4800_evaluation_kit/optiga-trust-m/examples\optiga_shell.c ****     OPTIGA_SHELL_LOG_MESSAGE("6 Step: Close the application on OPTIGA");
 106              	 .loc 1 695 0
 107 004c 2946     	 mov r1,r5
 108 004e 2246     	 mov r2,r4
 109 0050 0C48     	 ldr r0,.L6+36
 110 0052 FFF7FEFF 	 bl optiga_lib_print_message
 111              	.LVL8:
 696:D:/School/diseratie/SEMS/xmc4800_evaluation_kit/optiga-trust-m/examples\optiga_shell.c **** #endif
 697:D:/School/diseratie/SEMS/xmc4800_evaluation_kit/optiga-trust-m/examples\optiga_shell.c ****     example_optiga_hmac_verify_with_authorization_reference();
 698:D:/School/diseratie/SEMS/xmc4800_evaluation_kit/optiga-trust-m/examples\optiga_shell.c **** }
 112              	 .loc 1 698 0
 113 0056 BDE83840 	 pop {r3,r4,r5,lr}
 114              	.LCFI1:
 115              	 .cfi_restore 14
 116              	 .cfi_restore 5
 117              	 .cfi_restore 4
 118              	 .cfi_restore 3
 119              	 .cfi_def_cfa_offset 0
 697:D:/School/diseratie/SEMS/xmc4800_evaluation_kit/optiga-trust-m/examples\optiga_shell.c **** }
 120              	 .loc 1 697 0
 121 005a FFF7FEBF 	 b example_optiga_hmac_verify_with_authorization_reference
 122              	.LVL9:
 123              	.L7:
 124 005e 00BF     	 .align 2
 125              	.L6:
 126 0060 34000000 	 .word .LC1
 127 0064 48000000 	 .word .LC2
 128 0068 00000000 	 .word .LC0
 129 006c 50000000 	 .word .LC3
 130 0070 8C000000 	 .word .LC4
 131 0074 C4000000 	 .word .LC5
 132 0078 FC000000 	 .word .LC6
 133 007c 34010000 	 .word .LC7
 134 0080 64010000 	 .word .LC8
 135 0084 88010000 	 .word .LC9
 136              	 .cfi_endproc
 137              	.LFE485:
 139              	 .section .text.optiga_shell_crypt_clear_auto_state,"ax",%progbits
 140              	 .align 2
 141              	 .thumb
 142              	 .thumb_func
 144              	optiga_shell_crypt_clear_auto_state:
 145              	.LFB486:
 699:D:/School/diseratie/SEMS/xmc4800_evaluation_kit/optiga-trust-m/examples\optiga_shell.c **** #endif
 700:D:/School/diseratie/SEMS/xmc4800_evaluation_kit/optiga-trust-m/examples\optiga_shell.c **** 
 701:D:/School/diseratie/SEMS/xmc4800_evaluation_kit/optiga-trust-m/examples\optiga_shell.c **** #if defined (OPTIGA_CRYPT_GENERATE_AUTH_CODE_ENABLED) && defined (OPTIGA_CRYPT_HMAC_VERIFY_ENABLED)
 702:D:/School/diseratie/SEMS/xmc4800_evaluation_kit/optiga-trust-m/examples\optiga_shell.c **** static void optiga_shell_crypt_clear_auto_state(void)
 703:D:/School/diseratie/SEMS/xmc4800_evaluation_kit/optiga-trust-m/examples\optiga_shell.c **** {
 146              	 .loc 1 703 0
 147              	 .cfi_startproc
 148              	 
 149              	 
 150 0000 38B5     	 push {r3,r4,r5,lr}
 151              	.LCFI2:
 152              	 .cfi_def_cfa_offset 16
 153              	 .cfi_offset 3,-16
 154              	 .cfi_offset 4,-12
 155              	 .cfi_offset 5,-8
 156              	 .cfi_offset 14,-4
 704:D:/School/diseratie/SEMS/xmc4800_evaluation_kit/optiga-trust-m/examples\optiga_shell.c **** #ifndef OPTIGA_INIT_DEINIT_DONE_EXCLUSIVELY
 705:D:/School/diseratie/SEMS/xmc4800_evaluation_kit/optiga-trust-m/examples\optiga_shell.c ****     OPTIGA_SHELL_LOG_MESSAGE("Initializing OPTIGA for example demonstration...");
 157              	 .loc 1 705 0
 158 0002 194D     	 ldr r5,.L10
 159 0004 194C     	 ldr r4,.L10+4
 160 0006 1A48     	 ldr r0,.L10+8
 161 0008 2946     	 mov r1,r5
 162 000a 2246     	 mov r2,r4
 163 000c FFF7FEFF 	 bl optiga_lib_print_message
 164              	.LVL10:
 706:D:/School/diseratie/SEMS/xmc4800_evaluation_kit/optiga-trust-m/examples\optiga_shell.c **** #endif
 707:D:/School/diseratie/SEMS/xmc4800_evaluation_kit/optiga-trust-m/examples\optiga_shell.c ****     OPTIGA_SHELL_LOG_MESSAGE("Starting clear auto state Example");
 165              	 .loc 1 707 0
 166 0010 2946     	 mov r1,r5
 167 0012 2246     	 mov r2,r4
 168 0014 1748     	 ldr r0,.L10+12
 169 0016 FFF7FEFF 	 bl optiga_lib_print_message
 170              	.LVL11:
 708:D:/School/diseratie/SEMS/xmc4800_evaluation_kit/optiga-trust-m/examples\optiga_shell.c ****     OPTIGA_SHELL_LOG_MESSAGE("1 Step: Change metadata of OID(0xF1D0) Data object type  =  Pre-share
 171              	 .loc 1 708 0
 172 001a 2946     	 mov r1,r5
 173 001c 2246     	 mov r2,r4
 174 001e 1648     	 ldr r0,.L10+16
 175 0020 FFF7FEFF 	 bl optiga_lib_print_message
 176              	.LVL12:
 709:D:/School/diseratie/SEMS/xmc4800_evaluation_kit/optiga-trust-m/examples\optiga_shell.c ****     OPTIGA_SHELL_LOG_MESSAGE("2 Step: Get the User Secret and store it in OID(0xF1D0)");
 177              	 .loc 1 709 0
 178 0024 2946     	 mov r1,r5
 179 0026 2246     	 mov r2,r4
 180 0028 1448     	 ldr r0,.L10+20
 181 002a FFF7FEFF 	 bl optiga_lib_print_message
 182              	.LVL13:
 710:D:/School/diseratie/SEMS/xmc4800_evaluation_kit/optiga-trust-m/examples\optiga_shell.c ****     OPTIGA_SHELL_LOG_MESSAGE("3 Step: Generate auth code with optional data");
 183              	 .loc 1 710 0
 184 002e 2946     	 mov r1,r5
 185 0030 2246     	 mov r2,r4
 186 0032 1348     	 ldr r0,.L10+24
 187 0034 FFF7FEFF 	 bl optiga_lib_print_message
 188              	.LVL14:
 711:D:/School/diseratie/SEMS/xmc4800_evaluation_kit/optiga-trust-m/examples\optiga_shell.c ****     OPTIGA_SHELL_LOG_MESSAGE("4 Step: Calculate HMAC on host using mbedtls");
 189              	 .loc 1 711 0
 190 0038 2946     	 mov r1,r5
 191 003a 2246     	 mov r2,r4
 192 003c 1148     	 ldr r0,.L10+28
 193 003e FFF7FEFF 	 bl optiga_lib_print_message
 194              	.LVL15:
 712:D:/School/diseratie/SEMS/xmc4800_evaluation_kit/optiga-trust-m/examples\optiga_shell.c ****     OPTIGA_SHELL_LOG_MESSAGE("5 Step: Perform HMAC verification");
 195              	 .loc 1 712 0
 196 0042 2946     	 mov r1,r5
 197 0044 2246     	 mov r2,r4
 198 0046 1048     	 ldr r0,.L10+32
 199 0048 FFF7FEFF 	 bl optiga_lib_print_message
 200              	.LVL16:
 713:D:/School/diseratie/SEMS/xmc4800_evaluation_kit/optiga-trust-m/examples\optiga_shell.c ****     OPTIGA_SHELL_LOG_MESSAGE("6 Step: Perform clear auto state");
 201              	 .loc 1 713 0
 202 004c 2946     	 mov r1,r5
 203 004e 2246     	 mov r2,r4
 204 0050 0E48     	 ldr r0,.L10+36
 205 0052 FFF7FEFF 	 bl optiga_lib_print_message
 206              	.LVL17:
 714:D:/School/diseratie/SEMS/xmc4800_evaluation_kit/optiga-trust-m/examples\optiga_shell.c **** #ifndef OPTIGA_INIT_DEINIT_DONE_EXCLUSIVELY
 715:D:/School/diseratie/SEMS/xmc4800_evaluation_kit/optiga-trust-m/examples\optiga_shell.c ****     OPTIGA_SHELL_LOG_MESSAGE("7 Step: Close the application on OPTIGA");
 207              	 .loc 1 715 0
 208 0056 2946     	 mov r1,r5
 209 0058 2246     	 mov r2,r4
 210 005a 0D48     	 ldr r0,.L10+40
 211 005c FFF7FEFF 	 bl optiga_lib_print_message
 212              	.LVL18:
 716:D:/School/diseratie/SEMS/xmc4800_evaluation_kit/optiga-trust-m/examples\optiga_shell.c **** #endif
 717:D:/School/diseratie/SEMS/xmc4800_evaluation_kit/optiga-trust-m/examples\optiga_shell.c ****     example_optiga_crypt_clear_auto_state();
 718:D:/School/diseratie/SEMS/xmc4800_evaluation_kit/optiga-trust-m/examples\optiga_shell.c **** }
 213              	 .loc 1 718 0
 214 0060 BDE83840 	 pop {r3,r4,r5,lr}
 215              	.LCFI3:
 216              	 .cfi_restore 14
 217              	 .cfi_restore 5
 218              	 .cfi_restore 4
 219              	 .cfi_restore 3
 220              	 .cfi_def_cfa_offset 0
 717:D:/School/diseratie/SEMS/xmc4800_evaluation_kit/optiga-trust-m/examples\optiga_shell.c **** }
 221              	 .loc 1 717 0
 222 0064 FFF7FEBF 	 b example_optiga_crypt_clear_auto_state
 223              	.LVL19:
 224              	.L11:
 225              	 .align 2
 226              	.L10:
 227 0068 34000000 	 .word .LC1
 228 006c 48000000 	 .word .LC2
 229 0070 00000000 	 .word .LC0
 230 0074 B0010000 	 .word .LC10
 231 0078 D4010000 	 .word .LC11
 232 007c 24020000 	 .word .LC12
 233 0080 5C020000 	 .word .LC13
 234 0084 34010000 	 .word .LC7
 235 0088 64010000 	 .word .LC8
 236 008c 8C020000 	 .word .LC14
 237 0090 B0020000 	 .word .LC15
 238              	 .cfi_endproc
 239              	.LFE486:
 241              	 .section .text.optiga_shell_crypt_symmetric_generate_key,"ax",%progbits
 242              	 .align 2
 243              	 .thumb
 244              	 .thumb_func
 246              	optiga_shell_crypt_symmetric_generate_key:
 247              	.LFB484:
 669:D:/School/diseratie/SEMS/xmc4800_evaluation_kit/optiga-trust-m/examples\optiga_shell.c **** #ifndef OPTIGA_INIT_DEINIT_DONE_EXCLUSIVELY
 248              	 .loc 1 669 0
 249              	 .cfi_startproc
 250              	 
 251              	 
 252 0000 38B5     	 push {r3,r4,r5,lr}
 253              	.LCFI4:
 254              	 .cfi_def_cfa_offset 16
 255              	 .cfi_offset 3,-16
 256              	 .cfi_offset 4,-12
 257              	 .cfi_offset 5,-8
 258              	 .cfi_offset 14,-4
 671:D:/School/diseratie/SEMS/xmc4800_evaluation_kit/optiga-trust-m/examples\optiga_shell.c **** #endif
 259              	 .loc 1 671 0
 260 0002 0D4D     	 ldr r5,.L14
 261 0004 0D4C     	 ldr r4,.L14+4
 262 0006 0E48     	 ldr r0,.L14+8
 263 0008 2946     	 mov r1,r5
 264 000a 2246     	 mov r2,r4
 265 000c FFF7FEFF 	 bl optiga_lib_print_message
 266              	.LVL20:
 673:D:/School/diseratie/SEMS/xmc4800_evaluation_kit/optiga-trust-m/examples\optiga_shell.c ****     OPTIGA_SHELL_LOG_MESSAGE("1 Step: Generate symmetric AES-128 key and store it in OID(E200)");
 267              	 .loc 1 673 0
 268 0010 2946     	 mov r1,r5
 269 0012 2246     	 mov r2,r4
 270 0014 0B48     	 ldr r0,.L14+12
 271 0016 FFF7FEFF 	 bl optiga_lib_print_message
 272              	.LVL21:
 674:D:/School/diseratie/SEMS/xmc4800_evaluation_kit/optiga-trust-m/examples\optiga_shell.c **** #ifndef OPTIGA_INIT_DEINIT_DONE_EXCLUSIVELY
 273              	 .loc 1 674 0
 274 001a 2946     	 mov r1,r5
 275 001c 2246     	 mov r2,r4
 276 001e 0A48     	 ldr r0,.L14+16
 277 0020 FFF7FEFF 	 bl optiga_lib_print_message
 278              	.LVL22:
 676:D:/School/diseratie/SEMS/xmc4800_evaluation_kit/optiga-trust-m/examples\optiga_shell.c **** #endif
 279              	 .loc 1 676 0
 280 0024 2946     	 mov r1,r5
 281 0026 2246     	 mov r2,r4
 282 0028 0848     	 ldr r0,.L14+20
 283 002a FFF7FEFF 	 bl optiga_lib_print_message
 284              	.LVL23:
 679:D:/School/diseratie/SEMS/xmc4800_evaluation_kit/optiga-trust-m/examples\optiga_shell.c **** #endif
 285              	 .loc 1 679 0
 286 002e BDE83840 	 pop {r3,r4,r5,lr}
 287              	.LCFI5:
 288              	 .cfi_restore 14
 289              	 .cfi_restore 5
 290              	 .cfi_restore 4
 291              	 .cfi_restore 3
 292              	 .cfi_def_cfa_offset 0
 678:D:/School/diseratie/SEMS/xmc4800_evaluation_kit/optiga-trust-m/examples\optiga_shell.c **** }
 293              	 .loc 1 678 0
 294 0032 FFF7FEBF 	 b example_optiga_crypt_symmetric_generate_key
 295              	.LVL24:
 296              	.L15:
 297 0036 00BF     	 .align 2
 298              	.L14:
 299 0038 34000000 	 .word .LC1
 300 003c 48000000 	 .word .LC2
 301 0040 00000000 	 .word .LC0
 302 0044 D8020000 	 .word .LC16
 303 0048 08030000 	 .word .LC17
 304 004c 4C030000 	 .word .LC18
 305              	 .cfi_endproc
 306              	.LFE484:
 308              	 .section .text.optiga_shell_crypt_hkdf,"ax",%progbits
 309              	 .align 2
 310              	 .thumb
 311              	 .thumb_func
 313              	optiga_shell_crypt_hkdf:
 314              	.LFB483:
 652:D:/School/diseratie/SEMS/xmc4800_evaluation_kit/optiga-trust-m/examples\optiga_shell.c **** #ifndef OPTIGA_INIT_DEINIT_DONE_EXCLUSIVELY
 315              	 .loc 1 652 0
 316              	 .cfi_startproc
 317              	 
 318              	 
 319 0000 38B5     	 push {r3,r4,r5,lr}
 320              	.LCFI6:
 321              	 .cfi_def_cfa_offset 16
 322              	 .cfi_offset 3,-16
 323              	 .cfi_offset 4,-12
 324              	 .cfi_offset 5,-8
 325              	 .cfi_offset 14,-4
 654:D:/School/diseratie/SEMS/xmc4800_evaluation_kit/optiga-trust-m/examples\optiga_shell.c **** #endif
 326              	 .loc 1 654 0
 327 0002 124D     	 ldr r5,.L18
 328 0004 124C     	 ldr r4,.L18+4
 329 0006 1348     	 ldr r0,.L18+8
 330 0008 2946     	 mov r1,r5
 331 000a 2246     	 mov r2,r4
 332 000c FFF7FEFF 	 bl optiga_lib_print_message
 333              	.LVL25:
 656:D:/School/diseratie/SEMS/xmc4800_evaluation_kit/optiga-trust-m/examples\optiga_shell.c ****     OPTIGA_SHELL_LOG_MESSAGE("1 Step: Write the shared secret to the Arbitrary data object F1D0");
 334              	 .loc 1 656 0
 335 0010 2946     	 mov r1,r5
 336 0012 2246     	 mov r2,r4
 337 0014 1048     	 ldr r0,.L18+12
 338 0016 FFF7FEFF 	 bl optiga_lib_print_message
 339              	.LVL26:
 657:D:/School/diseratie/SEMS/xmc4800_evaluation_kit/optiga-trust-m/examples\optiga_shell.c ****     OPTIGA_SHELL_LOG_MESSAGE("2 Step: Change metadata of OID(0xF1D0) Data object type  =  Pre-share
 340              	 .loc 1 657 0
 341 001a 2946     	 mov r1,r5
 342 001c 2246     	 mov r2,r4
 343 001e 0F48     	 ldr r0,.L18+16
 344 0020 FFF7FEFF 	 bl optiga_lib_print_message
 345              	.LVL27:
 658:D:/School/diseratie/SEMS/xmc4800_evaluation_kit/optiga-trust-m/examples\optiga_shell.c ****     OPTIGA_SHELL_LOG_MESSAGE("3 Step: Derive HKDF");
 346              	 .loc 1 658 0
 347 0024 2946     	 mov r1,r5
 348 0026 2246     	 mov r2,r4
 349 0028 0D48     	 ldr r0,.L18+20
 350 002a FFF7FEFF 	 bl optiga_lib_print_message
 351              	.LVL28:
 659:D:/School/diseratie/SEMS/xmc4800_evaluation_kit/optiga-trust-m/examples\optiga_shell.c **** #ifndef OPTIGA_INIT_DEINIT_DONE_EXCLUSIVELY
 352              	 .loc 1 659 0
 353 002e 2946     	 mov r1,r5
 354 0030 2246     	 mov r2,r4
 355 0032 0C48     	 ldr r0,.L18+24
 356 0034 FFF7FEFF 	 bl optiga_lib_print_message
 357              	.LVL29:
 661:D:/School/diseratie/SEMS/xmc4800_evaluation_kit/optiga-trust-m/examples\optiga_shell.c **** #endif
 358              	 .loc 1 661 0
 359 0038 2946     	 mov r1,r5
 360 003a 2246     	 mov r2,r4
 361 003c 0A48     	 ldr r0,.L18+28
 362 003e FFF7FEFF 	 bl optiga_lib_print_message
 363              	.LVL30:
 664:D:/School/diseratie/SEMS/xmc4800_evaluation_kit/optiga-trust-m/examples\optiga_shell.c **** #endif
 364              	 .loc 1 664 0
 365 0042 BDE83840 	 pop {r3,r4,r5,lr}
 366              	.LCFI7:
 367              	 .cfi_restore 14
 368              	 .cfi_restore 5
 369              	 .cfi_restore 4
 370              	 .cfi_restore 3
 371              	 .cfi_def_cfa_offset 0
 663:D:/School/diseratie/SEMS/xmc4800_evaluation_kit/optiga-trust-m/examples\optiga_shell.c **** }
 372              	 .loc 1 663 0
 373 0046 FFF7FEBF 	 b example_optiga_crypt_hkdf
 374              	.LVL31:
 375              	.L19:
 376 004a 00BF     	 .align 2
 377              	.L18:
 378 004c 34000000 	 .word .LC1
 379 0050 48000000 	 .word .LC2
 380 0054 00000000 	 .word .LC0
 381 0058 74030000 	 .word .LC19
 382 005c A0030000 	 .word .LC20
 383 0060 E4030000 	 .word .LC21
 384 0064 34040000 	 .word .LC22
 385 0068 48040000 	 .word .LC23
 386              	 .cfi_endproc
 387              	.LFE483:
 389              	 .section .text.optiga_shell_crypt_hmac,"ax",%progbits
 390              	 .align 2
 391              	 .thumb
 392              	 .thumb_func
 394              	optiga_shell_crypt_hmac:
 395              	.LFB482:
 636:D:/School/diseratie/SEMS/xmc4800_evaluation_kit/optiga-trust-m/examples\optiga_shell.c **** #ifndef OPTIGA_INIT_DEINIT_DONE_EXCLUSIVELY
 396              	 .loc 1 636 0
 397              	 .cfi_startproc
 398              	 
 399              	 
 400 0000 38B5     	 push {r3,r4,r5,lr}
 401              	.LCFI8:
 402              	 .cfi_def_cfa_offset 16
 403              	 .cfi_offset 3,-16
 404              	 .cfi_offset 4,-12
 405              	 .cfi_offset 5,-8
 406              	 .cfi_offset 14,-4
 638:D:/School/diseratie/SEMS/xmc4800_evaluation_kit/optiga-trust-m/examples\optiga_shell.c **** #endif
 407              	 .loc 1 638 0
 408 0002 0F4D     	 ldr r5,.L22
 409 0004 0F4C     	 ldr r4,.L22+4
 410 0006 1048     	 ldr r0,.L22+8
 411 0008 2946     	 mov r1,r5
 412 000a 2246     	 mov r2,r4
 413 000c FFF7FEFF 	 bl optiga_lib_print_message
 414              	.LVL32:
 640:D:/School/diseratie/SEMS/xmc4800_evaluation_kit/optiga-trust-m/examples\optiga_shell.c ****     OPTIGA_SHELL_LOG_MESSAGE("1 Step: Change metadata for OID(0xF1D0) as Execute access condition =
 415              	 .loc 1 640 0
 416 0010 2946     	 mov r1,r5
 417 0012 2246     	 mov r2,r4
 418 0014 0D48     	 ldr r0,.L22+12
 419 0016 FFF7FEFF 	 bl optiga_lib_print_message
 420              	.LVL33:
 641:D:/School/diseratie/SEMS/xmc4800_evaluation_kit/optiga-trust-m/examples\optiga_shell.c ****     OPTIGA_SHELL_LOG_MESSAGE("2 Step: Generate HMAC");
 421              	 .loc 1 641 0
 422 001a 2946     	 mov r1,r5
 423 001c 2246     	 mov r2,r4
 424 001e 0C48     	 ldr r0,.L22+16
 425 0020 FFF7FEFF 	 bl optiga_lib_print_message
 426              	.LVL34:
 642:D:/School/diseratie/SEMS/xmc4800_evaluation_kit/optiga-trust-m/examples\optiga_shell.c **** #ifndef OPTIGA_INIT_DEINIT_DONE_EXCLUSIVELY
 427              	 .loc 1 642 0
 428 0024 2946     	 mov r1,r5
 429 0026 2246     	 mov r2,r4
 430 0028 0A48     	 ldr r0,.L22+20
 431 002a FFF7FEFF 	 bl optiga_lib_print_message
 432              	.LVL35:
 644:D:/School/diseratie/SEMS/xmc4800_evaluation_kit/optiga-trust-m/examples\optiga_shell.c **** #endif
 433              	 .loc 1 644 0
 434 002e 2946     	 mov r1,r5
 435 0030 2246     	 mov r2,r4
 436 0032 0948     	 ldr r0,.L22+24
 437 0034 FFF7FEFF 	 bl optiga_lib_print_message
 438              	.LVL36:
 647:D:/School/diseratie/SEMS/xmc4800_evaluation_kit/optiga-trust-m/examples\optiga_shell.c **** #endif
 439              	 .loc 1 647 0
 440 0038 BDE83840 	 pop {r3,r4,r5,lr}
 441              	.LCFI9:
 442              	 .cfi_restore 14
 443              	 .cfi_restore 5
 444              	 .cfi_restore 4
 445              	 .cfi_restore 3
 446              	 .cfi_def_cfa_offset 0
 646:D:/School/diseratie/SEMS/xmc4800_evaluation_kit/optiga-trust-m/examples\optiga_shell.c **** }
 447              	 .loc 1 646 0
 448 003c FFF7FEBF 	 b example_optiga_crypt_hmac
 449              	.LVL37:
 450              	.L23:
 451              	 .align 2
 452              	.L22:
 453 0040 34000000 	 .word .LC1
 454 0044 48000000 	 .word .LC2
 455 0048 00000000 	 .word .LC0
 456 004c 70040000 	 .word .LC24
 457 0050 98040000 	 .word .LC25
 458 0054 10050000 	 .word .LC26
 459 0058 28050000 	 .word .LC27
 460              	 .cfi_endproc
 461              	.LFE482:
 463              	 .section .text.optiga_shell_crypt_symmetric_encrypt_cbcmac,"ax",%progbits
 464              	 .align 2
 465              	 .thumb
 466              	 .thumb_func
 468              	optiga_shell_crypt_symmetric_encrypt_cbcmac:
 469              	.LFB481:
 620:D:/School/diseratie/SEMS/xmc4800_evaluation_kit/optiga-trust-m/examples\optiga_shell.c **** #ifndef OPTIGA_INIT_DEINIT_DONE_EXCLUSIVELY
 470              	 .loc 1 620 0
 471              	 .cfi_startproc
 472              	 
 473              	 
 474 0000 38B5     	 push {r3,r4,r5,lr}
 475              	.LCFI10:
 476              	 .cfi_def_cfa_offset 16
 477              	 .cfi_offset 3,-16
 478              	 .cfi_offset 4,-12
 479              	 .cfi_offset 5,-8
 480              	 .cfi_offset 14,-4
 622:D:/School/diseratie/SEMS/xmc4800_evaluation_kit/optiga-trust-m/examples\optiga_shell.c **** #endif
 481              	 .loc 1 622 0
 482 0002 0F4D     	 ldr r5,.L26
 483 0004 0F4C     	 ldr r4,.L26+4
 484 0006 1048     	 ldr r0,.L26+8
 485 0008 2946     	 mov r1,r5
 486 000a 2246     	 mov r2,r4
 487 000c FFF7FEFF 	 bl optiga_lib_print_message
 488              	.LVL38:
 624:D:/School/diseratie/SEMS/xmc4800_evaluation_kit/optiga-trust-m/examples\optiga_shell.c ****     OPTIGA_SHELL_LOG_MESSAGE("1 Step: Generate and store the AES 128 Symmetric key in OPTIGA Key st
 489              	 .loc 1 624 0
 490 0010 2946     	 mov r1,r5
 491 0012 2246     	 mov r2,r4
 492 0014 0D48     	 ldr r0,.L26+12
 493 0016 FFF7FEFF 	 bl optiga_lib_print_message
 494              	.LVL39:
 625:D:/School/diseratie/SEMS/xmc4800_evaluation_kit/optiga-trust-m/examples\optiga_shell.c ****     OPTIGA_SHELL_LOG_MESSAGE("2 Step: Encrypt the plain data with CBCMAC mode");
 495              	 .loc 1 625 0
 496 001a 2946     	 mov r1,r5
 497 001c 2246     	 mov r2,r4
 498 001e 0C48     	 ldr r0,.L26+16
 499 0020 FFF7FEFF 	 bl optiga_lib_print_message
 500              	.LVL40:
 626:D:/School/diseratie/SEMS/xmc4800_evaluation_kit/optiga-trust-m/examples\optiga_shell.c **** #ifndef OPTIGA_INIT_DEINIT_DONE_EXCLUSIVELY
 501              	 .loc 1 626 0
 502 0024 2946     	 mov r1,r5
 503 0026 2246     	 mov r2,r4
 504 0028 0A48     	 ldr r0,.L26+20
 505 002a FFF7FEFF 	 bl optiga_lib_print_message
 506              	.LVL41:
 628:D:/School/diseratie/SEMS/xmc4800_evaluation_kit/optiga-trust-m/examples\optiga_shell.c **** #endif
 507              	 .loc 1 628 0
 508 002e 2946     	 mov r1,r5
 509 0030 2246     	 mov r2,r4
 510 0032 0948     	 ldr r0,.L26+24
 511 0034 FFF7FEFF 	 bl optiga_lib_print_message
 512              	.LVL42:
 631:D:/School/diseratie/SEMS/xmc4800_evaluation_kit/optiga-trust-m/examples\optiga_shell.c **** #endif
 513              	 .loc 1 631 0
 514 0038 BDE83840 	 pop {r3,r4,r5,lr}
 515              	.LCFI11:
 516              	 .cfi_restore 14
 517              	 .cfi_restore 5
 518              	 .cfi_restore 4
 519              	 .cfi_restore 3
 520              	 .cfi_def_cfa_offset 0
 630:D:/School/diseratie/SEMS/xmc4800_evaluation_kit/optiga-trust-m/examples\optiga_shell.c **** }
 521              	 .loc 1 630 0
 522 003c FFF7FEBF 	 b example_optiga_crypt_symmetric_encrypt_cbcmac
 523              	.LVL43:
 524              	.L27:
 525              	 .align 2
 526              	.L26:
 527 0040 34000000 	 .word .LC1
 528 0044 48000000 	 .word .LC2
 529 0048 00000000 	 .word .LC0
 530 004c 50050000 	 .word .LC28
 531 0050 88050000 	 .word .LC29
 532 0054 DC050000 	 .word .LC30
 533 0058 28050000 	 .word .LC27
 534              	 .cfi_endproc
 535              	.LFE481:
 537              	 .section .text.optiga_shell_crypt_symmetric_encrypt_decrypt_cbc,"ax",%progbits
 538              	 .align 2
 539              	 .thumb
 540              	 .thumb_func
 542              	optiga_shell_crypt_symmetric_encrypt_decrypt_cbc:
 543              	.LFB480:
 605:D:/School/diseratie/SEMS/xmc4800_evaluation_kit/optiga-trust-m/examples\optiga_shell.c **** #ifndef OPTIGA_INIT_DEINIT_DONE_EXCLUSIVELY
 544              	 .loc 1 605 0
 545              	 .cfi_startproc
 546              	 
 547              	 
 548 0000 38B5     	 push {r3,r4,r5,lr}
 549              	.LCFI12:
 550              	 .cfi_def_cfa_offset 16
 551              	 .cfi_offset 3,-16
 552              	 .cfi_offset 4,-12
 553              	 .cfi_offset 5,-8
 554              	 .cfi_offset 14,-4
 607:D:/School/diseratie/SEMS/xmc4800_evaluation_kit/optiga-trust-m/examples\optiga_shell.c **** #endif
 555              	 .loc 1 607 0
 556 0002 124D     	 ldr r5,.L30
 557 0004 124C     	 ldr r4,.L30+4
 558 0006 1348     	 ldr r0,.L30+8
 559 0008 2946     	 mov r1,r5
 560 000a 2246     	 mov r2,r4
 561 000c FFF7FEFF 	 bl optiga_lib_print_message
 562              	.LVL44:
 609:D:/School/diseratie/SEMS/xmc4800_evaluation_kit/optiga-trust-m/examples\optiga_shell.c ****     OPTIGA_SHELL_LOG_MESSAGE("1 Step: Generate and store the AES 128 Symmetric key in OPTIGA Key st
 563              	 .loc 1 609 0
 564 0010 2946     	 mov r1,r5
 565 0012 2246     	 mov r2,r4
 566 0014 1048     	 ldr r0,.L30+12
 567 0016 FFF7FEFF 	 bl optiga_lib_print_message
 568              	.LVL45:
 610:D:/School/diseratie/SEMS/xmc4800_evaluation_kit/optiga-trust-m/examples\optiga_shell.c ****     OPTIGA_SHELL_LOG_MESSAGE("2 Step: Encrypt the plain data with CBC mode");
 569              	 .loc 1 610 0
 570 001a 2946     	 mov r1,r5
 571 001c 2246     	 mov r2,r4
 572 001e 0F48     	 ldr r0,.L30+16
 573 0020 FFF7FEFF 	 bl optiga_lib_print_message
 574              	.LVL46:
 611:D:/School/diseratie/SEMS/xmc4800_evaluation_kit/optiga-trust-m/examples\optiga_shell.c ****     OPTIGA_SHELL_LOG_MESSAGE("3 Step: Decrypt the encrypted data from step 2");
 575              	 .loc 1 611 0
 576 0024 2946     	 mov r1,r5
 577 0026 2246     	 mov r2,r4
 578 0028 0D48     	 ldr r0,.L30+20
 579 002a FFF7FEFF 	 bl optiga_lib_print_message
 580              	.LVL47:
 612:D:/School/diseratie/SEMS/xmc4800_evaluation_kit/optiga-trust-m/examples\optiga_shell.c **** #ifndef OPTIGA_INIT_DEINIT_DONE_EXCLUSIVELY
 581              	 .loc 1 612 0
 582 002e 2946     	 mov r1,r5
 583 0030 2246     	 mov r2,r4
 584 0032 0C48     	 ldr r0,.L30+24
 585 0034 FFF7FEFF 	 bl optiga_lib_print_message
 586              	.LVL48:
 614:D:/School/diseratie/SEMS/xmc4800_evaluation_kit/optiga-trust-m/examples\optiga_shell.c **** #endif
 587              	 .loc 1 614 0
 588 0038 2946     	 mov r1,r5
 589 003a 2246     	 mov r2,r4
 590 003c 0A48     	 ldr r0,.L30+28
 591 003e FFF7FEFF 	 bl optiga_lib_print_message
 592              	.LVL49:
 617:D:/School/diseratie/SEMS/xmc4800_evaluation_kit/optiga-trust-m/examples\optiga_shell.c **** 
 593              	 .loc 1 617 0
 594 0042 BDE83840 	 pop {r3,r4,r5,lr}
 595              	.LCFI13:
 596              	 .cfi_restore 14
 597              	 .cfi_restore 5
 598              	 .cfi_restore 4
 599              	 .cfi_restore 3
 600              	 .cfi_def_cfa_offset 0
 616:D:/School/diseratie/SEMS/xmc4800_evaluation_kit/optiga-trust-m/examples\optiga_shell.c **** }
 601              	 .loc 1 616 0
 602 0046 FFF7FEBF 	 b example_optiga_crypt_symmetric_encrypt_decrypt_cbc
 603              	.LVL50:
 604              	.L31:
 605 004a 00BF     	 .align 2
 606              	.L30:
 607 004c 34000000 	 .word .LC1
 608 0050 48000000 	 .word .LC2
 609 0054 00000000 	 .word .LC0
 610 0058 0C060000 	 .word .LC31
 611 005c 88050000 	 .word .LC29
 612 0060 50060000 	 .word .LC32
 613 0064 80060000 	 .word .LC33
 614 0068 48040000 	 .word .LC23
 615              	 .cfi_endproc
 616              	.LFE480:
 618              	 .section .text.optiga_shell_crypt_symmetric_encrypt_decrypt_ecb,"ax",%progbits
 619              	 .align 2
 620              	 .thumb
 621              	 .thumb_func
 623              	optiga_shell_crypt_symmetric_encrypt_decrypt_ecb:
 624              	.LFB479:
 590:D:/School/diseratie/SEMS/xmc4800_evaluation_kit/optiga-trust-m/examples\optiga_shell.c **** #ifndef OPTIGA_INIT_DEINIT_DONE_EXCLUSIVELY
 625              	 .loc 1 590 0
 626              	 .cfi_startproc
 627              	 
 628              	 
 629 0000 38B5     	 push {r3,r4,r5,lr}
 630              	.LCFI14:
 631              	 .cfi_def_cfa_offset 16
 632              	 .cfi_offset 3,-16
 633              	 .cfi_offset 4,-12
 634              	 .cfi_offset 5,-8
 635              	 .cfi_offset 14,-4
 592:D:/School/diseratie/SEMS/xmc4800_evaluation_kit/optiga-trust-m/examples\optiga_shell.c **** #endif
 636              	 .loc 1 592 0
 637 0002 124D     	 ldr r5,.L34
 638 0004 124C     	 ldr r4,.L34+4
 639 0006 1348     	 ldr r0,.L34+8
 640 0008 2946     	 mov r1,r5
 641 000a 2246     	 mov r2,r4
 642 000c FFF7FEFF 	 bl optiga_lib_print_message
 643              	.LVL51:
 594:D:/School/diseratie/SEMS/xmc4800_evaluation_kit/optiga-trust-m/examples\optiga_shell.c ****     OPTIGA_SHELL_LOG_MESSAGE("1 Step: Generate and store the AES 128 Symmetric key in OPTIGA Key st
 644              	 .loc 1 594 0
 645 0010 2946     	 mov r1,r5
 646 0012 2246     	 mov r2,r4
 647 0014 1048     	 ldr r0,.L34+12
 648 0016 FFF7FEFF 	 bl optiga_lib_print_message
 649              	.LVL52:
 595:D:/School/diseratie/SEMS/xmc4800_evaluation_kit/optiga-trust-m/examples\optiga_shell.c ****     OPTIGA_SHELL_LOG_MESSAGE("2 Step: Encrypt the plain data with ECB mode");
 650              	 .loc 1 595 0
 651 001a 2946     	 mov r1,r5
 652 001c 2246     	 mov r2,r4
 653 001e 0F48     	 ldr r0,.L34+16
 654 0020 FFF7FEFF 	 bl optiga_lib_print_message
 655              	.LVL53:
 596:D:/School/diseratie/SEMS/xmc4800_evaluation_kit/optiga-trust-m/examples\optiga_shell.c ****     OPTIGA_SHELL_LOG_MESSAGE("3 Step: Decrypt the encrypted data from step 2");
 656              	 .loc 1 596 0
 657 0024 2946     	 mov r1,r5
 658 0026 2246     	 mov r2,r4
 659 0028 0D48     	 ldr r0,.L34+20
 660 002a FFF7FEFF 	 bl optiga_lib_print_message
 661              	.LVL54:
 597:D:/School/diseratie/SEMS/xmc4800_evaluation_kit/optiga-trust-m/examples\optiga_shell.c **** #ifndef OPTIGA_INIT_DEINIT_DONE_EXCLUSIVELY
 662              	 .loc 1 597 0
 663 002e 2946     	 mov r1,r5
 664 0030 2246     	 mov r2,r4
 665 0032 0C48     	 ldr r0,.L34+24
 666 0034 FFF7FEFF 	 bl optiga_lib_print_message
 667              	.LVL55:
 599:D:/School/diseratie/SEMS/xmc4800_evaluation_kit/optiga-trust-m/examples\optiga_shell.c **** #endif
 668              	 .loc 1 599 0
 669 0038 2946     	 mov r1,r5
 670 003a 2246     	 mov r2,r4
 671 003c 0A48     	 ldr r0,.L34+28
 672 003e FFF7FEFF 	 bl optiga_lib_print_message
 673              	.LVL56:
 602:D:/School/diseratie/SEMS/xmc4800_evaluation_kit/optiga-trust-m/examples\optiga_shell.c **** 
 674              	 .loc 1 602 0
 675 0042 BDE83840 	 pop {r3,r4,r5,lr}
 676              	.LCFI15:
 677              	 .cfi_restore 14
 678              	 .cfi_restore 5
 679              	 .cfi_restore 4
 680              	 .cfi_restore 3
 681              	 .cfi_def_cfa_offset 0
 601:D:/School/diseratie/SEMS/xmc4800_evaluation_kit/optiga-trust-m/examples\optiga_shell.c **** }
 682              	 .loc 1 601 0
 683 0046 FFF7FEBF 	 b example_optiga_crypt_symmetric_encrypt_decrypt_ecb
 684              	.LVL57:
 685              	.L35:
 686 004a 00BF     	 .align 2
 687              	.L34:
 688 004c 34000000 	 .word .LC1
 689 0050 48000000 	 .word .LC2
 690 0054 00000000 	 .word .LC0
 691 0058 B0060000 	 .word .LC34
 692 005c 88050000 	 .word .LC29
 693 0060 F4060000 	 .word .LC35
 694 0064 80060000 	 .word .LC33
 695 0068 48040000 	 .word .LC23
 696              	 .cfi_endproc
 697              	.LFE479:
 699              	 .section .text.optiga_shell_crypt_rsa_decrypt_and_export,"ax",%progbits
 700              	 .align 2
 701              	 .thumb
 702              	 .thumb_func
 704              	optiga_shell_crypt_rsa_decrypt_and_export:
 705              	.LFB475:
 523:D:/School/diseratie/SEMS/xmc4800_evaluation_kit/optiga-trust-m/examples\optiga_shell.c **** #ifndef OPTIGA_INIT_DEINIT_DONE_EXCLUSIVELY
 706              	 .loc 1 523 0
 707              	 .cfi_startproc
 708              	 
 709              	 
 710 0000 38B5     	 push {r3,r4,r5,lr}
 711              	.LCFI16:
 712              	 .cfi_def_cfa_offset 16
 713              	 .cfi_offset 3,-16
 714              	 .cfi_offset 4,-12
 715              	 .cfi_offset 5,-8
 716              	 .cfi_offset 14,-4
 525:D:/School/diseratie/SEMS/xmc4800_evaluation_kit/optiga-trust-m/examples\optiga_shell.c **** #endif
 717              	 .loc 1 525 0
 718 0002 144D     	 ldr r5,.L38
 719 0004 144C     	 ldr r4,.L38+4
 720 0006 1548     	 ldr r0,.L38+8
 721 0008 2946     	 mov r1,r5
 722 000a 2246     	 mov r2,r4
 723 000c FFF7FEFF 	 bl optiga_lib_print_message
 724              	.LVL58:
 527:D:/School/diseratie/SEMS/xmc4800_evaluation_kit/optiga-trust-m/examples\optiga_shell.c ****     OPTIGA_SHELL_LOG_MESSAGE("1 Step: Generate RSA 1024 Key Pair and export the public key");
 725              	 .loc 1 527 0
 726 0010 2946     	 mov r1,r5
 727 0012 2246     	 mov r2,r4
 728 0014 1248     	 ldr r0,.L38+12
 729 0016 FFF7FEFF 	 bl optiga_lib_print_message
 730              	.LVL59:
 528:D:/School/diseratie/SEMS/xmc4800_evaluation_kit/optiga-trust-m/examples\optiga_shell.c ****     OPTIGA_SHELL_LOG_MESSAGE("2 Step: Encrypt a message with RSAES PKCS#1 Ver1.5 Scheme");
 731              	 .loc 1 528 0
 732 001a 2946     	 mov r1,r5
 733 001c 2246     	 mov r2,r4
 734 001e 1148     	 ldr r0,.L38+16
 735 0020 FFF7FEFF 	 bl optiga_lib_print_message
 736              	.LVL60:
 529:D:/School/diseratie/SEMS/xmc4800_evaluation_kit/optiga-trust-m/examples\optiga_shell.c ****     OPTIGA_SHELL_LOG_MESSAGE("3 Step: Select Protected I2C Connection");
 737              	 .loc 1 529 0
 738 0024 2946     	 mov r1,r5
 739 0026 2246     	 mov r2,r4
 740 0028 0F48     	 ldr r0,.L38+20
 741 002a FFF7FEFF 	 bl optiga_lib_print_message
 742              	.LVL61:
 530:D:/School/diseratie/SEMS/xmc4800_evaluation_kit/optiga-trust-m/examples\optiga_shell.c ****     OPTIGA_SHELL_LOG_MESSAGE("4 Step: Decrypt the message with RSAES PKCS#1 Ver1.5 Scheme and expor
 743              	 .loc 1 530 0
 744 002e 2946     	 mov r1,r5
 745 0030 2246     	 mov r2,r4
 746 0032 0E48     	 ldr r0,.L38+24
 747 0034 FFF7FEFF 	 bl optiga_lib_print_message
 748              	.LVL62:
 531:D:/School/diseratie/SEMS/xmc4800_evaluation_kit/optiga-trust-m/examples\optiga_shell.c **** #ifndef OPTIGA_INIT_DEINIT_DONE_EXCLUSIVELY
 749              	 .loc 1 531 0
 750 0038 2946     	 mov r1,r5
 751 003a 2246     	 mov r2,r4
 752 003c 0C48     	 ldr r0,.L38+28
 753 003e FFF7FEFF 	 bl optiga_lib_print_message
 754              	.LVL63:
 533:D:/School/diseratie/SEMS/xmc4800_evaluation_kit/optiga-trust-m/examples\optiga_shell.c **** #endif
 755              	 .loc 1 533 0
 756 0042 2946     	 mov r1,r5
 757 0044 2246     	 mov r2,r4
 758 0046 0B48     	 ldr r0,.L38+32
 759 0048 FFF7FEFF 	 bl optiga_lib_print_message
 760              	.LVL64:
 536:D:/School/diseratie/SEMS/xmc4800_evaluation_kit/optiga-trust-m/examples\optiga_shell.c **** #endif
 761              	 .loc 1 536 0
 762 004c BDE83840 	 pop {r3,r4,r5,lr}
 763              	.LCFI17:
 764              	 .cfi_restore 14
 765              	 .cfi_restore 5
 766              	 .cfi_restore 4
 767              	 .cfi_restore 3
 768              	 .cfi_def_cfa_offset 0
 535:D:/School/diseratie/SEMS/xmc4800_evaluation_kit/optiga-trust-m/examples\optiga_shell.c **** }
 769              	 .loc 1 535 0
 770 0050 FFF7FEBF 	 b example_optiga_crypt_rsa_decrypt_and_export
 771              	.LVL65:
 772              	.L39:
 773              	 .align 2
 774              	.L38:
 775 0054 34000000 	 .word .LC1
 776 0058 48000000 	 .word .LC2
 777 005c 00000000 	 .word .LC0
 778 0060 24070000 	 .word .LC36
 779 0064 5C070000 	 .word .LC37
 780 0068 9C070000 	 .word .LC38
 781 006c D8070000 	 .word .LC39
 782 0070 00080000 	 .word .LC40
 783 0074 4C080000 	 .word .LC41
 784              	 .cfi_endproc
 785              	.LFE475:
 787              	 .section .text.optiga_shell_crypt_rsa_decrypt_and_store,"ax",%progbits
 788              	 .align 2
 789              	 .thumb
 790              	 .thumb_func
 792              	optiga_shell_crypt_rsa_decrypt_and_store:
 793              	.LFB476:
 541:D:/School/diseratie/SEMS/xmc4800_evaluation_kit/optiga-trust-m/examples\optiga_shell.c **** 
 794              	 .loc 1 541 0
 795              	 .cfi_startproc
 796              	 
 797              	 
 798 0000 38B5     	 push {r3,r4,r5,lr}
 799              	.LCFI18:
 800              	 .cfi_def_cfa_offset 16
 801              	 .cfi_offset 3,-16
 802              	 .cfi_offset 4,-12
 803              	 .cfi_offset 5,-8
 804              	 .cfi_offset 14,-4
 544:D:/School/diseratie/SEMS/xmc4800_evaluation_kit/optiga-trust-m/examples\optiga_shell.c **** #endif
 805              	 .loc 1 544 0
 806 0002 174D     	 ldr r5,.L42
 807 0004 174C     	 ldr r4,.L42+4
 808 0006 1848     	 ldr r0,.L42+8
 809 0008 2946     	 mov r1,r5
 810 000a 2246     	 mov r2,r4
 811 000c FFF7FEFF 	 bl optiga_lib_print_message
 812              	.LVL66:
 546:D:/School/diseratie/SEMS/xmc4800_evaluation_kit/optiga-trust-m/examples\optiga_shell.c ****     OPTIGA_SHELL_LOG_MESSAGE("1 Step: Generate RSA 1024 Key Pair and export the public key");
 813              	 .loc 1 546 0
 814 0010 2946     	 mov r1,r5
 815 0012 2246     	 mov r2,r4
 816 0014 1548     	 ldr r0,.L42+12
 817 0016 FFF7FEFF 	 bl optiga_lib_print_message
 818              	.LVL67:
 547:D:/School/diseratie/SEMS/xmc4800_evaluation_kit/optiga-trust-m/examples\optiga_shell.c ****     OPTIGA_SHELL_LOG_MESSAGE("2 Step: Generate 70 bytes RSA Pre master secret which is stored in ac
 819              	 .loc 1 547 0
 820 001a 2946     	 mov r1,r5
 821 001c 2246     	 mov r2,r4
 822 001e 1448     	 ldr r0,.L42+16
 823 0020 FFF7FEFF 	 bl optiga_lib_print_message
 824              	.LVL68:
 548:D:/School/diseratie/SEMS/xmc4800_evaluation_kit/optiga-trust-m/examples\optiga_shell.c ****     OPTIGA_SHELL_LOG_MESSAGE("3 Step: Select Protected I2C Connection");
 825              	 .loc 1 548 0
 826 0024 2946     	 mov r1,r5
 827 0026 2246     	 mov r2,r4
 828 0028 1248     	 ldr r0,.L42+20
 829 002a FFF7FEFF 	 bl optiga_lib_print_message
 830              	.LVL69:
 549:D:/School/diseratie/SEMS/xmc4800_evaluation_kit/optiga-trust-m/examples\optiga_shell.c ****     OPTIGA_SHELL_LOG_MESSAGE("4 Step: Encrypt Session Data with RSA Public Key");
 831              	 .loc 1 549 0
 832 002e 2946     	 mov r1,r5
 833 0030 2246     	 mov r2,r4
 834 0032 1148     	 ldr r0,.L42+24
 835 0034 FFF7FEFF 	 bl optiga_lib_print_message
 836              	.LVL70:
 550:D:/School/diseratie/SEMS/xmc4800_evaluation_kit/optiga-trust-m/examples\optiga_shell.c ****     OPTIGA_SHELL_LOG_MESSAGE("5 Step: Decrypt the message with RSAES PKCS#1 Ver1.5 Scheme and store
 837              	 .loc 1 550 0
 838 0038 2946     	 mov r1,r5
 839 003a 2246     	 mov r2,r4
 840 003c 0F48     	 ldr r0,.L42+28
 841 003e FFF7FEFF 	 bl optiga_lib_print_message
 842              	.LVL71:
 551:D:/School/diseratie/SEMS/xmc4800_evaluation_kit/optiga-trust-m/examples\optiga_shell.c **** #ifndef OPTIGA_INIT_DEINIT_DONE_EXCLUSIVELY
 843              	 .loc 1 551 0
 844 0042 2946     	 mov r1,r5
 845 0044 2246     	 mov r2,r4
 846 0046 0E48     	 ldr r0,.L42+32
 847 0048 FFF7FEFF 	 bl optiga_lib_print_message
 848              	.LVL72:
 553:D:/School/diseratie/SEMS/xmc4800_evaluation_kit/optiga-trust-m/examples\optiga_shell.c **** #endif
 849              	 .loc 1 553 0
 850 004c 2946     	 mov r1,r5
 851 004e 2246     	 mov r2,r4
 852 0050 0C48     	 ldr r0,.L42+36
 853 0052 FFF7FEFF 	 bl optiga_lib_print_message
 854              	.LVL73:
 556:D:/School/diseratie/SEMS/xmc4800_evaluation_kit/optiga-trust-m/examples\optiga_shell.c **** #endif
 855              	 .loc 1 556 0
 856 0056 BDE83840 	 pop {r3,r4,r5,lr}
 857              	.LCFI19:
 858              	 .cfi_restore 14
 859              	 .cfi_restore 5
 860              	 .cfi_restore 4
 861              	 .cfi_restore 3
 862              	 .cfi_def_cfa_offset 0
 555:D:/School/diseratie/SEMS/xmc4800_evaluation_kit/optiga-trust-m/examples\optiga_shell.c **** }
 863              	 .loc 1 555 0
 864 005a FFF7FEBF 	 b example_optiga_crypt_rsa_decrypt_and_store
 865              	.LVL74:
 866              	.L43:
 867 005e 00BF     	 .align 2
 868              	.L42:
 869 0060 34000000 	 .word .LC1
 870 0064 48000000 	 .word .LC2
 871 0068 00000000 	 .word .LC0
 872 006c 74080000 	 .word .LC42
 873 0070 5C070000 	 .word .LC37
 874 0074 B8080000 	 .word .LC43
 875 0078 D8070000 	 .word .LC39
 876 007c 10090000 	 .word .LC44
 877 0080 44090000 	 .word .LC45
 878 0084 88010000 	 .word .LC9
 879              	 .cfi_endproc
 880              	.LFE476:
 882              	 .section .text.optiga_shell_crypt_rsa_encrypt_session,"ax",%progbits
 883              	 .align 2
 884              	 .thumb
 885              	 .thumb_func
 887              	optiga_shell_crypt_rsa_encrypt_session:
 888              	.LFB478:
 575:D:/School/diseratie/SEMS/xmc4800_evaluation_kit/optiga-trust-m/examples\optiga_shell.c **** #ifndef OPTIGA_INIT_DEINIT_DONE_EXCLUSIVELY
 889              	 .loc 1 575 0
 890              	 .cfi_startproc
 891              	 
 892              	 
 893 0000 38B5     	 push {r3,r4,r5,lr}
 894              	.LCFI20:
 895              	 .cfi_def_cfa_offset 16
 896              	 .cfi_offset 3,-16
 897              	 .cfi_offset 4,-12
 898              	 .cfi_offset 5,-8
 899              	 .cfi_offset 14,-4
 577:D:/School/diseratie/SEMS/xmc4800_evaluation_kit/optiga-trust-m/examples\optiga_shell.c **** #endif
 900              	 .loc 1 577 0
 901 0002 0D4D     	 ldr r5,.L46
 902 0004 0D4C     	 ldr r4,.L46+4
 903 0006 0E48     	 ldr r0,.L46+8
 904 0008 2946     	 mov r1,r5
 905 000a 2246     	 mov r2,r4
 906 000c FFF7FEFF 	 bl optiga_lib_print_message
 907              	.LVL75:
 579:D:/School/diseratie/SEMS/xmc4800_evaluation_kit/optiga-trust-m/examples\optiga_shell.c ****     OPTIGA_SHELL_LOG_MESSAGE("1 Step: Encrypt a message with RSAES PKCS#1 Ver1.5 Scheme stored on c
 908              	 .loc 1 579 0
 909 0010 2946     	 mov r1,r5
 910 0012 2246     	 mov r2,r4
 911 0014 0B48     	 ldr r0,.L46+12
 912 0016 FFF7FEFF 	 bl optiga_lib_print_message
 913              	.LVL76:
 580:D:/School/diseratie/SEMS/xmc4800_evaluation_kit/optiga-trust-m/examples\optiga_shell.c **** #ifndef OPTIGA_INIT_DEINIT_DONE_EXCLUSIVELY
 914              	 .loc 1 580 0
 915 001a 2946     	 mov r1,r5
 916 001c 2246     	 mov r2,r4
 917 001e 0A48     	 ldr r0,.L46+16
 918 0020 FFF7FEFF 	 bl optiga_lib_print_message
 919              	.LVL77:
 582:D:/School/diseratie/SEMS/xmc4800_evaluation_kit/optiga-trust-m/examples\optiga_shell.c **** #endif
 920              	 .loc 1 582 0
 921 0024 2946     	 mov r1,r5
 922 0026 2246     	 mov r2,r4
 923 0028 0848     	 ldr r0,.L46+20
 924 002a FFF7FEFF 	 bl optiga_lib_print_message
 925              	.LVL78:
 585:D:/School/diseratie/SEMS/xmc4800_evaluation_kit/optiga-trust-m/examples\optiga_shell.c **** #endif
 926              	 .loc 1 585 0
 927 002e BDE83840 	 pop {r3,r4,r5,lr}
 928              	.LCFI21:
 929              	 .cfi_restore 14
 930              	 .cfi_restore 5
 931              	 .cfi_restore 4
 932              	 .cfi_restore 3
 933              	 .cfi_def_cfa_offset 0
 584:D:/School/diseratie/SEMS/xmc4800_evaluation_kit/optiga-trust-m/examples\optiga_shell.c **** }
 934              	 .loc 1 584 0
 935 0032 FFF7FEBF 	 b example_optiga_crypt_rsa_encrypt_session
 936              	.LVL79:
 937              	.L47:
 938 0036 00BF     	 .align 2
 939              	.L46:
 940 0038 34000000 	 .word .LC1
 941 003c 48000000 	 .word .LC2
 942 0040 00000000 	 .word .LC0
 943 0044 98090000 	 .word .LC46
 944 0048 E0090000 	 .word .LC47
 945 004c 4C030000 	 .word .LC18
 946              	 .cfi_endproc
 947              	.LFE478:
 949              	 .section .text.optiga_shell_crypt_rsa_encrypt_message,"ax",%progbits
 950              	 .align 2
 951              	 .thumb
 952              	 .thumb_func
 954              	optiga_shell_crypt_rsa_encrypt_message:
 955              	.LFB477:
 560:D:/School/diseratie/SEMS/xmc4800_evaluation_kit/optiga-trust-m/examples\optiga_shell.c **** #ifndef OPTIGA_INIT_DEINIT_DONE_EXCLUSIVELY
 956              	 .loc 1 560 0
 957              	 .cfi_startproc
 958              	 
 959              	 
 960 0000 38B5     	 push {r3,r4,r5,lr}
 961              	.LCFI22:
 962              	 .cfi_def_cfa_offset 16
 963              	 .cfi_offset 3,-16
 964              	 .cfi_offset 4,-12
 965              	 .cfi_offset 5,-8
 966              	 .cfi_offset 14,-4
 562:D:/School/diseratie/SEMS/xmc4800_evaluation_kit/optiga-trust-m/examples\optiga_shell.c **** #endif
 967              	 .loc 1 562 0
 968 0002 0D4D     	 ldr r5,.L50
 969 0004 0D4C     	 ldr r4,.L50+4
 970 0006 0E48     	 ldr r0,.L50+8
 971 0008 2946     	 mov r1,r5
 972 000a 2246     	 mov r2,r4
 973 000c FFF7FEFF 	 bl optiga_lib_print_message
 974              	.LVL80:
 564:D:/School/diseratie/SEMS/xmc4800_evaluation_kit/optiga-trust-m/examples\optiga_shell.c ****     OPTIGA_SHELL_LOG_MESSAGE("1 Step: Encrypt a message with RSAES PKCS#1 Ver1.5 Scheme");
 975              	 .loc 1 564 0
 976 0010 2946     	 mov r1,r5
 977 0012 2246     	 mov r2,r4
 978 0014 0B48     	 ldr r0,.L50+12
 979 0016 FFF7FEFF 	 bl optiga_lib_print_message
 980              	.LVL81:
 565:D:/School/diseratie/SEMS/xmc4800_evaluation_kit/optiga-trust-m/examples\optiga_shell.c **** #ifndef OPTIGA_INIT_DEINIT_DONE_EXCLUSIVELY
 981              	 .loc 1 565 0
 982 001a 2946     	 mov r1,r5
 983 001c 2246     	 mov r2,r4
 984 001e 0A48     	 ldr r0,.L50+16
 985 0020 FFF7FEFF 	 bl optiga_lib_print_message
 986              	.LVL82:
 567:D:/School/diseratie/SEMS/xmc4800_evaluation_kit/optiga-trust-m/examples\optiga_shell.c **** #endif
 987              	 .loc 1 567 0
 988 0024 2946     	 mov r1,r5
 989 0026 2246     	 mov r2,r4
 990 0028 0848     	 ldr r0,.L50+20
 991 002a FFF7FEFF 	 bl optiga_lib_print_message
 992              	.LVL83:
 570:D:/School/diseratie/SEMS/xmc4800_evaluation_kit/optiga-trust-m/examples\optiga_shell.c **** #endif
 993              	 .loc 1 570 0
 994 002e BDE83840 	 pop {r3,r4,r5,lr}
 995              	.LCFI23:
 996              	 .cfi_restore 14
 997              	 .cfi_restore 5
 998              	 .cfi_restore 4
 999              	 .cfi_restore 3
 1000              	 .cfi_def_cfa_offset 0
 569:D:/School/diseratie/SEMS/xmc4800_evaluation_kit/optiga-trust-m/examples\optiga_shell.c **** }
 1001              	 .loc 1 569 0
 1002 0032 FFF7FEBF 	 b example_optiga_crypt_rsa_encrypt_message
 1003              	.LVL84:
 1004              	.L51:
 1005 0036 00BF     	 .align 2
 1006              	.L50:
 1007 0038 34000000 	 .word .LC1
 1008 003c 48000000 	 .word .LC2
 1009 0040 00000000 	 .word .LC0
 1010 0044 3C0A0000 	 .word .LC48
 1011 0048 680A0000 	 .word .LC49
 1012 004c 4C030000 	 .word .LC18
 1013              	 .cfi_endproc
 1014              	.LFE477:
 1016              	 .section .text.optiga_shell_crypt_rsa_verify,"ax",%progbits
 1017              	 .align 2
 1018              	 .thumb
 1019              	 .thumb_func
 1021              	optiga_shell_crypt_rsa_verify:
 1022              	.LFB473:
 493:D:/School/diseratie/SEMS/xmc4800_evaluation_kit/optiga-trust-m/examples\optiga_shell.c **** #ifndef OPTIGA_INIT_DEINIT_DONE_EXCLUSIVELY
 1023              	 .loc 1 493 0
 1024              	 .cfi_startproc
 1025              	 
 1026              	 
 1027 0000 38B5     	 push {r3,r4,r5,lr}
 1028              	.LCFI24:
 1029              	 .cfi_def_cfa_offset 16
 1030              	 .cfi_offset 3,-16
 1031              	 .cfi_offset 4,-12
 1032              	 .cfi_offset 5,-8
 1033              	 .cfi_offset 14,-4
 495:D:/School/diseratie/SEMS/xmc4800_evaluation_kit/optiga-trust-m/examples\optiga_shell.c **** #endif
 1034              	 .loc 1 495 0
 1035 0002 0D4D     	 ldr r5,.L54
 1036 0004 0D4C     	 ldr r4,.L54+4
 1037 0006 0E48     	 ldr r0,.L54+8
 1038 0008 2946     	 mov r1,r5
 1039 000a 2246     	 mov r2,r4
 1040 000c FFF7FEFF 	 bl optiga_lib_print_message
 1041              	.LVL85:
 497:D:/School/diseratie/SEMS/xmc4800_evaluation_kit/optiga-trust-m/examples\optiga_shell.c ****     OPTIGA_SHELL_LOG_MESSAGE("1 Step: Verify prepared signature, with prepared public key and diges
 1042              	 .loc 1 497 0
 1043 0010 2946     	 mov r1,r5
 1044 0012 2246     	 mov r2,r4
 1045 0014 0B48     	 ldr r0,.L54+12
 1046 0016 FFF7FEFF 	 bl optiga_lib_print_message
 1047              	.LVL86:
 498:D:/School/diseratie/SEMS/xmc4800_evaluation_kit/optiga-trust-m/examples\optiga_shell.c **** #ifndef OPTIGA_INIT_DEINIT_DONE_EXCLUSIVELY
 1048              	 .loc 1 498 0
 1049 001a 2946     	 mov r1,r5
 1050 001c 2246     	 mov r2,r4
 1051 001e 0A48     	 ldr r0,.L54+16
 1052 0020 FFF7FEFF 	 bl optiga_lib_print_message
 1053              	.LVL87:
 500:D:/School/diseratie/SEMS/xmc4800_evaluation_kit/optiga-trust-m/examples\optiga_shell.c **** #endif
 1054              	 .loc 1 500 0
 1055 0024 2946     	 mov r1,r5
 1056 0026 2246     	 mov r2,r4
 1057 0028 0848     	 ldr r0,.L54+20
 1058 002a FFF7FEFF 	 bl optiga_lib_print_message
 1059              	.LVL88:
 503:D:/School/diseratie/SEMS/xmc4800_evaluation_kit/optiga-trust-m/examples\optiga_shell.c **** #endif
 1060              	 .loc 1 503 0
 1061 002e BDE83840 	 pop {r3,r4,r5,lr}
 1062              	.LCFI25:
 1063              	 .cfi_restore 14
 1064              	 .cfi_restore 5
 1065              	 .cfi_restore 4
 1066              	 .cfi_restore 3
 1067              	 .cfi_def_cfa_offset 0
 502:D:/School/diseratie/SEMS/xmc4800_evaluation_kit/optiga-trust-m/examples\optiga_shell.c **** }
 1068              	 .loc 1 502 0
 1069 0032 FFF7FEBF 	 b example_optiga_crypt_rsa_verify
 1070              	.LVL89:
 1071              	.L55:
 1072 0036 00BF     	 .align 2
 1073              	.L54:
 1074 0038 34000000 	 .word .LC1
 1075 003c 48000000 	 .word .LC2
 1076 0040 00000000 	 .word .LC0
 1077 0044 A40A0000 	 .word .LC50
 1078 0048 F00A0000 	 .word .LC51
 1079 004c 4C030000 	 .word .LC18
 1080              	 .cfi_endproc
 1081              	.LFE473:
 1083              	 .section .text.optiga_shell_crypt_rsa_sign,"ax",%progbits
 1084              	 .align 2
 1085              	 .thumb
 1086              	 .thumb_func
 1088              	optiga_shell_crypt_rsa_sign:
 1089              	.LFB472:
 478:D:/School/diseratie/SEMS/xmc4800_evaluation_kit/optiga-trust-m/examples\optiga_shell.c **** #ifndef OPTIGA_INIT_DEINIT_DONE_EXCLUSIVELY
 1090              	 .loc 1 478 0
 1091              	 .cfi_startproc
 1092              	 
 1093              	 
 1094 0000 38B5     	 push {r3,r4,r5,lr}
 1095              	.LCFI26:
 1096              	 .cfi_def_cfa_offset 16
 1097              	 .cfi_offset 3,-16
 1098              	 .cfi_offset 4,-12
 1099              	 .cfi_offset 5,-8
 1100              	 .cfi_offset 14,-4
 480:D:/School/diseratie/SEMS/xmc4800_evaluation_kit/optiga-trust-m/examples\optiga_shell.c **** #endif
 1101              	 .loc 1 480 0
 1102 0002 0D4D     	 ldr r5,.L58
 1103 0004 0D4C     	 ldr r4,.L58+4
 1104 0006 0E48     	 ldr r0,.L58+8
 1105 0008 2946     	 mov r1,r5
 1106 000a 2246     	 mov r2,r4
 1107 000c FFF7FEFF 	 bl optiga_lib_print_message
 1108              	.LVL90:
 482:D:/School/diseratie/SEMS/xmc4800_evaluation_kit/optiga-trust-m/examples\optiga_shell.c ****     OPTIGA_SHELL_LOG_MESSAGE("1 Step: Sign prepared Data and export the signature");
 1109              	 .loc 1 482 0
 1110 0010 2946     	 mov r1,r5
 1111 0012 2246     	 mov r2,r4
 1112 0014 0B48     	 ldr r0,.L58+12
 1113 0016 FFF7FEFF 	 bl optiga_lib_print_message
 1114              	.LVL91:
 483:D:/School/diseratie/SEMS/xmc4800_evaluation_kit/optiga-trust-m/examples\optiga_shell.c **** #ifndef OPTIGA_INIT_DEINIT_DONE_EXCLUSIVELY
 1115              	 .loc 1 483 0
 1116 001a 2946     	 mov r1,r5
 1117 001c 2246     	 mov r2,r4
 1118 001e 0A48     	 ldr r0,.L58+16
 1119 0020 FFF7FEFF 	 bl optiga_lib_print_message
 1120              	.LVL92:
 485:D:/School/diseratie/SEMS/xmc4800_evaluation_kit/optiga-trust-m/examples\optiga_shell.c **** #endif
 1121              	 .loc 1 485 0
 1122 0024 2946     	 mov r1,r5
 1123 0026 2246     	 mov r2,r4
 1124 0028 0848     	 ldr r0,.L58+20
 1125 002a FFF7FEFF 	 bl optiga_lib_print_message
 1126              	.LVL93:
 488:D:/School/diseratie/SEMS/xmc4800_evaluation_kit/optiga-trust-m/examples\optiga_shell.c **** #endif
 1127              	 .loc 1 488 0
 1128 002e BDE83840 	 pop {r3,r4,r5,lr}
 1129              	.LCFI27:
 1130              	 .cfi_restore 14
 1131              	 .cfi_restore 5
 1132              	 .cfi_restore 4
 1133              	 .cfi_restore 3
 1134              	 .cfi_def_cfa_offset 0
 487:D:/School/diseratie/SEMS/xmc4800_evaluation_kit/optiga-trust-m/examples\optiga_shell.c **** }
 1135              	 .loc 1 487 0
 1136 0032 FFF7FEBF 	 b example_optiga_crypt_rsa_sign
 1137              	.LVL94:
 1138              	.L59:
 1139 0036 00BF     	 .align 2
 1140              	.L58:
 1141 0038 34000000 	 .word .LC1
 1142 003c 48000000 	 .word .LC2
 1143 0040 00000000 	 .word .LC0
 1144 0044 A40A0000 	 .word .LC50
 1145 0048 380B0000 	 .word .LC52
 1146 004c 4C030000 	 .word .LC18
 1147              	 .cfi_endproc
 1148              	.LFE472:
 1150              	 .section .text.optiga_shell_crypt_rsa_generate_keypair,"ax",%progbits
 1151              	 .align 2
 1152              	 .thumb
 1153              	 .thumb_func
 1155              	optiga_shell_crypt_rsa_generate_keypair:
 1156              	.LFB474:
 508:D:/School/diseratie/SEMS/xmc4800_evaluation_kit/optiga-trust-m/examples\optiga_shell.c **** #ifndef OPTIGA_INIT_DEINIT_DONE_EXCLUSIVELY
 1157              	 .loc 1 508 0
 1158              	 .cfi_startproc
 1159              	 
 1160              	 
 1161 0000 38B5     	 push {r3,r4,r5,lr}
 1162              	.LCFI28:
 1163              	 .cfi_def_cfa_offset 16
 1164              	 .cfi_offset 3,-16
 1165              	 .cfi_offset 4,-12
 1166              	 .cfi_offset 5,-8
 1167              	 .cfi_offset 14,-4
 510:D:/School/diseratie/SEMS/xmc4800_evaluation_kit/optiga-trust-m/examples\optiga_shell.c **** #endif
 1168              	 .loc 1 510 0
 1169 0002 0D4D     	 ldr r5,.L62
 1170 0004 0D4C     	 ldr r4,.L62+4
 1171 0006 0E48     	 ldr r0,.L62+8
 1172 0008 2946     	 mov r1,r5
 1173 000a 2246     	 mov r2,r4
 1174 000c FFF7FEFF 	 bl optiga_lib_print_message
 1175              	.LVL95:
 512:D:/School/diseratie/SEMS/xmc4800_evaluation_kit/optiga-trust-m/examples\optiga_shell.c ****     OPTIGA_SHELL_LOG_MESSAGE("1 Step: Generate RSA 1024 Key Pair and export the public key");
 1176              	 .loc 1 512 0
 1177 0010 2946     	 mov r1,r5
 1178 0012 2246     	 mov r2,r4
 1179 0014 0B48     	 ldr r0,.L62+12
 1180 0016 FFF7FEFF 	 bl optiga_lib_print_message
 1181              	.LVL96:
 513:D:/School/diseratie/SEMS/xmc4800_evaluation_kit/optiga-trust-m/examples\optiga_shell.c **** #ifndef OPTIGA_INIT_DEINIT_DONE_EXCLUSIVELY
 1182              	 .loc 1 513 0
 1183 001a 2946     	 mov r1,r5
 1184 001c 2246     	 mov r2,r4
 1185 001e 0A48     	 ldr r0,.L62+16
 1186 0020 FFF7FEFF 	 bl optiga_lib_print_message
 1187              	.LVL97:
 515:D:/School/diseratie/SEMS/xmc4800_evaluation_kit/optiga-trust-m/examples\optiga_shell.c **** #endif
 1188              	 .loc 1 515 0
 1189 0024 2946     	 mov r1,r5
 1190 0026 2246     	 mov r2,r4
 1191 0028 0848     	 ldr r0,.L62+20
 1192 002a FFF7FEFF 	 bl optiga_lib_print_message
 1193              	.LVL98:
 518:D:/School/diseratie/SEMS/xmc4800_evaluation_kit/optiga-trust-m/examples\optiga_shell.c **** #endif
 1194              	 .loc 1 518 0
 1195 002e BDE83840 	 pop {r3,r4,r5,lr}
 1196              	.LCFI29:
 1197              	 .cfi_restore 14
 1198              	 .cfi_restore 5
 1199              	 .cfi_restore 4
 1200              	 .cfi_restore 3
 1201              	 .cfi_def_cfa_offset 0
 517:D:/School/diseratie/SEMS/xmc4800_evaluation_kit/optiga-trust-m/examples\optiga_shell.c **** }
 1202              	 .loc 1 517 0
 1203 0032 FFF7FEBF 	 b example_optiga_crypt_rsa_generate_keypair
 1204              	.LVL99:
 1205              	.L63:
 1206 0036 00BF     	 .align 2
 1207              	.L62:
 1208 0038 34000000 	 .word .LC1
 1209 003c 48000000 	 .word .LC2
 1210 0040 00000000 	 .word .LC0
 1211 0044 6C0B0000 	 .word .LC53
 1212 0048 5C070000 	 .word .LC37
 1213 004c 4C030000 	 .word .LC18
 1214              	 .cfi_endproc
 1215              	.LFE474:
 1217              	 .section .text.optiga_shell_crypt_ecdh,"ax",%progbits
 1218              	 .align 2
 1219              	 .thumb
 1220              	 .thumb_func
 1222              	optiga_shell_crypt_ecdh:
 1223              	.LFB469:
 430:D:/School/diseratie/SEMS/xmc4800_evaluation_kit/optiga-trust-m/examples\optiga_shell.c **** #ifndef OPTIGA_INIT_DEINIT_DONE_EXCLUSIVELY
 1224              	 .loc 1 430 0
 1225              	 .cfi_startproc
 1226              	 
 1227              	 
 1228 0000 38B5     	 push {r3,r4,r5,lr}
 1229              	.LCFI30:
 1230              	 .cfi_def_cfa_offset 16
 1231              	 .cfi_offset 3,-16
 1232              	 .cfi_offset 4,-12
 1233              	 .cfi_offset 5,-8
 1234              	 .cfi_offset 14,-4
 432:D:/School/diseratie/SEMS/xmc4800_evaluation_kit/optiga-trust-m/examples\optiga_shell.c **** #endif
 1235              	 .loc 1 432 0
 1236 0002 144D     	 ldr r5,.L66
 1237 0004 144C     	 ldr r4,.L66+4
 1238 0006 1548     	 ldr r0,.L66+8
 1239 0008 2946     	 mov r1,r5
 1240 000a 2246     	 mov r2,r4
 1241 000c FFF7FEFF 	 bl optiga_lib_print_message
 1242              	.LVL100:
 434:D:/School/diseratie/SEMS/xmc4800_evaluation_kit/optiga-trust-m/examples\optiga_shell.c ****     OPTIGA_SHELL_LOG_MESSAGE("1 Step: Select Protected I2C Connection");
 1243              	 .loc 1 434 0
 1244 0010 2946     	 mov r1,r5
 1245 0012 2246     	 mov r2,r4
 1246 0014 1248     	 ldr r0,.L66+12
 1247 0016 FFF7FEFF 	 bl optiga_lib_print_message
 1248              	.LVL101:
 435:D:/School/diseratie/SEMS/xmc4800_evaluation_kit/optiga-trust-m/examples\optiga_shell.c ****     OPTIGA_SHELL_LOG_MESSAGE("2 Step: Generate new ECC NIST P-256 Key Pair");
 1249              	 .loc 1 435 0
 1250 001a 2946     	 mov r1,r5
 1251 001c 2246     	 mov r2,r4
 1252 001e 1148     	 ldr r0,.L66+16
 1253 0020 FFF7FEFF 	 bl optiga_lib_print_message
 1254              	.LVL102:
 436:D:/School/diseratie/SEMS/xmc4800_evaluation_kit/optiga-trust-m/examples\optiga_shell.c ****     OPTIGA_SHELL_LOG_MESSAGE("3 Step: Select Protected I2C Connection");
 1255              	 .loc 1 436 0
 1256 0024 2946     	 mov r1,r5
 1257 0026 2246     	 mov r2,r4
 1258 0028 0F48     	 ldr r0,.L66+20
 1259 002a FFF7FEFF 	 bl optiga_lib_print_message
 1260              	.LVL103:
 437:D:/School/diseratie/SEMS/xmc4800_evaluation_kit/optiga-trust-m/examples\optiga_shell.c ****     OPTIGA_SHELL_LOG_MESSAGE("4 Step: Generate Shared Secret and export it");
 1261              	 .loc 1 437 0
 1262 002e 2946     	 mov r1,r5
 1263 0030 2246     	 mov r2,r4
 1264 0032 0E48     	 ldr r0,.L66+24
 1265 0034 FFF7FEFF 	 bl optiga_lib_print_message
 1266              	.LVL104:
 438:D:/School/diseratie/SEMS/xmc4800_evaluation_kit/optiga-trust-m/examples\optiga_shell.c **** #ifndef OPTIGA_INIT_DEINIT_DONE_EXCLUSIVELY
 1267              	 .loc 1 438 0
 1268 0038 2946     	 mov r1,r5
 1269 003a 2246     	 mov r2,r4
 1270 003c 0C48     	 ldr r0,.L66+28
 1271 003e FFF7FEFF 	 bl optiga_lib_print_message
 1272              	.LVL105:
 440:D:/School/diseratie/SEMS/xmc4800_evaluation_kit/optiga-trust-m/examples\optiga_shell.c **** #endif
 1273              	 .loc 1 440 0
 1274 0042 2946     	 mov r1,r5
 1275 0044 2246     	 mov r2,r4
 1276 0046 0B48     	 ldr r0,.L66+32
 1277 0048 FFF7FEFF 	 bl optiga_lib_print_message
 1278              	.LVL106:
 443:D:/School/diseratie/SEMS/xmc4800_evaluation_kit/optiga-trust-m/examples\optiga_shell.c **** #endif
 1279              	 .loc 1 443 0
 1280 004c BDE83840 	 pop {r3,r4,r5,lr}
 1281              	.LCFI31:
 1282              	 .cfi_restore 14
 1283              	 .cfi_restore 5
 1284              	 .cfi_restore 4
 1285              	 .cfi_restore 3
 1286              	 .cfi_def_cfa_offset 0
 442:D:/School/diseratie/SEMS/xmc4800_evaluation_kit/optiga-trust-m/examples\optiga_shell.c **** }
 1287              	 .loc 1 442 0
 1288 0050 FFF7FEBF 	 b example_optiga_crypt_ecdh
 1289              	.LVL107:
 1290              	.L67:
 1291              	 .align 2
 1292              	.L66:
 1293 0054 34000000 	 .word .LC1
 1294 0058 48000000 	 .word .LC2
 1295 005c 00000000 	 .word .LC0
 1296 0060 900B0000 	 .word .LC54
 1297 0064 E00B0000 	 .word .LC55
 1298 0068 080C0000 	 .word .LC56
 1299 006c D8070000 	 .word .LC39
 1300 0070 380C0000 	 .word .LC57
 1301 0074 4C080000 	 .word .LC41
 1302              	 .cfi_endproc
 1303              	.LFE469:
 1305              	 .section .text.optiga_shell_crypt_ecdsa_verify,"ax",%progbits
 1306              	 .align 2
 1307              	 .thumb
 1308              	 .thumb_func
 1310              	optiga_shell_crypt_ecdsa_verify:
 1311              	.LFB471:
 463:D:/School/diseratie/SEMS/xmc4800_evaluation_kit/optiga-trust-m/examples\optiga_shell.c **** #ifndef OPTIGA_INIT_DEINIT_DONE_EXCLUSIVELY
 1312              	 .loc 1 463 0
 1313              	 .cfi_startproc
 1314              	 
 1315              	 
 1316 0000 38B5     	 push {r3,r4,r5,lr}
 1317              	.LCFI32:
 1318              	 .cfi_def_cfa_offset 16
 1319              	 .cfi_offset 3,-16
 1320              	 .cfi_offset 4,-12
 1321              	 .cfi_offset 5,-8
 1322              	 .cfi_offset 14,-4
 465:D:/School/diseratie/SEMS/xmc4800_evaluation_kit/optiga-trust-m/examples\optiga_shell.c **** #endif
 1323              	 .loc 1 465 0
 1324 0002 0D4D     	 ldr r5,.L70
 1325 0004 0D4C     	 ldr r4,.L70+4
 1326 0006 0E48     	 ldr r0,.L70+8
 1327 0008 2946     	 mov r1,r5
 1328 000a 2246     	 mov r2,r4
 1329 000c FFF7FEFF 	 bl optiga_lib_print_message
 1330              	.LVL108:
 467:D:/School/diseratie/SEMS/xmc4800_evaluation_kit/optiga-trust-m/examples\optiga_shell.c ****     OPTIGA_SHELL_LOG_MESSAGE("1 Step: Verify prepared signature, with prepared public key and diges
 1331              	 .loc 1 467 0
 1332 0010 2946     	 mov r1,r5
 1333 0012 2246     	 mov r2,r4
 1334 0014 0B48     	 ldr r0,.L70+12
 1335 0016 FFF7FEFF 	 bl optiga_lib_print_message
 1336              	.LVL109:
 468:D:/School/diseratie/SEMS/xmc4800_evaluation_kit/optiga-trust-m/examples\optiga_shell.c **** #ifndef OPTIGA_INIT_DEINIT_DONE_EXCLUSIVELY
 1337              	 .loc 1 468 0
 1338 001a 2946     	 mov r1,r5
 1339 001c 2246     	 mov r2,r4
 1340 001e 0A48     	 ldr r0,.L70+16
 1341 0020 FFF7FEFF 	 bl optiga_lib_print_message
 1342              	.LVL110:
 470:D:/School/diseratie/SEMS/xmc4800_evaluation_kit/optiga-trust-m/examples\optiga_shell.c **** #endif
 1343              	 .loc 1 470 0
 1344 0024 2946     	 mov r1,r5
 1345 0026 2246     	 mov r2,r4
 1346 0028 0848     	 ldr r0,.L70+20
 1347 002a FFF7FEFF 	 bl optiga_lib_print_message
 1348              	.LVL111:
 473:D:/School/diseratie/SEMS/xmc4800_evaluation_kit/optiga-trust-m/examples\optiga_shell.c **** #endif
 1349              	 .loc 1 473 0
 1350 002e BDE83840 	 pop {r3,r4,r5,lr}
 1351              	.LCFI33:
 1352              	 .cfi_restore 14
 1353              	 .cfi_restore 5
 1354              	 .cfi_restore 4
 1355              	 .cfi_restore 3
 1356              	 .cfi_def_cfa_offset 0
 472:D:/School/diseratie/SEMS/xmc4800_evaluation_kit/optiga-trust-m/examples\optiga_shell.c **** }
 1357              	 .loc 1 472 0
 1358 0032 FFF7FEBF 	 b example_optiga_crypt_ecdsa_verify
 1359              	.LVL112:
 1360              	.L71:
 1361 0036 00BF     	 .align 2
 1362              	.L70:
 1363 0038 34000000 	 .word .LC1
 1364 003c 48000000 	 .word .LC2
 1365 0040 00000000 	 .word .LC0
 1366 0044 680C0000 	 .word .LC58
 1367 0048 F00A0000 	 .word .LC51
 1368 004c 4C030000 	 .word .LC18
 1369              	 .cfi_endproc
 1370              	.LFE471:
 1372              	 .section .text.optiga_shell_crypt_ecdsa_sign,"ax",%progbits
 1373              	 .align 2
 1374              	 .thumb
 1375              	 .thumb_func
 1377              	optiga_shell_crypt_ecdsa_sign:
 1378              	.LFB470:
 448:D:/School/diseratie/SEMS/xmc4800_evaluation_kit/optiga-trust-m/examples\optiga_shell.c **** #ifndef OPTIGA_INIT_DEINIT_DONE_EXCLUSIVELY
 1379              	 .loc 1 448 0
 1380              	 .cfi_startproc
 1381              	 
 1382              	 
 1383 0000 38B5     	 push {r3,r4,r5,lr}
 1384              	.LCFI34:
 1385              	 .cfi_def_cfa_offset 16
 1386              	 .cfi_offset 3,-16
 1387              	 .cfi_offset 4,-12
 1388              	 .cfi_offset 5,-8
 1389              	 .cfi_offset 14,-4
 450:D:/School/diseratie/SEMS/xmc4800_evaluation_kit/optiga-trust-m/examples\optiga_shell.c **** #endif
 1390              	 .loc 1 450 0
 1391 0002 0D4D     	 ldr r5,.L74
 1392 0004 0D4C     	 ldr r4,.L74+4
 1393 0006 0E48     	 ldr r0,.L74+8
 1394 0008 2946     	 mov r1,r5
 1395 000a 2246     	 mov r2,r4
 1396 000c FFF7FEFF 	 bl optiga_lib_print_message
 1397              	.LVL113:
 452:D:/School/diseratie/SEMS/xmc4800_evaluation_kit/optiga-trust-m/examples\optiga_shell.c ****     OPTIGA_SHELL_LOG_MESSAGE("1 Step: Sign prepared Data and export the signature");
 1398              	 .loc 1 452 0
 1399 0010 2946     	 mov r1,r5
 1400 0012 2246     	 mov r2,r4
 1401 0014 0B48     	 ldr r0,.L74+12
 1402 0016 FFF7FEFF 	 bl optiga_lib_print_message
 1403              	.LVL114:
 453:D:/School/diseratie/SEMS/xmc4800_evaluation_kit/optiga-trust-m/examples\optiga_shell.c **** #ifndef OPTIGA_INIT_DEINIT_DONE_EXCLUSIVELY
 1404              	 .loc 1 453 0
 1405 001a 2946     	 mov r1,r5
 1406 001c 2246     	 mov r2,r4
 1407 001e 0A48     	 ldr r0,.L74+16
 1408 0020 FFF7FEFF 	 bl optiga_lib_print_message
 1409              	.LVL115:
 455:D:/School/diseratie/SEMS/xmc4800_evaluation_kit/optiga-trust-m/examples\optiga_shell.c **** #endif
 1410              	 .loc 1 455 0
 1411 0024 2946     	 mov r1,r5
 1412 0026 2246     	 mov r2,r4
 1413 0028 0848     	 ldr r0,.L74+20
 1414 002a FFF7FEFF 	 bl optiga_lib_print_message
 1415              	.LVL116:
 458:D:/School/diseratie/SEMS/xmc4800_evaluation_kit/optiga-trust-m/examples\optiga_shell.c **** #endif
 1416              	 .loc 1 458 0
 1417 002e BDE83840 	 pop {r3,r4,r5,lr}
 1418              	.LCFI35:
 1419              	 .cfi_restore 14
 1420              	 .cfi_restore 5
 1421              	 .cfi_restore 4
 1422              	 .cfi_restore 3
 1423              	 .cfi_def_cfa_offset 0
 457:D:/School/diseratie/SEMS/xmc4800_evaluation_kit/optiga-trust-m/examples\optiga_shell.c **** }
 1424              	 .loc 1 457 0
 1425 0032 FFF7FEBF 	 b example_optiga_crypt_ecdsa_sign
 1426              	.LVL117:
 1427              	.L75:
 1428 0036 00BF     	 .align 2
 1429              	.L74:
 1430 0038 34000000 	 .word .LC1
 1431 003c 48000000 	 .word .LC2
 1432 0040 00000000 	 .word .LC0
 1433 0044 C00C0000 	 .word .LC59
 1434 0048 380B0000 	 .word .LC52
 1435 004c 4C030000 	 .word .LC18
 1436              	 .cfi_endproc
 1437              	.LFE470:
 1439              	 .section .text.optiga_shell_crypt_ecc_generate_keypair,"ax",%progbits
 1440              	 .align 2
 1441              	 .thumb
 1442              	 .thumb_func
 1444              	optiga_shell_crypt_ecc_generate_keypair:
 1445              	.LFB468:
 415:D:/School/diseratie/SEMS/xmc4800_evaluation_kit/optiga-trust-m/examples\optiga_shell.c **** #ifndef OPTIGA_INIT_DEINIT_DONE_EXCLUSIVELY
 1446              	 .loc 1 415 0
 1447              	 .cfi_startproc
 1448              	 
 1449              	 
 1450 0000 38B5     	 push {r3,r4,r5,lr}
 1451              	.LCFI36:
 1452              	 .cfi_def_cfa_offset 16
 1453              	 .cfi_offset 3,-16
 1454              	 .cfi_offset 4,-12
 1455              	 .cfi_offset 5,-8
 1456              	 .cfi_offset 14,-4
 417:D:/School/diseratie/SEMS/xmc4800_evaluation_kit/optiga-trust-m/examples\optiga_shell.c **** #endif
 1457              	 .loc 1 417 0
 1458 0002 0D4D     	 ldr r5,.L78
 1459 0004 0D4C     	 ldr r4,.L78+4
 1460 0006 0E48     	 ldr r0,.L78+8
 1461 0008 2946     	 mov r1,r5
 1462 000a 2246     	 mov r2,r4
 1463 000c FFF7FEFF 	 bl optiga_lib_print_message
 1464              	.LVL118:
 419:D:/School/diseratie/SEMS/xmc4800_evaluation_kit/optiga-trust-m/examples\optiga_shell.c ****     OPTIGA_SHELL_LOG_MESSAGE("1 Step: Generate ECC NIST P-256 Key Pair and export the public key");
 1465              	 .loc 1 419 0
 1466 0010 2946     	 mov r1,r5
 1467 0012 2246     	 mov r2,r4
 1468 0014 0B48     	 ldr r0,.L78+12
 1469 0016 FFF7FEFF 	 bl optiga_lib_print_message
 1470              	.LVL119:
 420:D:/School/diseratie/SEMS/xmc4800_evaluation_kit/optiga-trust-m/examples\optiga_shell.c **** #ifndef OPTIGA_INIT_DEINIT_DONE_EXCLUSIVELY
 1471              	 .loc 1 420 0
 1472 001a 2946     	 mov r1,r5
 1473 001c 2246     	 mov r2,r4
 1474 001e 0A48     	 ldr r0,.L78+16
 1475 0020 FFF7FEFF 	 bl optiga_lib_print_message
 1476              	.LVL120:
 422:D:/School/diseratie/SEMS/xmc4800_evaluation_kit/optiga-trust-m/examples\optiga_shell.c **** #endif
 1477              	 .loc 1 422 0
 1478 0024 2946     	 mov r1,r5
 1479 0026 2246     	 mov r2,r4
 1480 0028 0848     	 ldr r0,.L78+20
 1481 002a FFF7FEFF 	 bl optiga_lib_print_message
 1482              	.LVL121:
 425:D:/School/diseratie/SEMS/xmc4800_evaluation_kit/optiga-trust-m/examples\optiga_shell.c **** #endif
 1483              	 .loc 1 425 0
 1484 002e BDE83840 	 pop {r3,r4,r5,lr}
 1485              	.LCFI37:
 1486              	 .cfi_restore 14
 1487              	 .cfi_restore 5
 1488              	 .cfi_restore 4
 1489              	 .cfi_restore 3
 1490              	 .cfi_def_cfa_offset 0
 424:D:/School/diseratie/SEMS/xmc4800_evaluation_kit/optiga-trust-m/examples\optiga_shell.c **** }
 1491              	 .loc 1 424 0
 1492 0032 FFF7FEBF 	 b example_optiga_crypt_ecc_generate_keypair
 1493              	.LVL122:
 1494              	.L79:
 1495 0036 00BF     	 .align 2
 1496              	.L78:
 1497 0038 34000000 	 .word .LC1
 1498 003c 48000000 	 .word .LC2
 1499 0040 00000000 	 .word .LC0
 1500 0044 100D0000 	 .word .LC60
 1501 0048 340D0000 	 .word .LC61
 1502 004c 4C030000 	 .word .LC18
 1503              	 .cfi_endproc
 1504              	.LFE468:
 1506              	 .section .text.optiga_shell_crypt_random,"ax",%progbits
 1507              	 .align 2
 1508              	 .thumb
 1509              	 .thumb_func
 1511              	optiga_shell_crypt_random:
 1512              	.LFB467:
 400:D:/School/diseratie/SEMS/xmc4800_evaluation_kit/optiga-trust-m/examples\optiga_shell.c **** #ifndef OPTIGA_INIT_DEINIT_DONE_EXCLUSIVELY
 1513              	 .loc 1 400 0
 1514              	 .cfi_startproc
 1515              	 
 1516              	 
 1517 0000 38B5     	 push {r3,r4,r5,lr}
 1518              	.LCFI38:
 1519              	 .cfi_def_cfa_offset 16
 1520              	 .cfi_offset 3,-16
 1521              	 .cfi_offset 4,-12
 1522              	 .cfi_offset 5,-8
 1523              	 .cfi_offset 14,-4
 402:D:/School/diseratie/SEMS/xmc4800_evaluation_kit/optiga-trust-m/examples\optiga_shell.c **** #endif
 1524              	 .loc 1 402 0
 1525 0002 0D4D     	 ldr r5,.L82
 1526 0004 0D4C     	 ldr r4,.L82+4
 1527 0006 0E48     	 ldr r0,.L82+8
 1528 0008 2946     	 mov r1,r5
 1529 000a 2246     	 mov r2,r4
 1530 000c FFF7FEFF 	 bl optiga_lib_print_message
 1531              	.LVL123:
 404:D:/School/diseratie/SEMS/xmc4800_evaluation_kit/optiga-trust-m/examples\optiga_shell.c ****     OPTIGA_SHELL_LOG_MESSAGE("1 Step: Generate 32 bytes random");
 1532              	 .loc 1 404 0
 1533 0010 2946     	 mov r1,r5
 1534 0012 2246     	 mov r2,r4
 1535 0014 0B48     	 ldr r0,.L82+12
 1536 0016 FFF7FEFF 	 bl optiga_lib_print_message
 1537              	.LVL124:
 405:D:/School/diseratie/SEMS/xmc4800_evaluation_kit/optiga-trust-m/examples\optiga_shell.c **** #ifndef OPTIGA_INIT_DEINIT_DONE_EXCLUSIVELY
 1538              	 .loc 1 405 0
 1539 001a 2946     	 mov r1,r5
 1540 001c 2246     	 mov r2,r4
 1541 001e 0A48     	 ldr r0,.L82+16
 1542 0020 FFF7FEFF 	 bl optiga_lib_print_message
 1543              	.LVL125:
 407:D:/School/diseratie/SEMS/xmc4800_evaluation_kit/optiga-trust-m/examples\optiga_shell.c **** #endif
 1544              	 .loc 1 407 0
 1545 0024 2946     	 mov r1,r5
 1546 0026 2246     	 mov r2,r4
 1547 0028 0848     	 ldr r0,.L82+20
 1548 002a FFF7FEFF 	 bl optiga_lib_print_message
 1549              	.LVL126:
 410:D:/School/diseratie/SEMS/xmc4800_evaluation_kit/optiga-trust-m/examples\optiga_shell.c **** #endif
 1550              	 .loc 1 410 0
 1551 002e BDE83840 	 pop {r3,r4,r5,lr}
 1552              	.LCFI39:
 1553              	 .cfi_restore 14
 1554              	 .cfi_restore 5
 1555              	 .cfi_restore 4
 1556              	 .cfi_restore 3
 1557              	 .cfi_def_cfa_offset 0
 409:D:/School/diseratie/SEMS/xmc4800_evaluation_kit/optiga-trust-m/examples\optiga_shell.c **** }
 1558              	 .loc 1 409 0
 1559 0032 FFF7FEBF 	 b example_optiga_crypt_random
 1560              	.LVL127:
 1561              	.L83:
 1562 0036 00BF     	 .align 2
 1563              	.L82:
 1564 0038 34000000 	 .word .LC1
 1565 003c 48000000 	 .word .LC2
 1566 0040 00000000 	 .word .LC0
 1567 0044 780D0000 	 .word .LC62
 1568 0048 9C0D0000 	 .word .LC63
 1569 004c 4C030000 	 .word .LC18
 1570              	 .cfi_endproc
 1571              	.LFE467:
 1573              	 .section .text.optiga_shell_crypt_tls_prf_sha256,"ax",%progbits
 1574              	 .align 2
 1575              	 .thumb
 1576              	 .thumb_func
 1578              	optiga_shell_crypt_tls_prf_sha256:
 1579              	.LFB466:
 382:D:/School/diseratie/SEMS/xmc4800_evaluation_kit/optiga-trust-m/examples\optiga_shell.c **** #ifndef OPTIGA_INIT_DEINIT_DONE_EXCLUSIVELY
 1580              	 .loc 1 382 0
 1581              	 .cfi_startproc
 1582              	 
 1583              	 
 1584 0000 38B5     	 push {r3,r4,r5,lr}
 1585              	.LCFI40:
 1586              	 .cfi_def_cfa_offset 16
 1587              	 .cfi_offset 3,-16
 1588              	 .cfi_offset 4,-12
 1589              	 .cfi_offset 5,-8
 1590              	 .cfi_offset 14,-4
 384:D:/School/diseratie/SEMS/xmc4800_evaluation_kit/optiga-trust-m/examples\optiga_shell.c **** #endif
 1591              	 .loc 1 384 0
 1592 0002 144D     	 ldr r5,.L86
 1593 0004 144C     	 ldr r4,.L86+4
 1594 0006 1548     	 ldr r0,.L86+8
 1595 0008 2946     	 mov r1,r5
 1596 000a 2246     	 mov r2,r4
 1597 000c FFF7FEFF 	 bl optiga_lib_print_message
 1598              	.LVL128:
 386:D:/School/diseratie/SEMS/xmc4800_evaluation_kit/optiga-trust-m/examples\optiga_shell.c ****     OPTIGA_SHELL_LOG_MESSAGE("1 Step: Write prepared Shared Secret into an Arbitrary Data Object");
 1599              	 .loc 1 386 0
 1600 0010 2946     	 mov r1,r5
 1601 0012 2246     	 mov r2,r4
 1602 0014 1248     	 ldr r0,.L86+12
 1603 0016 FFF7FEFF 	 bl optiga_lib_print_message
 1604              	.LVL129:
 387:D:/School/diseratie/SEMS/xmc4800_evaluation_kit/optiga-trust-m/examples\optiga_shell.c ****     OPTIGA_SHELL_LOG_MESSAGE("2 Step: Update Metadata of the Object to use the Arbitrary Data Objec
 1605              	 .loc 1 387 0
 1606 001a 2946     	 mov r1,r5
 1607 001c 2246     	 mov r2,r4
 1608 001e 1148     	 ldr r0,.L86+16
 1609 0020 FFF7FEFF 	 bl optiga_lib_print_message
 1610              	.LVL130:
 388:D:/School/diseratie/SEMS/xmc4800_evaluation_kit/optiga-trust-m/examples\optiga_shell.c ****     OPTIGA_SHELL_LOG_MESSAGE("3 Step: Generate Shared Secret using the Shared Secret from the Arbit
 1611              	 .loc 1 388 0
 1612 0024 2946     	 mov r1,r5
 1613 0026 2246     	 mov r2,r4
 1614 0028 0F48     	 ldr r0,.L86+20
 1615 002a FFF7FEFF 	 bl optiga_lib_print_message
 1616              	.LVL131:
 389:D:/School/diseratie/SEMS/xmc4800_evaluation_kit/optiga-trust-m/examples\optiga_shell.c ****     OPTIGA_SHELL_LOG_MESSAGE("4 Step: Restore Metadata of the Arbitrary Data Object");
 1617              	 .loc 1 389 0
 1618 002e 2946     	 mov r1,r5
 1619 0030 2246     	 mov r2,r4
 1620 0032 0E48     	 ldr r0,.L86+24
 1621 0034 FFF7FEFF 	 bl optiga_lib_print_message
 1622              	.LVL132:
 390:D:/School/diseratie/SEMS/xmc4800_evaluation_kit/optiga-trust-m/examples\optiga_shell.c **** #ifndef OPTIGA_INIT_DEINIT_DONE_EXCLUSIVELY
 1623              	 .loc 1 390 0
 1624 0038 2946     	 mov r1,r5
 1625 003a 2246     	 mov r2,r4
 1626 003c 0C48     	 ldr r0,.L86+28
 1627 003e FFF7FEFF 	 bl optiga_lib_print_message
 1628              	.LVL133:
 392:D:/School/diseratie/SEMS/xmc4800_evaluation_kit/optiga-trust-m/examples\optiga_shell.c **** #endif
 1629              	 .loc 1 392 0
 1630 0042 2946     	 mov r1,r5
 1631 0044 2246     	 mov r2,r4
 1632 0046 0B48     	 ldr r0,.L86+32
 1633 0048 FFF7FEFF 	 bl optiga_lib_print_message
 1634              	.LVL134:
 395:D:/School/diseratie/SEMS/xmc4800_evaluation_kit/optiga-trust-m/examples\optiga_shell.c **** #endif
 1635              	 .loc 1 395 0
 1636 004c BDE83840 	 pop {r3,r4,r5,lr}
 1637              	.LCFI41:
 1638              	 .cfi_restore 14
 1639              	 .cfi_restore 5
 1640              	 .cfi_restore 4
 1641              	 .cfi_restore 3
 1642              	 .cfi_def_cfa_offset 0
 394:D:/School/diseratie/SEMS/xmc4800_evaluation_kit/optiga-trust-m/examples\optiga_shell.c **** }
 1643              	 .loc 1 394 0
 1644 0050 FFF7FEBF 	 b example_optiga_crypt_tls_prf_sha256
 1645              	.LVL135:
 1646              	.L87:
 1647              	 .align 2
 1648              	.L86:
 1649 0054 34000000 	 .word .LC1
 1650 0058 48000000 	 .word .LC2
 1651 005c 00000000 	 .word .LC0
 1652 0060 C00D0000 	 .word .LC64
 1653 0064 F40D0000 	 .word .LC65
 1654 0068 380E0000 	 .word .LC66
 1655 006c A00E0000 	 .word .LC67
 1656 0070 F80E0000 	 .word .LC68
 1657 0074 4C080000 	 .word .LC41
 1658              	 .cfi_endproc
 1659              	.LFE466:
 1661              	 .section .text.optiga_shell_crypt_hash_data,"ax",%progbits
 1662              	 .align 2
 1663              	 .thumb
 1664              	 .thumb_func
 1666              	optiga_shell_crypt_hash_data:
 1667              	.LFB465:
 367:D:/School/diseratie/SEMS/xmc4800_evaluation_kit/optiga-trust-m/examples\optiga_shell.c **** #ifndef OPTIGA_INIT_DEINIT_DONE_EXCLUSIVELY
 1668              	 .loc 1 367 0
 1669              	 .cfi_startproc
 1670              	 
 1671              	 
 1672 0000 38B5     	 push {r3,r4,r5,lr}
 1673              	.LCFI42:
 1674              	 .cfi_def_cfa_offset 16
 1675              	 .cfi_offset 3,-16
 1676              	 .cfi_offset 4,-12
 1677              	 .cfi_offset 5,-8
 1678              	 .cfi_offset 14,-4
 369:D:/School/diseratie/SEMS/xmc4800_evaluation_kit/optiga-trust-m/examples\optiga_shell.c **** #endif
 1679              	 .loc 1 369 0
 1680 0002 0D4D     	 ldr r5,.L90
 1681 0004 0D4C     	 ldr r4,.L90+4
 1682 0006 0E48     	 ldr r0,.L90+8
 1683 0008 2946     	 mov r1,r5
 1684 000a 2246     	 mov r2,r4
 1685 000c FFF7FEFF 	 bl optiga_lib_print_message
 1686              	.LVL136:
 371:D:/School/diseratie/SEMS/xmc4800_evaluation_kit/optiga-trust-m/examples\optiga_shell.c ****     OPTIGA_SHELL_LOG_MESSAGE("1 Step: Generate hash of given user data ");
 1687              	 .loc 1 371 0
 1688 0010 2946     	 mov r1,r5
 1689 0012 2246     	 mov r2,r4
 1690 0014 0B48     	 ldr r0,.L90+12
 1691 0016 FFF7FEFF 	 bl optiga_lib_print_message
 1692              	.LVL137:
 372:D:/School/diseratie/SEMS/xmc4800_evaluation_kit/optiga-trust-m/examples\optiga_shell.c **** #ifndef OPTIGA_INIT_DEINIT_DONE_EXCLUSIVELY
 1693              	 .loc 1 372 0
 1694 001a 2946     	 mov r1,r5
 1695 001c 2246     	 mov r2,r4
 1696 001e 0A48     	 ldr r0,.L90+16
 1697 0020 FFF7FEFF 	 bl optiga_lib_print_message
 1698              	.LVL138:
 374:D:/School/diseratie/SEMS/xmc4800_evaluation_kit/optiga-trust-m/examples\optiga_shell.c **** #endif
 1699              	 .loc 1 374 0
 1700 0024 2946     	 mov r1,r5
 1701 0026 2246     	 mov r2,r4
 1702 0028 0848     	 ldr r0,.L90+20
 1703 002a FFF7FEFF 	 bl optiga_lib_print_message
 1704              	.LVL139:
 377:D:/School/diseratie/SEMS/xmc4800_evaluation_kit/optiga-trust-m/examples\optiga_shell.c **** #endif
 1705              	 .loc 1 377 0
 1706 002e BDE83840 	 pop {r3,r4,r5,lr}
 1707              	.LCFI43:
 1708              	 .cfi_restore 14
 1709              	 .cfi_restore 5
 1710              	 .cfi_restore 4
 1711              	 .cfi_restore 3
 1712              	 .cfi_def_cfa_offset 0
 376:D:/School/diseratie/SEMS/xmc4800_evaluation_kit/optiga-trust-m/examples\optiga_shell.c **** }
 1713              	 .loc 1 376 0
 1714 0032 FFF7FEBF 	 b example_optiga_crypt_hash_data
 1715              	.LVL140:
 1716              	.L91:
 1717 0036 00BF     	 .align 2
 1718              	.L90:
 1719 0038 34000000 	 .word .LC1
 1720 003c 48000000 	 .word .LC2
 1721 0040 00000000 	 .word .LC0
 1722 0044 300F0000 	 .word .LC69
 1723 0048 580F0000 	 .word .LC70
 1724 004c 4C030000 	 .word .LC18
 1725              	 .cfi_endproc
 1726              	.LFE465:
 1728              	 .section .text.optiga_shell_crypt_hash,"ax",%progbits
 1729              	 .align 2
 1730              	 .thumb
 1731              	 .thumb_func
 1733              	optiga_shell_crypt_hash:
 1734              	.LFB464:
 354:D:/School/diseratie/SEMS/xmc4800_evaluation_kit/optiga-trust-m/examples\optiga_shell.c **** #ifndef OPTIGA_INIT_DEINIT_DONE_EXCLUSIVELY
 1735              	 .loc 1 354 0
 1736              	 .cfi_startproc
 1737              	 
 1738              	 
 1739 0000 38B5     	 push {r3,r4,r5,lr}
 1740              	.LCFI44:
 1741              	 .cfi_def_cfa_offset 16
 1742              	 .cfi_offset 3,-16
 1743              	 .cfi_offset 4,-12
 1744              	 .cfi_offset 5,-8
 1745              	 .cfi_offset 14,-4
 356:D:/School/diseratie/SEMS/xmc4800_evaluation_kit/optiga-trust-m/examples\optiga_shell.c **** #endif
 1746              	 .loc 1 356 0
 1747 0002 0D4D     	 ldr r5,.L94
 1748 0004 0D4C     	 ldr r4,.L94+4
 1749 0006 0E48     	 ldr r0,.L94+8
 1750 0008 2946     	 mov r1,r5
 1751 000a 2246     	 mov r2,r4
 1752 000c FFF7FEFF 	 bl optiga_lib_print_message
 1753              	.LVL141:
 358:D:/School/diseratie/SEMS/xmc4800_evaluation_kit/optiga-trust-m/examples\optiga_shell.c ****     OPTIGA_SHELL_LOG_MESSAGE("1 Step: Hash given data with Start, Update and Finalize calls");
 1754              	 .loc 1 358 0
 1755 0010 2946     	 mov r1,r5
 1756 0012 2246     	 mov r2,r4
 1757 0014 0B48     	 ldr r0,.L94+12
 1758 0016 FFF7FEFF 	 bl optiga_lib_print_message
 1759              	.LVL142:
 359:D:/School/diseratie/SEMS/xmc4800_evaluation_kit/optiga-trust-m/examples\optiga_shell.c **** #ifndef OPTIGA_INIT_DEINIT_DONE_EXCLUSIVELY
 1760              	 .loc 1 359 0
 1761 001a 2946     	 mov r1,r5
 1762 001c 2246     	 mov r2,r4
 1763 001e 0A48     	 ldr r0,.L94+16
 1764 0020 FFF7FEFF 	 bl optiga_lib_print_message
 1765              	.LVL143:
 361:D:/School/diseratie/SEMS/xmc4800_evaluation_kit/optiga-trust-m/examples\optiga_shell.c **** #endif
 1766              	 .loc 1 361 0
 1767 0024 2946     	 mov r1,r5
 1768 0026 2246     	 mov r2,r4
 1769 0028 0848     	 ldr r0,.L94+20
 1770 002a FFF7FEFF 	 bl optiga_lib_print_message
 1771              	.LVL144:
 364:D:/School/diseratie/SEMS/xmc4800_evaluation_kit/optiga-trust-m/examples\optiga_shell.c **** 
 1772              	 .loc 1 364 0
 1773 002e BDE83840 	 pop {r3,r4,r5,lr}
 1774              	.LCFI45:
 1775              	 .cfi_restore 14
 1776              	 .cfi_restore 5
 1777              	 .cfi_restore 4
 1778              	 .cfi_restore 3
 1779              	 .cfi_def_cfa_offset 0
 363:D:/School/diseratie/SEMS/xmc4800_evaluation_kit/optiga-trust-m/examples\optiga_shell.c **** }
 1780              	 .loc 1 363 0
 1781 0032 FFF7FEBF 	 b example_optiga_crypt_hash
 1782              	.LVL145:
 1783              	.L95:
 1784 0036 00BF     	 .align 2
 1785              	.L94:
 1786 0038 34000000 	 .word .LC1
 1787 003c 48000000 	 .word .LC2
 1788 0040 00000000 	 .word .LC0
 1789 0044 840F0000 	 .word .LC71
 1790 0048 9C0F0000 	 .word .LC72
 1791 004c 4C030000 	 .word .LC18
 1792              	 .cfi_endproc
 1793              	.LFE464:
 1795              	 .section .text.optiga_shell_util_protected_update,"ax",%progbits
 1796              	 .align 2
 1797              	 .thumb
 1798              	 .thumb_func
 1800              	optiga_shell_util_protected_update:
 1801              	.LFB463:
 338:D:/School/diseratie/SEMS/xmc4800_evaluation_kit/optiga-trust-m/examples\optiga_shell.c **** #ifndef OPTIGA_INIT_DEINIT_DONE_EXCLUSIVELY
 1802              	 .loc 1 338 0
 1803              	 .cfi_startproc
 1804              	 
 1805              	 
 1806 0000 38B5     	 push {r3,r4,r5,lr}
 1807              	.LCFI46:
 1808              	 .cfi_def_cfa_offset 16
 1809              	 .cfi_offset 3,-16
 1810              	 .cfi_offset 4,-12
 1811              	 .cfi_offset 5,-8
 1812              	 .cfi_offset 14,-4
 340:D:/School/diseratie/SEMS/xmc4800_evaluation_kit/optiga-trust-m/examples\optiga_shell.c **** #endif
 1813              	 .loc 1 340 0
 1814 0002 124D     	 ldr r5,.L98
 1815 0004 124C     	 ldr r4,.L98+4
 1816 0006 1348     	 ldr r0,.L98+8
 1817 0008 2946     	 mov r1,r5
 1818 000a 2246     	 mov r2,r4
 1819 000c FFF7FEFF 	 bl optiga_lib_print_message
 1820              	.LVL146:
 342:D:/School/diseratie/SEMS/xmc4800_evaluation_kit/optiga-trust-m/examples\optiga_shell.c ****     OPTIGA_SHELL_LOG_MESSAGE("1 Step: Update Metadata for the Object to be updated and the Trust An
 1821              	 .loc 1 342 0
 1822 0010 2946     	 mov r1,r5
 1823 0012 2246     	 mov r2,r4
 1824 0014 1048     	 ldr r0,.L98+12
 1825 0016 FFF7FEFF 	 bl optiga_lib_print_message
 1826              	.LVL147:
 343:D:/School/diseratie/SEMS/xmc4800_evaluation_kit/optiga-trust-m/examples\optiga_shell.c ****     OPTIGA_SHELL_LOG_MESSAGE("2 Step: Write Trust Anchor used by the Trust M to verify the update")
 1827              	 .loc 1 343 0
 1828 001a 2946     	 mov r1,r5
 1829 001c 2246     	 mov r2,r4
 1830 001e 0F48     	 ldr r0,.L98+16
 1831 0020 FFF7FEFF 	 bl optiga_lib_print_message
 1832              	.LVL148:
 344:D:/School/diseratie/SEMS/xmc4800_evaluation_kit/optiga-trust-m/examples\optiga_shell.c ****     OPTIGA_SHELL_LOG_MESSAGE("3 Step: Start Protected update with prepared manifest and fragments")
 1833              	 .loc 1 344 0
 1834 0024 2946     	 mov r1,r5
 1835 0026 2246     	 mov r2,r4
 1836 0028 0D48     	 ldr r0,.L98+20
 1837 002a FFF7FEFF 	 bl optiga_lib_print_message
 1838              	.LVL149:
 345:D:/School/diseratie/SEMS/xmc4800_evaluation_kit/optiga-trust-m/examples\optiga_shell.c **** #ifndef OPTIGA_INIT_DEINIT_DONE_EXCLUSIVELY
 1839              	 .loc 1 345 0
 1840 002e 2946     	 mov r1,r5
 1841 0030 2246     	 mov r2,r4
 1842 0032 0C48     	 ldr r0,.L98+24
 1843 0034 FFF7FEFF 	 bl optiga_lib_print_message
 1844              	.LVL150:
 347:D:/School/diseratie/SEMS/xmc4800_evaluation_kit/optiga-trust-m/examples\optiga_shell.c **** #endif
 1845              	 .loc 1 347 0
 1846 0038 2946     	 mov r1,r5
 1847 003a 2246     	 mov r2,r4
 1848 003c 0A48     	 ldr r0,.L98+28
 1849 003e FFF7FEFF 	 bl optiga_lib_print_message
 1850              	.LVL151:
 350:D:/School/diseratie/SEMS/xmc4800_evaluation_kit/optiga-trust-m/examples\optiga_shell.c **** 
 1851              	 .loc 1 350 0
 1852 0042 BDE83840 	 pop {r3,r4,r5,lr}
 1853              	.LCFI47:
 1854              	 .cfi_restore 14
 1855              	 .cfi_restore 5
 1856              	 .cfi_restore 4
 1857              	 .cfi_restore 3
 1858              	 .cfi_def_cfa_offset 0
 349:D:/School/diseratie/SEMS/xmc4800_evaluation_kit/optiga-trust-m/examples\optiga_shell.c **** }
 1859              	 .loc 1 349 0
 1860 0046 FFF7FEBF 	 b example_optiga_util_protected_update
 1861              	.LVL152:
 1862              	.L99:
 1863 004a 00BF     	 .align 2
 1864              	.L98:
 1865 004c 34000000 	 .word .LC1
 1866 0050 48000000 	 .word .LC2
 1867 0054 00000000 	 .word .LC0
 1868 0058 DC0F0000 	 .word .LC73
 1869 005c 00100000 	 .word .LC74
 1870 0060 64100000 	 .word .LC75
 1871 0064 A8100000 	 .word .LC76
 1872 0068 48040000 	 .word .LC23
 1873              	 .cfi_endproc
 1874              	.LFE463:
 1876              	 .section .text.optiga_shell_util_update_count,"ax",%progbits
 1877              	 .align 2
 1878              	 .thumb
 1879              	 .thumb_func
 1881              	optiga_shell_util_update_count:
 1882              	.LFB462:
 324:D:/School/diseratie/SEMS/xmc4800_evaluation_kit/optiga-trust-m/examples\optiga_shell.c **** #ifndef OPTIGA_INIT_DEINIT_DONE_EXCLUSIVELY
 1883              	 .loc 1 324 0
 1884              	 .cfi_startproc
 1885              	 
 1886              	 
 1887 0000 38B5     	 push {r3,r4,r5,lr}
 1888              	.LCFI48:
 1889              	 .cfi_def_cfa_offset 16
 1890              	 .cfi_offset 3,-16
 1891              	 .cfi_offset 4,-12
 1892              	 .cfi_offset 5,-8
 1893              	 .cfi_offset 14,-4
 326:D:/School/diseratie/SEMS/xmc4800_evaluation_kit/optiga-trust-m/examples\optiga_shell.c **** #endif
 1894              	 .loc 1 326 0
 1895 0002 0F4D     	 ldr r5,.L102
 1896 0004 0F4C     	 ldr r4,.L102+4
 1897 0006 1048     	 ldr r0,.L102+8
 1898 0008 2946     	 mov r1,r5
 1899 000a 2246     	 mov r2,r4
 1900 000c FFF7FEFF 	 bl optiga_lib_print_message
 1901              	.LVL153:
 328:D:/School/diseratie/SEMS/xmc4800_evaluation_kit/optiga-trust-m/examples\optiga_shell.c ****     OPTIGA_SHELL_LOG_MESSAGE("1 Step: Write Initial Counter Value");
 1902              	 .loc 1 328 0
 1903 0010 2946     	 mov r1,r5
 1904 0012 2246     	 mov r2,r4
 1905 0014 0D48     	 ldr r0,.L102+12
 1906 0016 FFF7FEFF 	 bl optiga_lib_print_message
 1907              	.LVL154:
 329:D:/School/diseratie/SEMS/xmc4800_evaluation_kit/optiga-trust-m/examples\optiga_shell.c ****     OPTIGA_SHELL_LOG_MESSAGE("2 Step: Increase Counter Object");
 1908              	 .loc 1 329 0
 1909 001a 2946     	 mov r1,r5
 1910 001c 2246     	 mov r2,r4
 1911 001e 0C48     	 ldr r0,.L102+16
 1912 0020 FFF7FEFF 	 bl optiga_lib_print_message
 1913              	.LVL155:
 330:D:/School/diseratie/SEMS/xmc4800_evaluation_kit/optiga-trust-m/examples\optiga_shell.c **** #ifndef OPTIGA_INIT_DEINIT_DONE_EXCLUSIVELY
 1914              	 .loc 1 330 0
 1915 0024 2946     	 mov r1,r5
 1916 0026 2246     	 mov r2,r4
 1917 0028 0A48     	 ldr r0,.L102+20
 1918 002a FFF7FEFF 	 bl optiga_lib_print_message
 1919              	.LVL156:
 332:D:/School/diseratie/SEMS/xmc4800_evaluation_kit/optiga-trust-m/examples\optiga_shell.c **** #endif
 1920              	 .loc 1 332 0
 1921 002e 2946     	 mov r1,r5
 1922 0030 2246     	 mov r2,r4
 1923 0032 0948     	 ldr r0,.L102+24
 1924 0034 FFF7FEFF 	 bl optiga_lib_print_message
 1925              	.LVL157:
 335:D:/School/diseratie/SEMS/xmc4800_evaluation_kit/optiga-trust-m/examples\optiga_shell.c **** 
 1926              	 .loc 1 335 0
 1927 0038 BDE83840 	 pop {r3,r4,r5,lr}
 1928              	.LCFI49:
 1929              	 .cfi_restore 14
 1930              	 .cfi_restore 5
 1931              	 .cfi_restore 4
 1932              	 .cfi_restore 3
 1933              	 .cfi_def_cfa_offset 0
 334:D:/School/diseratie/SEMS/xmc4800_evaluation_kit/optiga-trust-m/examples\optiga_shell.c **** }
 1934              	 .loc 1 334 0
 1935 003c FFF7FEBF 	 b example_optiga_util_update_count
 1936              	.LVL158:
 1937              	.L103:
 1938              	 .align 2
 1939              	.L102:
 1940 0040 34000000 	 .word .LC1
 1941 0044 48000000 	 .word .LC2
 1942 0048 00000000 	 .word .LC0
 1943 004c EC100000 	 .word .LC77
 1944 0050 0C110000 	 .word .LC78
 1945 0054 30110000 	 .word .LC79
 1946 0058 28050000 	 .word .LC27
 1947              	 .cfi_endproc
 1948              	.LFE462:
 1950              	 .section .text.optiga_shell_util_hibernate_restore,"ax",%progbits
 1951              	 .align 2
 1952              	 .thumb
 1953              	 .thumb_func
 1955              	optiga_shell_util_hibernate_restore:
 1956              	.LFB461:
 306:D:/School/diseratie/SEMS/xmc4800_evaluation_kit/optiga-trust-m/examples\optiga_shell.c ****     OPTIGA_SHELL_LOG_MESSAGE("Starting Hibernate and Restore Example");
 1957              	 .loc 1 306 0
 1958              	 .cfi_startproc
 1959              	 
 1960              	 
 1961 0000 38B5     	 push {r3,r4,r5,lr}
 1962              	.LCFI50:
 1963              	 .cfi_def_cfa_offset 16
 1964              	 .cfi_offset 3,-16
 1965              	 .cfi_offset 4,-12
 1966              	 .cfi_offset 5,-8
 1967              	 .cfi_offset 14,-4
 307:D:/School/diseratie/SEMS/xmc4800_evaluation_kit/optiga-trust-m/examples\optiga_shell.c ****     OPTIGA_SHELL_LOG_MESSAGE("1 Step: Open Application on the security chip");
 1968              	 .loc 1 307 0
 1969 0002 214D     	 ldr r5,.L106
 1970 0004 214C     	 ldr r4,.L106+4
 1971 0006 2248     	 ldr r0,.L106+8
 1972 0008 2946     	 mov r1,r5
 1973 000a 2246     	 mov r2,r4
 1974 000c FFF7FEFF 	 bl optiga_lib_print_message
 1975              	.LVL159:
 308:D:/School/diseratie/SEMS/xmc4800_evaluation_kit/optiga-trust-m/examples\optiga_shell.c ****     OPTIGA_SHELL_LOG_MESSAGE("2 Step: Pair the host and the security chip");
 1976              	 .loc 1 308 0
 1977 0010 2946     	 mov r1,r5
 1978 0012 2246     	 mov r2,r4
 1979 0014 1F48     	 ldr r0,.L106+12
 1980 0016 FFF7FEFF 	 bl optiga_lib_print_message
 1981              	.LVL160:
 309:D:/School/diseratie/SEMS/xmc4800_evaluation_kit/optiga-trust-m/examples\optiga_shell.c ****     OPTIGA_SHELL_LOG_MESSAGE("3 Step: Select Protected I2C Connection");
 1982              	 .loc 1 309 0
 1983 001a 2946     	 mov r1,r5
 1984 001c 2246     	 mov r2,r4
 1985 001e 1E48     	 ldr r0,.L106+16
 1986 0020 FFF7FEFF 	 bl optiga_lib_print_message
 1987              	.LVL161:
 310:D:/School/diseratie/SEMS/xmc4800_evaluation_kit/optiga-trust-m/examples\optiga_shell.c ****     OPTIGA_SHELL_LOG_MESSAGE("4 Step: Generate ECC NIST P-256 Key pair and store it in Session Data
 1988              	 .loc 1 310 0
 1989 0024 2946     	 mov r1,r5
 1990 0026 2246     	 mov r2,r4
 1991 0028 1C48     	 ldr r0,.L106+20
 1992 002a FFF7FEFF 	 bl optiga_lib_print_message
 1993              	.LVL162:
 311:D:/School/diseratie/SEMS/xmc4800_evaluation_kit/optiga-trust-m/examples\optiga_shell.c ****     OPTIGA_SHELL_LOG_MESSAGE("5 Step: Check Security Event Counter and wait till it reaches 0");
 1994              	 .loc 1 311 0
 1995 002e 2946     	 mov r1,r5
 1996 0030 2246     	 mov r2,r4
 1997 0032 1B48     	 ldr r0,.L106+24
 1998 0034 FFF7FEFF 	 bl optiga_lib_print_message
 1999              	.LVL163:
 312:D:/School/diseratie/SEMS/xmc4800_evaluation_kit/optiga-trust-m/examples\optiga_shell.c ****     OPTIGA_SHELL_LOG_MESSAGE("6 Step: Perform Close application with Hibernate parameter set to Tru
 2000              	 .loc 1 312 0
 2001 0038 2946     	 mov r1,r5
 2002 003a 2246     	 mov r2,r4
 2003 003c 1948     	 ldr r0,.L106+28
 2004 003e FFF7FEFF 	 bl optiga_lib_print_message
 2005              	.LVL164:
 313:D:/School/diseratie/SEMS/xmc4800_evaluation_kit/optiga-trust-m/examples\optiga_shell.c ****     OPTIGA_SHELL_LOG_MESSAGE("7 Step: Open Application on the security chip");
 2006              	 .loc 1 313 0
 2007 0042 2946     	 mov r1,r5
 2008 0044 2246     	 mov r2,r4
 2009 0046 1848     	 ldr r0,.L106+32
 2010 0048 FFF7FEFF 	 bl optiga_lib_print_message
 2011              	.LVL165:
 314:D:/School/diseratie/SEMS/xmc4800_evaluation_kit/optiga-trust-m/examples\optiga_shell.c ****     OPTIGA_SHELL_LOG_MESSAGE("8 Step: Sign prepared data with private key stored in Session Data Ob
 2012              	 .loc 1 314 0
 2013 004c 2946     	 mov r1,r5
 2014 004e 2246     	 mov r2,r4
 2015 0050 1648     	 ldr r0,.L106+36
 2016 0052 FFF7FEFF 	 bl optiga_lib_print_message
 2017              	.LVL166:
 315:D:/School/diseratie/SEMS/xmc4800_evaluation_kit/optiga-trust-m/examples\optiga_shell.c ****     OPTIGA_SHELL_LOG_MESSAGE("9 Step: Verify the signature with the public key generated previously
 2018              	 .loc 1 315 0
 2019 0056 2946     	 mov r1,r5
 2020 0058 2246     	 mov r2,r4
 2021 005a 1548     	 ldr r0,.L106+40
 2022 005c FFF7FEFF 	 bl optiga_lib_print_message
 2023              	.LVL167:
 316:D:/School/diseratie/SEMS/xmc4800_evaluation_kit/optiga-trust-m/examples\optiga_shell.c ****     OPTIGA_SHELL_LOG_MESSAGE("10 Step: Close Applicaiton on the chip");
 2024              	 .loc 1 316 0
 2025 0060 2946     	 mov r1,r5
 2026 0062 2246     	 mov r2,r4
 2027 0064 1348     	 ldr r0,.L106+44
 2028 0066 FFF7FEFF 	 bl optiga_lib_print_message
 2029              	.LVL168:
 317:D:/School/diseratie/SEMS/xmc4800_evaluation_kit/optiga-trust-m/examples\optiga_shell.c ****     OPTIGA_SHELL_LOG_MESSAGE("Important note: To continue with other examples you need to call the 
 2030              	 .loc 1 317 0
 2031 006a 2946     	 mov r1,r5
 2032 006c 2246     	 mov r2,r4
 2033 006e 1248     	 ldr r0,.L106+48
 2034 0070 FFF7FEFF 	 bl optiga_lib_print_message
 2035              	.LVL169:
 318:D:/School/diseratie/SEMS/xmc4800_evaluation_kit/optiga-trust-m/examples\optiga_shell.c ****     example_optiga_util_hibernate_restore();
 2036              	 .loc 1 318 0
 2037 0074 2946     	 mov r1,r5
 2038 0076 2246     	 mov r2,r4
 2039 0078 1048     	 ldr r0,.L106+52
 2040 007a FFF7FEFF 	 bl optiga_lib_print_message
 2041              	.LVL170:
 320:D:/School/diseratie/SEMS/xmc4800_evaluation_kit/optiga-trust-m/examples\optiga_shell.c **** #endif
 2042              	 .loc 1 320 0
 2043 007e BDE83840 	 pop {r3,r4,r5,lr}
 2044              	.LCFI51:
 2045              	 .cfi_restore 14
 2046              	 .cfi_restore 5
 2047              	 .cfi_restore 4
 2048              	 .cfi_restore 3
 2049              	 .cfi_def_cfa_offset 0
 319:D:/School/diseratie/SEMS/xmc4800_evaluation_kit/optiga-trust-m/examples\optiga_shell.c **** }
 2050              	 .loc 1 319 0
 2051 0082 FFF7FEBF 	 b example_optiga_util_hibernate_restore
 2052              	.LVL171:
 2053              	.L107:
 2054 0086 00BF     	 .align 2
 2055              	.L106:
 2056 0088 34000000 	 .word .LC1
 2057 008c 48000000 	 .word .LC2
 2058 0090 50110000 	 .word .LC80
 2059 0094 78110000 	 .word .LC81
 2060 0098 A8110000 	 .word .LC82
 2061 009c D8070000 	 .word .LC39
 2062 00a0 D4110000 	 .word .LC83
 2063 00a4 38120000 	 .word .LC84
 2064 00a8 78120000 	 .word .LC85
 2065 00ac C0120000 	 .word .LC86
 2066 00b0 F0120000 	 .word .LC87
 2067 00b4 3C130000 	 .word .LC88
 2068 00b8 84130000 	 .word .LC89
 2069 00bc AC130000 	 .word .LC90
 2070              	 .cfi_endproc
 2071              	.LFE461:
 2073              	 .section .text.optiga_shell_pair_host_optiga,"ax",%progbits
 2074              	 .align 2
 2075              	 .thumb
 2076              	 .thumb_func
 2078              	optiga_shell_pair_host_optiga:
 2079              	.LFB460:
 289:D:/School/diseratie/SEMS/xmc4800_evaluation_kit/optiga-trust-m/examples\optiga_shell.c **** #ifndef OPTIGA_INIT_DEINIT_DONE_EXCLUSIVELY
 2080              	 .loc 1 289 0
 2081              	 .cfi_startproc
 2082              	 
 2083              	 
 2084 0000 38B5     	 push {r3,r4,r5,lr}
 2085              	.LCFI52:
 2086              	 .cfi_def_cfa_offset 16
 2087              	 .cfi_offset 3,-16
 2088              	 .cfi_offset 4,-12
 2089              	 .cfi_offset 5,-8
 2090              	 .cfi_offset 14,-4
 291:D:/School/diseratie/SEMS/xmc4800_evaluation_kit/optiga-trust-m/examples\optiga_shell.c **** #endif
 2091              	 .loc 1 291 0
 2092 0002 144D     	 ldr r5,.L110
 2093 0004 144C     	 ldr r4,.L110+4
 2094 0006 1548     	 ldr r0,.L110+8
 2095 0008 2946     	 mov r1,r5
 2096 000a 2246     	 mov r2,r4
 2097 000c FFF7FEFF 	 bl optiga_lib_print_message
 2098              	.LVL172:
 293:D:/School/diseratie/SEMS/xmc4800_evaluation_kit/optiga-trust-m/examples\optiga_shell.c ****     OPTIGA_SHELL_LOG_MESSAGE("1 Step: Read and Check existing Metadata for the Binding Secret");
 2099              	 .loc 1 293 0
 2100 0010 2946     	 mov r1,r5
 2101 0012 2246     	 mov r2,r4
 2102 0014 1248     	 ldr r0,.L110+12
 2103 0016 FFF7FEFF 	 bl optiga_lib_print_message
 2104              	.LVL173:
 294:D:/School/diseratie/SEMS/xmc4800_evaluation_kit/optiga-trust-m/examples\optiga_shell.c ****     OPTIGA_SHELL_LOG_MESSAGE("2 Step: Generate Random for the new Binding Secret");
 2105              	 .loc 1 294 0
 2106 001a 2946     	 mov r1,r5
 2107 001c 2246     	 mov r2,r4
 2108 001e 1148     	 ldr r0,.L110+16
 2109 0020 FFF7FEFF 	 bl optiga_lib_print_message
 2110              	.LVL174:
 295:D:/School/diseratie/SEMS/xmc4800_evaluation_kit/optiga-trust-m/examples\optiga_shell.c ****     OPTIGA_SHELL_LOG_MESSAGE("3 Step: Write new Binding Secret");
 2111              	 .loc 1 295 0
 2112 0024 2946     	 mov r1,r5
 2113 0026 2246     	 mov r2,r4
 2114 0028 0F48     	 ldr r0,.L110+20
 2115 002a FFF7FEFF 	 bl optiga_lib_print_message
 2116              	.LVL175:
 296:D:/School/diseratie/SEMS/xmc4800_evaluation_kit/optiga-trust-m/examples\optiga_shell.c ****     OPTIGA_SHELL_LOG_MESSAGE("4 Step: Store new Binding Secret on the Host");
 2117              	 .loc 1 296 0
 2118 002e 2946     	 mov r1,r5
 2119 0030 2246     	 mov r2,r4
 2120 0032 0E48     	 ldr r0,.L110+24
 2121 0034 FFF7FEFF 	 bl optiga_lib_print_message
 2122              	.LVL176:
 297:D:/School/diseratie/SEMS/xmc4800_evaluation_kit/optiga-trust-m/examples\optiga_shell.c **** #ifndef OPTIGA_INIT_DEINIT_DONE_EXCLUSIVELY
 2123              	 .loc 1 297 0
 2124 0038 2946     	 mov r1,r5
 2125 003a 2246     	 mov r2,r4
 2126 003c 0C48     	 ldr r0,.L110+28
 2127 003e FFF7FEFF 	 bl optiga_lib_print_message
 2128              	.LVL177:
 299:D:/School/diseratie/SEMS/xmc4800_evaluation_kit/optiga-trust-m/examples\optiga_shell.c **** #endif
 2129              	 .loc 1 299 0
 2130 0042 2946     	 mov r1,r5
 2131 0044 2246     	 mov r2,r4
 2132 0046 0B48     	 ldr r0,.L110+32
 2133 0048 FFF7FEFF 	 bl optiga_lib_print_message
 2134              	.LVL178:
 302:D:/School/diseratie/SEMS/xmc4800_evaluation_kit/optiga-trust-m/examples\optiga_shell.c **** #endif
 2135              	 .loc 1 302 0
 2136 004c BDE83840 	 pop {r3,r4,r5,lr}
 2137              	.LCFI53:
 2138              	 .cfi_restore 14
 2139              	 .cfi_restore 5
 2140              	 .cfi_restore 4
 2141              	 .cfi_restore 3
 2142              	 .cfi_def_cfa_offset 0
 301:D:/School/diseratie/SEMS/xmc4800_evaluation_kit/optiga-trust-m/examples\optiga_shell.c **** }
 2143              	 .loc 1 301 0
 2144 0050 FFF7FEBF 	 b example_pair_host_and_optiga_using_pre_shared_secret
 2145              	.LVL179:
 2146              	.L111:
 2147              	 .align 2
 2148              	.L110:
 2149 0054 34000000 	 .word .LC1
 2150 0058 48000000 	 .word .LC2
 2151 005c 00000000 	 .word .LC0
 2152 0060 0C140000 	 .word .LC91
 2153 0064 3C140000 	 .word .LC92
 2154 0068 7C140000 	 .word .LC93
 2155 006c B0140000 	 .word .LC94
 2156 0070 D4140000 	 .word .LC95
 2157 0074 4C080000 	 .word .LC41
 2158              	 .cfi_endproc
 2159              	.LFE460:
 2161              	 .section .text.optiga_shell_util_read_coprocessor_id,"ax",%progbits
 2162              	 .align 2
 2163              	 .thumb
 2164              	 .thumb_func
 2166              	optiga_shell_util_read_coprocessor_id:
 2167              	.LFB459:
 276:D:/School/diseratie/SEMS/xmc4800_evaluation_kit/optiga-trust-m/examples\optiga_shell.c **** #ifndef OPTIGA_INIT_DEINIT_DONE_EXCLUSIVELY
 2168              	 .loc 1 276 0
 2169              	 .cfi_startproc
 2170              	 
 2171              	 
 2172 0000 38B5     	 push {r3,r4,r5,lr}
 2173              	.LCFI54:
 2174              	 .cfi_def_cfa_offset 16
 2175              	 .cfi_offset 3,-16
 2176              	 .cfi_offset 4,-12
 2177              	 .cfi_offset 5,-8
 2178              	 .cfi_offset 14,-4
 278:D:/School/diseratie/SEMS/xmc4800_evaluation_kit/optiga-trust-m/examples\optiga_shell.c **** #endif
 2179              	 .loc 1 278 0
 2180 0002 0D4D     	 ldr r5,.L114
 2181 0004 0D4C     	 ldr r4,.L114+4
 2182 0006 0E48     	 ldr r0,.L114+8
 2183 0008 2946     	 mov r1,r5
 2184 000a 2246     	 mov r2,r4
 2185 000c FFF7FEFF 	 bl optiga_lib_print_message
 2186              	.LVL180:
 280:D:/School/diseratie/SEMS/xmc4800_evaluation_kit/optiga-trust-m/examples\optiga_shell.c ****     OPTIGA_SHELL_LOG_MESSAGE("1 Step: Read Coprocessor UID from OID(0xE0C2) ");
 2187              	 .loc 1 280 0
 2188 0010 2946     	 mov r1,r5
 2189 0012 2246     	 mov r2,r4
 2190 0014 0B48     	 ldr r0,.L114+12
 2191 0016 FFF7FEFF 	 bl optiga_lib_print_message
 2192              	.LVL181:
 281:D:/School/diseratie/SEMS/xmc4800_evaluation_kit/optiga-trust-m/examples\optiga_shell.c **** #ifndef OPTIGA_INIT_DEINIT_DONE_EXCLUSIVELY
 2193              	 .loc 1 281 0
 2194 001a 2946     	 mov r1,r5
 2195 001c 2246     	 mov r2,r4
 2196 001e 0A48     	 ldr r0,.L114+16
 2197 0020 FFF7FEFF 	 bl optiga_lib_print_message
 2198              	.LVL182:
 283:D:/School/diseratie/SEMS/xmc4800_evaluation_kit/optiga-trust-m/examples\optiga_shell.c **** #endif
 2199              	 .loc 1 283 0
 2200 0024 2946     	 mov r1,r5
 2201 0026 2246     	 mov r2,r4
 2202 0028 0848     	 ldr r0,.L114+20
 2203 002a FFF7FEFF 	 bl optiga_lib_print_message
 2204              	.LVL183:
 286:D:/School/diseratie/SEMS/xmc4800_evaluation_kit/optiga-trust-m/examples\optiga_shell.c **** #ifdef OPTIGA_COMMS_SHIELDED_CONNECTION 
 2205              	 .loc 1 286 0
 2206 002e BDE83840 	 pop {r3,r4,r5,lr}
 2207              	.LCFI55:
 2208              	 .cfi_restore 14
 2209              	 .cfi_restore 5
 2210              	 .cfi_restore 4
 2211              	 .cfi_restore 3
 2212              	 .cfi_def_cfa_offset 0
 285:D:/School/diseratie/SEMS/xmc4800_evaluation_kit/optiga-trust-m/examples\optiga_shell.c **** }
 2213              	 .loc 1 285 0
 2214 0032 FFF7FEBF 	 b example_read_coprocessor_id
 2215              	.LVL184:
 2216              	.L115:
 2217 0036 00BF     	 .align 2
 2218              	.L114:
 2219 0038 34000000 	 .word .LC1
 2220 003c 48000000 	 .word .LC2
 2221 0040 00000000 	 .word .LC0
 2222 0044 04150000 	 .word .LC96
 2223 0048 5C150000 	 .word .LC97
 2224 004c 4C030000 	 .word .LC18
 2225              	 .cfi_endproc
 2226              	.LFE459:
 2228              	 .section .text.optiga_shell_util_write_data,"ax",%progbits
 2229              	 .align 2
 2230              	 .thumb
 2231              	 .thumb_func
 2233              	optiga_shell_util_write_data:
 2234              	.LFB458:
 262:D:/School/diseratie/SEMS/xmc4800_evaluation_kit/optiga-trust-m/examples\optiga_shell.c **** #ifndef OPTIGA_INIT_DEINIT_DONE_EXCLUSIVELY
 2235              	 .loc 1 262 0
 2236              	 .cfi_startproc
 2237              	 
 2238              	 
 2239 0000 38B5     	 push {r3,r4,r5,lr}
 2240              	.LCFI56:
 2241              	 .cfi_def_cfa_offset 16
 2242              	 .cfi_offset 3,-16
 2243              	 .cfi_offset 4,-12
 2244              	 .cfi_offset 5,-8
 2245              	 .cfi_offset 14,-4
 264:D:/School/diseratie/SEMS/xmc4800_evaluation_kit/optiga-trust-m/examples\optiga_shell.c **** #endif
 2246              	 .loc 1 264 0
 2247 0002 0F4D     	 ldr r5,.L118
 2248 0004 0F4C     	 ldr r4,.L118+4
 2249 0006 1048     	 ldr r0,.L118+8
 2250 0008 2946     	 mov r1,r5
 2251 000a 2246     	 mov r2,r4
 2252 000c FFF7FEFF 	 bl optiga_lib_print_message
 2253              	.LVL185:
 266:D:/School/diseratie/SEMS/xmc4800_evaluation_kit/optiga-trust-m/examples\optiga_shell.c ****     OPTIGA_SHELL_LOG_MESSAGE("1 Step: Write Sample Certificate in Trust Anchor Data Object ");
 2254              	 .loc 1 266 0
 2255 0010 2946     	 mov r1,r5
 2256 0012 2246     	 mov r2,r4
 2257 0014 0D48     	 ldr r0,.L118+12
 2258 0016 FFF7FEFF 	 bl optiga_lib_print_message
 2259              	.LVL186:
 267:D:/School/diseratie/SEMS/xmc4800_evaluation_kit/optiga-trust-m/examples\optiga_shell.c ****     OPTIGA_SHELL_LOG_MESSAGE("2 Step: Write new Metadata");
 2260              	 .loc 1 267 0
 2261 001a 2946     	 mov r1,r5
 2262 001c 2246     	 mov r2,r4
 2263 001e 0C48     	 ldr r0,.L118+16
 2264 0020 FFF7FEFF 	 bl optiga_lib_print_message
 2265              	.LVL187:
 268:D:/School/diseratie/SEMS/xmc4800_evaluation_kit/optiga-trust-m/examples\optiga_shell.c **** #ifndef OPTIGA_INIT_DEINIT_DONE_EXCLUSIVELY
 2266              	 .loc 1 268 0
 2267 0024 2946     	 mov r1,r5
 2268 0026 2246     	 mov r2,r4
 2269 0028 0A48     	 ldr r0,.L118+20
 2270 002a FFF7FEFF 	 bl optiga_lib_print_message
 2271              	.LVL188:
 270:D:/School/diseratie/SEMS/xmc4800_evaluation_kit/optiga-trust-m/examples\optiga_shell.c **** #endif
 2272              	 .loc 1 270 0
 2273 002e 2946     	 mov r1,r5
 2274 0030 2246     	 mov r2,r4
 2275 0032 0948     	 ldr r0,.L118+24
 2276 0034 FFF7FEFF 	 bl optiga_lib_print_message
 2277              	.LVL189:
 273:D:/School/diseratie/SEMS/xmc4800_evaluation_kit/optiga-trust-m/examples\optiga_shell.c **** 
 2278              	 .loc 1 273 0
 2279 0038 BDE83840 	 pop {r3,r4,r5,lr}
 2280              	.LCFI57:
 2281              	 .cfi_restore 14
 2282              	 .cfi_restore 5
 2283              	 .cfi_restore 4
 2284              	 .cfi_restore 3
 2285              	 .cfi_def_cfa_offset 0
 272:D:/School/diseratie/SEMS/xmc4800_evaluation_kit/optiga-trust-m/examples\optiga_shell.c **** }
 2286              	 .loc 1 272 0
 2287 003c FFF7FEBF 	 b example_optiga_util_write_data
 2288              	.LVL190:
 2289              	.L119:
 2290              	 .align 2
 2291              	.L118:
 2292 0040 34000000 	 .word .LC1
 2293 0044 48000000 	 .word .LC2
 2294 0048 00000000 	 .word .LC0
 2295 004c 8C150000 	 .word .LC98
 2296 0050 B4150000 	 .word .LC99
 2297 0054 F4150000 	 .word .LC100
 2298 0058 28050000 	 .word .LC27
 2299              	 .cfi_endproc
 2300              	.LFE458:
 2302              	 .section .text.optiga_shell_util_read_data,"ax",%progbits
 2303              	 .align 2
 2304              	 .thumb
 2305              	 .thumb_func
 2307              	optiga_shell_util_read_data:
 2308              	.LFB457:
 248:D:/School/diseratie/SEMS/xmc4800_evaluation_kit/optiga-trust-m/examples\optiga_shell.c **** #ifndef OPTIGA_INIT_DEINIT_DONE_EXCLUSIVELY
 2309              	 .loc 1 248 0
 2310              	 .cfi_startproc
 2311              	 
 2312              	 
 2313 0000 38B5     	 push {r3,r4,r5,lr}
 2314              	.LCFI58:
 2315              	 .cfi_def_cfa_offset 16
 2316              	 .cfi_offset 3,-16
 2317              	 .cfi_offset 4,-12
 2318              	 .cfi_offset 5,-8
 2319              	 .cfi_offset 14,-4
 250:D:/School/diseratie/SEMS/xmc4800_evaluation_kit/optiga-trust-m/examples\optiga_shell.c **** #endif
 2320              	 .loc 1 250 0
 2321 0002 0F4D     	 ldr r5,.L122
 2322 0004 0F4C     	 ldr r4,.L122+4
 2323 0006 1048     	 ldr r0,.L122+8
 2324 0008 2946     	 mov r1,r5
 2325 000a 2246     	 mov r2,r4
 2326 000c FFF7FEFF 	 bl optiga_lib_print_message
 2327              	.LVL191:
 252:D:/School/diseratie/SEMS/xmc4800_evaluation_kit/optiga-trust-m/examples\optiga_shell.c ****     OPTIGA_SHELL_LOG_MESSAGE("1 Step: Read Certificate ");
 2328              	 .loc 1 252 0
 2329 0010 2946     	 mov r1,r5
 2330 0012 2246     	 mov r2,r4
 2331 0014 0D48     	 ldr r0,.L122+12
 2332 0016 FFF7FEFF 	 bl optiga_lib_print_message
 2333              	.LVL192:
 253:D:/School/diseratie/SEMS/xmc4800_evaluation_kit/optiga-trust-m/examples\optiga_shell.c ****     OPTIGA_SHELL_LOG_MESSAGE("2 Step: Read Certificate Metadata");
 2334              	 .loc 1 253 0
 2335 001a 2946     	 mov r1,r5
 2336 001c 2246     	 mov r2,r4
 2337 001e 0C48     	 ldr r0,.L122+16
 2338 0020 FFF7FEFF 	 bl optiga_lib_print_message
 2339              	.LVL193:
 254:D:/School/diseratie/SEMS/xmc4800_evaluation_kit/optiga-trust-m/examples\optiga_shell.c **** #ifndef OPTIGA_INIT_DEINIT_DONE_EXCLUSIVELY
 2340              	 .loc 1 254 0
 2341 0024 2946     	 mov r1,r5
 2342 0026 2246     	 mov r2,r4
 2343 0028 0A48     	 ldr r0,.L122+20
 2344 002a FFF7FEFF 	 bl optiga_lib_print_message
 2345              	.LVL194:
 256:D:/School/diseratie/SEMS/xmc4800_evaluation_kit/optiga-trust-m/examples\optiga_shell.c **** #endif
 2346              	 .loc 1 256 0
 2347 002e 2946     	 mov r1,r5
 2348 0030 2246     	 mov r2,r4
 2349 0032 0948     	 ldr r0,.L122+24
 2350 0034 FFF7FEFF 	 bl optiga_lib_print_message
 2351              	.LVL195:
 259:D:/School/diseratie/SEMS/xmc4800_evaluation_kit/optiga-trust-m/examples\optiga_shell.c **** 
 2352              	 .loc 1 259 0
 2353 0038 BDE83840 	 pop {r3,r4,r5,lr}
 2354              	.LCFI59:
 2355              	 .cfi_restore 14
 2356              	 .cfi_restore 5
 2357              	 .cfi_restore 4
 2358              	 .cfi_restore 3
 2359              	 .cfi_def_cfa_offset 0
 258:D:/School/diseratie/SEMS/xmc4800_evaluation_kit/optiga-trust-m/examples\optiga_shell.c **** }
 2360              	 .loc 1 258 0
 2361 003c FFF7FEBF 	 b example_optiga_util_read_data
 2362              	.LVL196:
 2363              	.L123:
 2364              	 .align 2
 2365              	.L122:
 2366 0040 34000000 	 .word .LC1
 2367 0044 48000000 	 .word .LC2
 2368 0048 00000000 	 .word .LC0
 2369 004c 10160000 	 .word .LC101
 2370 0050 34160000 	 .word .LC102
 2371 0054 50160000 	 .word .LC103
 2372 0058 28050000 	 .word .LC27
 2373              	 .cfi_endproc
 2374              	.LFE457:
 2376              	 .section .text.optiga_shell_deinit,"ax",%progbits
 2377              	 .align 2
 2378              	 .thumb
 2379              	 .thumb_func
 2381              	optiga_shell_deinit:
 2382              	.LFB456:
 202:D:/School/diseratie/SEMS/xmc4800_evaluation_kit/optiga-trust-m/examples\optiga_shell.c ****     optiga_lib_status_t return_status = !OPTIGA_LIB_SUCCESS;
 2383              	 .loc 1 202 0
 2384              	 .cfi_startproc
 2385              	 
 2386              	 
 2387              	.LVL197:
 2388 0000 F0B5     	 push {r4,r5,r6,r7,lr}
 2389              	.LCFI60:
 2390              	 .cfi_def_cfa_offset 20
 2391              	 .cfi_offset 4,-20
 2392              	 .cfi_offset 5,-16
 2393              	 .cfi_offset 6,-12
 2394              	 .cfi_offset 7,-8
 2395              	 .cfi_offset 14,-4
 2396 0002 83B0     	 sub sp,sp,#12
 2397              	.LCFI61:
 2398              	 .cfi_def_cfa_offset 32
 204:D:/School/diseratie/SEMS/xmc4800_evaluation_kit/optiga-trust-m/examples\optiga_shell.c ****     
 2399              	 .loc 1 204 0
 2400 0004 02AD     	 add r5,sp,#8
 2401 0006 0026     	 movs r6,#0
 2402 0008 45F8046D 	 str r6,[r5,#-4]!
 213:D:/School/diseratie/SEMS/xmc4800_evaluation_kit/optiga-trust-m/examples\optiga_shell.c ****         
 2403              	 .loc 1 213 0
 2404 000c 0123     	 movs r3,#1
 2405 000e 154C     	 ldr r4,.L136
 217:D:/School/diseratie/SEMS/xmc4800_evaluation_kit/optiga-trust-m/examples\optiga_shell.c **** 
 2406              	 .loc 1 217 0
 2407 0010 154F     	 ldr r7,.L136+4
 213:D:/School/diseratie/SEMS/xmc4800_evaluation_kit/optiga-trust-m/examples\optiga_shell.c ****         
 2408              	 .loc 1 213 0
 2409 0012 2380     	 strh r3,[r4]
 215:D:/School/diseratie/SEMS/xmc4800_evaluation_kit/optiga-trust-m/examples\optiga_shell.c ****         
 2410              	 .loc 1 215 0
 2411 0014 2846     	 mov r0,r5
 2412 0016 1946     	 mov r1,r3
 2413 0018 FFF7FEFF 	 bl example_performance_measurement
 2414              	.LVL198:
 217:D:/School/diseratie/SEMS/xmc4800_evaluation_kit/optiga-trust-m/examples\optiga_shell.c **** 
 2415              	 .loc 1 217 0
 2416 001c 3146     	 mov r1,r6
 2417 001e 3868     	 ldr r0,[r7]
 2418 0020 FFF7FEFF 	 bl optiga_util_close_application
 2419              	.LVL199:
 219:D:/School/diseratie/SEMS/xmc4800_evaluation_kit/optiga-trust-m/examples\optiga_shell.c ****         {
 2420              	 .loc 1 219 0
 2421 0024 08B1     	 cbz r0,.L126
 2422              	.LVL200:
 2423              	.L124:
 245:D:/School/diseratie/SEMS/xmc4800_evaluation_kit/optiga-trust-m/examples\optiga_shell.c **** 
 2424              	 .loc 1 245 0
 2425 0026 03B0     	 add sp,sp,#12
 2426              	.LCFI62:
 2427              	 .cfi_remember_state
 2428              	 .cfi_def_cfa_offset 20
 2429              	 
 2430 0028 F0BD     	 pop {r4,r5,r6,r7,pc}
 2431              	.LVL201:
 2432              	.L126:
 2433              	.LCFI63:
 2434              	 .cfi_restore_state
 224:D:/School/diseratie/SEMS/xmc4800_evaluation_kit/optiga-trust-m/examples\optiga_shell.c ****         {
 2435              	 .loc 1 224 0 discriminator 1
 2436 002a 2388     	 ldrh r3,[r4]
 2437 002c 0D4A     	 ldr r2,.L136
 2438 002e 9BB2     	 uxth r3,r3
 2439 0030 012B     	 cmp r3,#1
 2440 0032 FAD0     	 beq .L126
 229:D:/School/diseratie/SEMS/xmc4800_evaluation_kit/optiga-trust-m/examples\optiga_shell.c ****         {
 2441              	 .loc 1 229 0
 2442 0034 1488     	 ldrh r4,[r2]
 2443 0036 A4B2     	 uxth r4,r4
 2444 0038 54B1     	 cbz r4,.L127
 231:D:/School/diseratie/SEMS/xmc4800_evaluation_kit/optiga-trust-m/examples\optiga_shell.c ****             //optiga util close application failed
 2445              	 .loc 1 231 0
 2446 003a 1388     	 ldrh r3,[r2]
 2447 003c 9BB2     	 uxth r3,r3
 2448              	.LVL202:
 244:D:/School/diseratie/SEMS/xmc4800_evaluation_kit/optiga-trust-m/examples\optiga_shell.c **** }
 2449              	 .loc 1 244 0
 2450 003e 002B     	 cmp r3,#0
 2451 0040 F1D1     	 bne .L124
 2452              	.LVL203:
 2453              	.L128:
 244:D:/School/diseratie/SEMS/xmc4800_evaluation_kit/optiga-trust-m/examples\optiga_shell.c **** }
 2454              	 .loc 1 244 0 is_stmt 0 discriminator 1
 2455 0042 0A49     	 ldr r1,.L136+8
 2456 0044 019A     	 ldr r2,[sp,#4]
 2457 0046 0A48     	 ldr r0,.L136+12
 2458 0048 FFF7FEFF 	 bl sprintf
 2459              	.LVL204:
 245:D:/School/diseratie/SEMS/xmc4800_evaluation_kit/optiga-trust-m/examples\optiga_shell.c **** 
 2460              	 .loc 1 245 0 is_stmt 1 discriminator 1
 2461 004c 03B0     	 add sp,sp,#12
 2462              	.LCFI64:
 2463              	 .cfi_remember_state
 2464              	 .cfi_def_cfa_offset 20
 2465              	 
 2466 004e F0BD     	 pop {r4,r5,r6,r7,pc}
 2467              	.LVL205:
 2468              	.L127:
 2469              	.LCFI65:
 2470              	 .cfi_restore_state
 236:D:/School/diseratie/SEMS/xmc4800_evaluation_kit/optiga-trust-m/examples\optiga_shell.c ****         
 2471              	 .loc 1 236 0
 2472 0050 2846     	 mov r0,r5
 2473              	.LVL206:
 2474 0052 2146     	 mov r1,r4
 2475 0054 FFF7FEFF 	 bl example_performance_measurement
 2476              	.LVL207:
 240:D:/School/diseratie/SEMS/xmc4800_evaluation_kit/optiga-trust-m/examples\optiga_shell.c ****         me_util = NULL;
 2477              	 .loc 1 240 0
 2478 0058 3868     	 ldr r0,[r7]
 2479 005a FFF7FEFF 	 bl optiga_util_destroy
 2480              	.LVL208:
 241:D:/School/diseratie/SEMS/xmc4800_evaluation_kit/optiga-trust-m/examples\optiga_shell.c ****     }while(FALSE);
 2481              	 .loc 1 241 0
 2482 005e 3C60     	 str r4,[r7]
 2483              	.LVL209:
 2484 0060 EFE7     	 b .L128
 2485              	.L137:
 2486 0062 00BF     	 .align 2
 2487              	.L136:
 2488 0064 00000000 	 .word .LANCHOR0
 2489 0068 00000000 	 .word .LANCHOR1
 2490 006c 74160000 	 .word .LC104
 2491 0070 00000000 	 .word performance_buffer_string
 2492              	 .cfi_endproc
 2493              	.LFE456:
 2495              	 .section .text.optiga_shell_init,"ax",%progbits
 2496              	 .align 2
 2497              	 .thumb
 2498              	 .thumb_func
 2500              	optiga_shell_init:
 2501              	.LFB455:
 113:D:/School/diseratie/SEMS/xmc4800_evaluation_kit/optiga-trust-m/examples\optiga_shell.c ****     optiga_lib_status_t return_status = !OPTIGA_LIB_SUCCESS;
 2502              	 .loc 1 113 0
 2503              	 .cfi_startproc
 2504              	 
 2505              	 
 2506              	.LVL210:
 2507 0000 F0B5     	 push {r4,r5,r6,r7,lr}
 2508              	.LCFI66:
 2509              	 .cfi_def_cfa_offset 20
 2510              	 .cfi_offset 4,-20
 2511              	 .cfi_offset 5,-16
 2512              	 .cfi_offset 6,-12
 2513              	 .cfi_offset 7,-8
 2514              	 .cfi_offset 14,-4
 121:D:/School/diseratie/SEMS/xmc4800_evaluation_kit/optiga-trust-m/examples\optiga_shell.c ****         {
 2515              	 .loc 1 121 0
 2516 0002 344E     	 ldr r6,.L157
 113:D:/School/diseratie/SEMS/xmc4800_evaluation_kit/optiga-trust-m/examples\optiga_shell.c ****     optiga_lib_status_t return_status = !OPTIGA_LIB_SUCCESS;
 2517              	 .loc 1 113 0
 2518 0004 85B0     	 sub sp,sp,#20
 2519              	.LCFI67:
 2520              	 .cfi_def_cfa_offset 40
 121:D:/School/diseratie/SEMS/xmc4800_evaluation_kit/optiga-trust-m/examples\optiga_shell.c ****         {
 2521              	 .loc 1 121 0
 2522 0006 3068     	 ldr r0,[r6]
 115:D:/School/diseratie/SEMS/xmc4800_evaluation_kit/optiga-trust-m/examples\optiga_shell.c ****     uint16_t optiga_oid = 0xE0C4;
 2523              	 .loc 1 115 0
 2524 0008 0022     	 movs r2,#0
 117:D:/School/diseratie/SEMS/xmc4800_evaluation_kit/optiga-trust-m/examples\optiga_shell.c **** 
 2525              	 .loc 1 117 0
 2526 000a 0F23     	 movs r3,#15
 115:D:/School/diseratie/SEMS/xmc4800_evaluation_kit/optiga-trust-m/examples\optiga_shell.c ****     uint16_t optiga_oid = 0xE0C4;
 2527              	 .loc 1 115 0
 2528 000c 0392     	 str r2,[sp,#12]
 2529              	.LVL211:
 117:D:/School/diseratie/SEMS/xmc4800_evaluation_kit/optiga-trust-m/examples\optiga_shell.c **** 
 2530              	 .loc 1 117 0
 2531 000e 8DF80830 	 strb r3,[sp,#8]
 121:D:/School/diseratie/SEMS/xmc4800_evaluation_kit/optiga-trust-m/examples\optiga_shell.c ****         {
 2532              	 .loc 1 121 0
 2533 0012 00B3     	 cbz r0,.L139
 2534              	.L142:
 136:D:/School/diseratie/SEMS/xmc4800_evaluation_kit/optiga-trust-m/examples\optiga_shell.c ****         
 2535              	 .loc 1 136 0
 2536 0014 0123     	 movs r3,#1
 2537 0016 304C     	 ldr r4,.L157+4
 138:D:/School/diseratie/SEMS/xmc4800_evaluation_kit/optiga-trust-m/examples\optiga_shell.c ****         
 2538              	 .loc 1 138 0
 2539 0018 1946     	 mov r1,r3
 2540 001a 03A8     	 add r0,sp,#12
 136:D:/School/diseratie/SEMS/xmc4800_evaluation_kit/optiga-trust-m/examples\optiga_shell.c ****         
 2541              	 .loc 1 136 0
 2542 001c 2380     	 strh r3,[r4]
 138:D:/School/diseratie/SEMS/xmc4800_evaluation_kit/optiga-trust-m/examples\optiga_shell.c ****         
 2543              	 .loc 1 138 0
 2544 001e FFF7FEFF 	 bl example_performance_measurement
 2545              	.LVL212:
 140:D:/School/diseratie/SEMS/xmc4800_evaluation_kit/optiga-trust-m/examples\optiga_shell.c **** 
 2546              	 .loc 1 140 0
 2547 0022 3068     	 ldr r0,[r6]
 2548 0024 0021     	 movs r1,#0
 2549 0026 FFF7FEFF 	 bl optiga_util_open_application
 2550              	.LVL213:
 142:D:/School/diseratie/SEMS/xmc4800_evaluation_kit/optiga-trust-m/examples\optiga_shell.c ****         {
 2551              	 .loc 1 142 0
 2552 002a 08B1     	 cbz r0,.L141
 2553              	.LVL214:
 2554              	.L138:
 199:D:/School/diseratie/SEMS/xmc4800_evaluation_kit/optiga-trust-m/examples\optiga_shell.c **** 
 2555              	 .loc 1 199 0
 2556 002c 05B0     	 add sp,sp,#20
 2557              	.LCFI68:
 2558              	 .cfi_remember_state
 2559              	 .cfi_def_cfa_offset 20
 2560              	 
 2561 002e F0BD     	 pop {r4,r5,r6,r7,pc}
 2562              	.LVL215:
 2563              	.L141:
 2564              	.LCFI69:
 2565              	 .cfi_restore_state
 146:D:/School/diseratie/SEMS/xmc4800_evaluation_kit/optiga-trust-m/examples\optiga_shell.c ****         {
 2566              	 .loc 1 146 0 discriminator 1
 2567 0030 2388     	 ldrh r3,[r4]
 2568 0032 294D     	 ldr r5,.L157+4
 2569 0034 9BB2     	 uxth r3,r3
 2570 0036 012B     	 cmp r3,#1
 2571 0038 FAD0     	 beq .L141
 150:D:/School/diseratie/SEMS/xmc4800_evaluation_kit/optiga-trust-m/examples\optiga_shell.c ****         {
 2572              	 .loc 1 150 0
 2573 003a 2988     	 ldrh r1,[r5]
 2574 003c 89B2     	 uxth r1,r1
 2575 003e 91B1     	 cbz r1,.L143
 152:D:/School/diseratie/SEMS/xmc4800_evaluation_kit/optiga-trust-m/examples\optiga_shell.c ****             //optiga util open application failed
 2576              	 .loc 1 152 0
 2577 0040 2B88     	 ldrh r3,[r5]
 2578 0042 9BB2     	 uxth r3,r3
 2579              	.LVL216:
 2580              	.L144:
 198:D:/School/diseratie/SEMS/xmc4800_evaluation_kit/optiga-trust-m/examples\optiga_shell.c **** }
 2581              	 .loc 1 198 0
 2582 0044 002B     	 cmp r3,#0
 2583 0046 F1D1     	 bne .L138
 2584              	.LVL217:
 2585              	.L147:
 198:D:/School/diseratie/SEMS/xmc4800_evaluation_kit/optiga-trust-m/examples\optiga_shell.c **** }
 2586              	 .loc 1 198 0 is_stmt 0 discriminator 1
 2587 0048 2449     	 ldr r1,.L157+8
 2588 004a 039A     	 ldr r2,[sp,#12]
 2589 004c 2448     	 ldr r0,.L157+12
 2590 004e FFF7FEFF 	 bl sprintf
 2591              	.LVL218:
 199:D:/School/diseratie/SEMS/xmc4800_evaluation_kit/optiga-trust-m/examples\optiga_shell.c **** 
 2592              	 .loc 1 199 0 is_stmt 1 discriminator 1
 2593 0052 05B0     	 add sp,sp,#20
 2594              	.LCFI70:
 2595              	 .cfi_remember_state
 2596              	 .cfi_def_cfa_offset 20
 2597              	 
 2598 0054 F0BD     	 pop {r4,r5,r6,r7,pc}
 2599              	.LVL219:
 2600              	.L139:
 2601              	.LCFI71:
 2602              	 .cfi_restore_state
 124:D:/School/diseratie/SEMS/xmc4800_evaluation_kit/optiga-trust-m/examples\optiga_shell.c ****             if (NULL == me_util)
 2603              	 .loc 1 124 0
 2604 0056 0246     	 mov r2,r0
 2605 0058 2249     	 ldr r1,.L157+16
 2606 005a FFF7FEFF 	 bl optiga_util_create
 2607              	.LVL220:
 2608 005e 3060     	 str r0,[r6]
 125:D:/School/diseratie/SEMS/xmc4800_evaluation_kit/optiga-trust-m/examples\optiga_shell.c ****             {
 2609              	 .loc 1 125 0
 2610 0060 0028     	 cmp r0,#0
 2611 0062 D7D1     	 bne .L142
 2612 0064 E2E7     	 b .L138
 2613              	.LVL221:
 2614              	.L143:
 157:D:/School/diseratie/SEMS/xmc4800_evaluation_kit/optiga-trust-m/examples\optiga_shell.c ****         
 2615              	 .loc 1 157 0
 2616 0066 03A8     	 add r0,sp,#12
 2617              	.LVL222:
 2618 0068 FFF7FEFF 	 bl example_performance_measurement
 2619              	.LVL223:
 159:D:/School/diseratie/SEMS/xmc4800_evaluation_kit/optiga-trust-m/examples\optiga_shell.c **** #ifdef OPTIGA_COMMS_SHIELDED_CONNECTION 
 2620              	 .loc 1 159 0
 2621 006c 1E48     	 ldr r0,.L157+20
 2622 006e 1F49     	 ldr r1,.L157+24
 2623 0070 1F4A     	 ldr r2,.L157+28
 2624 0072 FFF7FEFF 	 bl optiga_lib_print_message
 2625              	.LVL224:
 163:D:/School/diseratie/SEMS/xmc4800_evaluation_kit/optiga-trust-m/examples\optiga_shell.c ****         if (OPTIGA_LIB_SUCCESS != return_status)
 2626              	 .loc 1 163 0
 2627 0076 FFF7FEFF 	 bl pair_host_and_optiga_using_pre_shared_secret
 2628              	.LVL225:
 164:D:/School/diseratie/SEMS/xmc4800_evaluation_kit/optiga-trust-m/examples\optiga_shell.c ****         {
 2629              	 .loc 1 164 0
 2630 007a 0746     	 mov r7,r0
 2631 007c 0028     	 cmp r0,#0
 2632 007e D5D1     	 bne .L138
 169:D:/School/diseratie/SEMS/xmc4800_evaluation_kit/optiga-trust-m/examples\optiga_shell.c **** #endif
 2633              	 .loc 1 169 0
 2634 0080 1C48     	 ldr r0,.L157+32
 2635              	.LVL226:
 2636 0082 1A49     	 ldr r1,.L157+24
 2637 0084 1A4A     	 ldr r2,.L157+28
 2638 0086 FFF7FEFF 	 bl optiga_lib_print_message
 2639              	.LVL227:
 173:D:/School/diseratie/SEMS/xmc4800_evaluation_kit/optiga-trust-m/examples\optiga_shell.c ****                                                optiga_oid,
 2640              	 .loc 1 173 0
 2641 008a 3068     	 ldr r0,[r6]
 2642 008c 02AA     	 add r2,sp,#8
 172:D:/School/diseratie/SEMS/xmc4800_evaluation_kit/optiga-trust-m/examples\optiga_shell.c ****         return_status = optiga_util_write_data(me_util,
 2643              	 .loc 1 172 0
 2644 008e 0126     	 movs r6,#1
 173:D:/School/diseratie/SEMS/xmc4800_evaluation_kit/optiga-trust-m/examples\optiga_shell.c ****                                                optiga_oid,
 2645              	 .loc 1 173 0
 2646 0090 8DE84400 	 stmia sp,{r2,r6}
 2647 0094 3B46     	 mov r3,r7
 2648 0096 4EF2C401 	 movw r1,#57540
 2649 009a 4022     	 movs r2,#64
 172:D:/School/diseratie/SEMS/xmc4800_evaluation_kit/optiga-trust-m/examples\optiga_shell.c ****         return_status = optiga_util_write_data(me_util,
 2650              	 .loc 1 172 0
 2651 009c 2E80     	 strh r6,[r5]
 173:D:/School/diseratie/SEMS/xmc4800_evaluation_kit/optiga-trust-m/examples\optiga_shell.c ****                                                optiga_oid,
 2652              	 .loc 1 173 0
 2653 009e FFF7FEFF 	 bl optiga_util_write_data
 2654              	.LVL228:
 180:D:/School/diseratie/SEMS/xmc4800_evaluation_kit/optiga-trust-m/examples\optiga_shell.c ****         {
 2655              	 .loc 1 180 0
 2656 00a2 0028     	 cmp r0,#0
 2657 00a4 C2D1     	 bne .L138
 2658              	.L145:
 185:D:/School/diseratie/SEMS/xmc4800_evaluation_kit/optiga-trust-m/examples\optiga_shell.c ****         {
 2659              	 .loc 1 185 0 discriminator 1
 2660 00a6 2388     	 ldrh r3,[r4]
 2661 00a8 0B4A     	 ldr r2,.L157+4
 2662 00aa 9BB2     	 uxth r3,r3
 2663 00ac 012B     	 cmp r3,#1
 2664 00ae FAD0     	 beq .L145
 189:D:/School/diseratie/SEMS/xmc4800_evaluation_kit/optiga-trust-m/examples\optiga_shell.c ****         {
 2665              	 .loc 1 189 0
 2666 00b0 1388     	 ldrh r3,[r2]
 2667 00b2 9BB2     	 uxth r3,r3
 2668 00b4 13B1     	 cbz r3,.L146
 191:D:/School/diseratie/SEMS/xmc4800_evaluation_kit/optiga-trust-m/examples\optiga_shell.c ****             break;
 2669              	 .loc 1 191 0
 2670 00b6 1388     	 ldrh r3,[r2]
 2671 00b8 9BB2     	 uxth r3,r3
 2672              	.LVL229:
 192:D:/School/diseratie/SEMS/xmc4800_evaluation_kit/optiga-trust-m/examples\optiga_shell.c ****         }
 2673              	 .loc 1 192 0
 2674 00ba C3E7     	 b .L144
 2675              	.LVL230:
 2676              	.L146:
 194:D:/School/diseratie/SEMS/xmc4800_evaluation_kit/optiga-trust-m/examples\optiga_shell.c ****         OPTIGA_SHELL_LOG_MESSAGE("Starting OPTIGA example demonstration..\n");
 2677              	 .loc 1 194 0
 2678 00bc 0E48     	 ldr r0,.L157+36
 2679              	.LVL231:
 2680 00be 0B49     	 ldr r1,.L157+24
 2681 00c0 0B4A     	 ldr r2,.L157+28
 2682 00c2 FFF7FEFF 	 bl optiga_lib_print_message
 2683              	.LVL232:
 195:D:/School/diseratie/SEMS/xmc4800_evaluation_kit/optiga-trust-m/examples\optiga_shell.c ****     }while(FALSE);
 2684              	 .loc 1 195 0
 2685 00c6 0D48     	 ldr r0,.L157+40
 2686 00c8 0849     	 ldr r1,.L157+24
 2687 00ca 094A     	 ldr r2,.L157+28
 2688 00cc FFF7FEFF 	 bl optiga_lib_print_message
 2689              	.LVL233:
 2690 00d0 BAE7     	 b .L147
 2691              	.L158:
 2692 00d2 00BF     	 .align 2
 2693              	.L157:
 2694 00d4 00000000 	 .word .LANCHOR1
 2695 00d8 00000000 	 .word .LANCHOR0
 2696 00dc 74160000 	 .word .LC104
 2697 00e0 00000000 	 .word performance_buffer_string
 2698 00e4 00000000 	 .word optiga_util_callback
 2699 00e8 8C160000 	 .word .LC105
 2700 00ec 34000000 	 .word .LC1
 2701 00f0 48000000 	 .word .LC2
 2702 00f4 B0160000 	 .word .LC106
 2703 00f8 D8160000 	 .word .LC107
 2704 00fc 04170000 	 .word .LC108
 2705              	 .cfi_endproc
 2706              	.LFE455:
 2708              	 .section .text.optiga_shell_show_usage,"ax",%progbits
 2709              	 .align 2
 2710              	 .thumb
 2711              	 .thumb_func
 2713              	optiga_shell_show_usage:
 2714              	.LFB489:
 719:D:/School/diseratie/SEMS/xmc4800_evaluation_kit/optiga-trust-m/examples\optiga_shell.c **** #endif
 720:D:/School/diseratie/SEMS/xmc4800_evaluation_kit/optiga-trust-m/examples\optiga_shell.c **** 
 721:D:/School/diseratie/SEMS/xmc4800_evaluation_kit/optiga-trust-m/examples\optiga_shell.c **** void run_example(void (*test_case)(void)) 
 722:D:/School/diseratie/SEMS/xmc4800_evaluation_kit/optiga-trust-m/examples\optiga_shell.c **** { 
 723:D:/School/diseratie/SEMS/xmc4800_evaluation_kit/optiga-trust-m/examples\optiga_shell.c ****     test_case();  
 724:D:/School/diseratie/SEMS/xmc4800_evaluation_kit/optiga-trust-m/examples\optiga_shell.c ****     optiga_lib_print_string_with_newline(""); 
 725:D:/School/diseratie/SEMS/xmc4800_evaluation_kit/optiga-trust-m/examples\optiga_shell.c ****     pal_os_timer_delay_in_milliseconds(2000);
 726:D:/School/diseratie/SEMS/xmc4800_evaluation_kit/optiga-trust-m/examples\optiga_shell.c **** }
 727:D:/School/diseratie/SEMS/xmc4800_evaluation_kit/optiga-trust-m/examples\optiga_shell.c **** 
 728:D:/School/diseratie/SEMS/xmc4800_evaluation_kit/optiga-trust-m/examples\optiga_shell.c **** static void optiga_shell_selftest(void)
 729:D:/School/diseratie/SEMS/xmc4800_evaluation_kit/optiga-trust-m/examples\optiga_shell.c **** {
 730:D:/School/diseratie/SEMS/xmc4800_evaluation_kit/optiga-trust-m/examples\optiga_shell.c ****     run_example(optiga_shell_init);
 731:D:/School/diseratie/SEMS/xmc4800_evaluation_kit/optiga-trust-m/examples\optiga_shell.c **** #ifndef OPTIGA_INIT_DEINIT_DONE_EXCLUSIVELY
 732:D:/School/diseratie/SEMS/xmc4800_evaluation_kit/optiga-trust-m/examples\optiga_shell.c ****     run_example(optiga_shell_deinit);
 733:D:/School/diseratie/SEMS/xmc4800_evaluation_kit/optiga-trust-m/examples\optiga_shell.c **** #endif
 734:D:/School/diseratie/SEMS/xmc4800_evaluation_kit/optiga-trust-m/examples\optiga_shell.c ****     run_example(optiga_shell_util_read_data);
 735:D:/School/diseratie/SEMS/xmc4800_evaluation_kit/optiga-trust-m/examples\optiga_shell.c ****     run_example(optiga_shell_util_write_data);
 736:D:/School/diseratie/SEMS/xmc4800_evaluation_kit/optiga-trust-m/examples\optiga_shell.c ****     run_example(optiga_shell_util_read_coprocessor_id);
 737:D:/School/diseratie/SEMS/xmc4800_evaluation_kit/optiga-trust-m/examples\optiga_shell.c **** #ifdef OPTIGA_COMMS_SHIELDED_CONNECTION 
 738:D:/School/diseratie/SEMS/xmc4800_evaluation_kit/optiga-trust-m/examples\optiga_shell.c ****     run_example(optiga_shell_pair_host_optiga);
 739:D:/School/diseratie/SEMS/xmc4800_evaluation_kit/optiga-trust-m/examples\optiga_shell.c **** #endif
 740:D:/School/diseratie/SEMS/xmc4800_evaluation_kit/optiga-trust-m/examples\optiga_shell.c ****     run_example(optiga_shell_util_update_count);
 741:D:/School/diseratie/SEMS/xmc4800_evaluation_kit/optiga-trust-m/examples\optiga_shell.c ****     run_example(optiga_shell_util_protected_update);
 742:D:/School/diseratie/SEMS/xmc4800_evaluation_kit/optiga-trust-m/examples\optiga_shell.c **** #ifdef OPTIGA_CRYPT_HASH_ENABLED
 743:D:/School/diseratie/SEMS/xmc4800_evaluation_kit/optiga-trust-m/examples\optiga_shell.c ****     run_example(optiga_shell_crypt_hash);
 744:D:/School/diseratie/SEMS/xmc4800_evaluation_kit/optiga-trust-m/examples\optiga_shell.c ****     run_example(optiga_shell_crypt_hash_data);
 745:D:/School/diseratie/SEMS/xmc4800_evaluation_kit/optiga-trust-m/examples\optiga_shell.c **** #endif
 746:D:/School/diseratie/SEMS/xmc4800_evaluation_kit/optiga-trust-m/examples\optiga_shell.c **** #ifdef OPTIGA_CRYPT_TLS_PRF_SHA256_ENABLED
 747:D:/School/diseratie/SEMS/xmc4800_evaluation_kit/optiga-trust-m/examples\optiga_shell.c ****     run_example(optiga_shell_crypt_tls_prf_sha256);
 748:D:/School/diseratie/SEMS/xmc4800_evaluation_kit/optiga-trust-m/examples\optiga_shell.c **** #endif    
 749:D:/School/diseratie/SEMS/xmc4800_evaluation_kit/optiga-trust-m/examples\optiga_shell.c **** #ifdef OPTIGA_CRYPT_RANDOM_ENABLED    
 750:D:/School/diseratie/SEMS/xmc4800_evaluation_kit/optiga-trust-m/examples\optiga_shell.c ****     run_example(optiga_shell_crypt_random);
 751:D:/School/diseratie/SEMS/xmc4800_evaluation_kit/optiga-trust-m/examples\optiga_shell.c **** #endif
 752:D:/School/diseratie/SEMS/xmc4800_evaluation_kit/optiga-trust-m/examples\optiga_shell.c **** #ifdef OPTIGA_CRYPT_ECC_GENERATE_KEYPAIR_ENABLED
 753:D:/School/diseratie/SEMS/xmc4800_evaluation_kit/optiga-trust-m/examples\optiga_shell.c ****     run_example(optiga_shell_crypt_ecc_generate_keypair);
 754:D:/School/diseratie/SEMS/xmc4800_evaluation_kit/optiga-trust-m/examples\optiga_shell.c **** #endif
 755:D:/School/diseratie/SEMS/xmc4800_evaluation_kit/optiga-trust-m/examples\optiga_shell.c **** #ifdef OPTIGA_CRYPT_ECDSA_SIGN_ENABLED
 756:D:/School/diseratie/SEMS/xmc4800_evaluation_kit/optiga-trust-m/examples\optiga_shell.c ****     run_example(optiga_shell_crypt_ecdsa_sign);
 757:D:/School/diseratie/SEMS/xmc4800_evaluation_kit/optiga-trust-m/examples\optiga_shell.c **** #endif
 758:D:/School/diseratie/SEMS/xmc4800_evaluation_kit/optiga-trust-m/examples\optiga_shell.c **** #ifdef OPTIGA_CRYPT_ECDSA_VERIFY_ENABLED
 759:D:/School/diseratie/SEMS/xmc4800_evaluation_kit/optiga-trust-m/examples\optiga_shell.c ****     run_example(optiga_shell_crypt_ecdsa_verify);
 760:D:/School/diseratie/SEMS/xmc4800_evaluation_kit/optiga-trust-m/examples\optiga_shell.c **** #endif
 761:D:/School/diseratie/SEMS/xmc4800_evaluation_kit/optiga-trust-m/examples\optiga_shell.c **** #ifdef OPTIGA_CRYPT_ECDH_ENABLED
 762:D:/School/diseratie/SEMS/xmc4800_evaluation_kit/optiga-trust-m/examples\optiga_shell.c ****     run_example(optiga_shell_crypt_ecdh);
 763:D:/School/diseratie/SEMS/xmc4800_evaluation_kit/optiga-trust-m/examples\optiga_shell.c **** #endif
 764:D:/School/diseratie/SEMS/xmc4800_evaluation_kit/optiga-trust-m/examples\optiga_shell.c **** #ifdef OPTIGA_CRYPT_RSA_GENERATE_KEYPAIR_ENABLED
 765:D:/School/diseratie/SEMS/xmc4800_evaluation_kit/optiga-trust-m/examples\optiga_shell.c ****     run_example(optiga_shell_crypt_rsa_generate_keypair);
 766:D:/School/diseratie/SEMS/xmc4800_evaluation_kit/optiga-trust-m/examples\optiga_shell.c **** #endif
 767:D:/School/diseratie/SEMS/xmc4800_evaluation_kit/optiga-trust-m/examples\optiga_shell.c **** #ifdef OPTIGA_CRYPT_RSA_SIGN_ENABLED
 768:D:/School/diseratie/SEMS/xmc4800_evaluation_kit/optiga-trust-m/examples\optiga_shell.c ****     run_example(optiga_shell_crypt_rsa_sign);
 769:D:/School/diseratie/SEMS/xmc4800_evaluation_kit/optiga-trust-m/examples\optiga_shell.c **** #endif
 770:D:/School/diseratie/SEMS/xmc4800_evaluation_kit/optiga-trust-m/examples\optiga_shell.c **** #ifdef OPTIGA_CRYPT_RSA_VERIFY_ENABLED
 771:D:/School/diseratie/SEMS/xmc4800_evaluation_kit/optiga-trust-m/examples\optiga_shell.c ****     run_example(optiga_shell_crypt_rsa_verify);
 772:D:/School/diseratie/SEMS/xmc4800_evaluation_kit/optiga-trust-m/examples\optiga_shell.c **** #endif
 773:D:/School/diseratie/SEMS/xmc4800_evaluation_kit/optiga-trust-m/examples\optiga_shell.c **** #ifdef OPTIGA_CRYPT_RSA_ENCRYPT_ENABLED
 774:D:/School/diseratie/SEMS/xmc4800_evaluation_kit/optiga-trust-m/examples\optiga_shell.c ****     run_example(optiga_shell_crypt_rsa_encrypt_message);
 775:D:/School/diseratie/SEMS/xmc4800_evaluation_kit/optiga-trust-m/examples\optiga_shell.c ****     run_example(optiga_shell_crypt_rsa_encrypt_session);
 776:D:/School/diseratie/SEMS/xmc4800_evaluation_kit/optiga-trust-m/examples\optiga_shell.c **** #endif
 777:D:/School/diseratie/SEMS/xmc4800_evaluation_kit/optiga-trust-m/examples\optiga_shell.c **** #ifdef OPTIGA_CRYPT_RSA_DECRYPT_ENABLED
 778:D:/School/diseratie/SEMS/xmc4800_evaluation_kit/optiga-trust-m/examples\optiga_shell.c ****     run_example(optiga_shell_crypt_rsa_decrypt_and_store);
 779:D:/School/diseratie/SEMS/xmc4800_evaluation_kit/optiga-trust-m/examples\optiga_shell.c ****     run_example(optiga_shell_crypt_rsa_decrypt_and_export);
 780:D:/School/diseratie/SEMS/xmc4800_evaluation_kit/optiga-trust-m/examples\optiga_shell.c **** #endif    
 781:D:/School/diseratie/SEMS/xmc4800_evaluation_kit/optiga-trust-m/examples\optiga_shell.c **** #if defined (OPTIGA_CRYPT_SYM_ENCRYPT_ENABLED) && defined (OPTIGA_CRYPT_SYM_DECRYPT_ENABLED)
 782:D:/School/diseratie/SEMS/xmc4800_evaluation_kit/optiga-trust-m/examples\optiga_shell.c ****     run_example(optiga_shell_crypt_symmetric_encrypt_decrypt_ecb);
 783:D:/School/diseratie/SEMS/xmc4800_evaluation_kit/optiga-trust-m/examples\optiga_shell.c ****     run_example(optiga_shell_crypt_symmetric_encrypt_decrypt_cbc);
 784:D:/School/diseratie/SEMS/xmc4800_evaluation_kit/optiga-trust-m/examples\optiga_shell.c ****     run_example(optiga_shell_crypt_symmetric_encrypt_cbcmac);
 785:D:/School/diseratie/SEMS/xmc4800_evaluation_kit/optiga-trust-m/examples\optiga_shell.c **** #endif
 786:D:/School/diseratie/SEMS/xmc4800_evaluation_kit/optiga-trust-m/examples\optiga_shell.c **** #ifdef OPTIGA_CRYPT_HMAC_ENABLED   
 787:D:/School/diseratie/SEMS/xmc4800_evaluation_kit/optiga-trust-m/examples\optiga_shell.c ****     run_example(optiga_shell_crypt_hmac);
 788:D:/School/diseratie/SEMS/xmc4800_evaluation_kit/optiga-trust-m/examples\optiga_shell.c **** #endif
 789:D:/School/diseratie/SEMS/xmc4800_evaluation_kit/optiga-trust-m/examples\optiga_shell.c **** #ifdef OPTIGA_CRYPT_HKDF_ENABLED        
 790:D:/School/diseratie/SEMS/xmc4800_evaluation_kit/optiga-trust-m/examples\optiga_shell.c ****     run_example(optiga_shell_crypt_hkdf);
 791:D:/School/diseratie/SEMS/xmc4800_evaluation_kit/optiga-trust-m/examples\optiga_shell.c **** #endif    
 792:D:/School/diseratie/SEMS/xmc4800_evaluation_kit/optiga-trust-m/examples\optiga_shell.c **** #ifdef OPTIGA_CRYPT_SYM_GENERATE_KEY_ENABLED      
 793:D:/School/diseratie/SEMS/xmc4800_evaluation_kit/optiga-trust-m/examples\optiga_shell.c ****     run_example(optiga_shell_crypt_symmetric_generate_key);
 794:D:/School/diseratie/SEMS/xmc4800_evaluation_kit/optiga-trust-m/examples\optiga_shell.c **** #endif    
 795:D:/School/diseratie/SEMS/xmc4800_evaluation_kit/optiga-trust-m/examples\optiga_shell.c **** #if defined (OPTIGA_CRYPT_GENERATE_AUTH_CODE_ENABLED) && defined (OPTIGA_CRYPT_HMAC_VERIFY_ENABLED)
 796:D:/School/diseratie/SEMS/xmc4800_evaluation_kit/optiga-trust-m/examples\optiga_shell.c ****     run_example(optiga_shell_crypt_clear_auto_state);
 797:D:/School/diseratie/SEMS/xmc4800_evaluation_kit/optiga-trust-m/examples\optiga_shell.c **** #endif    
 798:D:/School/diseratie/SEMS/xmc4800_evaluation_kit/optiga-trust-m/examples\optiga_shell.c **** #if defined (OPTIGA_CRYPT_GENERATE_AUTH_CODE_ENABLED) && defined (OPTIGA_CRYPT_HMAC_VERIFY_ENABLED)
 799:D:/School/diseratie/SEMS/xmc4800_evaluation_kit/optiga-trust-m/examples\optiga_shell.c ****     run_example(optiga_shell_crypt_hmac_verify_with_authorization_reference);
 800:D:/School/diseratie/SEMS/xmc4800_evaluation_kit/optiga-trust-m/examples\optiga_shell.c **** #endif 
 801:D:/School/diseratie/SEMS/xmc4800_evaluation_kit/optiga-trust-m/examples\optiga_shell.c **** #ifdef OPTIGA_INIT_DEINIT_DONE_EXCLUSIVELY
 802:D:/School/diseratie/SEMS/xmc4800_evaluation_kit/optiga-trust-m/examples\optiga_shell.c ****     run_example(optiga_shell_deinit);
 803:D:/School/diseratie/SEMS/xmc4800_evaluation_kit/optiga-trust-m/examples\optiga_shell.c **** #endif
 804:D:/School/diseratie/SEMS/xmc4800_evaluation_kit/optiga-trust-m/examples\optiga_shell.c **** }
 805:D:/School/diseratie/SEMS/xmc4800_evaluation_kit/optiga-trust-m/examples\optiga_shell.c **** 
 806:D:/School/diseratie/SEMS/xmc4800_evaluation_kit/optiga-trust-m/examples\optiga_shell.c **** 
 807:D:/School/diseratie/SEMS/xmc4800_evaluation_kit/optiga-trust-m/examples\optiga_shell.c **** static void optiga_shell_show_usage(void);
 808:D:/School/diseratie/SEMS/xmc4800_evaluation_kit/optiga-trust-m/examples\optiga_shell.c **** 
 809:D:/School/diseratie/SEMS/xmc4800_evaluation_kit/optiga-trust-m/examples\optiga_shell.c **** 
 810:D:/School/diseratie/SEMS/xmc4800_evaluation_kit/optiga-trust-m/examples\optiga_shell.c **** optiga_example_cmd_t optiga_cmds [] =
 811:D:/School/diseratie/SEMS/xmc4800_evaluation_kit/optiga-trust-m/examples\optiga_shell.c **** {
 812:D:/School/diseratie/SEMS/xmc4800_evaluation_kit/optiga-trust-m/examples\optiga_shell.c ****         {"",                                            "help",            optiga_shell_show_usage}
 813:D:/School/diseratie/SEMS/xmc4800_evaluation_kit/optiga-trust-m/examples\optiga_shell.c ****         {"    initialize optiga                        : optiga --","init",            optiga_shell
 814:D:/School/diseratie/SEMS/xmc4800_evaluation_kit/optiga-trust-m/examples\optiga_shell.c ****         {"    de-initialize optiga                     : optiga --","deinit",          optiga_shell
 815:D:/School/diseratie/SEMS/xmc4800_evaluation_kit/optiga-trust-m/examples\optiga_shell.c ****         {"    run all tests at once                    : optiga --","selftest",        optiga_shell
 816:D:/School/diseratie/SEMS/xmc4800_evaluation_kit/optiga-trust-m/examples\optiga_shell.c ****         {"    read data                                : optiga --","readdata",        optiga_shell
 817:D:/School/diseratie/SEMS/xmc4800_evaluation_kit/optiga-trust-m/examples\optiga_shell.c ****         {"    write data                               : optiga --","writedata",       optiga_shell
 818:D:/School/diseratie/SEMS/xmc4800_evaluation_kit/optiga-trust-m/examples\optiga_shell.c ****         {"    read coprocessor id                      : optiga --","coprocid",        optiga_shell
 819:D:/School/diseratie/SEMS/xmc4800_evaluation_kit/optiga-trust-m/examples\optiga_shell.c **** #ifdef OPTIGA_COMMS_SHIELDED_CONNECTION 
 820:D:/School/diseratie/SEMS/xmc4800_evaluation_kit/optiga-trust-m/examples\optiga_shell.c ****         {"    binding host with optiga                 : optiga --","bind",            optiga_shell
 821:D:/School/diseratie/SEMS/xmc4800_evaluation_kit/optiga-trust-m/examples\optiga_shell.c **** #endif
 822:D:/School/diseratie/SEMS/xmc4800_evaluation_kit/optiga-trust-m/examples\optiga_shell.c **** #if defined (OPTIGA_CRYPT_ECC_GENERATE_KEYPAIR_ENABLED) && defined (OPTIGA_CRYPT_ECDSA_SIGN_ENABLED
 823:D:/School/diseratie/SEMS/xmc4800_evaluation_kit/optiga-trust-m/examples\optiga_shell.c ****         {"    hibernate and restore                    : optiga --","hibernate",       optiga_shell
 824:D:/School/diseratie/SEMS/xmc4800_evaluation_kit/optiga-trust-m/examples\optiga_shell.c **** #endif        
 825:D:/School/diseratie/SEMS/xmc4800_evaluation_kit/optiga-trust-m/examples\optiga_shell.c ****         {"    update counter                           : optiga --","counter",         optiga_shell
 826:D:/School/diseratie/SEMS/xmc4800_evaluation_kit/optiga-trust-m/examples\optiga_shell.c ****         {"    protected update                         : optiga --","protected",       optiga_shell
 827:D:/School/diseratie/SEMS/xmc4800_evaluation_kit/optiga-trust-m/examples\optiga_shell.c **** #ifdef OPTIGA_CRYPT_HASH_ENABLED
 828:D:/School/diseratie/SEMS/xmc4800_evaluation_kit/optiga-trust-m/examples\optiga_shell.c ****         {"    hashing of data                          : optiga --","hash",            optiga_shell
 829:D:/School/diseratie/SEMS/xmc4800_evaluation_kit/optiga-trust-m/examples\optiga_shell.c ****         {"    hash single function                     : optiga --","hashsha256",      optiga_shell
 830:D:/School/diseratie/SEMS/xmc4800_evaluation_kit/optiga-trust-m/examples\optiga_shell.c **** #endif
 831:D:/School/diseratie/SEMS/xmc4800_evaluation_kit/optiga-trust-m/examples\optiga_shell.c **** #ifdef OPTIGA_CRYPT_TLS_PRF_SHA256_ENABLED
 832:D:/School/diseratie/SEMS/xmc4800_evaluation_kit/optiga-trust-m/examples\optiga_shell.c ****         {"    tls prf sha256                           : optiga --","prf",             optiga_shell
 833:D:/School/diseratie/SEMS/xmc4800_evaluation_kit/optiga-trust-m/examples\optiga_shell.c **** #endif    
 834:D:/School/diseratie/SEMS/xmc4800_evaluation_kit/optiga-trust-m/examples\optiga_shell.c **** #ifdef OPTIGA_CRYPT_RANDOM_ENABLED    
 835:D:/School/diseratie/SEMS/xmc4800_evaluation_kit/optiga-trust-m/examples\optiga_shell.c ****         {"    random number generation                 : optiga --","random",          optiga_shell
 836:D:/School/diseratie/SEMS/xmc4800_evaluation_kit/optiga-trust-m/examples\optiga_shell.c **** #endif
 837:D:/School/diseratie/SEMS/xmc4800_evaluation_kit/optiga-trust-m/examples\optiga_shell.c **** #ifdef OPTIGA_CRYPT_ECC_GENERATE_KEYPAIR_ENABLED
 838:D:/School/diseratie/SEMS/xmc4800_evaluation_kit/optiga-trust-m/examples\optiga_shell.c ****         {"    ecc key pair generation                  : optiga --","ecckeygen",       optiga_shell
 839:D:/School/diseratie/SEMS/xmc4800_evaluation_kit/optiga-trust-m/examples\optiga_shell.c **** #endif
 840:D:/School/diseratie/SEMS/xmc4800_evaluation_kit/optiga-trust-m/examples\optiga_shell.c **** #ifdef OPTIGA_CRYPT_ECDSA_SIGN_ENABLED
 841:D:/School/diseratie/SEMS/xmc4800_evaluation_kit/optiga-trust-m/examples\optiga_shell.c ****         {"    ecdsa sign                               : optiga --","ecdsasign",       optiga_shell
 842:D:/School/diseratie/SEMS/xmc4800_evaluation_kit/optiga-trust-m/examples\optiga_shell.c **** #endif
 843:D:/School/diseratie/SEMS/xmc4800_evaluation_kit/optiga-trust-m/examples\optiga_shell.c **** #ifdef OPTIGA_CRYPT_ECDSA_VERIFY_ENABLED        
 844:D:/School/diseratie/SEMS/xmc4800_evaluation_kit/optiga-trust-m/examples\optiga_shell.c ****         {"    ecdsa verify sign                        : optiga --","ecdsaverify",     optiga_shell
 845:D:/School/diseratie/SEMS/xmc4800_evaluation_kit/optiga-trust-m/examples\optiga_shell.c **** #endif
 846:D:/School/diseratie/SEMS/xmc4800_evaluation_kit/optiga-trust-m/examples\optiga_shell.c **** #ifdef OPTIGA_CRYPT_ECDH_ENABLED        
 847:D:/School/diseratie/SEMS/xmc4800_evaluation_kit/optiga-trust-m/examples\optiga_shell.c ****         {"    ecc diffie hellman                       : optiga --","ecdh",            optiga_shell
 848:D:/School/diseratie/SEMS/xmc4800_evaluation_kit/optiga-trust-m/examples\optiga_shell.c **** #endif
 849:D:/School/diseratie/SEMS/xmc4800_evaluation_kit/optiga-trust-m/examples\optiga_shell.c **** #ifdef OPTIGA_CRYPT_RSA_GENERATE_KEYPAIR_ENABLED
 850:D:/School/diseratie/SEMS/xmc4800_evaluation_kit/optiga-trust-m/examples\optiga_shell.c ****         {"    rsa key pair generation                  : optiga --","rsakeygen",       optiga_shell
 851:D:/School/diseratie/SEMS/xmc4800_evaluation_kit/optiga-trust-m/examples\optiga_shell.c **** #endif
 852:D:/School/diseratie/SEMS/xmc4800_evaluation_kit/optiga-trust-m/examples\optiga_shell.c **** #ifdef OPTIGA_CRYPT_RSA_SIGN_ENABLED        
 853:D:/School/diseratie/SEMS/xmc4800_evaluation_kit/optiga-trust-m/examples\optiga_shell.c ****         {"    rsa sign                                 : optiga --","rsasign",         optiga_shell
 854:D:/School/diseratie/SEMS/xmc4800_evaluation_kit/optiga-trust-m/examples\optiga_shell.c **** #endif
 855:D:/School/diseratie/SEMS/xmc4800_evaluation_kit/optiga-trust-m/examples\optiga_shell.c **** #ifdef OPTIGA_CRYPT_RSA_VERIFY_ENABLED        
 856:D:/School/diseratie/SEMS/xmc4800_evaluation_kit/optiga-trust-m/examples\optiga_shell.c ****         {"    rsa verify sign                          : optiga --","rsaverify",       optiga_shell
 857:D:/School/diseratie/SEMS/xmc4800_evaluation_kit/optiga-trust-m/examples\optiga_shell.c **** #endif
 858:D:/School/diseratie/SEMS/xmc4800_evaluation_kit/optiga-trust-m/examples\optiga_shell.c **** #ifdef OPTIGA_CRYPT_RSA_ENCRYPT_ENABLED        
 859:D:/School/diseratie/SEMS/xmc4800_evaluation_kit/optiga-trust-m/examples\optiga_shell.c ****         {"    rsa encrypt message                      : optiga --","rsaencmsg",       optiga_shell
 860:D:/School/diseratie/SEMS/xmc4800_evaluation_kit/optiga-trust-m/examples\optiga_shell.c ****         {"    rsa encrypt session                      : optiga --","rsaencsession",   optiga_shell
 861:D:/School/diseratie/SEMS/xmc4800_evaluation_kit/optiga-trust-m/examples\optiga_shell.c **** #endif
 862:D:/School/diseratie/SEMS/xmc4800_evaluation_kit/optiga-trust-m/examples\optiga_shell.c **** #ifdef OPTIGA_CRYPT_RSA_DECRYPT_ENABLED        
 863:D:/School/diseratie/SEMS/xmc4800_evaluation_kit/optiga-trust-m/examples\optiga_shell.c ****         {"    rsa decrypt and store                    : optiga --","rsadecstore",     optiga_shell
 864:D:/School/diseratie/SEMS/xmc4800_evaluation_kit/optiga-trust-m/examples\optiga_shell.c ****         {"    rsa decrypt and export                   : optiga --","rsadecexp",       optiga_shell
 865:D:/School/diseratie/SEMS/xmc4800_evaluation_kit/optiga-trust-m/examples\optiga_shell.c **** #endif         
 866:D:/School/diseratie/SEMS/xmc4800_evaluation_kit/optiga-trust-m/examples\optiga_shell.c **** #if defined (OPTIGA_CRYPT_SYM_ENCRYPT_ENABLED) && defined (OPTIGA_CRYPT_SYM_DECRYPT_ENABLED)
 867:D:/School/diseratie/SEMS/xmc4800_evaluation_kit/optiga-trust-m/examples\optiga_shell.c ****         {"    symmetric ecb encrypt and decrypt        : optiga --","ecbencdec",       optiga_shell
 868:D:/School/diseratie/SEMS/xmc4800_evaluation_kit/optiga-trust-m/examples\optiga_shell.c ****         {"    symmetric cbc encrypt and decrypt        : optiga --","cbcencdec",       optiga_shell
 869:D:/School/diseratie/SEMS/xmc4800_evaluation_kit/optiga-trust-m/examples\optiga_shell.c ****         {"    symmetric cbcmac encrypt                 : optiga --","cbcmacenc",       optiga_shell
 870:D:/School/diseratie/SEMS/xmc4800_evaluation_kit/optiga-trust-m/examples\optiga_shell.c **** #endif
 871:D:/School/diseratie/SEMS/xmc4800_evaluation_kit/optiga-trust-m/examples\optiga_shell.c **** #ifdef OPTIGA_CRYPT_HMAC_ENABLED          
 872:D:/School/diseratie/SEMS/xmc4800_evaluation_kit/optiga-trust-m/examples\optiga_shell.c ****         {"    hmac-sha256 generation                   : optiga --","hmac",            optiga_shell
 873:D:/School/diseratie/SEMS/xmc4800_evaluation_kit/optiga-trust-m/examples\optiga_shell.c **** #endif
 874:D:/School/diseratie/SEMS/xmc4800_evaluation_kit/optiga-trust-m/examples\optiga_shell.c **** #ifdef OPTIGA_CRYPT_HKDF_ENABLED           
 875:D:/School/diseratie/SEMS/xmc4800_evaluation_kit/optiga-trust-m/examples\optiga_shell.c ****         {"    hkdf-sha256 key derivation               : optiga --","hkdf",            optiga_shell
 876:D:/School/diseratie/SEMS/xmc4800_evaluation_kit/optiga-trust-m/examples\optiga_shell.c **** #endif
 877:D:/School/diseratie/SEMS/xmc4800_evaluation_kit/optiga-trust-m/examples\optiga_shell.c **** #ifdef OPTIGA_CRYPT_SYM_GENERATE_KEY_ENABLED 
 878:D:/School/diseratie/SEMS/xmc4800_evaluation_kit/optiga-trust-m/examples\optiga_shell.c ****         {"    generate symmetric aes-128 key           : optiga --","aeskeygen",       optiga_shell
 879:D:/School/diseratie/SEMS/xmc4800_evaluation_kit/optiga-trust-m/examples\optiga_shell.c **** #endif    
 880:D:/School/diseratie/SEMS/xmc4800_evaluation_kit/optiga-trust-m/examples\optiga_shell.c **** #if defined (OPTIGA_CRYPT_GENERATE_AUTH_CODE_ENABLED) && defined (OPTIGA_CRYPT_HMAC_VERIFY_ENABLED)
 881:D:/School/diseratie/SEMS/xmc4800_evaluation_kit/optiga-trust-m/examples\optiga_shell.c ****         {"    clear auto state                         : optiga --","clrautostate",    optiga_shell
 882:D:/School/diseratie/SEMS/xmc4800_evaluation_kit/optiga-trust-m/examples\optiga_shell.c **** #endif    
 883:D:/School/diseratie/SEMS/xmc4800_evaluation_kit/optiga-trust-m/examples\optiga_shell.c **** #if defined (OPTIGA_CRYPT_GENERATE_AUTH_CODE_ENABLED) && defined (OPTIGA_CRYPT_HMAC_VERIFY_ENABLED)
 884:D:/School/diseratie/SEMS/xmc4800_evaluation_kit/optiga-trust-m/examples\optiga_shell.c ****         {"    hmac verify                              : optiga --","hmacverify",      optiga_shell
 885:D:/School/diseratie/SEMS/xmc4800_evaluation_kit/optiga-trust-m/examples\optiga_shell.c **** #endif        
 886:D:/School/diseratie/SEMS/xmc4800_evaluation_kit/optiga-trust-m/examples\optiga_shell.c **** };
 887:D:/School/diseratie/SEMS/xmc4800_evaluation_kit/optiga-trust-m/examples\optiga_shell.c **** 
 888:D:/School/diseratie/SEMS/xmc4800_evaluation_kit/optiga-trust-m/examples\optiga_shell.c **** #define OPTIGA_SIZE_OF_CMDS            (sizeof(optiga_cmds)/sizeof(optiga_example_cmd_t))
 889:D:/School/diseratie/SEMS/xmc4800_evaluation_kit/optiga-trust-m/examples\optiga_shell.c **** 
 890:D:/School/diseratie/SEMS/xmc4800_evaluation_kit/optiga-trust-m/examples\optiga_shell.c **** static void optiga_shell_show_usage()
 891:D:/School/diseratie/SEMS/xmc4800_evaluation_kit/optiga-trust-m/examples\optiga_shell.c **** {
 2715              	 .loc 1 891 0
 2716              	 .cfi_startproc
 2717              	 
 2718              	 
 2719              	.LVL234:
 2720 0000 38B5     	 push {r3,r4,r5,lr}
 2721              	.LCFI72:
 2722              	 .cfi_def_cfa_offset 16
 2723              	 .cfi_offset 3,-16
 2724              	 .cfi_offset 4,-12
 2725              	 .cfi_offset 5,-8
 2726              	 .cfi_offset 14,-4
 892:D:/School/diseratie/SEMS/xmc4800_evaluation_kit/optiga-trust-m/examples\optiga_shell.c ****     uint8_t number_of_cmds = OPTIGA_SIZE_OF_CMDS;
 893:D:/School/diseratie/SEMS/xmc4800_evaluation_kit/optiga-trust-m/examples\optiga_shell.c ****     uint8_t index;
 894:D:/School/diseratie/SEMS/xmc4800_evaluation_kit/optiga-trust-m/examples\optiga_shell.c ****     optiga_example_cmd_t * current_cmd;
 895:D:/School/diseratie/SEMS/xmc4800_evaluation_kit/optiga-trust-m/examples\optiga_shell.c ****     optiga_lib_print_string_with_newline("");
 2727              	 .loc 1 895 0
 2728 0002 0F48     	 ldr r0,.L168
 2729 0004 0F4C     	 ldr r4,.L168+4
 2730 0006 FFF7FEFF 	 bl optiga_lib_print_string_with_newline
 2731              	.LVL235:
 896:D:/School/diseratie/SEMS/xmc4800_evaluation_kit/optiga-trust-m/examples\optiga_shell.c ****     optiga_lib_print_string_with_newline("    usage                : optiga -<cmd>");
 2732              	 .loc 1 896 0
 2733 000a 0F48     	 ldr r0,.L168+8
 2734 000c FFF7FEFF 	 bl optiga_lib_print_string_with_newline
 2735              	.LVL236:
 2736 0010 04F5CC75 	 add r5,r4,#408
 2737 0014 02E0     	 b .L161
 2738              	.LVL237:
 2739              	.L160:
 2740 0016 0C34     	 adds r4,r4,#12
 897:D:/School/diseratie/SEMS/xmc4800_evaluation_kit/optiga-trust-m/examples\optiga_shell.c ****     for(index = 0; index < number_of_cmds; index++)
 2741              	 .loc 1 897 0 discriminator 2
 2742 0018 AC42     	 cmp r4,r5
 2743 001a 0FD0     	 beq .L167
 2744              	.L161:
 898:D:/School/diseratie/SEMS/xmc4800_evaluation_kit/optiga-trust-m/examples\optiga_shell.c ****     {
 899:D:/School/diseratie/SEMS/xmc4800_evaluation_kit/optiga-trust-m/examples\optiga_shell.c ****         current_cmd = &optiga_cmds[index];
 900:D:/School/diseratie/SEMS/xmc4800_evaluation_kit/optiga-trust-m/examples\optiga_shell.c ****         if(0 != strcmp("help",current_cmd->cmd_options))
 2745              	 .loc 1 900 0
 2746 001c 0B48     	 ldr r0,.L168+12
 2747 001e 6168     	 ldr r1,[r4,#4]
 2748 0020 FFF7FEFF 	 bl strcmp
 2749              	.LVL238:
 2750 0024 0028     	 cmp r0,#0
 2751 0026 F6D0     	 beq .L160
 901:D:/School/diseratie/SEMS/xmc4800_evaluation_kit/optiga-trust-m/examples\optiga_shell.c ****         {
 902:D:/School/diseratie/SEMS/xmc4800_evaluation_kit/optiga-trust-m/examples\optiga_shell.c ****             optiga_lib_print_string(current_cmd->cmd_description);
 2752              	 .loc 1 902 0
 2753 0028 2068     	 ldr r0,[r4]
 2754 002a FFF7FEFF 	 bl optiga_lib_print_string
 2755              	.LVL239:
 2756 002e 0C34     	 adds r4,r4,#12
 903:D:/School/diseratie/SEMS/xmc4800_evaluation_kit/optiga-trust-m/examples\optiga_shell.c ****             optiga_lib_print_string_with_newline(current_cmd->cmd_options);
 2757              	 .loc 1 903 0
 2758 0030 54F8080C 	 ldr r0,[r4,#-8]
 2759 0034 FFF7FEFF 	 bl optiga_lib_print_string_with_newline
 2760              	.LVL240:
 897:D:/School/diseratie/SEMS/xmc4800_evaluation_kit/optiga-trust-m/examples\optiga_shell.c ****     {
 2761              	 .loc 1 897 0
 2762 0038 AC42     	 cmp r4,r5
 2763 003a EFD1     	 bne .L161
 2764              	.L167:
 904:D:/School/diseratie/SEMS/xmc4800_evaluation_kit/optiga-trust-m/examples\optiga_shell.c ****         }
 905:D:/School/diseratie/SEMS/xmc4800_evaluation_kit/optiga-trust-m/examples\optiga_shell.c ****     }
 906:D:/School/diseratie/SEMS/xmc4800_evaluation_kit/optiga-trust-m/examples\optiga_shell.c **** }
 2765              	 .loc 1 906 0
 2766 003c 38BD     	 pop {r3,r4,r5,pc}
 2767              	.L169:
 2768 003e 00BF     	 .align 2
 2769              	.L168:
 2770 0040 30170000 	 .word .LC109
 2771 0044 00000000 	 .word .LANCHOR2
 2772 0048 34170000 	 .word .LC110
 2773 004c 60170000 	 .word .LC111
 2774              	 .cfi_endproc
 2775              	.LFE489:
 2777              	 .section .text.optiga_shell_selftest,"ax",%progbits
 2778              	 .align 2
 2779              	 .thumb
 2780              	 .thumb_func
 2782              	optiga_shell_selftest:
 2783              	.LFB488:
 729:D:/School/diseratie/SEMS/xmc4800_evaluation_kit/optiga-trust-m/examples\optiga_shell.c ****     run_example(optiga_shell_init);
 2784              	 .loc 1 729 0
 2785              	 .cfi_startproc
 2786              	 
 2787              	 
 2788              	.LVL241:
 2789 0000 F0B5     	 push {r4,r5,r6,r7,lr}
 2790              	.LCFI73:
 2791              	 .cfi_def_cfa_offset 20
 2792              	 .cfi_offset 4,-20
 2793              	 .cfi_offset 5,-16
 2794              	 .cfi_offset 6,-12
 2795              	 .cfi_offset 7,-8
 2796              	 .cfi_offset 14,-4
 2797 0002 83B0     	 sub sp,sp,#12
 2798              	.LCFI74:
 2799              	 .cfi_def_cfa_offset 32
 2800              	.LBB130:
 2801              	.LBB131:
 723:D:/School/diseratie/SEMS/xmc4800_evaluation_kit/optiga-trust-m/examples\optiga_shell.c ****     optiga_lib_print_string_with_newline(""); 
 2802              	 .loc 1 723 0
 2803 0004 FFF7FEFF 	 bl optiga_shell_init
 2804              	.LVL242:
 2805              	.LBE131:
 2806              	.LBE130:
 2807              	.LBB135:
 2808              	.LBB136:
 2809              	.LBB137:
 2810              	.LBB138:
 204:D:/School/diseratie/SEMS/xmc4800_evaluation_kit/optiga-trust-m/examples\optiga_shell.c ****     
 2811              	 .loc 1 204 0
 2812 0008 02AD     	 add r5,sp,#8
 2813              	.LBE138:
 2814              	.LBE137:
 2815              	.LBE136:
 2816              	.LBE135:
 2817              	.LBB151:
 2818              	.LBB132:
 724:D:/School/diseratie/SEMS/xmc4800_evaluation_kit/optiga-trust-m/examples\optiga_shell.c ****     pal_os_timer_delay_in_milliseconds(2000);
 2819              	 .loc 1 724 0
 2820 000a AE48     	 ldr r0,.L181
 2821              	.LBE132:
 2822              	.LBE151:
 2823              	.LBB152:
 2824              	.LBB147:
 2825              	.LBB143:
 2826              	.LBB139:
 213:D:/School/diseratie/SEMS/xmc4800_evaluation_kit/optiga-trust-m/examples\optiga_shell.c ****         
 2827              	 .loc 1 213 0
 2828 000c AE4C     	 ldr r4,.L181+4
 217:D:/School/diseratie/SEMS/xmc4800_evaluation_kit/optiga-trust-m/examples\optiga_shell.c **** 
 2829              	 .loc 1 217 0
 2830 000e AF4F     	 ldr r7,.L181+8
 2831              	.LBE139:
 2832              	.LBE143:
 2833              	.LBE147:
 2834              	.LBE152:
 2835              	.LBB153:
 2836              	.LBB133:
 724:D:/School/diseratie/SEMS/xmc4800_evaluation_kit/optiga-trust-m/examples\optiga_shell.c ****     pal_os_timer_delay_in_milliseconds(2000);
 2837              	 .loc 1 724 0
 2838 0010 FFF7FEFF 	 bl optiga_lib_print_string_with_newline
 2839              	.LVL243:
 2840              	.LBE133:
 2841              	.LBE153:
 2842              	.LBB154:
 2843              	.LBB148:
 2844              	.LBB144:
 2845              	.LBB140:
 204:D:/School/diseratie/SEMS/xmc4800_evaluation_kit/optiga-trust-m/examples\optiga_shell.c ****     
 2846              	 .loc 1 204 0
 2847 0014 0026     	 movs r6,#0
 2848              	.LBE140:
 2849              	.LBE144:
 2850              	.LBE148:
 2851              	.LBE154:
 2852              	.LBB155:
 2853              	.LBB134:
 725:D:/School/diseratie/SEMS/xmc4800_evaluation_kit/optiga-trust-m/examples\optiga_shell.c **** }
 2854              	 .loc 1 725 0
 2855 0016 4FF4FA60 	 mov r0,#2000
 2856 001a FFF7FEFF 	 bl pal_os_timer_delay_in_milliseconds
 2857              	.LVL244:
 2858              	.LBE134:
 2859              	.LBE155:
 2860              	.LBB156:
 2861              	.LBB149:
 2862              	.LBB145:
 2863              	.LBB141:
 204:D:/School/diseratie/SEMS/xmc4800_evaluation_kit/optiga-trust-m/examples\optiga_shell.c ****     
 2864              	 .loc 1 204 0
 2865 001e 45F8046D 	 str r6,[r5,#-4]!
 213:D:/School/diseratie/SEMS/xmc4800_evaluation_kit/optiga-trust-m/examples\optiga_shell.c ****         
 2866              	 .loc 1 213 0
 2867 0022 0123     	 movs r3,#1
 215:D:/School/diseratie/SEMS/xmc4800_evaluation_kit/optiga-trust-m/examples\optiga_shell.c ****         
 2868              	 .loc 1 215 0
 2869 0024 2846     	 mov r0,r5
 2870 0026 1946     	 mov r1,r3
 213:D:/School/diseratie/SEMS/xmc4800_evaluation_kit/optiga-trust-m/examples\optiga_shell.c ****         
 2871              	 .loc 1 213 0
 2872 0028 2380     	 strh r3,[r4]
 215:D:/School/diseratie/SEMS/xmc4800_evaluation_kit/optiga-trust-m/examples\optiga_shell.c ****         
 2873              	 .loc 1 215 0
 2874 002a FFF7FEFF 	 bl example_performance_measurement
 2875              	.LVL245:
 217:D:/School/diseratie/SEMS/xmc4800_evaluation_kit/optiga-trust-m/examples\optiga_shell.c **** 
 2876              	 .loc 1 217 0
 2877 002e 3146     	 mov r1,r6
 2878 0030 3868     	 ldr r0,[r7]
 2879 0032 FFF7FEFF 	 bl optiga_util_close_application
 2880              	.LVL246:
 219:D:/School/diseratie/SEMS/xmc4800_evaluation_kit/optiga-trust-m/examples\optiga_shell.c ****         {
 2881              	 .loc 1 219 0
 2882 0036 0028     	 cmp r0,#0
 2883 0038 00F0F484 	 beq .L172
 2884              	.LVL247:
 2885              	.L171:
 2886              	.LBE141:
 2887              	.LBE145:
 724:D:/School/diseratie/SEMS/xmc4800_evaluation_kit/optiga-trust-m/examples\optiga_shell.c ****     pal_os_timer_delay_in_milliseconds(2000);
 2888              	 .loc 1 724 0
 2889 003c A148     	 ldr r0,.L181
 2890 003e FFF7FEFF 	 bl optiga_lib_print_string_with_newline
 2891              	.LVL248:
 725:D:/School/diseratie/SEMS/xmc4800_evaluation_kit/optiga-trust-m/examples\optiga_shell.c **** }
 2892              	 .loc 1 725 0
 2893 0042 4FF4FA60 	 mov r0,#2000
 2894 0046 FFF7FEFF 	 bl pal_os_timer_delay_in_milliseconds
 2895              	.LVL249:
 2896              	.LBE149:
 2897              	.LBE156:
 2898              	.LBB157:
 2899              	.LBB158:
 2900              	.LBB159:
 2901              	.LBB160:
 250:D:/School/diseratie/SEMS/xmc4800_evaluation_kit/optiga-trust-m/examples\optiga_shell.c **** #endif
 2902              	 .loc 1 250 0
 2903 004a A148     	 ldr r0,.L181+12
 2904 004c A149     	 ldr r1,.L181+16
 2905 004e A24A     	 ldr r2,.L181+20
 2906 0050 FFF7FEFF 	 bl optiga_lib_print_message
 2907              	.LVL250:
 252:D:/School/diseratie/SEMS/xmc4800_evaluation_kit/optiga-trust-m/examples\optiga_shell.c ****     OPTIGA_SHELL_LOG_MESSAGE("1 Step: Read Certificate ");
 2908              	 .loc 1 252 0
 2909 0054 A148     	 ldr r0,.L181+24
 2910 0056 9F49     	 ldr r1,.L181+16
 2911 0058 9F4A     	 ldr r2,.L181+20
 2912 005a FFF7FEFF 	 bl optiga_lib_print_message
 2913              	.LVL251:
 253:D:/School/diseratie/SEMS/xmc4800_evaluation_kit/optiga-trust-m/examples\optiga_shell.c ****     OPTIGA_SHELL_LOG_MESSAGE("2 Step: Read Certificate Metadata");
 2914              	 .loc 1 253 0
 2915 005e A048     	 ldr r0,.L181+28
 2916 0060 9C49     	 ldr r1,.L181+16
 2917 0062 9D4A     	 ldr r2,.L181+20
 2918 0064 FFF7FEFF 	 bl optiga_lib_print_message
 2919              	.LVL252:
 254:D:/School/diseratie/SEMS/xmc4800_evaluation_kit/optiga-trust-m/examples\optiga_shell.c **** #ifndef OPTIGA_INIT_DEINIT_DONE_EXCLUSIVELY
 2920              	 .loc 1 254 0
 2921 0068 9E48     	 ldr r0,.L181+32
 2922 006a 9A49     	 ldr r1,.L181+16
 2923 006c 9A4A     	 ldr r2,.L181+20
 2924 006e FFF7FEFF 	 bl optiga_lib_print_message
 2925              	.LVL253:
 256:D:/School/diseratie/SEMS/xmc4800_evaluation_kit/optiga-trust-m/examples\optiga_shell.c **** #endif
 2926              	 .loc 1 256 0
 2927 0072 9849     	 ldr r1,.L181+16
 2928 0074 984A     	 ldr r2,.L181+20
 2929 0076 9C48     	 ldr r0,.L181+36
 2930 0078 FFF7FEFF 	 bl optiga_lib_print_message
 2931              	.LVL254:
 258:D:/School/diseratie/SEMS/xmc4800_evaluation_kit/optiga-trust-m/examples\optiga_shell.c **** }
 2932              	 .loc 1 258 0
 2933 007c FFF7FEFF 	 bl example_optiga_util_read_data
 2934              	.LVL255:
 2935              	.LBE160:
 2936              	.LBE159:
 724:D:/School/diseratie/SEMS/xmc4800_evaluation_kit/optiga-trust-m/examples\optiga_shell.c ****     pal_os_timer_delay_in_milliseconds(2000);
 2937              	 .loc 1 724 0
 2938 0080 9048     	 ldr r0,.L181
 2939 0082 FFF7FEFF 	 bl optiga_lib_print_string_with_newline
 2940              	.LVL256:
 725:D:/School/diseratie/SEMS/xmc4800_evaluation_kit/optiga-trust-m/examples\optiga_shell.c **** }
 2941              	 .loc 1 725 0
 2942 0086 4FF4FA60 	 mov r0,#2000
 2943 008a FFF7FEFF 	 bl pal_os_timer_delay_in_milliseconds
 2944              	.LVL257:
 2945              	.LBE158:
 2946              	.LBE157:
 2947              	.LBB161:
 2948              	.LBB162:
 2949              	.LBB163:
 2950              	.LBB164:
 264:D:/School/diseratie/SEMS/xmc4800_evaluation_kit/optiga-trust-m/examples\optiga_shell.c **** #endif
 2951              	 .loc 1 264 0
 2952 008e 9048     	 ldr r0,.L181+12
 2953 0090 9049     	 ldr r1,.L181+16
 2954 0092 914A     	 ldr r2,.L181+20
 2955 0094 FFF7FEFF 	 bl optiga_lib_print_message
 2956              	.LVL258:
 266:D:/School/diseratie/SEMS/xmc4800_evaluation_kit/optiga-trust-m/examples\optiga_shell.c ****     OPTIGA_SHELL_LOG_MESSAGE("1 Step: Write Sample Certificate in Trust Anchor Data Object ");
 2957              	 .loc 1 266 0
 2958 0098 9448     	 ldr r0,.L181+40
 2959 009a 8E49     	 ldr r1,.L181+16
 2960 009c 8E4A     	 ldr r2,.L181+20
 2961 009e FFF7FEFF 	 bl optiga_lib_print_message
 2962              	.LVL259:
 267:D:/School/diseratie/SEMS/xmc4800_evaluation_kit/optiga-trust-m/examples\optiga_shell.c ****     OPTIGA_SHELL_LOG_MESSAGE("2 Step: Write new Metadata");
 2963              	 .loc 1 267 0
 2964 00a2 9348     	 ldr r0,.L181+44
 2965 00a4 8B49     	 ldr r1,.L181+16
 2966 00a6 8C4A     	 ldr r2,.L181+20
 2967 00a8 FFF7FEFF 	 bl optiga_lib_print_message
 2968              	.LVL260:
 268:D:/School/diseratie/SEMS/xmc4800_evaluation_kit/optiga-trust-m/examples\optiga_shell.c **** #ifndef OPTIGA_INIT_DEINIT_DONE_EXCLUSIVELY
 2969              	 .loc 1 268 0
 2970 00ac 9148     	 ldr r0,.L181+48
 2971 00ae 8949     	 ldr r1,.L181+16
 2972 00b0 894A     	 ldr r2,.L181+20
 2973 00b2 FFF7FEFF 	 bl optiga_lib_print_message
 2974              	.LVL261:
 270:D:/School/diseratie/SEMS/xmc4800_evaluation_kit/optiga-trust-m/examples\optiga_shell.c **** #endif
 2975              	 .loc 1 270 0
 2976 00b6 8749     	 ldr r1,.L181+16
 2977 00b8 874A     	 ldr r2,.L181+20
 2978 00ba 8B48     	 ldr r0,.L181+36
 2979 00bc FFF7FEFF 	 bl optiga_lib_print_message
 2980              	.LVL262:
 272:D:/School/diseratie/SEMS/xmc4800_evaluation_kit/optiga-trust-m/examples\optiga_shell.c **** }
 2981              	 .loc 1 272 0
 2982 00c0 FFF7FEFF 	 bl example_optiga_util_write_data
 2983              	.LVL263:
 2984              	.LBE164:
 2985              	.LBE163:
 724:D:/School/diseratie/SEMS/xmc4800_evaluation_kit/optiga-trust-m/examples\optiga_shell.c ****     pal_os_timer_delay_in_milliseconds(2000);
 2986              	 .loc 1 724 0
 2987 00c4 7F48     	 ldr r0,.L181
 2988 00c6 FFF7FEFF 	 bl optiga_lib_print_string_with_newline
 2989              	.LVL264:
 725:D:/School/diseratie/SEMS/xmc4800_evaluation_kit/optiga-trust-m/examples\optiga_shell.c **** }
 2990              	 .loc 1 725 0
 2991 00ca 4FF4FA60 	 mov r0,#2000
 2992 00ce FFF7FEFF 	 bl pal_os_timer_delay_in_milliseconds
 2993              	.LVL265:
 2994              	.LBE162:
 2995              	.LBE161:
 2996              	.LBB165:
 2997              	.LBB166:
 2998              	.LBB167:
 2999              	.LBB168:
 278:D:/School/diseratie/SEMS/xmc4800_evaluation_kit/optiga-trust-m/examples\optiga_shell.c **** #endif
 3000              	 .loc 1 278 0
 3001 00d2 7F48     	 ldr r0,.L181+12
 3002 00d4 7F49     	 ldr r1,.L181+16
 3003 00d6 804A     	 ldr r2,.L181+20
 3004 00d8 FFF7FEFF 	 bl optiga_lib_print_message
 3005              	.LVL266:
 280:D:/School/diseratie/SEMS/xmc4800_evaluation_kit/optiga-trust-m/examples\optiga_shell.c ****     OPTIGA_SHELL_LOG_MESSAGE("1 Step: Read Coprocessor UID from OID(0xE0C2) ");
 3006              	 .loc 1 280 0
 3007 00dc 8648     	 ldr r0,.L181+52
 3008 00de 7D49     	 ldr r1,.L181+16
 3009 00e0 7D4A     	 ldr r2,.L181+20
 3010 00e2 FFF7FEFF 	 bl optiga_lib_print_message
 3011              	.LVL267:
 281:D:/School/diseratie/SEMS/xmc4800_evaluation_kit/optiga-trust-m/examples\optiga_shell.c **** #ifndef OPTIGA_INIT_DEINIT_DONE_EXCLUSIVELY
 3012              	 .loc 1 281 0
 3013 00e6 8548     	 ldr r0,.L181+56
 3014 00e8 7A49     	 ldr r1,.L181+16
 3015 00ea 7B4A     	 ldr r2,.L181+20
 3016 00ec FFF7FEFF 	 bl optiga_lib_print_message
 3017              	.LVL268:
 283:D:/School/diseratie/SEMS/xmc4800_evaluation_kit/optiga-trust-m/examples\optiga_shell.c **** #endif
 3018              	 .loc 1 283 0
 3019 00f0 7849     	 ldr r1,.L181+16
 3020 00f2 794A     	 ldr r2,.L181+20
 3021 00f4 8248     	 ldr r0,.L181+60
 3022 00f6 FFF7FEFF 	 bl optiga_lib_print_message
 3023              	.LVL269:
 285:D:/School/diseratie/SEMS/xmc4800_evaluation_kit/optiga-trust-m/examples\optiga_shell.c **** }
 3024              	 .loc 1 285 0
 3025 00fa FFF7FEFF 	 bl example_read_coprocessor_id
 3026              	.LVL270:
 3027              	.LBE168:
 3028              	.LBE167:
 724:D:/School/diseratie/SEMS/xmc4800_evaluation_kit/optiga-trust-m/examples\optiga_shell.c ****     pal_os_timer_delay_in_milliseconds(2000);
 3029              	 .loc 1 724 0
 3030 00fe 7148     	 ldr r0,.L181
 3031 0100 FFF7FEFF 	 bl optiga_lib_print_string_with_newline
 3032              	.LVL271:
 725:D:/School/diseratie/SEMS/xmc4800_evaluation_kit/optiga-trust-m/examples\optiga_shell.c **** }
 3033              	 .loc 1 725 0
 3034 0104 4FF4FA60 	 mov r0,#2000
 3035 0108 FFF7FEFF 	 bl pal_os_timer_delay_in_milliseconds
 3036              	.LVL272:
 3037              	.LBE166:
 3038              	.LBE165:
 3039              	.LBB169:
 3040              	.LBB170:
 3041              	.LBB171:
 3042              	.LBB172:
 291:D:/School/diseratie/SEMS/xmc4800_evaluation_kit/optiga-trust-m/examples\optiga_shell.c **** #endif
 3043              	 .loc 1 291 0
 3044 010c 7048     	 ldr r0,.L181+12
 3045 010e 7149     	 ldr r1,.L181+16
 3046 0110 714A     	 ldr r2,.L181+20
 3047 0112 FFF7FEFF 	 bl optiga_lib_print_message
 3048              	.LVL273:
 293:D:/School/diseratie/SEMS/xmc4800_evaluation_kit/optiga-trust-m/examples\optiga_shell.c ****     OPTIGA_SHELL_LOG_MESSAGE("1 Step: Read and Check existing Metadata for the Binding Secret");
 3049              	 .loc 1 293 0
 3050 0116 7B48     	 ldr r0,.L181+64
 3051 0118 6E49     	 ldr r1,.L181+16
 3052 011a 6F4A     	 ldr r2,.L181+20
 3053 011c FFF7FEFF 	 bl optiga_lib_print_message
 3054              	.LVL274:
 294:D:/School/diseratie/SEMS/xmc4800_evaluation_kit/optiga-trust-m/examples\optiga_shell.c ****     OPTIGA_SHELL_LOG_MESSAGE("2 Step: Generate Random for the new Binding Secret");
 3055              	 .loc 1 294 0
 3056 0120 7948     	 ldr r0,.L181+68
 3057 0122 6C49     	 ldr r1,.L181+16
 3058 0124 6C4A     	 ldr r2,.L181+20
 3059 0126 FFF7FEFF 	 bl optiga_lib_print_message
 3060              	.LVL275:
 295:D:/School/diseratie/SEMS/xmc4800_evaluation_kit/optiga-trust-m/examples\optiga_shell.c ****     OPTIGA_SHELL_LOG_MESSAGE("3 Step: Write new Binding Secret");
 3061              	 .loc 1 295 0
 3062 012a 7848     	 ldr r0,.L181+72
 3063 012c 6949     	 ldr r1,.L181+16
 3064 012e 6A4A     	 ldr r2,.L181+20
 3065 0130 FFF7FEFF 	 bl optiga_lib_print_message
 3066              	.LVL276:
 296:D:/School/diseratie/SEMS/xmc4800_evaluation_kit/optiga-trust-m/examples\optiga_shell.c ****     OPTIGA_SHELL_LOG_MESSAGE("4 Step: Store new Binding Secret on the Host");
 3067              	 .loc 1 296 0
 3068 0134 7648     	 ldr r0,.L181+76
 3069 0136 6749     	 ldr r1,.L181+16
 3070 0138 674A     	 ldr r2,.L181+20
 3071 013a FFF7FEFF 	 bl optiga_lib_print_message
 3072              	.LVL277:
 297:D:/School/diseratie/SEMS/xmc4800_evaluation_kit/optiga-trust-m/examples\optiga_shell.c **** #ifndef OPTIGA_INIT_DEINIT_DONE_EXCLUSIVELY
 3073              	 .loc 1 297 0
 3074 013e 7548     	 ldr r0,.L181+80
 3075 0140 6449     	 ldr r1,.L181+16
 3076 0142 654A     	 ldr r2,.L181+20
 3077 0144 FFF7FEFF 	 bl optiga_lib_print_message
 3078              	.LVL278:
 299:D:/School/diseratie/SEMS/xmc4800_evaluation_kit/optiga-trust-m/examples\optiga_shell.c **** #endif
 3079              	 .loc 1 299 0
 3080 0148 6249     	 ldr r1,.L181+16
 3081 014a 634A     	 ldr r2,.L181+20
 3082 014c 7248     	 ldr r0,.L181+84
 3083 014e FFF7FEFF 	 bl optiga_lib_print_message
 3084              	.LVL279:
 301:D:/School/diseratie/SEMS/xmc4800_evaluation_kit/optiga-trust-m/examples\optiga_shell.c **** }
 3085              	 .loc 1 301 0
 3086 0152 FFF7FEFF 	 bl example_pair_host_and_optiga_using_pre_shared_secret
 3087              	.LVL280:
 3088              	.LBE172:
 3089              	.LBE171:
 724:D:/School/diseratie/SEMS/xmc4800_evaluation_kit/optiga-trust-m/examples\optiga_shell.c ****     pal_os_timer_delay_in_milliseconds(2000);
 3090              	 .loc 1 724 0
 3091 0156 5B48     	 ldr r0,.L181
 3092 0158 FFF7FEFF 	 bl optiga_lib_print_string_with_newline
 3093              	.LVL281:
 725:D:/School/diseratie/SEMS/xmc4800_evaluation_kit/optiga-trust-m/examples\optiga_shell.c **** }
 3094              	 .loc 1 725 0
 3095 015c 4FF4FA60 	 mov r0,#2000
 3096 0160 FFF7FEFF 	 bl pal_os_timer_delay_in_milliseconds
 3097              	.LVL282:
 3098              	.LBE170:
 3099              	.LBE169:
 3100              	.LBB173:
 3101              	.LBB174:
 3102              	.LBB175:
 3103              	.LBB176:
 326:D:/School/diseratie/SEMS/xmc4800_evaluation_kit/optiga-trust-m/examples\optiga_shell.c **** #endif
 3104              	 .loc 1 326 0
 3105 0164 5A48     	 ldr r0,.L181+12
 3106 0166 5B49     	 ldr r1,.L181+16
 3107 0168 5B4A     	 ldr r2,.L181+20
 3108 016a FFF7FEFF 	 bl optiga_lib_print_message
 3109              	.LVL283:
 328:D:/School/diseratie/SEMS/xmc4800_evaluation_kit/optiga-trust-m/examples\optiga_shell.c ****     OPTIGA_SHELL_LOG_MESSAGE("1 Step: Write Initial Counter Value");
 3110              	 .loc 1 328 0
 3111 016e 6B48     	 ldr r0,.L181+88
 3112 0170 5849     	 ldr r1,.L181+16
 3113 0172 594A     	 ldr r2,.L181+20
 3114 0174 FFF7FEFF 	 bl optiga_lib_print_message
 3115              	.LVL284:
 329:D:/School/diseratie/SEMS/xmc4800_evaluation_kit/optiga-trust-m/examples\optiga_shell.c ****     OPTIGA_SHELL_LOG_MESSAGE("2 Step: Increase Counter Object");
 3116              	 .loc 1 329 0
 3117 0178 6948     	 ldr r0,.L181+92
 3118 017a 5649     	 ldr r1,.L181+16
 3119 017c 564A     	 ldr r2,.L181+20
 3120 017e FFF7FEFF 	 bl optiga_lib_print_message
 3121              	.LVL285:
 330:D:/School/diseratie/SEMS/xmc4800_evaluation_kit/optiga-trust-m/examples\optiga_shell.c **** #ifndef OPTIGA_INIT_DEINIT_DONE_EXCLUSIVELY
 3122              	 .loc 1 330 0
 3123 0182 6848     	 ldr r0,.L181+96
 3124 0184 5349     	 ldr r1,.L181+16
 3125 0186 544A     	 ldr r2,.L181+20
 3126 0188 FFF7FEFF 	 bl optiga_lib_print_message
 3127              	.LVL286:
 332:D:/School/diseratie/SEMS/xmc4800_evaluation_kit/optiga-trust-m/examples\optiga_shell.c **** #endif
 3128              	 .loc 1 332 0
 3129 018c 5149     	 ldr r1,.L181+16
 3130 018e 524A     	 ldr r2,.L181+20
 3131 0190 5548     	 ldr r0,.L181+36
 3132 0192 FFF7FEFF 	 bl optiga_lib_print_message
 3133              	.LVL287:
 334:D:/School/diseratie/SEMS/xmc4800_evaluation_kit/optiga-trust-m/examples\optiga_shell.c **** }
 3134              	 .loc 1 334 0
 3135 0196 FFF7FEFF 	 bl example_optiga_util_update_count
 3136              	.LVL288:
 3137              	.LBE176:
 3138              	.LBE175:
 724:D:/School/diseratie/SEMS/xmc4800_evaluation_kit/optiga-trust-m/examples\optiga_shell.c ****     pal_os_timer_delay_in_milliseconds(2000);
 3139              	 .loc 1 724 0
 3140 019a 4A48     	 ldr r0,.L181
 3141 019c FFF7FEFF 	 bl optiga_lib_print_string_with_newline
 3142              	.LVL289:
 725:D:/School/diseratie/SEMS/xmc4800_evaluation_kit/optiga-trust-m/examples\optiga_shell.c **** }
 3143              	 .loc 1 725 0
 3144 01a0 4FF4FA60 	 mov r0,#2000
 3145 01a4 FFF7FEFF 	 bl pal_os_timer_delay_in_milliseconds
 3146              	.LVL290:
 3147              	.LBE174:
 3148              	.LBE173:
 3149              	.LBB177:
 3150              	.LBB178:
 3151              	.LBB179:
 3152              	.LBB180:
 340:D:/School/diseratie/SEMS/xmc4800_evaluation_kit/optiga-trust-m/examples\optiga_shell.c **** #endif
 3153              	 .loc 1 340 0
 3154 01a8 4948     	 ldr r0,.L181+12
 3155 01aa 4A49     	 ldr r1,.L181+16
 3156 01ac 4A4A     	 ldr r2,.L181+20
 3157 01ae FFF7FEFF 	 bl optiga_lib_print_message
 3158              	.LVL291:
 342:D:/School/diseratie/SEMS/xmc4800_evaluation_kit/optiga-trust-m/examples\optiga_shell.c ****     OPTIGA_SHELL_LOG_MESSAGE("1 Step: Update Metadata for the Object to be updated and the Trust An
 3159              	 .loc 1 342 0
 3160 01b2 5D48     	 ldr r0,.L181+100
 3161 01b4 4749     	 ldr r1,.L181+16
 3162 01b6 484A     	 ldr r2,.L181+20
 3163 01b8 FFF7FEFF 	 bl optiga_lib_print_message
 3164              	.LVL292:
 343:D:/School/diseratie/SEMS/xmc4800_evaluation_kit/optiga-trust-m/examples\optiga_shell.c ****     OPTIGA_SHELL_LOG_MESSAGE("2 Step: Write Trust Anchor used by the Trust M to verify the update")
 3165              	 .loc 1 343 0
 3166 01bc 5B48     	 ldr r0,.L181+104
 3167 01be 4549     	 ldr r1,.L181+16
 3168 01c0 454A     	 ldr r2,.L181+20
 3169 01c2 FFF7FEFF 	 bl optiga_lib_print_message
 3170              	.LVL293:
 344:D:/School/diseratie/SEMS/xmc4800_evaluation_kit/optiga-trust-m/examples\optiga_shell.c ****     OPTIGA_SHELL_LOG_MESSAGE("3 Step: Start Protected update with prepared manifest and fragments")
 3171              	 .loc 1 344 0
 3172 01c6 5A48     	 ldr r0,.L181+108
 3173 01c8 4249     	 ldr r1,.L181+16
 3174 01ca 434A     	 ldr r2,.L181+20
 3175 01cc FFF7FEFF 	 bl optiga_lib_print_message
 3176              	.LVL294:
 345:D:/School/diseratie/SEMS/xmc4800_evaluation_kit/optiga-trust-m/examples\optiga_shell.c **** #ifndef OPTIGA_INIT_DEINIT_DONE_EXCLUSIVELY
 3177              	 .loc 1 345 0
 3178 01d0 5848     	 ldr r0,.L181+112
 3179 01d2 4049     	 ldr r1,.L181+16
 3180 01d4 404A     	 ldr r2,.L181+20
 3181 01d6 FFF7FEFF 	 bl optiga_lib_print_message
 3182              	.LVL295:
 347:D:/School/diseratie/SEMS/xmc4800_evaluation_kit/optiga-trust-m/examples\optiga_shell.c **** #endif
 3183              	 .loc 1 347 0
 3184 01da 3E49     	 ldr r1,.L181+16
 3185 01dc 3E4A     	 ldr r2,.L181+20
 3186 01de 5648     	 ldr r0,.L181+116
 3187 01e0 FFF7FEFF 	 bl optiga_lib_print_message
 3188              	.LVL296:
 349:D:/School/diseratie/SEMS/xmc4800_evaluation_kit/optiga-trust-m/examples\optiga_shell.c **** }
 3189              	 .loc 1 349 0
 3190 01e4 FFF7FEFF 	 bl example_optiga_util_protected_update
 3191              	.LVL297:
 3192              	.LBE180:
 3193              	.LBE179:
 724:D:/School/diseratie/SEMS/xmc4800_evaluation_kit/optiga-trust-m/examples\optiga_shell.c ****     pal_os_timer_delay_in_milliseconds(2000);
 3194              	 .loc 1 724 0
 3195 01e8 3648     	 ldr r0,.L181
 3196 01ea FFF7FEFF 	 bl optiga_lib_print_string_with_newline
 3197              	.LVL298:
 725:D:/School/diseratie/SEMS/xmc4800_evaluation_kit/optiga-trust-m/examples\optiga_shell.c **** }
 3198              	 .loc 1 725 0
 3199 01ee 4FF4FA60 	 mov r0,#2000
 3200 01f2 FFF7FEFF 	 bl pal_os_timer_delay_in_milliseconds
 3201              	.LVL299:
 3202              	.LBE178:
 3203              	.LBE177:
 3204              	.LBB181:
 3205              	.LBB182:
 3206              	.LBB183:
 3207              	.LBB184:
 356:D:/School/diseratie/SEMS/xmc4800_evaluation_kit/optiga-trust-m/examples\optiga_shell.c **** #endif
 3208              	 .loc 1 356 0
 3209 01f6 3648     	 ldr r0,.L181+12
 3210 01f8 3649     	 ldr r1,.L181+16
 3211 01fa 374A     	 ldr r2,.L181+20
 3212 01fc FFF7FEFF 	 bl optiga_lib_print_message
 3213              	.LVL300:
 358:D:/School/diseratie/SEMS/xmc4800_evaluation_kit/optiga-trust-m/examples\optiga_shell.c ****     OPTIGA_SHELL_LOG_MESSAGE("1 Step: Hash given data with Start, Update and Finalize calls");
 3214              	 .loc 1 358 0
 3215 0200 4E48     	 ldr r0,.L181+120
 3216 0202 3449     	 ldr r1,.L181+16
 3217 0204 344A     	 ldr r2,.L181+20
 3218 0206 FFF7FEFF 	 bl optiga_lib_print_message
 3219              	.LVL301:
 359:D:/School/diseratie/SEMS/xmc4800_evaluation_kit/optiga-trust-m/examples\optiga_shell.c **** #ifndef OPTIGA_INIT_DEINIT_DONE_EXCLUSIVELY
 3220              	 .loc 1 359 0
 3221 020a 4D48     	 ldr r0,.L181+124
 3222 020c 3149     	 ldr r1,.L181+16
 3223 020e 324A     	 ldr r2,.L181+20
 3224 0210 FFF7FEFF 	 bl optiga_lib_print_message
 3225              	.LVL302:
 361:D:/School/diseratie/SEMS/xmc4800_evaluation_kit/optiga-trust-m/examples\optiga_shell.c **** #endif
 3226              	 .loc 1 361 0
 3227 0214 2F49     	 ldr r1,.L181+16
 3228 0216 304A     	 ldr r2,.L181+20
 3229 0218 3948     	 ldr r0,.L181+60
 3230 021a FFF7FEFF 	 bl optiga_lib_print_message
 3231              	.LVL303:
 363:D:/School/diseratie/SEMS/xmc4800_evaluation_kit/optiga-trust-m/examples\optiga_shell.c **** }
 3232              	 .loc 1 363 0
 3233 021e FFF7FEFF 	 bl example_optiga_crypt_hash
 3234              	.LVL304:
 3235              	.LBE184:
 3236              	.LBE183:
 724:D:/School/diseratie/SEMS/xmc4800_evaluation_kit/optiga-trust-m/examples\optiga_shell.c ****     pal_os_timer_delay_in_milliseconds(2000);
 3237              	 .loc 1 724 0
 3238 0222 2848     	 ldr r0,.L181
 3239 0224 FFF7FEFF 	 bl optiga_lib_print_string_with_newline
 3240              	.LVL305:
 725:D:/School/diseratie/SEMS/xmc4800_evaluation_kit/optiga-trust-m/examples\optiga_shell.c **** }
 3241              	 .loc 1 725 0
 3242 0228 4FF4FA60 	 mov r0,#2000
 3243 022c FFF7FEFF 	 bl pal_os_timer_delay_in_milliseconds
 3244              	.LVL306:
 3245              	.LBE182:
 3246              	.LBE181:
 3247              	.LBB185:
 3248              	.LBB186:
 3249              	.LBB187:
 3250              	.LBB188:
 369:D:/School/diseratie/SEMS/xmc4800_evaluation_kit/optiga-trust-m/examples\optiga_shell.c **** #endif
 3251              	 .loc 1 369 0
 3252 0230 2748     	 ldr r0,.L181+12
 3253 0232 2849     	 ldr r1,.L181+16
 3254 0234 284A     	 ldr r2,.L181+20
 3255 0236 FFF7FEFF 	 bl optiga_lib_print_message
 3256              	.LVL307:
 371:D:/School/diseratie/SEMS/xmc4800_evaluation_kit/optiga-trust-m/examples\optiga_shell.c ****     OPTIGA_SHELL_LOG_MESSAGE("1 Step: Generate hash of given user data ");
 3257              	 .loc 1 371 0
 3258 023a 4248     	 ldr r0,.L181+128
 3259 023c 2549     	 ldr r1,.L181+16
 3260 023e 264A     	 ldr r2,.L181+20
 3261 0240 FFF7FEFF 	 bl optiga_lib_print_message
 3262              	.LVL308:
 372:D:/School/diseratie/SEMS/xmc4800_evaluation_kit/optiga-trust-m/examples\optiga_shell.c **** #ifndef OPTIGA_INIT_DEINIT_DONE_EXCLUSIVELY
 3263              	 .loc 1 372 0
 3264 0244 4048     	 ldr r0,.L181+132
 3265 0246 2349     	 ldr r1,.L181+16
 3266 0248 234A     	 ldr r2,.L181+20
 3267 024a FFF7FEFF 	 bl optiga_lib_print_message
 3268              	.LVL309:
 374:D:/School/diseratie/SEMS/xmc4800_evaluation_kit/optiga-trust-m/examples\optiga_shell.c **** #endif
 3269              	 .loc 1 374 0
 3270 024e 2149     	 ldr r1,.L181+16
 3271 0250 214A     	 ldr r2,.L181+20
 3272 0252 2B48     	 ldr r0,.L181+60
 3273 0254 FFF7FEFF 	 bl optiga_lib_print_message
 3274              	.LVL310:
 376:D:/School/diseratie/SEMS/xmc4800_evaluation_kit/optiga-trust-m/examples\optiga_shell.c **** }
 3275              	 .loc 1 376 0
 3276 0258 FFF7FEFF 	 bl example_optiga_crypt_hash_data
 3277              	.LVL311:
 3278              	.LBE188:
 3279              	.LBE187:
 724:D:/School/diseratie/SEMS/xmc4800_evaluation_kit/optiga-trust-m/examples\optiga_shell.c ****     pal_os_timer_delay_in_milliseconds(2000);
 3280              	 .loc 1 724 0
 3281 025c 1948     	 ldr r0,.L181
 3282 025e FFF7FEFF 	 bl optiga_lib_print_string_with_newline
 3283              	.LVL312:
 725:D:/School/diseratie/SEMS/xmc4800_evaluation_kit/optiga-trust-m/examples\optiga_shell.c **** }
 3284              	 .loc 1 725 0
 3285 0262 4FF4FA60 	 mov r0,#2000
 3286 0266 FFF7FEFF 	 bl pal_os_timer_delay_in_milliseconds
 3287              	.LVL313:
 3288              	.LBE186:
 3289              	.LBE185:
 3290              	.LBB189:
 3291              	.LBB190:
 3292              	.LBB191:
 3293              	.LBB192:
 384:D:/School/diseratie/SEMS/xmc4800_evaluation_kit/optiga-trust-m/examples\optiga_shell.c **** #endif
 3294              	 .loc 1 384 0
 3295 026a 1948     	 ldr r0,.L181+12
 3296 026c 1949     	 ldr r1,.L181+16
 3297 026e 1A4A     	 ldr r2,.L181+20
 3298 0270 FFF7FEFF 	 bl optiga_lib_print_message
 3299              	.LVL314:
 386:D:/School/diseratie/SEMS/xmc4800_evaluation_kit/optiga-trust-m/examples\optiga_shell.c ****     OPTIGA_SHELL_LOG_MESSAGE("1 Step: Write prepared Shared Secret into an Arbitrary Data Object");
 3300              	 .loc 1 386 0
 3301 0274 3548     	 ldr r0,.L181+136
 3302 0276 1749     	 ldr r1,.L181+16
 3303 0278 174A     	 ldr r2,.L181+20
 3304 027a FFF7FEFF 	 bl optiga_lib_print_message
 3305              	.LVL315:
 387:D:/School/diseratie/SEMS/xmc4800_evaluation_kit/optiga-trust-m/examples\optiga_shell.c ****     OPTIGA_SHELL_LOG_MESSAGE("2 Step: Update Metadata of the Object to use the Arbitrary Data Objec
 3306              	 .loc 1 387 0
 3307 027e 3448     	 ldr r0,.L181+140
 3308 0280 1449     	 ldr r1,.L181+16
 3309 0282 154A     	 ldr r2,.L181+20
 3310 0284 FFF7FEFF 	 bl optiga_lib_print_message
 3311              	.LVL316:
 388:D:/School/diseratie/SEMS/xmc4800_evaluation_kit/optiga-trust-m/examples\optiga_shell.c ****     OPTIGA_SHELL_LOG_MESSAGE("3 Step: Generate Shared Secret using the Shared Secret from the Arbit
 3312              	 .loc 1 388 0
 3313 0288 3248     	 ldr r0,.L181+144
 3314 028a 1249     	 ldr r1,.L181+16
 3315 028c 124A     	 ldr r2,.L181+20
 3316 028e FFF7FEFF 	 bl optiga_lib_print_message
 3317              	.LVL317:
 389:D:/School/diseratie/SEMS/xmc4800_evaluation_kit/optiga-trust-m/examples\optiga_shell.c ****     OPTIGA_SHELL_LOG_MESSAGE("4 Step: Restore Metadata of the Arbitrary Data Object");
 3318              	 .loc 1 389 0
 3319 0292 3148     	 ldr r0,.L181+148
 3320 0294 0F49     	 ldr r1,.L181+16
 3321 0296 104A     	 ldr r2,.L181+20
 3322 0298 FFF7FEFF 	 bl optiga_lib_print_message
 3323              	.LVL318:
 390:D:/School/diseratie/SEMS/xmc4800_evaluation_kit/optiga-trust-m/examples\optiga_shell.c **** #ifndef OPTIGA_INIT_DEINIT_DONE_EXCLUSIVELY
 3324              	 .loc 1 390 0
 3325 029c 2F48     	 ldr r0,.L181+152
 3326 029e 0D49     	 ldr r1,.L181+16
 3327 02a0 0D4A     	 ldr r2,.L181+20
 3328 02a2 FFF7FEFF 	 bl optiga_lib_print_message
 3329              	.LVL319:
 392:D:/School/diseratie/SEMS/xmc4800_evaluation_kit/optiga-trust-m/examples\optiga_shell.c **** #endif
 3330              	 .loc 1 392 0
 3331 02a6 0B49     	 ldr r1,.L181+16
 3332 02a8 0B4A     	 ldr r2,.L181+20
 3333 02aa 1B48     	 ldr r0,.L181+84
 3334 02ac FFF7FEFF 	 bl optiga_lib_print_message
 3335              	.LVL320:
 394:D:/School/diseratie/SEMS/xmc4800_evaluation_kit/optiga-trust-m/examples\optiga_shell.c **** }
 3336              	 .loc 1 394 0
 3337 02b0 FFF7FEFF 	 bl example_optiga_crypt_tls_prf_sha256
 3338              	.LVL321:
 3339              	.LBE192:
 3340              	.LBE191:
 724:D:/School/diseratie/SEMS/xmc4800_evaluation_kit/optiga-trust-m/examples\optiga_shell.c ****     pal_os_timer_delay_in_milliseconds(2000);
 3341              	 .loc 1 724 0
 3342 02b4 0348     	 ldr r0,.L181
 3343 02b6 FFF7FEFF 	 bl optiga_lib_print_string_with_newline
 3344              	.LVL322:
 725:D:/School/diseratie/SEMS/xmc4800_evaluation_kit/optiga-trust-m/examples\optiga_shell.c **** }
 3345              	 .loc 1 725 0
 3346 02ba 4FF4FA60 	 mov r0,#2000
 3347 02be FFF7FEFF 	 bl pal_os_timer_delay_in_milliseconds
 3348              	.LVL323:
 3349 02c2 4DE0     	 b .L182
 3350              	.L183:
 3351              	 .align 2
 3352              	.L181:
 3353 02c4 30170000 	 .word .LC109
 3354 02c8 00000000 	 .word .LANCHOR0
 3355 02cc 00000000 	 .word .LANCHOR1
 3356 02d0 00000000 	 .word .LC0
 3357 02d4 34000000 	 .word .LC1
 3358 02d8 48000000 	 .word .LC2
 3359 02dc 10160000 	 .word .LC101
 3360 02e0 34160000 	 .word .LC102
 3361 02e4 50160000 	 .word .LC103
 3362 02e8 28050000 	 .word .LC27
 3363 02ec 8C150000 	 .word .LC98
 3364 02f0 B4150000 	 .word .LC99
 3365 02f4 F4150000 	 .word .LC100
 3366 02f8 04150000 	 .word .LC96
 3367 02fc 5C150000 	 .word .LC97
 3368 0300 4C030000 	 .word .LC18
 3369 0304 0C140000 	 .word .LC91
 3370 0308 3C140000 	 .word .LC92
 3371 030c 7C140000 	 .word .LC93
 3372 0310 B0140000 	 .word .LC94
 3373 0314 D4140000 	 .word .LC95
 3374 0318 4C080000 	 .word .LC41
 3375 031c EC100000 	 .word .LC77
 3376 0320 0C110000 	 .word .LC78
 3377 0324 30110000 	 .word .LC79
 3378 0328 DC0F0000 	 .word .LC73
 3379 032c 00100000 	 .word .LC74
 3380 0330 64100000 	 .word .LC75
 3381 0334 A8100000 	 .word .LC76
 3382 0338 48040000 	 .word .LC23
 3383 033c 840F0000 	 .word .LC71
 3384 0340 9C0F0000 	 .word .LC72
 3385 0344 300F0000 	 .word .LC69
 3386 0348 580F0000 	 .word .LC70
 3387 034c C00D0000 	 .word .LC64
 3388 0350 F40D0000 	 .word .LC65
 3389 0354 380E0000 	 .word .LC66
 3390 0358 A00E0000 	 .word .LC67
 3391 035c F80E0000 	 .word .LC68
 3392              	.L182:
 3393              	.LVL324:
 3394              	.LBE190:
 3395              	.LBE189:
 3396              	.LBB193:
 3397              	.LBB194:
 3398              	.LBB195:
 3399              	.LBB196:
 402:D:/School/diseratie/SEMS/xmc4800_evaluation_kit/optiga-trust-m/examples\optiga_shell.c **** #endif
 3400              	 .loc 1 402 0
 3401 0360 AC48     	 ldr r0,.L184
 3402 0362 AD49     	 ldr r1,.L184+4
 3403 0364 AD4A     	 ldr r2,.L184+8
 3404 0366 FFF7FEFF 	 bl optiga_lib_print_message
 3405              	.LVL325:
 404:D:/School/diseratie/SEMS/xmc4800_evaluation_kit/optiga-trust-m/examples\optiga_shell.c ****     OPTIGA_SHELL_LOG_MESSAGE("1 Step: Generate 32 bytes random");
 3406              	 .loc 1 404 0
 3407 036a AD48     	 ldr r0,.L184+12
 3408 036c AA49     	 ldr r1,.L184+4
 3409 036e AB4A     	 ldr r2,.L184+8
 3410 0370 FFF7FEFF 	 bl optiga_lib_print_message
 3411              	.LVL326:
 405:D:/School/diseratie/SEMS/xmc4800_evaluation_kit/optiga-trust-m/examples\optiga_shell.c **** #ifndef OPTIGA_INIT_DEINIT_DONE_EXCLUSIVELY
 3412              	 .loc 1 405 0
 3413 0374 AB48     	 ldr r0,.L184+16
 3414 0376 A849     	 ldr r1,.L184+4
 3415 0378 A84A     	 ldr r2,.L184+8
 3416 037a FFF7FEFF 	 bl optiga_lib_print_message
 3417              	.LVL327:
 407:D:/School/diseratie/SEMS/xmc4800_evaluation_kit/optiga-trust-m/examples\optiga_shell.c **** #endif
 3418              	 .loc 1 407 0
 3419 037e A649     	 ldr r1,.L184+4
 3420 0380 A64A     	 ldr r2,.L184+8
 3421 0382 A948     	 ldr r0,.L184+20
 3422 0384 FFF7FEFF 	 bl optiga_lib_print_message
 3423              	.LVL328:
 409:D:/School/diseratie/SEMS/xmc4800_evaluation_kit/optiga-trust-m/examples\optiga_shell.c **** }
 3424              	 .loc 1 409 0
 3425 0388 FFF7FEFF 	 bl example_optiga_crypt_random
 3426              	.LVL329:
 3427              	.LBE196:
 3428              	.LBE195:
 724:D:/School/diseratie/SEMS/xmc4800_evaluation_kit/optiga-trust-m/examples\optiga_shell.c ****     pal_os_timer_delay_in_milliseconds(2000);
 3429              	 .loc 1 724 0
 3430 038c A748     	 ldr r0,.L184+24
 3431 038e FFF7FEFF 	 bl optiga_lib_print_string_with_newline
 3432              	.LVL330:
 725:D:/School/diseratie/SEMS/xmc4800_evaluation_kit/optiga-trust-m/examples\optiga_shell.c **** }
 3433              	 .loc 1 725 0
 3434 0392 4FF4FA60 	 mov r0,#2000
 3435 0396 FFF7FEFF 	 bl pal_os_timer_delay_in_milliseconds
 3436              	.LVL331:
 3437              	.LBE194:
 3438              	.LBE193:
 3439              	.LBB197:
 3440              	.LBB198:
 3441              	.LBB199:
 3442              	.LBB200:
 417:D:/School/diseratie/SEMS/xmc4800_evaluation_kit/optiga-trust-m/examples\optiga_shell.c **** #endif
 3443              	 .loc 1 417 0
 3444 039a 9E48     	 ldr r0,.L184
 3445 039c 9E49     	 ldr r1,.L184+4
 3446 039e 9F4A     	 ldr r2,.L184+8
 3447 03a0 FFF7FEFF 	 bl optiga_lib_print_message
 3448              	.LVL332:
 419:D:/School/diseratie/SEMS/xmc4800_evaluation_kit/optiga-trust-m/examples\optiga_shell.c ****     OPTIGA_SHELL_LOG_MESSAGE("1 Step: Generate ECC NIST P-256 Key Pair and export the public key");
 3449              	 .loc 1 419 0
 3450 03a4 A248     	 ldr r0,.L184+28
 3451 03a6 9C49     	 ldr r1,.L184+4
 3452 03a8 9C4A     	 ldr r2,.L184+8
 3453 03aa FFF7FEFF 	 bl optiga_lib_print_message
 3454              	.LVL333:
 420:D:/School/diseratie/SEMS/xmc4800_evaluation_kit/optiga-trust-m/examples\optiga_shell.c **** #ifndef OPTIGA_INIT_DEINIT_DONE_EXCLUSIVELY
 3455              	 .loc 1 420 0
 3456 03ae A148     	 ldr r0,.L184+32
 3457 03b0 9949     	 ldr r1,.L184+4
 3458 03b2 9A4A     	 ldr r2,.L184+8
 3459 03b4 FFF7FEFF 	 bl optiga_lib_print_message
 3460              	.LVL334:
 422:D:/School/diseratie/SEMS/xmc4800_evaluation_kit/optiga-trust-m/examples\optiga_shell.c **** #endif
 3461              	 .loc 1 422 0
 3462 03b8 9749     	 ldr r1,.L184+4
 3463 03ba 984A     	 ldr r2,.L184+8
 3464 03bc 9A48     	 ldr r0,.L184+20
 3465 03be FFF7FEFF 	 bl optiga_lib_print_message
 3466              	.LVL335:
 424:D:/School/diseratie/SEMS/xmc4800_evaluation_kit/optiga-trust-m/examples\optiga_shell.c **** }
 3467              	 .loc 1 424 0
 3468 03c2 FFF7FEFF 	 bl example_optiga_crypt_ecc_generate_keypair
 3469              	.LVL336:
 3470              	.LBE200:
 3471              	.LBE199:
 724:D:/School/diseratie/SEMS/xmc4800_evaluation_kit/optiga-trust-m/examples\optiga_shell.c ****     pal_os_timer_delay_in_milliseconds(2000);
 3472              	 .loc 1 724 0
 3473 03c6 9948     	 ldr r0,.L184+24
 3474 03c8 FFF7FEFF 	 bl optiga_lib_print_string_with_newline
 3475              	.LVL337:
 725:D:/School/diseratie/SEMS/xmc4800_evaluation_kit/optiga-trust-m/examples\optiga_shell.c **** }
 3476              	 .loc 1 725 0
 3477 03cc 4FF4FA60 	 mov r0,#2000
 3478 03d0 FFF7FEFF 	 bl pal_os_timer_delay_in_milliseconds
 3479              	.LVL338:
 3480              	.LBE198:
 3481              	.LBE197:
 3482              	.LBB201:
 3483              	.LBB202:
 3484              	.LBB203:
 3485              	.LBB204:
 450:D:/School/diseratie/SEMS/xmc4800_evaluation_kit/optiga-trust-m/examples\optiga_shell.c **** #endif
 3486              	 .loc 1 450 0
 3487 03d4 8F48     	 ldr r0,.L184
 3488 03d6 9049     	 ldr r1,.L184+4
 3489 03d8 904A     	 ldr r2,.L184+8
 3490 03da FFF7FEFF 	 bl optiga_lib_print_message
 3491              	.LVL339:
 452:D:/School/diseratie/SEMS/xmc4800_evaluation_kit/optiga-trust-m/examples\optiga_shell.c ****     OPTIGA_SHELL_LOG_MESSAGE("1 Step: Sign prepared Data and export the signature");
 3492              	 .loc 1 452 0
 3493 03de 9648     	 ldr r0,.L184+36
 3494 03e0 8D49     	 ldr r1,.L184+4
 3495 03e2 8E4A     	 ldr r2,.L184+8
 3496 03e4 FFF7FEFF 	 bl optiga_lib_print_message
 3497              	.LVL340:
 453:D:/School/diseratie/SEMS/xmc4800_evaluation_kit/optiga-trust-m/examples\optiga_shell.c **** #ifndef OPTIGA_INIT_DEINIT_DONE_EXCLUSIVELY
 3498              	 .loc 1 453 0
 3499 03e8 9448     	 ldr r0,.L184+40
 3500 03ea 8B49     	 ldr r1,.L184+4
 3501 03ec 8B4A     	 ldr r2,.L184+8
 3502 03ee FFF7FEFF 	 bl optiga_lib_print_message
 3503              	.LVL341:
 455:D:/School/diseratie/SEMS/xmc4800_evaluation_kit/optiga-trust-m/examples\optiga_shell.c **** #endif
 3504              	 .loc 1 455 0
 3505 03f2 8949     	 ldr r1,.L184+4
 3506 03f4 894A     	 ldr r2,.L184+8
 3507 03f6 8C48     	 ldr r0,.L184+20
 3508 03f8 FFF7FEFF 	 bl optiga_lib_print_message
 3509              	.LVL342:
 457:D:/School/diseratie/SEMS/xmc4800_evaluation_kit/optiga-trust-m/examples\optiga_shell.c **** }
 3510              	 .loc 1 457 0
 3511 03fc FFF7FEFF 	 bl example_optiga_crypt_ecdsa_sign
 3512              	.LVL343:
 3513              	.LBE204:
 3514              	.LBE203:
 724:D:/School/diseratie/SEMS/xmc4800_evaluation_kit/optiga-trust-m/examples\optiga_shell.c ****     pal_os_timer_delay_in_milliseconds(2000);
 3515              	 .loc 1 724 0
 3516 0400 8A48     	 ldr r0,.L184+24
 3517 0402 FFF7FEFF 	 bl optiga_lib_print_string_with_newline
 3518              	.LVL344:
 725:D:/School/diseratie/SEMS/xmc4800_evaluation_kit/optiga-trust-m/examples\optiga_shell.c **** }
 3519              	 .loc 1 725 0
 3520 0406 4FF4FA60 	 mov r0,#2000
 3521 040a FFF7FEFF 	 bl pal_os_timer_delay_in_milliseconds
 3522              	.LVL345:
 3523              	.LBE202:
 3524              	.LBE201:
 3525              	.LBB205:
 3526              	.LBB206:
 3527              	.LBB207:
 3528              	.LBB208:
 465:D:/School/diseratie/SEMS/xmc4800_evaluation_kit/optiga-trust-m/examples\optiga_shell.c **** #endif
 3529              	 .loc 1 465 0
 3530 040e 8148     	 ldr r0,.L184
 3531 0410 8149     	 ldr r1,.L184+4
 3532 0412 824A     	 ldr r2,.L184+8
 3533 0414 FFF7FEFF 	 bl optiga_lib_print_message
 3534              	.LVL346:
 467:D:/School/diseratie/SEMS/xmc4800_evaluation_kit/optiga-trust-m/examples\optiga_shell.c ****     OPTIGA_SHELL_LOG_MESSAGE("1 Step: Verify prepared signature, with prepared public key and diges
 3535              	 .loc 1 467 0
 3536 0418 8948     	 ldr r0,.L184+44
 3537 041a 7F49     	 ldr r1,.L184+4
 3538 041c 7F4A     	 ldr r2,.L184+8
 3539 041e FFF7FEFF 	 bl optiga_lib_print_message
 3540              	.LVL347:
 468:D:/School/diseratie/SEMS/xmc4800_evaluation_kit/optiga-trust-m/examples\optiga_shell.c **** #ifndef OPTIGA_INIT_DEINIT_DONE_EXCLUSIVELY
 3541              	 .loc 1 468 0
 3542 0422 8848     	 ldr r0,.L184+48
 3543 0424 7C49     	 ldr r1,.L184+4
 3544 0426 7D4A     	 ldr r2,.L184+8
 3545 0428 FFF7FEFF 	 bl optiga_lib_print_message
 3546              	.LVL348:
 470:D:/School/diseratie/SEMS/xmc4800_evaluation_kit/optiga-trust-m/examples\optiga_shell.c **** #endif
 3547              	 .loc 1 470 0
 3548 042c 7A49     	 ldr r1,.L184+4
 3549 042e 7B4A     	 ldr r2,.L184+8
 3550 0430 7D48     	 ldr r0,.L184+20
 3551 0432 FFF7FEFF 	 bl optiga_lib_print_message
 3552              	.LVL349:
 472:D:/School/diseratie/SEMS/xmc4800_evaluation_kit/optiga-trust-m/examples\optiga_shell.c **** }
 3553              	 .loc 1 472 0
 3554 0436 FFF7FEFF 	 bl example_optiga_crypt_ecdsa_verify
 3555              	.LVL350:
 3556              	.LBE208:
 3557              	.LBE207:
 724:D:/School/diseratie/SEMS/xmc4800_evaluation_kit/optiga-trust-m/examples\optiga_shell.c ****     pal_os_timer_delay_in_milliseconds(2000);
 3558              	 .loc 1 724 0
 3559 043a 7C48     	 ldr r0,.L184+24
 3560 043c FFF7FEFF 	 bl optiga_lib_print_string_with_newline
 3561              	.LVL351:
 725:D:/School/diseratie/SEMS/xmc4800_evaluation_kit/optiga-trust-m/examples\optiga_shell.c **** }
 3562              	 .loc 1 725 0
 3563 0440 4FF4FA60 	 mov r0,#2000
 3564 0444 FFF7FEFF 	 bl pal_os_timer_delay_in_milliseconds
 3565              	.LVL352:
 3566              	.LBE206:
 3567              	.LBE205:
 3568              	.LBB209:
 3569              	.LBB210:
 3570              	.LBB211:
 3571              	.LBB212:
 432:D:/School/diseratie/SEMS/xmc4800_evaluation_kit/optiga-trust-m/examples\optiga_shell.c **** #endif
 3572              	 .loc 1 432 0
 3573 0448 7248     	 ldr r0,.L184
 3574 044a 7349     	 ldr r1,.L184+4
 3575 044c 734A     	 ldr r2,.L184+8
 3576 044e FFF7FEFF 	 bl optiga_lib_print_message
 3577              	.LVL353:
 434:D:/School/diseratie/SEMS/xmc4800_evaluation_kit/optiga-trust-m/examples\optiga_shell.c ****     OPTIGA_SHELL_LOG_MESSAGE("1 Step: Select Protected I2C Connection");
 3578              	 .loc 1 434 0
 3579 0452 7D48     	 ldr r0,.L184+52
 3580 0454 7049     	 ldr r1,.L184+4
 3581 0456 714A     	 ldr r2,.L184+8
 3582 0458 FFF7FEFF 	 bl optiga_lib_print_message
 3583              	.LVL354:
 435:D:/School/diseratie/SEMS/xmc4800_evaluation_kit/optiga-trust-m/examples\optiga_shell.c ****     OPTIGA_SHELL_LOG_MESSAGE("2 Step: Generate new ECC NIST P-256 Key Pair");
 3584              	 .loc 1 435 0
 3585 045c 7B48     	 ldr r0,.L184+56
 3586 045e 6E49     	 ldr r1,.L184+4
 3587 0460 6E4A     	 ldr r2,.L184+8
 3588 0462 FFF7FEFF 	 bl optiga_lib_print_message
 3589              	.LVL355:
 436:D:/School/diseratie/SEMS/xmc4800_evaluation_kit/optiga-trust-m/examples\optiga_shell.c ****     OPTIGA_SHELL_LOG_MESSAGE("3 Step: Select Protected I2C Connection");
 3590              	 .loc 1 436 0
 3591 0466 7A48     	 ldr r0,.L184+60
 3592 0468 6B49     	 ldr r1,.L184+4
 3593 046a 6C4A     	 ldr r2,.L184+8
 3594 046c FFF7FEFF 	 bl optiga_lib_print_message
 3595              	.LVL356:
 437:D:/School/diseratie/SEMS/xmc4800_evaluation_kit/optiga-trust-m/examples\optiga_shell.c ****     OPTIGA_SHELL_LOG_MESSAGE("4 Step: Generate Shared Secret and export it");
 3596              	 .loc 1 437 0
 3597 0470 7848     	 ldr r0,.L184+64
 3598 0472 6949     	 ldr r1,.L184+4
 3599 0474 694A     	 ldr r2,.L184+8
 3600 0476 FFF7FEFF 	 bl optiga_lib_print_message
 3601              	.LVL357:
 438:D:/School/diseratie/SEMS/xmc4800_evaluation_kit/optiga-trust-m/examples\optiga_shell.c **** #ifndef OPTIGA_INIT_DEINIT_DONE_EXCLUSIVELY
 3602              	 .loc 1 438 0
 3603 047a 7748     	 ldr r0,.L184+68
 3604 047c 6649     	 ldr r1,.L184+4
 3605 047e 674A     	 ldr r2,.L184+8
 3606 0480 FFF7FEFF 	 bl optiga_lib_print_message
 3607              	.LVL358:
 440:D:/School/diseratie/SEMS/xmc4800_evaluation_kit/optiga-trust-m/examples\optiga_shell.c **** #endif
 3608              	 .loc 1 440 0
 3609 0484 6449     	 ldr r1,.L184+4
 3610 0486 654A     	 ldr r2,.L184+8
 3611 0488 7448     	 ldr r0,.L184+72
 3612 048a FFF7FEFF 	 bl optiga_lib_print_message
 3613              	.LVL359:
 442:D:/School/diseratie/SEMS/xmc4800_evaluation_kit/optiga-trust-m/examples\optiga_shell.c **** }
 3614              	 .loc 1 442 0
 3615 048e FFF7FEFF 	 bl example_optiga_crypt_ecdh
 3616              	.LVL360:
 3617              	.LBE212:
 3618              	.LBE211:
 724:D:/School/diseratie/SEMS/xmc4800_evaluation_kit/optiga-trust-m/examples\optiga_shell.c ****     pal_os_timer_delay_in_milliseconds(2000);
 3619              	 .loc 1 724 0
 3620 0492 6648     	 ldr r0,.L184+24
 3621 0494 FFF7FEFF 	 bl optiga_lib_print_string_with_newline
 3622              	.LVL361:
 725:D:/School/diseratie/SEMS/xmc4800_evaluation_kit/optiga-trust-m/examples\optiga_shell.c **** }
 3623              	 .loc 1 725 0
 3624 0498 4FF4FA60 	 mov r0,#2000
 3625 049c FFF7FEFF 	 bl pal_os_timer_delay_in_milliseconds
 3626              	.LVL362:
 3627              	.LBE210:
 3628              	.LBE209:
 3629              	.LBB213:
 3630              	.LBB214:
 3631              	.LBB215:
 3632              	.LBB216:
 510:D:/School/diseratie/SEMS/xmc4800_evaluation_kit/optiga-trust-m/examples\optiga_shell.c **** #endif
 3633              	 .loc 1 510 0
 3634 04a0 5C48     	 ldr r0,.L184
 3635 04a2 5D49     	 ldr r1,.L184+4
 3636 04a4 5D4A     	 ldr r2,.L184+8
 3637 04a6 FFF7FEFF 	 bl optiga_lib_print_message
 3638              	.LVL363:
 512:D:/School/diseratie/SEMS/xmc4800_evaluation_kit/optiga-trust-m/examples\optiga_shell.c ****     OPTIGA_SHELL_LOG_MESSAGE("1 Step: Generate RSA 1024 Key Pair and export the public key");
 3639              	 .loc 1 512 0
 3640 04aa 6D48     	 ldr r0,.L184+76
 3641 04ac 5A49     	 ldr r1,.L184+4
 3642 04ae 5B4A     	 ldr r2,.L184+8
 3643 04b0 FFF7FEFF 	 bl optiga_lib_print_message
 3644              	.LVL364:
 513:D:/School/diseratie/SEMS/xmc4800_evaluation_kit/optiga-trust-m/examples\optiga_shell.c **** #ifndef OPTIGA_INIT_DEINIT_DONE_EXCLUSIVELY
 3645              	 .loc 1 513 0
 3646 04b4 6B48     	 ldr r0,.L184+80
 3647 04b6 5849     	 ldr r1,.L184+4
 3648 04b8 584A     	 ldr r2,.L184+8
 3649 04ba FFF7FEFF 	 bl optiga_lib_print_message
 3650              	.LVL365:
 515:D:/School/diseratie/SEMS/xmc4800_evaluation_kit/optiga-trust-m/examples\optiga_shell.c **** #endif
 3651              	 .loc 1 515 0
 3652 04be 5649     	 ldr r1,.L184+4
 3653 04c0 564A     	 ldr r2,.L184+8
 3654 04c2 5948     	 ldr r0,.L184+20
 3655 04c4 FFF7FEFF 	 bl optiga_lib_print_message
 3656              	.LVL366:
 517:D:/School/diseratie/SEMS/xmc4800_evaluation_kit/optiga-trust-m/examples\optiga_shell.c **** }
 3657              	 .loc 1 517 0
 3658 04c8 FFF7FEFF 	 bl example_optiga_crypt_rsa_generate_keypair
 3659              	.LVL367:
 3660              	.LBE216:
 3661              	.LBE215:
 724:D:/School/diseratie/SEMS/xmc4800_evaluation_kit/optiga-trust-m/examples\optiga_shell.c ****     pal_os_timer_delay_in_milliseconds(2000);
 3662              	 .loc 1 724 0
 3663 04cc 5748     	 ldr r0,.L184+24
 3664 04ce FFF7FEFF 	 bl optiga_lib_print_string_with_newline
 3665              	.LVL368:
 725:D:/School/diseratie/SEMS/xmc4800_evaluation_kit/optiga-trust-m/examples\optiga_shell.c **** }
 3666              	 .loc 1 725 0
 3667 04d2 4FF4FA60 	 mov r0,#2000
 3668 04d6 FFF7FEFF 	 bl pal_os_timer_delay_in_milliseconds
 3669              	.LVL369:
 3670              	.LBE214:
 3671              	.LBE213:
 3672              	.LBB217:
 3673              	.LBB218:
 3674              	.LBB219:
 3675              	.LBB220:
 480:D:/School/diseratie/SEMS/xmc4800_evaluation_kit/optiga-trust-m/examples\optiga_shell.c **** #endif
 3676              	 .loc 1 480 0
 3677 04da 4E48     	 ldr r0,.L184
 3678 04dc 4E49     	 ldr r1,.L184+4
 3679 04de 4F4A     	 ldr r2,.L184+8
 3680 04e0 FFF7FEFF 	 bl optiga_lib_print_message
 3681              	.LVL370:
 482:D:/School/diseratie/SEMS/xmc4800_evaluation_kit/optiga-trust-m/examples\optiga_shell.c ****     OPTIGA_SHELL_LOG_MESSAGE("1 Step: Sign prepared Data and export the signature");
 3682              	 .loc 1 482 0
 3683 04e4 6048     	 ldr r0,.L184+84
 3684 04e6 4C49     	 ldr r1,.L184+4
 3685 04e8 4C4A     	 ldr r2,.L184+8
 3686 04ea FFF7FEFF 	 bl optiga_lib_print_message
 3687              	.LVL371:
 483:D:/School/diseratie/SEMS/xmc4800_evaluation_kit/optiga-trust-m/examples\optiga_shell.c **** #ifndef OPTIGA_INIT_DEINIT_DONE_EXCLUSIVELY
 3688              	 .loc 1 483 0
 3689 04ee 5348     	 ldr r0,.L184+40
 3690 04f0 4949     	 ldr r1,.L184+4
 3691 04f2 4A4A     	 ldr r2,.L184+8
 3692 04f4 FFF7FEFF 	 bl optiga_lib_print_message
 3693              	.LVL372:
 485:D:/School/diseratie/SEMS/xmc4800_evaluation_kit/optiga-trust-m/examples\optiga_shell.c **** #endif
 3694              	 .loc 1 485 0
 3695 04f8 4749     	 ldr r1,.L184+4
 3696 04fa 484A     	 ldr r2,.L184+8
 3697 04fc 4A48     	 ldr r0,.L184+20
 3698 04fe FFF7FEFF 	 bl optiga_lib_print_message
 3699              	.LVL373:
 487:D:/School/diseratie/SEMS/xmc4800_evaluation_kit/optiga-trust-m/examples\optiga_shell.c **** }
 3700              	 .loc 1 487 0
 3701 0502 FFF7FEFF 	 bl example_optiga_crypt_rsa_sign
 3702              	.LVL374:
 3703              	.LBE220:
 3704              	.LBE219:
 724:D:/School/diseratie/SEMS/xmc4800_evaluation_kit/optiga-trust-m/examples\optiga_shell.c ****     pal_os_timer_delay_in_milliseconds(2000);
 3705              	 .loc 1 724 0
 3706 0506 4948     	 ldr r0,.L184+24
 3707 0508 FFF7FEFF 	 bl optiga_lib_print_string_with_newline
 3708              	.LVL375:
 725:D:/School/diseratie/SEMS/xmc4800_evaluation_kit/optiga-trust-m/examples\optiga_shell.c **** }
 3709              	 .loc 1 725 0
 3710 050c 4FF4FA60 	 mov r0,#2000
 3711 0510 FFF7FEFF 	 bl pal_os_timer_delay_in_milliseconds
 3712              	.LVL376:
 3713              	.LBE218:
 3714              	.LBE217:
 3715              	.LBB221:
 3716              	.LBB222:
 3717              	.LBB223:
 3718              	.LBB224:
 495:D:/School/diseratie/SEMS/xmc4800_evaluation_kit/optiga-trust-m/examples\optiga_shell.c **** #endif
 3719              	 .loc 1 495 0
 3720 0514 3F48     	 ldr r0,.L184
 3721 0516 4049     	 ldr r1,.L184+4
 3722 0518 404A     	 ldr r2,.L184+8
 3723 051a FFF7FEFF 	 bl optiga_lib_print_message
 3724              	.LVL377:
 497:D:/School/diseratie/SEMS/xmc4800_evaluation_kit/optiga-trust-m/examples\optiga_shell.c ****     OPTIGA_SHELL_LOG_MESSAGE("1 Step: Verify prepared signature, with prepared public key and diges
 3725              	 .loc 1 497 0
 3726 051e 5248     	 ldr r0,.L184+84
 3727 0520 3D49     	 ldr r1,.L184+4
 3728 0522 3E4A     	 ldr r2,.L184+8
 3729 0524 FFF7FEFF 	 bl optiga_lib_print_message
 3730              	.LVL378:
 498:D:/School/diseratie/SEMS/xmc4800_evaluation_kit/optiga-trust-m/examples\optiga_shell.c **** #ifndef OPTIGA_INIT_DEINIT_DONE_EXCLUSIVELY
 3731              	 .loc 1 498 0
 3732 0528 4648     	 ldr r0,.L184+48
 3733 052a 3B49     	 ldr r1,.L184+4
 3734 052c 3B4A     	 ldr r2,.L184+8
 3735 052e FFF7FEFF 	 bl optiga_lib_print_message
 3736              	.LVL379:
 500:D:/School/diseratie/SEMS/xmc4800_evaluation_kit/optiga-trust-m/examples\optiga_shell.c **** #endif
 3737              	 .loc 1 500 0
 3738 0532 3949     	 ldr r1,.L184+4
 3739 0534 394A     	 ldr r2,.L184+8
 3740 0536 3C48     	 ldr r0,.L184+20
 3741 0538 FFF7FEFF 	 bl optiga_lib_print_message
 3742              	.LVL380:
 502:D:/School/diseratie/SEMS/xmc4800_evaluation_kit/optiga-trust-m/examples\optiga_shell.c **** }
 3743              	 .loc 1 502 0
 3744 053c FFF7FEFF 	 bl example_optiga_crypt_rsa_verify
 3745              	.LVL381:
 3746              	.LBE224:
 3747              	.LBE223:
 724:D:/School/diseratie/SEMS/xmc4800_evaluation_kit/optiga-trust-m/examples\optiga_shell.c ****     pal_os_timer_delay_in_milliseconds(2000);
 3748              	 .loc 1 724 0
 3749 0540 3A48     	 ldr r0,.L184+24
 3750 0542 FFF7FEFF 	 bl optiga_lib_print_string_with_newline
 3751              	.LVL382:
 725:D:/School/diseratie/SEMS/xmc4800_evaluation_kit/optiga-trust-m/examples\optiga_shell.c **** }
 3752              	 .loc 1 725 0
 3753 0546 4FF4FA60 	 mov r0,#2000
 3754 054a FFF7FEFF 	 bl pal_os_timer_delay_in_milliseconds
 3755              	.LVL383:
 3756              	.LBE222:
 3757              	.LBE221:
 3758              	.LBB225:
 3759              	.LBB226:
 3760              	.LBB227:
 3761              	.LBB228:
 562:D:/School/diseratie/SEMS/xmc4800_evaluation_kit/optiga-trust-m/examples\optiga_shell.c **** #endif
 3762              	 .loc 1 562 0
 3763 054e 3148     	 ldr r0,.L184
 3764 0550 3149     	 ldr r1,.L184+4
 3765 0552 324A     	 ldr r2,.L184+8
 3766 0554 FFF7FEFF 	 bl optiga_lib_print_message
 3767              	.LVL384:
 564:D:/School/diseratie/SEMS/xmc4800_evaluation_kit/optiga-trust-m/examples\optiga_shell.c ****     OPTIGA_SHELL_LOG_MESSAGE("1 Step: Encrypt a message with RSAES PKCS#1 Ver1.5 Scheme");
 3768              	 .loc 1 564 0
 3769 0558 4448     	 ldr r0,.L184+88
 3770 055a 2F49     	 ldr r1,.L184+4
 3771 055c 2F4A     	 ldr r2,.L184+8
 3772 055e FFF7FEFF 	 bl optiga_lib_print_message
 3773              	.LVL385:
 565:D:/School/diseratie/SEMS/xmc4800_evaluation_kit/optiga-trust-m/examples\optiga_shell.c **** #ifndef OPTIGA_INIT_DEINIT_DONE_EXCLUSIVELY
 3774              	 .loc 1 565 0
 3775 0562 4348     	 ldr r0,.L184+92
 3776 0564 2C49     	 ldr r1,.L184+4
 3777 0566 2D4A     	 ldr r2,.L184+8
 3778 0568 FFF7FEFF 	 bl optiga_lib_print_message
 3779              	.LVL386:
 567:D:/School/diseratie/SEMS/xmc4800_evaluation_kit/optiga-trust-m/examples\optiga_shell.c **** #endif
 3780              	 .loc 1 567 0
 3781 056c 2A49     	 ldr r1,.L184+4
 3782 056e 2B4A     	 ldr r2,.L184+8
 3783 0570 2D48     	 ldr r0,.L184+20
 3784 0572 FFF7FEFF 	 bl optiga_lib_print_message
 3785              	.LVL387:
 569:D:/School/diseratie/SEMS/xmc4800_evaluation_kit/optiga-trust-m/examples\optiga_shell.c **** }
 3786              	 .loc 1 569 0
 3787 0576 FFF7FEFF 	 bl example_optiga_crypt_rsa_encrypt_message
 3788              	.LVL388:
 3789              	.LBE228:
 3790              	.LBE227:
 724:D:/School/diseratie/SEMS/xmc4800_evaluation_kit/optiga-trust-m/examples\optiga_shell.c ****     pal_os_timer_delay_in_milliseconds(2000);
 3791              	 .loc 1 724 0
 3792 057a 2C48     	 ldr r0,.L184+24
 3793 057c FFF7FEFF 	 bl optiga_lib_print_string_with_newline
 3794              	.LVL389:
 725:D:/School/diseratie/SEMS/xmc4800_evaluation_kit/optiga-trust-m/examples\optiga_shell.c **** }
 3795              	 .loc 1 725 0
 3796 0580 4FF4FA60 	 mov r0,#2000
 3797 0584 FFF7FEFF 	 bl pal_os_timer_delay_in_milliseconds
 3798              	.LVL390:
 3799              	.LBE226:
 3800              	.LBE225:
 3801              	.LBB229:
 3802              	.LBB230:
 3803              	.LBB231:
 3804              	.LBB232:
 577:D:/School/diseratie/SEMS/xmc4800_evaluation_kit/optiga-trust-m/examples\optiga_shell.c **** #endif
 3805              	 .loc 1 577 0
 3806 0588 2248     	 ldr r0,.L184
 3807 058a 2349     	 ldr r1,.L184+4
 3808 058c 234A     	 ldr r2,.L184+8
 3809 058e FFF7FEFF 	 bl optiga_lib_print_message
 3810              	.LVL391:
 579:D:/School/diseratie/SEMS/xmc4800_evaluation_kit/optiga-trust-m/examples\optiga_shell.c ****     OPTIGA_SHELL_LOG_MESSAGE("1 Step: Encrypt a message with RSAES PKCS#1 Ver1.5 Scheme stored on c
 3811              	 .loc 1 579 0
 3812 0592 3848     	 ldr r0,.L184+96
 3813 0594 2049     	 ldr r1,.L184+4
 3814 0596 214A     	 ldr r2,.L184+8
 3815 0598 FFF7FEFF 	 bl optiga_lib_print_message
 3816              	.LVL392:
 580:D:/School/diseratie/SEMS/xmc4800_evaluation_kit/optiga-trust-m/examples\optiga_shell.c **** #ifndef OPTIGA_INIT_DEINIT_DONE_EXCLUSIVELY
 3817              	 .loc 1 580 0
 3818 059c 3648     	 ldr r0,.L184+100
 3819 059e 1E49     	 ldr r1,.L184+4
 3820 05a0 1E4A     	 ldr r2,.L184+8
 3821 05a2 FFF7FEFF 	 bl optiga_lib_print_message
 3822              	.LVL393:
 582:D:/School/diseratie/SEMS/xmc4800_evaluation_kit/optiga-trust-m/examples\optiga_shell.c **** #endif
 3823              	 .loc 1 582 0
 3824 05a6 1C49     	 ldr r1,.L184+4
 3825 05a8 1C4A     	 ldr r2,.L184+8
 3826 05aa 1F48     	 ldr r0,.L184+20
 3827 05ac FFF7FEFF 	 bl optiga_lib_print_message
 3828              	.LVL394:
 584:D:/School/diseratie/SEMS/xmc4800_evaluation_kit/optiga-trust-m/examples\optiga_shell.c **** }
 3829              	 .loc 1 584 0
 3830 05b0 FFF7FEFF 	 bl example_optiga_crypt_rsa_encrypt_session
 3831              	.LVL395:
 3832              	.LBE232:
 3833              	.LBE231:
 724:D:/School/diseratie/SEMS/xmc4800_evaluation_kit/optiga-trust-m/examples\optiga_shell.c ****     pal_os_timer_delay_in_milliseconds(2000);
 3834              	 .loc 1 724 0
 3835 05b4 1D48     	 ldr r0,.L184+24
 3836 05b6 FFF7FEFF 	 bl optiga_lib_print_string_with_newline
 3837              	.LVL396:
 725:D:/School/diseratie/SEMS/xmc4800_evaluation_kit/optiga-trust-m/examples\optiga_shell.c **** }
 3838              	 .loc 1 725 0
 3839 05ba 4FF4FA60 	 mov r0,#2000
 3840 05be FFF7FEFF 	 bl pal_os_timer_delay_in_milliseconds
 3841              	.LVL397:
 3842              	.LBE230:
 3843              	.LBE229:
 3844              	.LBB233:
 3845              	.LBB234:
 3846              	.LBB235:
 3847              	.LBB236:
 544:D:/School/diseratie/SEMS/xmc4800_evaluation_kit/optiga-trust-m/examples\optiga_shell.c **** #endif
 3848              	 .loc 1 544 0
 3849 05c2 1448     	 ldr r0,.L184
 3850 05c4 1449     	 ldr r1,.L184+4
 3851 05c6 154A     	 ldr r2,.L184+8
 3852 05c8 FFF7FEFF 	 bl optiga_lib_print_message
 3853              	.LVL398:
 546:D:/School/diseratie/SEMS/xmc4800_evaluation_kit/optiga-trust-m/examples\optiga_shell.c ****     OPTIGA_SHELL_LOG_MESSAGE("1 Step: Generate RSA 1024 Key Pair and export the public key");
 3854              	 .loc 1 546 0
 3855 05cc 2B48     	 ldr r0,.L184+104
 3856 05ce 1249     	 ldr r1,.L184+4
 3857 05d0 124A     	 ldr r2,.L184+8
 3858 05d2 FFF7FEFF 	 bl optiga_lib_print_message
 3859              	.LVL399:
 547:D:/School/diseratie/SEMS/xmc4800_evaluation_kit/optiga-trust-m/examples\optiga_shell.c ****     OPTIGA_SHELL_LOG_MESSAGE("2 Step: Generate 70 bytes RSA Pre master secret which is stored in ac
 3860              	 .loc 1 547 0
 3861 05d6 2348     	 ldr r0,.L184+80
 3862 05d8 0F49     	 ldr r1,.L184+4
 3863 05da 104A     	 ldr r2,.L184+8
 3864 05dc FFF7FEFF 	 bl optiga_lib_print_message
 3865              	.LVL400:
 548:D:/School/diseratie/SEMS/xmc4800_evaluation_kit/optiga-trust-m/examples\optiga_shell.c ****     OPTIGA_SHELL_LOG_MESSAGE("3 Step: Select Protected I2C Connection");
 3866              	 .loc 1 548 0
 3867 05e0 2748     	 ldr r0,.L184+108
 3868 05e2 0D49     	 ldr r1,.L184+4
 3869 05e4 0D4A     	 ldr r2,.L184+8
 3870 05e6 FFF7FEFF 	 bl optiga_lib_print_message
 3871              	.LVL401:
 549:D:/School/diseratie/SEMS/xmc4800_evaluation_kit/optiga-trust-m/examples\optiga_shell.c ****     OPTIGA_SHELL_LOG_MESSAGE("4 Step: Encrypt Session Data with RSA Public Key");
 3872              	 .loc 1 549 0
 3873 05ea 1A48     	 ldr r0,.L184+64
 3874 05ec 0A49     	 ldr r1,.L184+4
 3875 05ee 0B4A     	 ldr r2,.L184+8
 3876 05f0 FFF7FEFF 	 bl optiga_lib_print_message
 3877              	.LVL402:
 550:D:/School/diseratie/SEMS/xmc4800_evaluation_kit/optiga-trust-m/examples\optiga_shell.c ****     OPTIGA_SHELL_LOG_MESSAGE("5 Step: Decrypt the message with RSAES PKCS#1 Ver1.5 Scheme and store
 3878              	 .loc 1 550 0
 3879 05f4 2348     	 ldr r0,.L184+112
 3880 05f6 0849     	 ldr r1,.L184+4
 3881 05f8 084A     	 ldr r2,.L184+8
 3882 05fa FFF7FEFF 	 bl optiga_lib_print_message
 3883              	.LVL403:
 551:D:/School/diseratie/SEMS/xmc4800_evaluation_kit/optiga-trust-m/examples\optiga_shell.c **** #ifndef OPTIGA_INIT_DEINIT_DONE_EXCLUSIVELY
 3884              	 .loc 1 551 0
 3885 05fe 2248     	 ldr r0,.L184+116
 3886 0600 0549     	 ldr r1,.L184+4
 3887 0602 064A     	 ldr r2,.L184+8
 3888 0604 FFF7FEFF 	 bl optiga_lib_print_message
 3889              	.LVL404:
 553:D:/School/diseratie/SEMS/xmc4800_evaluation_kit/optiga-trust-m/examples\optiga_shell.c **** #endif
 3890              	 .loc 1 553 0
 3891 0608 0349     	 ldr r1,.L184+4
 3892 060a 044A     	 ldr r2,.L184+8
 3893 060c 1F48     	 ldr r0,.L184+120
 3894 060e FFF7FEFF 	 bl optiga_lib_print_message
 3895              	.LVL405:
 3896 0612 3DE0     	 b .L185
 3897              	.L186:
 3898              	 .align 2
 3899              	.L184:
 3900 0614 00000000 	 .word .LC0
 3901 0618 34000000 	 .word .LC1
 3902 061c 48000000 	 .word .LC2
 3903 0620 780D0000 	 .word .LC62
 3904 0624 9C0D0000 	 .word .LC63
 3905 0628 4C030000 	 .word .LC18
 3906 062c 30170000 	 .word .LC109
 3907 0630 100D0000 	 .word .LC60
 3908 0634 340D0000 	 .word .LC61
 3909 0638 C00C0000 	 .word .LC59
 3910 063c 380B0000 	 .word .LC52
 3911 0640 680C0000 	 .word .LC58
 3912 0644 F00A0000 	 .word .LC51
 3913 0648 900B0000 	 .word .LC54
 3914 064c E00B0000 	 .word .LC55
 3915 0650 080C0000 	 .word .LC56
 3916 0654 D8070000 	 .word .LC39
 3917 0658 380C0000 	 .word .LC57
 3918 065c 4C080000 	 .word .LC41
 3919 0660 6C0B0000 	 .word .LC53
 3920 0664 5C070000 	 .word .LC37
 3921 0668 A40A0000 	 .word .LC50
 3922 066c 3C0A0000 	 .word .LC48
 3923 0670 680A0000 	 .word .LC49
 3924 0674 98090000 	 .word .LC46
 3925 0678 E0090000 	 .word .LC47
 3926 067c 74080000 	 .word .LC42
 3927 0680 B8080000 	 .word .LC43
 3928 0684 10090000 	 .word .LC44
 3929 0688 44090000 	 .word .LC45
 3930 068c 88010000 	 .word .LC9
 3931              	.L185:
 555:D:/School/diseratie/SEMS/xmc4800_evaluation_kit/optiga-trust-m/examples\optiga_shell.c **** }
 3932              	 .loc 1 555 0
 3933 0690 FFF7FEFF 	 bl example_optiga_crypt_rsa_decrypt_and_store
 3934              	.LVL406:
 3935              	.LBE236:
 3936              	.LBE235:
 724:D:/School/diseratie/SEMS/xmc4800_evaluation_kit/optiga-trust-m/examples\optiga_shell.c ****     pal_os_timer_delay_in_milliseconds(2000);
 3937              	 .loc 1 724 0
 3938 0694 AA48     	 ldr r0,.L187
 3939 0696 FFF7FEFF 	 bl optiga_lib_print_string_with_newline
 3940              	.LVL407:
 725:D:/School/diseratie/SEMS/xmc4800_evaluation_kit/optiga-trust-m/examples\optiga_shell.c **** }
 3941              	 .loc 1 725 0
 3942 069a 4FF4FA60 	 mov r0,#2000
 3943 069e FFF7FEFF 	 bl pal_os_timer_delay_in_milliseconds
 3944              	.LVL408:
 3945              	.LBE234:
 3946              	.LBE233:
 3947              	.LBB237:
 3948              	.LBB238:
 3949              	.LBB239:
 3950              	.LBB240:
 525:D:/School/diseratie/SEMS/xmc4800_evaluation_kit/optiga-trust-m/examples\optiga_shell.c **** #endif
 3951              	 .loc 1 525 0
 3952 06a2 A848     	 ldr r0,.L187+4
 3953 06a4 A849     	 ldr r1,.L187+8
 3954 06a6 A94A     	 ldr r2,.L187+12
 3955 06a8 FFF7FEFF 	 bl optiga_lib_print_message
 3956              	.LVL409:
 527:D:/School/diseratie/SEMS/xmc4800_evaluation_kit/optiga-trust-m/examples\optiga_shell.c ****     OPTIGA_SHELL_LOG_MESSAGE("1 Step: Generate RSA 1024 Key Pair and export the public key");
 3957              	 .loc 1 527 0
 3958 06ac A848     	 ldr r0,.L187+16
 3959 06ae A649     	 ldr r1,.L187+8
 3960 06b0 A64A     	 ldr r2,.L187+12
 3961 06b2 FFF7FEFF 	 bl optiga_lib_print_message
 3962              	.LVL410:
 528:D:/School/diseratie/SEMS/xmc4800_evaluation_kit/optiga-trust-m/examples\optiga_shell.c ****     OPTIGA_SHELL_LOG_MESSAGE("2 Step: Encrypt a message with RSAES PKCS#1 Ver1.5 Scheme");
 3963              	 .loc 1 528 0
 3964 06b6 A748     	 ldr r0,.L187+20
 3965 06b8 A349     	 ldr r1,.L187+8
 3966 06ba A44A     	 ldr r2,.L187+12
 3967 06bc FFF7FEFF 	 bl optiga_lib_print_message
 3968              	.LVL411:
 529:D:/School/diseratie/SEMS/xmc4800_evaluation_kit/optiga-trust-m/examples\optiga_shell.c ****     OPTIGA_SHELL_LOG_MESSAGE("3 Step: Select Protected I2C Connection");
 3969              	 .loc 1 529 0
 3970 06c0 A548     	 ldr r0,.L187+24
 3971 06c2 A149     	 ldr r1,.L187+8
 3972 06c4 A14A     	 ldr r2,.L187+12
 3973 06c6 FFF7FEFF 	 bl optiga_lib_print_message
 3974              	.LVL412:
 530:D:/School/diseratie/SEMS/xmc4800_evaluation_kit/optiga-trust-m/examples\optiga_shell.c ****     OPTIGA_SHELL_LOG_MESSAGE("4 Step: Decrypt the message with RSAES PKCS#1 Ver1.5 Scheme and expor
 3975              	 .loc 1 530 0
 3976 06ca A448     	 ldr r0,.L187+28
 3977 06cc 9E49     	 ldr r1,.L187+8
 3978 06ce 9F4A     	 ldr r2,.L187+12
 3979 06d0 FFF7FEFF 	 bl optiga_lib_print_message
 3980              	.LVL413:
 531:D:/School/diseratie/SEMS/xmc4800_evaluation_kit/optiga-trust-m/examples\optiga_shell.c **** #ifndef OPTIGA_INIT_DEINIT_DONE_EXCLUSIVELY
 3981              	 .loc 1 531 0
 3982 06d4 A248     	 ldr r0,.L187+32
 3983 06d6 9C49     	 ldr r1,.L187+8
 3984 06d8 9C4A     	 ldr r2,.L187+12
 3985 06da FFF7FEFF 	 bl optiga_lib_print_message
 3986              	.LVL414:
 533:D:/School/diseratie/SEMS/xmc4800_evaluation_kit/optiga-trust-m/examples\optiga_shell.c **** #endif
 3987              	 .loc 1 533 0
 3988 06de 9A49     	 ldr r1,.L187+8
 3989 06e0 9A4A     	 ldr r2,.L187+12
 3990 06e2 A048     	 ldr r0,.L187+36
 3991 06e4 FFF7FEFF 	 bl optiga_lib_print_message
 3992              	.LVL415:
 535:D:/School/diseratie/SEMS/xmc4800_evaluation_kit/optiga-trust-m/examples\optiga_shell.c **** }
 3993              	 .loc 1 535 0
 3994 06e8 FFF7FEFF 	 bl example_optiga_crypt_rsa_decrypt_and_export
 3995              	.LVL416:
 3996              	.LBE240:
 3997              	.LBE239:
 724:D:/School/diseratie/SEMS/xmc4800_evaluation_kit/optiga-trust-m/examples\optiga_shell.c ****     pal_os_timer_delay_in_milliseconds(2000);
 3998              	 .loc 1 724 0
 3999 06ec 9448     	 ldr r0,.L187
 4000 06ee FFF7FEFF 	 bl optiga_lib_print_string_with_newline
 4001              	.LVL417:
 725:D:/School/diseratie/SEMS/xmc4800_evaluation_kit/optiga-trust-m/examples\optiga_shell.c **** }
 4002              	 .loc 1 725 0
 4003 06f2 4FF4FA60 	 mov r0,#2000
 4004 06f6 FFF7FEFF 	 bl pal_os_timer_delay_in_milliseconds
 4005              	.LVL418:
 4006              	.LBE238:
 4007              	.LBE237:
 4008              	.LBB241:
 4009              	.LBB242:
 4010              	.LBB243:
 4011              	.LBB244:
 592:D:/School/diseratie/SEMS/xmc4800_evaluation_kit/optiga-trust-m/examples\optiga_shell.c **** #endif
 4012              	 .loc 1 592 0
 4013 06fa 9248     	 ldr r0,.L187+4
 4014 06fc 9249     	 ldr r1,.L187+8
 4015 06fe 934A     	 ldr r2,.L187+12
 4016 0700 FFF7FEFF 	 bl optiga_lib_print_message
 4017              	.LVL419:
 594:D:/School/diseratie/SEMS/xmc4800_evaluation_kit/optiga-trust-m/examples\optiga_shell.c ****     OPTIGA_SHELL_LOG_MESSAGE("1 Step: Generate and store the AES 128 Symmetric key in OPTIGA Key st
 4018              	 .loc 1 594 0
 4019 0704 9848     	 ldr r0,.L187+40
 4020 0706 9049     	 ldr r1,.L187+8
 4021 0708 904A     	 ldr r2,.L187+12
 4022 070a FFF7FEFF 	 bl optiga_lib_print_message
 4023              	.LVL420:
 595:D:/School/diseratie/SEMS/xmc4800_evaluation_kit/optiga-trust-m/examples\optiga_shell.c ****     OPTIGA_SHELL_LOG_MESSAGE("2 Step: Encrypt the plain data with ECB mode");
 4024              	 .loc 1 595 0
 4025 070e 9748     	 ldr r0,.L187+44
 4026 0710 8D49     	 ldr r1,.L187+8
 4027 0712 8E4A     	 ldr r2,.L187+12
 4028 0714 FFF7FEFF 	 bl optiga_lib_print_message
 4029              	.LVL421:
 596:D:/School/diseratie/SEMS/xmc4800_evaluation_kit/optiga-trust-m/examples\optiga_shell.c ****     OPTIGA_SHELL_LOG_MESSAGE("3 Step: Decrypt the encrypted data from step 2");
 4030              	 .loc 1 596 0
 4031 0718 9548     	 ldr r0,.L187+48
 4032 071a 8B49     	 ldr r1,.L187+8
 4033 071c 8B4A     	 ldr r2,.L187+12
 4034 071e FFF7FEFF 	 bl optiga_lib_print_message
 4035              	.LVL422:
 597:D:/School/diseratie/SEMS/xmc4800_evaluation_kit/optiga-trust-m/examples\optiga_shell.c **** #ifndef OPTIGA_INIT_DEINIT_DONE_EXCLUSIVELY
 4036              	 .loc 1 597 0
 4037 0722 9448     	 ldr r0,.L187+52
 4038 0724 8849     	 ldr r1,.L187+8
 4039 0726 894A     	 ldr r2,.L187+12
 4040 0728 FFF7FEFF 	 bl optiga_lib_print_message
 4041              	.LVL423:
 599:D:/School/diseratie/SEMS/xmc4800_evaluation_kit/optiga-trust-m/examples\optiga_shell.c **** #endif
 4042              	 .loc 1 599 0
 4043 072c 8649     	 ldr r1,.L187+8
 4044 072e 874A     	 ldr r2,.L187+12
 4045 0730 9148     	 ldr r0,.L187+56
 4046 0732 FFF7FEFF 	 bl optiga_lib_print_message
 4047              	.LVL424:
 601:D:/School/diseratie/SEMS/xmc4800_evaluation_kit/optiga-trust-m/examples\optiga_shell.c **** }
 4048              	 .loc 1 601 0
 4049 0736 FFF7FEFF 	 bl example_optiga_crypt_symmetric_encrypt_decrypt_ecb
 4050              	.LVL425:
 4051              	.LBE244:
 4052              	.LBE243:
 724:D:/School/diseratie/SEMS/xmc4800_evaluation_kit/optiga-trust-m/examples\optiga_shell.c ****     pal_os_timer_delay_in_milliseconds(2000);
 4053              	 .loc 1 724 0
 4054 073a 8148     	 ldr r0,.L187
 4055 073c FFF7FEFF 	 bl optiga_lib_print_string_with_newline
 4056              	.LVL426:
 725:D:/School/diseratie/SEMS/xmc4800_evaluation_kit/optiga-trust-m/examples\optiga_shell.c **** }
 4057              	 .loc 1 725 0
 4058 0740 4FF4FA60 	 mov r0,#2000
 4059 0744 FFF7FEFF 	 bl pal_os_timer_delay_in_milliseconds
 4060              	.LVL427:
 4061              	.LBE242:
 4062              	.LBE241:
 4063              	.LBB245:
 4064              	.LBB246:
 4065              	.LBB247:
 4066              	.LBB248:
 607:D:/School/diseratie/SEMS/xmc4800_evaluation_kit/optiga-trust-m/examples\optiga_shell.c **** #endif
 4067              	 .loc 1 607 0
 4068 0748 7E48     	 ldr r0,.L187+4
 4069 074a 7F49     	 ldr r1,.L187+8
 4070 074c 7F4A     	 ldr r2,.L187+12
 4071 074e FFF7FEFF 	 bl optiga_lib_print_message
 4072              	.LVL428:
 609:D:/School/diseratie/SEMS/xmc4800_evaluation_kit/optiga-trust-m/examples\optiga_shell.c ****     OPTIGA_SHELL_LOG_MESSAGE("1 Step: Generate and store the AES 128 Symmetric key in OPTIGA Key st
 4073              	 .loc 1 609 0
 4074 0752 8A48     	 ldr r0,.L187+60
 4075 0754 7C49     	 ldr r1,.L187+8
 4076 0756 7D4A     	 ldr r2,.L187+12
 4077 0758 FFF7FEFF 	 bl optiga_lib_print_message
 4078              	.LVL429:
 610:D:/School/diseratie/SEMS/xmc4800_evaluation_kit/optiga-trust-m/examples\optiga_shell.c ****     OPTIGA_SHELL_LOG_MESSAGE("2 Step: Encrypt the plain data with CBC mode");
 4079              	 .loc 1 610 0
 4080 075c 8348     	 ldr r0,.L187+44
 4081 075e 7A49     	 ldr r1,.L187+8
 4082 0760 7A4A     	 ldr r2,.L187+12
 4083 0762 FFF7FEFF 	 bl optiga_lib_print_message
 4084              	.LVL430:
 611:D:/School/diseratie/SEMS/xmc4800_evaluation_kit/optiga-trust-m/examples\optiga_shell.c ****     OPTIGA_SHELL_LOG_MESSAGE("3 Step: Decrypt the encrypted data from step 2");
 4085              	 .loc 1 611 0
 4086 0766 8648     	 ldr r0,.L187+64
 4087 0768 7749     	 ldr r1,.L187+8
 4088 076a 784A     	 ldr r2,.L187+12
 4089 076c FFF7FEFF 	 bl optiga_lib_print_message
 4090              	.LVL431:
 612:D:/School/diseratie/SEMS/xmc4800_evaluation_kit/optiga-trust-m/examples\optiga_shell.c **** #ifndef OPTIGA_INIT_DEINIT_DONE_EXCLUSIVELY
 4091              	 .loc 1 612 0
 4092 0770 8048     	 ldr r0,.L187+52
 4093 0772 7549     	 ldr r1,.L187+8
 4094 0774 754A     	 ldr r2,.L187+12
 4095 0776 FFF7FEFF 	 bl optiga_lib_print_message
 4096              	.LVL432:
 614:D:/School/diseratie/SEMS/xmc4800_evaluation_kit/optiga-trust-m/examples\optiga_shell.c **** #endif
 4097              	 .loc 1 614 0
 4098 077a 7349     	 ldr r1,.L187+8
 4099 077c 734A     	 ldr r2,.L187+12
 4100 077e 7E48     	 ldr r0,.L187+56
 4101 0780 FFF7FEFF 	 bl optiga_lib_print_message
 4102              	.LVL433:
 616:D:/School/diseratie/SEMS/xmc4800_evaluation_kit/optiga-trust-m/examples\optiga_shell.c **** }
 4103              	 .loc 1 616 0
 4104 0784 FFF7FEFF 	 bl example_optiga_crypt_symmetric_encrypt_decrypt_cbc
 4105              	.LVL434:
 4106              	.LBE248:
 4107              	.LBE247:
 724:D:/School/diseratie/SEMS/xmc4800_evaluation_kit/optiga-trust-m/examples\optiga_shell.c ****     pal_os_timer_delay_in_milliseconds(2000);
 4108              	 .loc 1 724 0
 4109 0788 6D48     	 ldr r0,.L187
 4110 078a FFF7FEFF 	 bl optiga_lib_print_string_with_newline
 4111              	.LVL435:
 725:D:/School/diseratie/SEMS/xmc4800_evaluation_kit/optiga-trust-m/examples\optiga_shell.c **** }
 4112              	 .loc 1 725 0
 4113 078e 4FF4FA60 	 mov r0,#2000
 4114 0792 FFF7FEFF 	 bl pal_os_timer_delay_in_milliseconds
 4115              	.LVL436:
 4116              	.LBE246:
 4117              	.LBE245:
 4118              	.LBB249:
 4119              	.LBB250:
 4120              	.LBB251:
 4121              	.LBB252:
 622:D:/School/diseratie/SEMS/xmc4800_evaluation_kit/optiga-trust-m/examples\optiga_shell.c **** #endif
 4122              	 .loc 1 622 0
 4123 0796 6B48     	 ldr r0,.L187+4
 4124 0798 6B49     	 ldr r1,.L187+8
 4125 079a 6C4A     	 ldr r2,.L187+12
 4126 079c FFF7FEFF 	 bl optiga_lib_print_message
 4127              	.LVL437:
 624:D:/School/diseratie/SEMS/xmc4800_evaluation_kit/optiga-trust-m/examples\optiga_shell.c ****     OPTIGA_SHELL_LOG_MESSAGE("1 Step: Generate and store the AES 128 Symmetric key in OPTIGA Key st
 4128              	 .loc 1 624 0
 4129 07a0 7848     	 ldr r0,.L187+68
 4130 07a2 6949     	 ldr r1,.L187+8
 4131 07a4 694A     	 ldr r2,.L187+12
 4132 07a6 FFF7FEFF 	 bl optiga_lib_print_message
 4133              	.LVL438:
 625:D:/School/diseratie/SEMS/xmc4800_evaluation_kit/optiga-trust-m/examples\optiga_shell.c ****     OPTIGA_SHELL_LOG_MESSAGE("2 Step: Encrypt the plain data with CBCMAC mode");
 4134              	 .loc 1 625 0
 4135 07aa 7048     	 ldr r0,.L187+44
 4136 07ac 6649     	 ldr r1,.L187+8
 4137 07ae 674A     	 ldr r2,.L187+12
 4138 07b0 FFF7FEFF 	 bl optiga_lib_print_message
 4139              	.LVL439:
 626:D:/School/diseratie/SEMS/xmc4800_evaluation_kit/optiga-trust-m/examples\optiga_shell.c **** #ifndef OPTIGA_INIT_DEINIT_DONE_EXCLUSIVELY
 4140              	 .loc 1 626 0
 4141 07b4 7448     	 ldr r0,.L187+72
 4142 07b6 6449     	 ldr r1,.L187+8
 4143 07b8 644A     	 ldr r2,.L187+12
 4144 07ba FFF7FEFF 	 bl optiga_lib_print_message
 4145              	.LVL440:
 628:D:/School/diseratie/SEMS/xmc4800_evaluation_kit/optiga-trust-m/examples\optiga_shell.c **** #endif
 4146              	 .loc 1 628 0
 4147 07be 6249     	 ldr r1,.L187+8
 4148 07c0 624A     	 ldr r2,.L187+12
 4149 07c2 7248     	 ldr r0,.L187+76
 4150 07c4 FFF7FEFF 	 bl optiga_lib_print_message
 4151              	.LVL441:
 630:D:/School/diseratie/SEMS/xmc4800_evaluation_kit/optiga-trust-m/examples\optiga_shell.c **** }
 4152              	 .loc 1 630 0
 4153 07c8 FFF7FEFF 	 bl example_optiga_crypt_symmetric_encrypt_cbcmac
 4154              	.LVL442:
 4155              	.LBE252:
 4156              	.LBE251:
 724:D:/School/diseratie/SEMS/xmc4800_evaluation_kit/optiga-trust-m/examples\optiga_shell.c ****     pal_os_timer_delay_in_milliseconds(2000);
 4157              	 .loc 1 724 0
 4158 07cc 5C48     	 ldr r0,.L187
 4159 07ce FFF7FEFF 	 bl optiga_lib_print_string_with_newline
 4160              	.LVL443:
 725:D:/School/diseratie/SEMS/xmc4800_evaluation_kit/optiga-trust-m/examples\optiga_shell.c **** }
 4161              	 .loc 1 725 0
 4162 07d2 4FF4FA60 	 mov r0,#2000
 4163 07d6 FFF7FEFF 	 bl pal_os_timer_delay_in_milliseconds
 4164              	.LVL444:
 4165              	.LBE250:
 4166              	.LBE249:
 4167              	.LBB253:
 4168              	.LBB254:
 4169              	.LBB255:
 4170              	.LBB256:
 638:D:/School/diseratie/SEMS/xmc4800_evaluation_kit/optiga-trust-m/examples\optiga_shell.c **** #endif
 4171              	 .loc 1 638 0
 4172 07da 5A48     	 ldr r0,.L187+4
 4173 07dc 5A49     	 ldr r1,.L187+8
 4174 07de 5B4A     	 ldr r2,.L187+12
 4175 07e0 FFF7FEFF 	 bl optiga_lib_print_message
 4176              	.LVL445:
 640:D:/School/diseratie/SEMS/xmc4800_evaluation_kit/optiga-trust-m/examples\optiga_shell.c ****     OPTIGA_SHELL_LOG_MESSAGE("1 Step: Change metadata for OID(0xF1D0) as Execute access condition =
 4177              	 .loc 1 640 0
 4178 07e4 6A48     	 ldr r0,.L187+80
 4179 07e6 5849     	 ldr r1,.L187+8
 4180 07e8 584A     	 ldr r2,.L187+12
 4181 07ea FFF7FEFF 	 bl optiga_lib_print_message
 4182              	.LVL446:
 641:D:/School/diseratie/SEMS/xmc4800_evaluation_kit/optiga-trust-m/examples\optiga_shell.c ****     OPTIGA_SHELL_LOG_MESSAGE("2 Step: Generate HMAC");
 4183              	 .loc 1 641 0
 4184 07ee 6948     	 ldr r0,.L187+84
 4185 07f0 5549     	 ldr r1,.L187+8
 4186 07f2 564A     	 ldr r2,.L187+12
 4187 07f4 FFF7FEFF 	 bl optiga_lib_print_message
 4188              	.LVL447:
 642:D:/School/diseratie/SEMS/xmc4800_evaluation_kit/optiga-trust-m/examples\optiga_shell.c **** #ifndef OPTIGA_INIT_DEINIT_DONE_EXCLUSIVELY
 4189              	 .loc 1 642 0
 4190 07f8 6748     	 ldr r0,.L187+88
 4191 07fa 5349     	 ldr r1,.L187+8
 4192 07fc 534A     	 ldr r2,.L187+12
 4193 07fe FFF7FEFF 	 bl optiga_lib_print_message
 4194              	.LVL448:
 644:D:/School/diseratie/SEMS/xmc4800_evaluation_kit/optiga-trust-m/examples\optiga_shell.c **** #endif
 4195              	 .loc 1 644 0
 4196 0802 5149     	 ldr r1,.L187+8
 4197 0804 514A     	 ldr r2,.L187+12
 4198 0806 6148     	 ldr r0,.L187+76
 4199 0808 FFF7FEFF 	 bl optiga_lib_print_message
 4200              	.LVL449:
 646:D:/School/diseratie/SEMS/xmc4800_evaluation_kit/optiga-trust-m/examples\optiga_shell.c **** }
 4201              	 .loc 1 646 0
 4202 080c FFF7FEFF 	 bl example_optiga_crypt_hmac
 4203              	.LVL450:
 4204              	.LBE256:
 4205              	.LBE255:
 724:D:/School/diseratie/SEMS/xmc4800_evaluation_kit/optiga-trust-m/examples\optiga_shell.c ****     pal_os_timer_delay_in_milliseconds(2000);
 4206              	 .loc 1 724 0
 4207 0810 4B48     	 ldr r0,.L187
 4208 0812 FFF7FEFF 	 bl optiga_lib_print_string_with_newline
 4209              	.LVL451:
 725:D:/School/diseratie/SEMS/xmc4800_evaluation_kit/optiga-trust-m/examples\optiga_shell.c **** }
 4210              	 .loc 1 725 0
 4211 0816 4FF4FA60 	 mov r0,#2000
 4212 081a FFF7FEFF 	 bl pal_os_timer_delay_in_milliseconds
 4213              	.LVL452:
 4214              	.LBE254:
 4215              	.LBE253:
 4216              	.LBB257:
 4217              	.LBB258:
 4218              	.LBB259:
 4219              	.LBB260:
 654:D:/School/diseratie/SEMS/xmc4800_evaluation_kit/optiga-trust-m/examples\optiga_shell.c **** #endif
 4220              	 .loc 1 654 0
 4221 081e 4948     	 ldr r0,.L187+4
 4222 0820 4949     	 ldr r1,.L187+8
 4223 0822 4A4A     	 ldr r2,.L187+12
 4224 0824 FFF7FEFF 	 bl optiga_lib_print_message
 4225              	.LVL453:
 656:D:/School/diseratie/SEMS/xmc4800_evaluation_kit/optiga-trust-m/examples\optiga_shell.c ****     OPTIGA_SHELL_LOG_MESSAGE("1 Step: Write the shared secret to the Arbitrary data object F1D0");
 4226              	 .loc 1 656 0
 4227 0828 5C48     	 ldr r0,.L187+92
 4228 082a 4749     	 ldr r1,.L187+8
 4229 082c 474A     	 ldr r2,.L187+12
 4230 082e FFF7FEFF 	 bl optiga_lib_print_message
 4231              	.LVL454:
 657:D:/School/diseratie/SEMS/xmc4800_evaluation_kit/optiga-trust-m/examples\optiga_shell.c ****     OPTIGA_SHELL_LOG_MESSAGE("2 Step: Change metadata of OID(0xF1D0) Data object type  =  Pre-share
 4232              	 .loc 1 657 0
 4233 0832 5B48     	 ldr r0,.L187+96
 4234 0834 4449     	 ldr r1,.L187+8
 4235 0836 454A     	 ldr r2,.L187+12
 4236 0838 FFF7FEFF 	 bl optiga_lib_print_message
 4237              	.LVL455:
 658:D:/School/diseratie/SEMS/xmc4800_evaluation_kit/optiga-trust-m/examples\optiga_shell.c ****     OPTIGA_SHELL_LOG_MESSAGE("3 Step: Derive HKDF");
 4238              	 .loc 1 658 0
 4239 083c 5948     	 ldr r0,.L187+100
 4240 083e 4249     	 ldr r1,.L187+8
 4241 0840 424A     	 ldr r2,.L187+12
 4242 0842 FFF7FEFF 	 bl optiga_lib_print_message
 4243              	.LVL456:
 659:D:/School/diseratie/SEMS/xmc4800_evaluation_kit/optiga-trust-m/examples\optiga_shell.c **** #ifndef OPTIGA_INIT_DEINIT_DONE_EXCLUSIVELY
 4244              	 .loc 1 659 0
 4245 0846 5848     	 ldr r0,.L187+104
 4246 0848 3F49     	 ldr r1,.L187+8
 4247 084a 404A     	 ldr r2,.L187+12
 4248 084c FFF7FEFF 	 bl optiga_lib_print_message
 4249              	.LVL457:
 661:D:/School/diseratie/SEMS/xmc4800_evaluation_kit/optiga-trust-m/examples\optiga_shell.c **** #endif
 4250              	 .loc 1 661 0
 4251 0850 3D49     	 ldr r1,.L187+8
 4252 0852 3E4A     	 ldr r2,.L187+12
 4253 0854 4848     	 ldr r0,.L187+56
 4254 0856 FFF7FEFF 	 bl optiga_lib_print_message
 4255              	.LVL458:
 663:D:/School/diseratie/SEMS/xmc4800_evaluation_kit/optiga-trust-m/examples\optiga_shell.c **** }
 4256              	 .loc 1 663 0
 4257 085a FFF7FEFF 	 bl example_optiga_crypt_hkdf
 4258              	.LVL459:
 4259              	.LBE260:
 4260              	.LBE259:
 724:D:/School/diseratie/SEMS/xmc4800_evaluation_kit/optiga-trust-m/examples\optiga_shell.c ****     pal_os_timer_delay_in_milliseconds(2000);
 4261              	 .loc 1 724 0
 4262 085e 3848     	 ldr r0,.L187
 4263 0860 FFF7FEFF 	 bl optiga_lib_print_string_with_newline
 4264              	.LVL460:
 725:D:/School/diseratie/SEMS/xmc4800_evaluation_kit/optiga-trust-m/examples\optiga_shell.c **** }
 4265              	 .loc 1 725 0
 4266 0864 4FF4FA60 	 mov r0,#2000
 4267 0868 FFF7FEFF 	 bl pal_os_timer_delay_in_milliseconds
 4268              	.LVL461:
 4269              	.LBE258:
 4270              	.LBE257:
 4271              	.LBB261:
 4272              	.LBB262:
 4273              	.LBB263:
 4274              	.LBB264:
 671:D:/School/diseratie/SEMS/xmc4800_evaluation_kit/optiga-trust-m/examples\optiga_shell.c **** #endif
 4275              	 .loc 1 671 0
 4276 086c 3548     	 ldr r0,.L187+4
 4277 086e 3649     	 ldr r1,.L187+8
 4278 0870 364A     	 ldr r2,.L187+12
 4279 0872 FFF7FEFF 	 bl optiga_lib_print_message
 4280              	.LVL462:
 673:D:/School/diseratie/SEMS/xmc4800_evaluation_kit/optiga-trust-m/examples\optiga_shell.c ****     OPTIGA_SHELL_LOG_MESSAGE("1 Step: Generate symmetric AES-128 key and store it in OID(E200)");
 4281              	 .loc 1 673 0
 4282 0876 4D48     	 ldr r0,.L187+108
 4283 0878 3349     	 ldr r1,.L187+8
 4284 087a 344A     	 ldr r2,.L187+12
 4285 087c FFF7FEFF 	 bl optiga_lib_print_message
 4286              	.LVL463:
 674:D:/School/diseratie/SEMS/xmc4800_evaluation_kit/optiga-trust-m/examples\optiga_shell.c **** #ifndef OPTIGA_INIT_DEINIT_DONE_EXCLUSIVELY
 4287              	 .loc 1 674 0
 4288 0880 4B48     	 ldr r0,.L187+112
 4289 0882 3149     	 ldr r1,.L187+8
 4290 0884 314A     	 ldr r2,.L187+12
 4291 0886 FFF7FEFF 	 bl optiga_lib_print_message
 4292              	.LVL464:
 676:D:/School/diseratie/SEMS/xmc4800_evaluation_kit/optiga-trust-m/examples\optiga_shell.c **** #endif
 4293              	 .loc 1 676 0
 4294 088a 2F49     	 ldr r1,.L187+8
 4295 088c 2F4A     	 ldr r2,.L187+12
 4296 088e 4948     	 ldr r0,.L187+116
 4297 0890 FFF7FEFF 	 bl optiga_lib_print_message
 4298              	.LVL465:
 678:D:/School/diseratie/SEMS/xmc4800_evaluation_kit/optiga-trust-m/examples\optiga_shell.c **** }
 4299              	 .loc 1 678 0
 4300 0894 FFF7FEFF 	 bl example_optiga_crypt_symmetric_generate_key
 4301              	.LVL466:
 4302              	.LBE264:
 4303              	.LBE263:
 724:D:/School/diseratie/SEMS/xmc4800_evaluation_kit/optiga-trust-m/examples\optiga_shell.c ****     pal_os_timer_delay_in_milliseconds(2000);
 4304              	 .loc 1 724 0
 4305 0898 2948     	 ldr r0,.L187
 4306 089a FFF7FEFF 	 bl optiga_lib_print_string_with_newline
 4307              	.LVL467:
 725:D:/School/diseratie/SEMS/xmc4800_evaluation_kit/optiga-trust-m/examples\optiga_shell.c **** }
 4308              	 .loc 1 725 0
 4309 089e 4FF4FA60 	 mov r0,#2000
 4310 08a2 FFF7FEFF 	 bl pal_os_timer_delay_in_milliseconds
 4311              	.LVL468:
 4312              	.LBE262:
 4313              	.LBE261:
 4314              	.LBB265:
 4315              	.LBB266:
 4316              	.LBB267:
 4317              	.LBB268:
 705:D:/School/diseratie/SEMS/xmc4800_evaluation_kit/optiga-trust-m/examples\optiga_shell.c **** #endif
 4318              	 .loc 1 705 0
 4319 08a6 2748     	 ldr r0,.L187+4
 4320 08a8 2749     	 ldr r1,.L187+8
 4321 08aa 284A     	 ldr r2,.L187+12
 4322 08ac FFF7FEFF 	 bl optiga_lib_print_message
 4323              	.LVL469:
 707:D:/School/diseratie/SEMS/xmc4800_evaluation_kit/optiga-trust-m/examples\optiga_shell.c ****     OPTIGA_SHELL_LOG_MESSAGE("1 Step: Change metadata of OID(0xF1D0) Data object type  =  Pre-share
 4324              	 .loc 1 707 0
 4325 08b0 4148     	 ldr r0,.L187+120
 4326 08b2 2549     	 ldr r1,.L187+8
 4327 08b4 254A     	 ldr r2,.L187+12
 4328 08b6 FFF7FEFF 	 bl optiga_lib_print_message
 4329              	.LVL470:
 708:D:/School/diseratie/SEMS/xmc4800_evaluation_kit/optiga-trust-m/examples\optiga_shell.c ****     OPTIGA_SHELL_LOG_MESSAGE("2 Step: Get the User Secret and store it in OID(0xF1D0)");
 4330              	 .loc 1 708 0
 4331 08ba 4048     	 ldr r0,.L187+124
 4332 08bc 2249     	 ldr r1,.L187+8
 4333 08be 234A     	 ldr r2,.L187+12
 4334 08c0 FFF7FEFF 	 bl optiga_lib_print_message
 4335              	.LVL471:
 709:D:/School/diseratie/SEMS/xmc4800_evaluation_kit/optiga-trust-m/examples\optiga_shell.c ****     OPTIGA_SHELL_LOG_MESSAGE("3 Step: Generate auth code with optional data");
 4336              	 .loc 1 709 0
 4337 08c4 3E48     	 ldr r0,.L187+128
 4338 08c6 2049     	 ldr r1,.L187+8
 4339 08c8 204A     	 ldr r2,.L187+12
 4340 08ca FFF7FEFF 	 bl optiga_lib_print_message
 4341              	.LVL472:
 710:D:/School/diseratie/SEMS/xmc4800_evaluation_kit/optiga-trust-m/examples\optiga_shell.c ****     OPTIGA_SHELL_LOG_MESSAGE("4 Step: Calculate HMAC on host using mbedtls");
 4342              	 .loc 1 710 0
 4343 08ce 3D48     	 ldr r0,.L187+132
 4344 08d0 1D49     	 ldr r1,.L187+8
 4345 08d2 1E4A     	 ldr r2,.L187+12
 4346 08d4 FFF7FEFF 	 bl optiga_lib_print_message
 4347              	.LVL473:
 711:D:/School/diseratie/SEMS/xmc4800_evaluation_kit/optiga-trust-m/examples\optiga_shell.c ****     OPTIGA_SHELL_LOG_MESSAGE("5 Step: Perform HMAC verification");
 4348              	 .loc 1 711 0
 4349 08d8 3B48     	 ldr r0,.L187+136
 4350 08da 1B49     	 ldr r1,.L187+8
 4351 08dc 1B4A     	 ldr r2,.L187+12
 4352 08de FFF7FEFF 	 bl optiga_lib_print_message
 4353              	.LVL474:
 712:D:/School/diseratie/SEMS/xmc4800_evaluation_kit/optiga-trust-m/examples\optiga_shell.c ****     OPTIGA_SHELL_LOG_MESSAGE("6 Step: Perform clear auto state");
 4354              	 .loc 1 712 0
 4355 08e2 3A48     	 ldr r0,.L187+140
 4356 08e4 1849     	 ldr r1,.L187+8
 4357 08e6 194A     	 ldr r2,.L187+12
 4358 08e8 FFF7FEFF 	 bl optiga_lib_print_message
 4359              	.LVL475:
 713:D:/School/diseratie/SEMS/xmc4800_evaluation_kit/optiga-trust-m/examples\optiga_shell.c **** #ifndef OPTIGA_INIT_DEINIT_DONE_EXCLUSIVELY
 4360              	 .loc 1 713 0
 4361 08ec 3848     	 ldr r0,.L187+144
 4362 08ee 1649     	 ldr r1,.L187+8
 4363 08f0 164A     	 ldr r2,.L187+12
 4364 08f2 FFF7FEFF 	 bl optiga_lib_print_message
 4365              	.LVL476:
 715:D:/School/diseratie/SEMS/xmc4800_evaluation_kit/optiga-trust-m/examples\optiga_shell.c **** #endif
 4366              	 .loc 1 715 0
 4367 08f6 1449     	 ldr r1,.L187+8
 4368 08f8 144A     	 ldr r2,.L187+12
 4369 08fa 3648     	 ldr r0,.L187+148
 4370 08fc FFF7FEFF 	 bl optiga_lib_print_message
 4371              	.LVL477:
 717:D:/School/diseratie/SEMS/xmc4800_evaluation_kit/optiga-trust-m/examples\optiga_shell.c **** }
 4372              	 .loc 1 717 0
 4373 0900 FFF7FEFF 	 bl example_optiga_crypt_clear_auto_state
 4374              	.LVL478:
 4375              	.LBE268:
 4376              	.LBE267:
 724:D:/School/diseratie/SEMS/xmc4800_evaluation_kit/optiga-trust-m/examples\optiga_shell.c ****     pal_os_timer_delay_in_milliseconds(2000);
 4377              	 .loc 1 724 0
 4378 0904 0E48     	 ldr r0,.L187
 4379 0906 FFF7FEFF 	 bl optiga_lib_print_string_with_newline
 4380              	.LVL479:
 725:D:/School/diseratie/SEMS/xmc4800_evaluation_kit/optiga-trust-m/examples\optiga_shell.c **** }
 4381              	 .loc 1 725 0
 4382 090a 4FF4FA60 	 mov r0,#2000
 4383 090e FFF7FEFF 	 bl pal_os_timer_delay_in_milliseconds
 4384              	.LVL480:
 4385              	.LBE266:
 4386              	.LBE265:
 4387              	.LBB269:
 4388              	.LBB270:
 4389              	.LBB271:
 4390              	.LBB272:
 686:D:/School/diseratie/SEMS/xmc4800_evaluation_kit/optiga-trust-m/examples\optiga_shell.c **** #endif
 4391              	 .loc 1 686 0
 4392 0912 0C48     	 ldr r0,.L187+4
 4393 0914 0C49     	 ldr r1,.L187+8
 4394 0916 0D4A     	 ldr r2,.L187+12
 4395 0918 FFF7FEFF 	 bl optiga_lib_print_message
 4396              	.LVL481:
 688:D:/School/diseratie/SEMS/xmc4800_evaluation_kit/optiga-trust-m/examples\optiga_shell.c ****     OPTIGA_SHELL_LOG_MESSAGE("1 Step: Get the User Secret and store it in OID(0xF1D0)");
 4397              	 .loc 1 688 0
 4398 091c 2E48     	 ldr r0,.L187+152
 4399 091e 0A49     	 ldr r1,.L187+8
 4400 0920 0A4A     	 ldr r2,.L187+12
 4401 0922 FFF7FEFF 	 bl optiga_lib_print_message
 4402              	.LVL482:
 689:D:/School/diseratie/SEMS/xmc4800_evaluation_kit/optiga-trust-m/examples\optiga_shell.c ****     OPTIGA_SHELL_LOG_MESSAGE("2 Step: Set the metadata of 0xF1E0 to Auto with 0xF1D0");
 4403              	 .loc 1 689 0
 4404 0926 2D48     	 ldr r0,.L187+156
 4405 0928 0749     	 ldr r1,.L187+8
 4406 092a 084A     	 ldr r2,.L187+12
 4407 092c FFF7FEFF 	 bl optiga_lib_print_message
 4408              	.LVL483:
 690:D:/School/diseratie/SEMS/xmc4800_evaluation_kit/optiga-trust-m/examples\optiga_shell.c ****     OPTIGA_SHELL_LOG_MESSAGE("3 Step: Generate authorization code with optional data");
 4409              	 .loc 1 690 0
 4410 0930 2B48     	 ldr r0,.L187+160
 4411 0932 0549     	 ldr r1,.L187+8
 4412 0934 054A     	 ldr r2,.L187+12
 4413 0936 FFF7FEFF 	 bl optiga_lib_print_message
 4414              	.LVL484:
 691:D:/School/diseratie/SEMS/xmc4800_evaluation_kit/optiga-trust-m/examples\optiga_shell.c ****     OPTIGA_SHELL_LOG_MESSAGE("4 Step: Calculate HMAC on host using mbedtls");
 4415              	 .loc 1 691 0
 4416 093a 2A48     	 ldr r0,.L187+164
 4417 093c 54E0     	 b .L188
 4418              	.L189:
 4419 093e 00BF     	 .align 2
 4420              	.L187:
 4421 0940 30170000 	 .word .LC109
 4422 0944 00000000 	 .word .LC0
 4423 0948 34000000 	 .word .LC1
 4424 094c 48000000 	 .word .LC2
 4425 0950 24070000 	 .word .LC36
 4426 0954 5C070000 	 .word .LC37
 4427 0958 9C070000 	 .word .LC38
 4428 095c D8070000 	 .word .LC39
 4429 0960 00080000 	 .word .LC40
 4430 0964 4C080000 	 .word .LC41
 4431 0968 B0060000 	 .word .LC34
 4432 096c 88050000 	 .word .LC29
 4433 0970 F4060000 	 .word .LC35
 4434 0974 80060000 	 .word .LC33
 4435 0978 48040000 	 .word .LC23
 4436 097c 0C060000 	 .word .LC31
 4437 0980 50060000 	 .word .LC32
 4438 0984 50050000 	 .word .LC28
 4439 0988 DC050000 	 .word .LC30
 4440 098c 28050000 	 .word .LC27
 4441 0990 70040000 	 .word .LC24
 4442 0994 98040000 	 .word .LC25
 4443 0998 10050000 	 .word .LC26
 4444 099c 74030000 	 .word .LC19
 4445 09a0 A0030000 	 .word .LC20
 4446 09a4 E4030000 	 .word .LC21
 4447 09a8 34040000 	 .word .LC22
 4448 09ac D8020000 	 .word .LC16
 4449 09b0 08030000 	 .word .LC17
 4450 09b4 4C030000 	 .word .LC18
 4451 09b8 B0010000 	 .word .LC10
 4452 09bc D4010000 	 .word .LC11
 4453 09c0 24020000 	 .word .LC12
 4454 09c4 5C020000 	 .word .LC13
 4455 09c8 34010000 	 .word .LC7
 4456 09cc 64010000 	 .word .LC8
 4457 09d0 8C020000 	 .word .LC14
 4458 09d4 B0020000 	 .word .LC15
 4459 09d8 50000000 	 .word .LC3
 4460 09dc 8C000000 	 .word .LC4
 4461 09e0 C4000000 	 .word .LC5
 4462 09e4 FC000000 	 .word .LC6
 4463              	.L188:
 4464 09e8 1D49     	 ldr r1,.L190
 4465 09ea 1E4A     	 ldr r2,.L190+4
 4466 09ec FFF7FEFF 	 bl optiga_lib_print_message
 4467              	.LVL485:
 692:D:/School/diseratie/SEMS/xmc4800_evaluation_kit/optiga-trust-m/examples\optiga_shell.c ****     OPTIGA_SHELL_LOG_MESSAGE("5 Step: Perform HMAC verification");
 4468              	 .loc 1 692 0
 4469 09f0 1D48     	 ldr r0,.L190+8
 4470 09f2 1B49     	 ldr r1,.L190
 4471 09f4 1B4A     	 ldr r2,.L190+4
 4472 09f6 FFF7FEFF 	 bl optiga_lib_print_message
 4473              	.LVL486:
 693:D:/School/diseratie/SEMS/xmc4800_evaluation_kit/optiga-trust-m/examples\optiga_shell.c **** #ifndef OPTIGA_INIT_DEINIT_DONE_EXCLUSIVELY
 4474              	 .loc 1 693 0
 4475 09fa 1C48     	 ldr r0,.L190+12
 4476 09fc 1849     	 ldr r1,.L190
 4477 09fe 194A     	 ldr r2,.L190+4
 4478 0a00 FFF7FEFF 	 bl optiga_lib_print_message
 4479              	.LVL487:
 695:D:/School/diseratie/SEMS/xmc4800_evaluation_kit/optiga-trust-m/examples\optiga_shell.c **** #endif
 4480              	 .loc 1 695 0
 4481 0a04 1649     	 ldr r1,.L190
 4482 0a06 174A     	 ldr r2,.L190+4
 4483 0a08 1948     	 ldr r0,.L190+16
 4484 0a0a FFF7FEFF 	 bl optiga_lib_print_message
 4485              	.LVL488:
 697:D:/School/diseratie/SEMS/xmc4800_evaluation_kit/optiga-trust-m/examples\optiga_shell.c **** }
 4486              	 .loc 1 697 0
 4487 0a0e FFF7FEFF 	 bl example_optiga_hmac_verify_with_authorization_reference
 4488              	.LVL489:
 4489              	.LBE272:
 4490              	.LBE271:
 724:D:/School/diseratie/SEMS/xmc4800_evaluation_kit/optiga-trust-m/examples\optiga_shell.c ****     pal_os_timer_delay_in_milliseconds(2000);
 4491              	 .loc 1 724 0
 4492 0a12 1848     	 ldr r0,.L190+20
 4493 0a14 FFF7FEFF 	 bl optiga_lib_print_string_with_newline
 4494              	.LVL490:
 725:D:/School/diseratie/SEMS/xmc4800_evaluation_kit/optiga-trust-m/examples\optiga_shell.c **** }
 4495              	 .loc 1 725 0
 4496 0a18 4FF4FA60 	 mov r0,#2000
 4497 0a1c FFF7FEFF 	 bl pal_os_timer_delay_in_milliseconds
 4498              	.LVL491:
 4499              	.LBE270:
 4500              	.LBE269:
 804:D:/School/diseratie/SEMS/xmc4800_evaluation_kit/optiga-trust-m/examples\optiga_shell.c **** 
 4501              	 .loc 1 804 0
 4502 0a20 03B0     	 add sp,sp,#12
 4503              	.LCFI75:
 4504              	 .cfi_remember_state
 4505              	 .cfi_def_cfa_offset 20
 4506              	 
 4507 0a22 F0BD     	 pop {r4,r5,r6,r7,pc}
 4508              	.LVL492:
 4509              	.L172:
 4510              	.LCFI76:
 4511              	 .cfi_restore_state
 4512              	.LBB273:
 4513              	.LBB150:
 4514              	.LBB146:
 4515              	.LBB142:
 224:D:/School/diseratie/SEMS/xmc4800_evaluation_kit/optiga-trust-m/examples\optiga_shell.c ****         {
 4516              	 .loc 1 224 0
 4517 0a24 2388     	 ldrh r3,[r4]
 4518 0a26 144A     	 ldr r2,.L190+24
 4519 0a28 9BB2     	 uxth r3,r3
 4520 0a2a 012B     	 cmp r3,#1
 4521 0a2c FAD0     	 beq .L172
 229:D:/School/diseratie/SEMS/xmc4800_evaluation_kit/optiga-trust-m/examples\optiga_shell.c ****         {
 4522              	 .loc 1 229 0
 4523 0a2e 1488     	 ldrh r4,[r2]
 4524 0a30 A4B2     	 uxth r4,r4
 4525 0a32 5CB1     	 cbz r4,.L173
 231:D:/School/diseratie/SEMS/xmc4800_evaluation_kit/optiga-trust-m/examples\optiga_shell.c ****             //optiga util close application failed
 4526              	 .loc 1 231 0
 4527 0a34 1388     	 ldrh r3,[r2]
 4528 0a36 9BB2     	 uxth r3,r3
 4529              	.LVL493:
 244:D:/School/diseratie/SEMS/xmc4800_evaluation_kit/optiga-trust-m/examples\optiga_shell.c **** }
 4530              	 .loc 1 244 0
 4531 0a38 002B     	 cmp r3,#0
 4532 0a3a 7FF4FFAA 	 bne .L171
 4533              	.LVL494:
 4534              	.L174:
 4535 0a3e 0F49     	 ldr r1,.L190+28
 4536 0a40 019A     	 ldr r2,[sp,#4]
 4537 0a42 0F48     	 ldr r0,.L190+32
 4538 0a44 FFF7FEFF 	 bl sprintf
 4539              	.LVL495:
 4540 0a48 FFF7F8BA 	 b .L171
 4541              	.LVL496:
 4542              	.L173:
 236:D:/School/diseratie/SEMS/xmc4800_evaluation_kit/optiga-trust-m/examples\optiga_shell.c ****         
 4543              	 .loc 1 236 0
 4544 0a4c 2846     	 mov r0,r5
 4545              	.LVL497:
 4546 0a4e 2146     	 mov r1,r4
 4547 0a50 FFF7FEFF 	 bl example_performance_measurement
 4548              	.LVL498:
 240:D:/School/diseratie/SEMS/xmc4800_evaluation_kit/optiga-trust-m/examples\optiga_shell.c ****         me_util = NULL;
 4549              	 .loc 1 240 0
 4550 0a54 3868     	 ldr r0,[r7]
 4551 0a56 FFF7FEFF 	 bl optiga_util_destroy
 4552              	.LVL499:
 241:D:/School/diseratie/SEMS/xmc4800_evaluation_kit/optiga-trust-m/examples\optiga_shell.c ****     }while(FALSE);
 4553              	 .loc 1 241 0
 4554 0a5a 3C60     	 str r4,[r7]
 4555              	.LVL500:
 4556 0a5c EFE7     	 b .L174
 4557              	.L191:
 4558 0a5e 00BF     	 .align 2
 4559              	.L190:
 4560 0a60 34000000 	 .word .LC1
 4561 0a64 48000000 	 .word .LC2
 4562 0a68 34010000 	 .word .LC7
 4563 0a6c 64010000 	 .word .LC8
 4564 0a70 88010000 	 .word .LC9
 4565 0a74 30170000 	 .word .LC109
 4566 0a78 00000000 	 .word .LANCHOR0
 4567 0a7c 74160000 	 .word .LC104
 4568 0a80 00000000 	 .word performance_buffer_string
 4569              	.LBE142:
 4570              	.LBE146:
 4571              	.LBE150:
 4572              	.LBE273:
 4573              	 .cfi_endproc
 4574              	.LFE488:
 4576              	 .section .text.run_example,"ax",%progbits
 4577              	 .align 2
 4578              	 .global run_example
 4579              	 .thumb
 4580              	 .thumb_func
 4582              	run_example:
 4583              	.LFB487:
 722:D:/School/diseratie/SEMS/xmc4800_evaluation_kit/optiga-trust-m/examples\optiga_shell.c ****     test_case();  
 4584              	 .loc 1 722 0
 4585              	 .cfi_startproc
 4586              	 
 4587              	 
 4588              	.LVL501:
 4589 0000 08B5     	 push {r3,lr}
 4590              	.LCFI77:
 4591              	 .cfi_def_cfa_offset 8
 4592              	 .cfi_offset 3,-8
 4593              	 .cfi_offset 14,-4
 723:D:/School/diseratie/SEMS/xmc4800_evaluation_kit/optiga-trust-m/examples\optiga_shell.c ****     optiga_lib_print_string_with_newline(""); 
 4594              	 .loc 1 723 0
 4595 0002 8047     	 blx r0
 4596              	.LVL502:
 724:D:/School/diseratie/SEMS/xmc4800_evaluation_kit/optiga-trust-m/examples\optiga_shell.c ****     pal_os_timer_delay_in_milliseconds(2000);
 4597              	 .loc 1 724 0
 4598 0004 0448     	 ldr r0,.L194
 4599 0006 FFF7FEFF 	 bl optiga_lib_print_string_with_newline
 4600              	.LVL503:
 725:D:/School/diseratie/SEMS/xmc4800_evaluation_kit/optiga-trust-m/examples\optiga_shell.c **** }
 4601              	 .loc 1 725 0
 4602 000a 4FF4FA60 	 mov r0,#2000
 726:D:/School/diseratie/SEMS/xmc4800_evaluation_kit/optiga-trust-m/examples\optiga_shell.c **** 
 4603              	 .loc 1 726 0
 4604 000e BDE80840 	 pop {r3,lr}
 4605              	.LCFI78:
 4606              	 .cfi_restore 14
 4607              	 .cfi_restore 3
 4608              	 .cfi_def_cfa_offset 0
 725:D:/School/diseratie/SEMS/xmc4800_evaluation_kit/optiga-trust-m/examples\optiga_shell.c **** }
 4609              	 .loc 1 725 0
 4610 0012 FFF7FEBF 	 b pal_os_timer_delay_in_milliseconds
 4611              	.LVL504:
 4612              	.L195:
 4613 0016 00BF     	 .align 2
 4614              	.L194:
 4615 0018 30170000 	 .word .LC109
 4616              	 .cfi_endproc
 4617              	.LFE487:
 4619              	 .section .text.optiga_shell_begin,"ax",%progbits
 4620              	 .align 2
 4621              	 .global optiga_shell_begin
 4622              	 .thumb
 4623              	 .thumb_func
 4625              	optiga_shell_begin:
 4626              	.LFB493:
 907:D:/School/diseratie/SEMS/xmc4800_evaluation_kit/optiga-trust-m/examples\optiga_shell.c **** 
 908:D:/School/diseratie/SEMS/xmc4800_evaluation_kit/optiga-trust-m/examples\optiga_shell.c **** static void optiga_shell_trim_cmd(char_t * user_cmd)
 909:D:/School/diseratie/SEMS/xmc4800_evaluation_kit/optiga-trust-m/examples\optiga_shell.c **** {
 910:D:/School/diseratie/SEMS/xmc4800_evaluation_kit/optiga-trust-m/examples\optiga_shell.c ****     char_t* i = user_cmd;
 911:D:/School/diseratie/SEMS/xmc4800_evaluation_kit/optiga-trust-m/examples\optiga_shell.c ****     char_t* j = user_cmd;
 912:D:/School/diseratie/SEMS/xmc4800_evaluation_kit/optiga-trust-m/examples\optiga_shell.c ****     while(*j != 0)
 913:D:/School/diseratie/SEMS/xmc4800_evaluation_kit/optiga-trust-m/examples\optiga_shell.c ****     {
 914:D:/School/diseratie/SEMS/xmc4800_evaluation_kit/optiga-trust-m/examples\optiga_shell.c ****         *i = *j++;
 915:D:/School/diseratie/SEMS/xmc4800_evaluation_kit/optiga-trust-m/examples\optiga_shell.c ****         if(*i != ' ')
 916:D:/School/diseratie/SEMS/xmc4800_evaluation_kit/optiga-trust-m/examples\optiga_shell.c ****             i++;
 917:D:/School/diseratie/SEMS/xmc4800_evaluation_kit/optiga-trust-m/examples\optiga_shell.c ****     }
 918:D:/School/diseratie/SEMS/xmc4800_evaluation_kit/optiga-trust-m/examples\optiga_shell.c ****     *i = 0;
 919:D:/School/diseratie/SEMS/xmc4800_evaluation_kit/optiga-trust-m/examples\optiga_shell.c ****     if(strlen(user_cmd)>strlen("optiga --"))
 920:D:/School/diseratie/SEMS/xmc4800_evaluation_kit/optiga-trust-m/examples\optiga_shell.c ****     {
 921:D:/School/diseratie/SEMS/xmc4800_evaluation_kit/optiga-trust-m/examples\optiga_shell.c ****         strcpy(user_cmd,user_cmd+strlen("optiga --")-1);
 922:D:/School/diseratie/SEMS/xmc4800_evaluation_kit/optiga-trust-m/examples\optiga_shell.c ****     }
 923:D:/School/diseratie/SEMS/xmc4800_evaluation_kit/optiga-trust-m/examples\optiga_shell.c **** }
 924:D:/School/diseratie/SEMS/xmc4800_evaluation_kit/optiga-trust-m/examples\optiga_shell.c **** 
 925:D:/School/diseratie/SEMS/xmc4800_evaluation_kit/optiga-trust-m/examples\optiga_shell.c **** static void optiga_shell_execute_example(char_t * user_cmd)
 926:D:/School/diseratie/SEMS/xmc4800_evaluation_kit/optiga-trust-m/examples\optiga_shell.c **** {
 927:D:/School/diseratie/SEMS/xmc4800_evaluation_kit/optiga-trust-m/examples\optiga_shell.c ****     uint8_t number_of_cmds = OPTIGA_SIZE_OF_CMDS;
 928:D:/School/diseratie/SEMS/xmc4800_evaluation_kit/optiga-trust-m/examples\optiga_shell.c ****     uint8_t index,cmd_found = 0;
 929:D:/School/diseratie/SEMS/xmc4800_evaluation_kit/optiga-trust-m/examples\optiga_shell.c ****     char_t * optiga_cmd_option = "optiga --";
 930:D:/School/diseratie/SEMS/xmc4800_evaluation_kit/optiga-trust-m/examples\optiga_shell.c ****     optiga_example_cmd_t * current_cmd;
 931:D:/School/diseratie/SEMS/xmc4800_evaluation_kit/optiga-trust-m/examples\optiga_shell.c **** 
 932:D:/School/diseratie/SEMS/xmc4800_evaluation_kit/optiga-trust-m/examples\optiga_shell.c ****     
 933:D:/School/diseratie/SEMS/xmc4800_evaluation_kit/optiga-trust-m/examples\optiga_shell.c ****     do
 934:D:/School/diseratie/SEMS/xmc4800_evaluation_kit/optiga-trust-m/examples\optiga_shell.c ****     {
 935:D:/School/diseratie/SEMS/xmc4800_evaluation_kit/optiga-trust-m/examples\optiga_shell.c ****         if (0 != strncmp(user_cmd,optiga_cmd_option,9))
 936:D:/School/diseratie/SEMS/xmc4800_evaluation_kit/optiga-trust-m/examples\optiga_shell.c ****         {
 937:D:/School/diseratie/SEMS/xmc4800_evaluation_kit/optiga-trust-m/examples\optiga_shell.c ****             break;
 938:D:/School/diseratie/SEMS/xmc4800_evaluation_kit/optiga-trust-m/examples\optiga_shell.c ****         }
 939:D:/School/diseratie/SEMS/xmc4800_evaluation_kit/optiga-trust-m/examples\optiga_shell.c ****         optiga_shell_trim_cmd(user_cmd);
 940:D:/School/diseratie/SEMS/xmc4800_evaluation_kit/optiga-trust-m/examples\optiga_shell.c ****         for(index = 0; index < number_of_cmds; index++)
 941:D:/School/diseratie/SEMS/xmc4800_evaluation_kit/optiga-trust-m/examples\optiga_shell.c ****         {
 942:D:/School/diseratie/SEMS/xmc4800_evaluation_kit/optiga-trust-m/examples\optiga_shell.c ****             current_cmd = &optiga_cmds[index];
 943:D:/School/diseratie/SEMS/xmc4800_evaluation_kit/optiga-trust-m/examples\optiga_shell.c ****             if(0 == strcmp(user_cmd,current_cmd->cmd_options))
 944:D:/School/diseratie/SEMS/xmc4800_evaluation_kit/optiga-trust-m/examples\optiga_shell.c ****             {
 945:D:/School/diseratie/SEMS/xmc4800_evaluation_kit/optiga-trust-m/examples\optiga_shell.c ****                 if(NULL != current_cmd->cmd_handler)
 946:D:/School/diseratie/SEMS/xmc4800_evaluation_kit/optiga-trust-m/examples\optiga_shell.c ****                 {
 947:D:/School/diseratie/SEMS/xmc4800_evaluation_kit/optiga-trust-m/examples\optiga_shell.c ****                     current_cmd->cmd_handler();
 948:D:/School/diseratie/SEMS/xmc4800_evaluation_kit/optiga-trust-m/examples\optiga_shell.c ****                     optiga_lib_print_string_with_newline("");
 949:D:/School/diseratie/SEMS/xmc4800_evaluation_kit/optiga-trust-m/examples\optiga_shell.c ****                     cmd_found = 1;
 950:D:/School/diseratie/SEMS/xmc4800_evaluation_kit/optiga-trust-m/examples\optiga_shell.c ****                     break;
 951:D:/School/diseratie/SEMS/xmc4800_evaluation_kit/optiga-trust-m/examples\optiga_shell.c ****                 }
 952:D:/School/diseratie/SEMS/xmc4800_evaluation_kit/optiga-trust-m/examples\optiga_shell.c ****                 else
 953:D:/School/diseratie/SEMS/xmc4800_evaluation_kit/optiga-trust-m/examples\optiga_shell.c ****                 {
 954:D:/School/diseratie/SEMS/xmc4800_evaluation_kit/optiga-trust-m/examples\optiga_shell.c ****                     optiga_lib_print_string_with_newline("No example exists for this request");
 955:D:/School/diseratie/SEMS/xmc4800_evaluation_kit/optiga-trust-m/examples\optiga_shell.c ****                     break;
 956:D:/School/diseratie/SEMS/xmc4800_evaluation_kit/optiga-trust-m/examples\optiga_shell.c ****                 }
 957:D:/School/diseratie/SEMS/xmc4800_evaluation_kit/optiga-trust-m/examples\optiga_shell.c ****             }
 958:D:/School/diseratie/SEMS/xmc4800_evaluation_kit/optiga-trust-m/examples\optiga_shell.c ****         }
 959:D:/School/diseratie/SEMS/xmc4800_evaluation_kit/optiga-trust-m/examples\optiga_shell.c ****     } while (FALSE);
 960:D:/School/diseratie/SEMS/xmc4800_evaluation_kit/optiga-trust-m/examples\optiga_shell.c ****     if(!cmd_found)
 961:D:/School/diseratie/SEMS/xmc4800_evaluation_kit/optiga-trust-m/examples\optiga_shell.c ****     {
 962:D:/School/diseratie/SEMS/xmc4800_evaluation_kit/optiga-trust-m/examples\optiga_shell.c ****         optiga_lib_print_string_with_newline("");
 963:D:/School/diseratie/SEMS/xmc4800_evaluation_kit/optiga-trust-m/examples\optiga_shell.c ****         optiga_lib_print_string_with_newline("No example exists for this request chose below option
 964:D:/School/diseratie/SEMS/xmc4800_evaluation_kit/optiga-trust-m/examples\optiga_shell.c ****         optiga_shell_show_usage();
 965:D:/School/diseratie/SEMS/xmc4800_evaluation_kit/optiga-trust-m/examples\optiga_shell.c ****     }
 966:D:/School/diseratie/SEMS/xmc4800_evaluation_kit/optiga-trust-m/examples\optiga_shell.c **** 
 967:D:/School/diseratie/SEMS/xmc4800_evaluation_kit/optiga-trust-m/examples\optiga_shell.c **** }
 968:D:/School/diseratie/SEMS/xmc4800_evaluation_kit/optiga-trust-m/examples\optiga_shell.c **** 
 969:D:/School/diseratie/SEMS/xmc4800_evaluation_kit/optiga-trust-m/examples\optiga_shell.c **** static void optiga_shell_show_prompt()
 970:D:/School/diseratie/SEMS/xmc4800_evaluation_kit/optiga-trust-m/examples\optiga_shell.c **** {
 971:D:/School/diseratie/SEMS/xmc4800_evaluation_kit/optiga-trust-m/examples\optiga_shell.c ****     optiga_lib_print_string("$");
 972:D:/School/diseratie/SEMS/xmc4800_evaluation_kit/optiga-trust-m/examples\optiga_shell.c **** }
 973:D:/School/diseratie/SEMS/xmc4800_evaluation_kit/optiga-trust-m/examples\optiga_shell.c **** 
 974:D:/School/diseratie/SEMS/xmc4800_evaluation_kit/optiga-trust-m/examples\optiga_shell.c **** void optiga_shell_begin(void)
 975:D:/School/diseratie/SEMS/xmc4800_evaluation_kit/optiga-trust-m/examples\optiga_shell.c **** {
 4627              	 .loc 1 975 0
 4628              	 .cfi_startproc
 4629              	 
 4630              	 
 4631 0000 2DE9F041 	 push {r4,r5,r6,r7,r8,lr}
 4632              	.LCFI79:
 4633              	 .cfi_def_cfa_offset 24
 4634              	 .cfi_offset 4,-24
 4635              	 .cfi_offset 5,-20
 4636              	 .cfi_offset 6,-16
 4637              	 .cfi_offset 7,-12
 4638              	 .cfi_offset 8,-8
 4639              	 .cfi_offset 14,-4
 4640 0004 8EB0     	 sub sp,sp,#56
 4641              	.LCFI80:
 4642              	 .cfi_def_cfa_offset 80
 976:D:/School/diseratie/SEMS/xmc4800_evaluation_kit/optiga-trust-m/examples\optiga_shell.c ****     uint8_t ch = 0;
 4643              	 .loc 1 976 0
 4644 0006 0EAD     	 add r5,sp,#56
 4645              	.LBB286:
 4646              	.LBB287:
 971:D:/School/diseratie/SEMS/xmc4800_evaluation_kit/optiga-trust-m/examples\optiga_shell.c **** }
 4647              	 .loc 1 971 0
 4648 0008 4A48     	 ldr r0,.L228
 4649 000a 4B4F     	 ldr r7,.L228+4
 4650              	.LBE287:
 4651              	.LBE286:
 4652              	 .loc 1 976 0
 4653 000c 0024     	 movs r4,#0
 4654 000e 05F8354D 	 strb r4,[r5,#-53]!
 4655              	.LVL505:
 4656              	.LBB289:
 4657              	.LBB288:
 971:D:/School/diseratie/SEMS/xmc4800_evaluation_kit/optiga-trust-m/examples\optiga_shell.c **** }
 4658              	 .loc 1 971 0
 4659 0012 FFF7FEFF 	 bl optiga_lib_print_string
 4660              	.LVL506:
 4661              	.LBE288:
 4662              	.LBE289:
 977:D:/School/diseratie/SEMS/xmc4800_evaluation_kit/optiga-trust-m/examples\optiga_shell.c ****     char_t user_cmd[50];
 978:D:/School/diseratie/SEMS/xmc4800_evaluation_kit/optiga-trust-m/examples\optiga_shell.c ****     uint8_t index = 0;
 979:D:/School/diseratie/SEMS/xmc4800_evaluation_kit/optiga-trust-m/examples\optiga_shell.c **** 
 980:D:/School/diseratie/SEMS/xmc4800_evaluation_kit/optiga-trust-m/examples\optiga_shell.c ****     optiga_shell_show_prompt();
 981:D:/School/diseratie/SEMS/xmc4800_evaluation_kit/optiga-trust-m/examples\optiga_shell.c ****     optiga_shell_show_usage();
 4663              	 .loc 1 981 0
 4664 0016 FFF7FEFF 	 bl optiga_shell_show_usage
 4665              	.LVL507:
 4666              	.LBB290:
 4667              	.LBB291:
 971:D:/School/diseratie/SEMS/xmc4800_evaluation_kit/optiga-trust-m/examples\optiga_shell.c **** }
 4668              	 .loc 1 971 0
 4669 001a 4648     	 ldr r0,.L228
 4670 001c FFF7FEFF 	 bl optiga_lib_print_string
 4671              	.LVL508:
 4672 0020 07F5CC76 	 add r6,r7,#408
 4673              	.LVL509:
 4674              	.L198:
 4675              	.LBE291:
 4676              	.LBE290:
 982:D:/School/diseratie/SEMS/xmc4800_evaluation_kit/optiga-trust-m/examples\optiga_shell.c ****     optiga_shell_show_prompt();
 983:D:/School/diseratie/SEMS/xmc4800_evaluation_kit/optiga-trust-m/examples\optiga_shell.c **** 
 984:D:/School/diseratie/SEMS/xmc4800_evaluation_kit/optiga-trust-m/examples\optiga_shell.c ****     //lint --e{716} Suppress the infinite loop
 985:D:/School/diseratie/SEMS/xmc4800_evaluation_kit/optiga-trust-m/examples\optiga_shell.c ****     while(TRUE)
 986:D:/School/diseratie/SEMS/xmc4800_evaluation_kit/optiga-trust-m/examples\optiga_shell.c ****     {
 987:D:/School/diseratie/SEMS/xmc4800_evaluation_kit/optiga-trust-m/examples\optiga_shell.c ****         if (0 == pal_logger_read(&logger_console,&ch,1))
 4677              	 .loc 1 987 0
 4678 0024 4548     	 ldr r0,.L228+8
 4679 0026 2946     	 mov r1,r5
 4680 0028 0122     	 movs r2,#1
 4681 002a FFF7FEFF 	 bl pal_logger_read
 4682              	.LVL510:
 4683 002e 0028     	 cmp r0,#0
 4684 0030 F8D1     	 bne .L198
 988:D:/School/diseratie/SEMS/xmc4800_evaluation_kit/optiga-trust-m/examples\optiga_shell.c ****         {
 989:D:/School/diseratie/SEMS/xmc4800_evaluation_kit/optiga-trust-m/examples\optiga_shell.c **** 
 990:D:/School/diseratie/SEMS/xmc4800_evaluation_kit/optiga-trust-m/examples\optiga_shell.c ****             if(ch == 0x0d || ch == 0x0a)
 4685              	 .loc 1 990 0
 4686 0032 9DF80330 	 ldrb r3,[sp,#3]
 4687 0036 0D2B     	 cmp r3,#13
 4688 0038 0FD0     	 beq .L199
 4689              	 .loc 1 990 0 is_stmt 0 discriminator 1
 4690 003a 0A2B     	 cmp r3,#10
 4691 003c 0DD0     	 beq .L199
 991:D:/School/diseratie/SEMS/xmc4800_evaluation_kit/optiga-trust-m/examples\optiga_shell.c ****             {
 992:D:/School/diseratie/SEMS/xmc4800_evaluation_kit/optiga-trust-m/examples\optiga_shell.c ****                 user_cmd[index++] = 0;
 993:D:/School/diseratie/SEMS/xmc4800_evaluation_kit/optiga-trust-m/examples\optiga_shell.c ****                 index = 0;
 994:D:/School/diseratie/SEMS/xmc4800_evaluation_kit/optiga-trust-m/examples\optiga_shell.c ****                 optiga_lib_print_string_with_newline("");
 995:D:/School/diseratie/SEMS/xmc4800_evaluation_kit/optiga-trust-m/examples\optiga_shell.c ****                 //start cmd parsing
 996:D:/School/diseratie/SEMS/xmc4800_evaluation_kit/optiga-trust-m/examples\optiga_shell.c ****                 optiga_shell_execute_example((char_t * )user_cmd);
 997:D:/School/diseratie/SEMS/xmc4800_evaluation_kit/optiga-trust-m/examples\optiga_shell.c ****                 optiga_shell_show_prompt();
 998:D:/School/diseratie/SEMS/xmc4800_evaluation_kit/optiga-trust-m/examples\optiga_shell.c ****             }
 999:D:/School/diseratie/SEMS/xmc4800_evaluation_kit/optiga-trust-m/examples\optiga_shell.c ****             else
1000:D:/School/diseratie/SEMS/xmc4800_evaluation_kit/optiga-trust-m/examples\optiga_shell.c ****             {
1001:D:/School/diseratie/SEMS/xmc4800_evaluation_kit/optiga-trust-m/examples\optiga_shell.c ****                 //keep adding
1002:D:/School/diseratie/SEMS/xmc4800_evaluation_kit/optiga-trust-m/examples\optiga_shell.c ****                 //lint --e{534,713} The return value is not used hence not checked*/
1003:D:/School/diseratie/SEMS/xmc4800_evaluation_kit/optiga-trust-m/examples\optiga_shell.c ****                 pal_logger_write(&logger_console, &ch, 1);
 4692              	 .loc 1 1003 0 is_stmt 1
 4693 003e 0122     	 movs r2,#1
 4694 0040 3E48     	 ldr r0,.L228+8
 4695 0042 2946     	 mov r1,r5
 4696 0044 FFF7FEFF 	 bl pal_logger_write
 4697              	.LVL511:
1004:D:/School/diseratie/SEMS/xmc4800_evaluation_kit/optiga-trust-m/examples\optiga_shell.c ****                 user_cmd[index++] = ch;
 4698              	 .loc 1 1004 0
 4699 0048 0EAB     	 add r3,sp,#56
 4700 004a 2344     	 add r3,r3,r4
 4701 004c 9DF80320 	 ldrb r2,[sp,#3]
 4702 0050 03F8342C 	 strb r2,[r3,#-52]
 4703 0054 0134     	 adds r4,r4,#1
 4704              	.LVL512:
 4705 0056 E4B2     	 uxtb r4,r4
 4706 0058 E4E7     	 b .L198
 4707              	.LVL513:
 4708              	.L199:
 992:D:/School/diseratie/SEMS/xmc4800_evaluation_kit/optiga-trust-m/examples\optiga_shell.c ****                 index = 0;
 4709              	 .loc 1 992 0
 4710 005a 0EAB     	 add r3,sp,#56
 4711 005c 1C44     	 add r4,r4,r3
 4712              	.LVL514:
 994:D:/School/diseratie/SEMS/xmc4800_evaluation_kit/optiga-trust-m/examples\optiga_shell.c ****                 //start cmd parsing
 4713              	 .loc 1 994 0
 4714 005e 3848     	 ldr r0,.L228+12
 992:D:/School/diseratie/SEMS/xmc4800_evaluation_kit/optiga-trust-m/examples\optiga_shell.c ****                 index = 0;
 4715              	 .loc 1 992 0
 4716 0060 0023     	 movs r3,#0
 4717 0062 04F8343C 	 strb r3,[r4,#-52]
 4718              	.LVL515:
 994:D:/School/diseratie/SEMS/xmc4800_evaluation_kit/optiga-trust-m/examples\optiga_shell.c ****                 //start cmd parsing
 4719              	 .loc 1 994 0
 4720 0066 FFF7FEFF 	 bl optiga_lib_print_string_with_newline
 4721              	.LVL516:
 4722              	.LBB292:
 4723              	.LBB293:
 935:D:/School/diseratie/SEMS/xmc4800_evaluation_kit/optiga-trust-m/examples\optiga_shell.c ****         {
 4724              	 .loc 1 935 0
 4725 006a 01A8     	 add r0,sp,#4
 4726              	.LVL517:
 4727 006c 3549     	 ldr r1,.L228+16
 4728 006e 0922     	 movs r2,#9
 4729 0070 FFF7FEFF 	 bl strncmp
 4730              	.LVL518:
 4731 0074 28B3     	 cbz r0,.L227
 4732              	.L209:
 962:D:/School/diseratie/SEMS/xmc4800_evaluation_kit/optiga-trust-m/examples\optiga_shell.c ****         optiga_lib_print_string_with_newline("No example exists for this request chose below option
 4733              	 .loc 1 962 0
 4734 0076 3248     	 ldr r0,.L228+12
 4735 0078 2F4C     	 ldr r4,.L228+4
 4736 007a FFF7FEFF 	 bl optiga_lib_print_string_with_newline
 4737              	.LVL519:
 963:D:/School/diseratie/SEMS/xmc4800_evaluation_kit/optiga-trust-m/examples\optiga_shell.c ****         optiga_shell_show_usage();
 4738              	 .loc 1 963 0
 4739 007e 3248     	 ldr r0,.L228+20
 4740 0080 FFF7FEFF 	 bl optiga_lib_print_string_with_newline
 4741              	.LVL520:
 4742              	.LBB294:
 4743              	.LBB295:
 895:D:/School/diseratie/SEMS/xmc4800_evaluation_kit/optiga-trust-m/examples\optiga_shell.c ****     optiga_lib_print_string_with_newline("    usage                : optiga -<cmd>");
 4744              	 .loc 1 895 0
 4745 0084 2E48     	 ldr r0,.L228+12
 4746 0086 FFF7FEFF 	 bl optiga_lib_print_string_with_newline
 4747              	.LVL521:
 896:D:/School/diseratie/SEMS/xmc4800_evaluation_kit/optiga-trust-m/examples\optiga_shell.c ****     for(index = 0; index < number_of_cmds; index++)
 4748              	 .loc 1 896 0
 4749 008a 3048     	 ldr r0,.L228+24
 4750 008c FFF7FEFF 	 bl optiga_lib_print_string_with_newline
 4751              	.LVL522:
 4752 0090 02E0     	 b .L212
 4753              	.LVL523:
 4754              	.L211:
 4755 0092 0C34     	 adds r4,r4,#12
 897:D:/School/diseratie/SEMS/xmc4800_evaluation_kit/optiga-trust-m/examples\optiga_shell.c ****     {
 4756              	 .loc 1 897 0
 4757 0094 B442     	 cmp r4,r6
 4758 0096 0FD0     	 beq .L208
 4759              	.L212:
 900:D:/School/diseratie/SEMS/xmc4800_evaluation_kit/optiga-trust-m/examples\optiga_shell.c ****         {
 4760              	 .loc 1 900 0
 4761 0098 2D48     	 ldr r0,.L228+28
 4762 009a 6168     	 ldr r1,[r4,#4]
 4763 009c FFF7FEFF 	 bl strcmp
 4764              	.LVL524:
 4765 00a0 0028     	 cmp r0,#0
 4766 00a2 F6D0     	 beq .L211
 902:D:/School/diseratie/SEMS/xmc4800_evaluation_kit/optiga-trust-m/examples\optiga_shell.c ****             optiga_lib_print_string_with_newline(current_cmd->cmd_options);
 4767              	 .loc 1 902 0
 4768 00a4 2068     	 ldr r0,[r4]
 4769 00a6 FFF7FEFF 	 bl optiga_lib_print_string
 4770              	.LVL525:
 4771 00aa 0C34     	 adds r4,r4,#12
 903:D:/School/diseratie/SEMS/xmc4800_evaluation_kit/optiga-trust-m/examples\optiga_shell.c ****         }
 4772              	 .loc 1 903 0
 4773 00ac 54F8080C 	 ldr r0,[r4,#-8]
 4774 00b0 FFF7FEFF 	 bl optiga_lib_print_string_with_newline
 4775              	.LVL526:
 897:D:/School/diseratie/SEMS/xmc4800_evaluation_kit/optiga-trust-m/examples\optiga_shell.c ****     {
 4776              	 .loc 1 897 0
 4777 00b4 B442     	 cmp r4,r6
 4778 00b6 EFD1     	 bne .L212
 4779              	.L208:
 4780              	.LBE295:
 4781              	.LBE294:
 4782              	.LBE293:
 4783              	.LBE292:
 4784              	.LBB300:
 4785              	.LBB301:
 971:D:/School/diseratie/SEMS/xmc4800_evaluation_kit/optiga-trust-m/examples\optiga_shell.c **** }
 4786              	 .loc 1 971 0
 4787 00b8 1E48     	 ldr r0,.L228
 4788 00ba FFF7FEFF 	 bl optiga_lib_print_string
 4789              	.LVL527:
 4790              	.LBE301:
 4791              	.LBE300:
 993:D:/School/diseratie/SEMS/xmc4800_evaluation_kit/optiga-trust-m/examples\optiga_shell.c ****                 optiga_lib_print_string_with_newline("");
 4792              	 .loc 1 993 0
 4793 00be 0024     	 movs r4,#0
 4794 00c0 B0E7     	 b .L198
 4795              	.LVL528:
 4796              	.L227:
 4797 00c2 01A9     	 add r1,sp,#4
 4798              	.LVL529:
 4799              	.LBB303:
 4800              	.LBB298:
 935:D:/School/diseratie/SEMS/xmc4800_evaluation_kit/optiga-trust-m/examples\optiga_shell.c ****         {
 4801              	 .loc 1 935 0
 4802 00c4 0A46     	 mov r2,r1
 4803 00c6 03E0     	 b .L202
 4804              	.LVL530:
 4805              	.L204:
 4806              	.LBB296:
 4807              	.LBB297:
 915:D:/School/diseratie/SEMS/xmc4800_evaluation_kit/optiga-trust-m/examples\optiga_shell.c ****             i++;
 4808              	 .loc 1 915 0
 4809 00c8 202B     	 cmp r3,#32
 914:D:/School/diseratie/SEMS/xmc4800_evaluation_kit/optiga-trust-m/examples\optiga_shell.c ****         if(*i != ' ')
 4810              	 .loc 1 914 0
 4811 00ca 1370     	 strb r3,[r2]
 916:D:/School/diseratie/SEMS/xmc4800_evaluation_kit/optiga-trust-m/examples\optiga_shell.c ****     }
 4812              	 .loc 1 916 0
 4813 00cc 18BF     	 it ne
 4814 00ce 0132     	 addne r2,r2,#1
 4815              	.LVL531:
 4816              	.L202:
 912:D:/School/diseratie/SEMS/xmc4800_evaluation_kit/optiga-trust-m/examples\optiga_shell.c ****     {
 4817              	 .loc 1 912 0
 4818 00d0 11F8013B 	 ldrb r3,[r1],#1
 4819              	.LVL532:
 4820 00d4 002B     	 cmp r3,#0
 4821 00d6 F7D1     	 bne .L204
 919:D:/School/diseratie/SEMS/xmc4800_evaluation_kit/optiga-trust-m/examples\optiga_shell.c ****     {
 4822              	 .loc 1 919 0
 4823 00d8 01A8     	 add r0,sp,#4
 4824              	.LVL533:
 918:D:/School/diseratie/SEMS/xmc4800_evaluation_kit/optiga-trust-m/examples\optiga_shell.c ****     if(strlen(user_cmd)>strlen("optiga --"))
 4825              	 .loc 1 918 0
 4826 00da 1370     	 strb r3,[r2]
 919:D:/School/diseratie/SEMS/xmc4800_evaluation_kit/optiga-trust-m/examples\optiga_shell.c ****     {
 4827              	 .loc 1 919 0
 4828 00dc FFF7FEFF 	 bl strlen
 4829              	.LVL534:
 4830 00e0 0928     	 cmp r0,#9
 4831 00e2 03D9     	 bls .L205
 921:D:/School/diseratie/SEMS/xmc4800_evaluation_kit/optiga-trust-m/examples\optiga_shell.c ****     }
 4832              	 .loc 1 921 0
 4833 00e4 01A8     	 add r0,sp,#4
 4834              	.LVL535:
 4835 00e6 03A9     	 add r1,sp,#12
 4836 00e8 FFF7FEFF 	 bl strcpy
 4837              	.LVL536:
 4838              	.L205:
 4839 00ec DFF84880 	 ldr r8,.L228+4
 4840              	.LBE297:
 4841              	.LBE296:
 935:D:/School/diseratie/SEMS/xmc4800_evaluation_kit/optiga-trust-m/examples\optiga_shell.c ****         {
 4842              	 .loc 1 935 0
 4843 00f0 0024     	 movs r4,#0
 4844 00f2 02E0     	 b .L210
 4845              	.LVL537:
 4846              	.L206:
 4847 00f4 0134     	 adds r4,r4,#1
 4848              	.LVL538:
 940:D:/School/diseratie/SEMS/xmc4800_evaluation_kit/optiga-trust-m/examples\optiga_shell.c ****         {
 4849              	 .loc 1 940 0
 4850 00f6 222C     	 cmp r4,#34
 4851 00f8 BDD0     	 beq .L209
 4852              	.LVL539:
 4853              	.L210:
 943:D:/School/diseratie/SEMS/xmc4800_evaluation_kit/optiga-trust-m/examples\optiga_shell.c ****             {
 4854              	 .loc 1 943 0
 4855 00fa D8F80410 	 ldr r1,[r8,#4]
 4856 00fe 01A8     	 add r0,sp,#4
 4857              	.LVL540:
 4858 0100 FFF7FEFF 	 bl strcmp
 4859              	.LVL541:
 4860 0104 08F10C08 	 add r8,r8,#12
 4861 0108 0028     	 cmp r0,#0
 4862 010a F3D1     	 bne .L206
 945:D:/School/diseratie/SEMS/xmc4800_evaluation_kit/optiga-trust-m/examples\optiga_shell.c ****                 {
 4863              	 .loc 1 945 0
 4864 010c 04EB4404 	 add r4,r4,r4,lsl#1
 4865              	.LVL542:
 4866 0110 07EB8403 	 add r3,r7,r4,lsl#2
 4867 0114 9B68     	 ldr r3,[r3,#8]
 4868 0116 43B1     	 cbz r3,.L207
 947:D:/School/diseratie/SEMS/xmc4800_evaluation_kit/optiga-trust-m/examples\optiga_shell.c ****                     optiga_lib_print_string_with_newline("");
 4869              	 .loc 1 947 0
 4870 0118 9847     	 blx r3
 4871              	.LVL543:
 948:D:/School/diseratie/SEMS/xmc4800_evaluation_kit/optiga-trust-m/examples\optiga_shell.c ****                     cmd_found = 1;
 4872              	 .loc 1 948 0
 4873 011a 0948     	 ldr r0,.L228+12
 4874 011c FFF7FEFF 	 bl optiga_lib_print_string_with_newline
 4875              	.LVL544:
 4876              	.LBE298:
 4877              	.LBE303:
 4878              	.LBB304:
 4879              	.LBB302:
 971:D:/School/diseratie/SEMS/xmc4800_evaluation_kit/optiga-trust-m/examples\optiga_shell.c **** }
 4880              	 .loc 1 971 0
 4881 0120 0448     	 ldr r0,.L228
 4882 0122 FFF7FEFF 	 bl optiga_lib_print_string
 4883              	.LVL545:
 4884              	.LBE302:
 4885              	.LBE304:
 993:D:/School/diseratie/SEMS/xmc4800_evaluation_kit/optiga-trust-m/examples\optiga_shell.c ****                 optiga_lib_print_string_with_newline("");
 4886              	 .loc 1 993 0
 4887 0126 0024     	 movs r4,#0
 4888 0128 7CE7     	 b .L198
 4889              	.LVL546:
 4890              	.L207:
 4891              	.LBB305:
 4892              	.LBB299:
 954:D:/School/diseratie/SEMS/xmc4800_evaluation_kit/optiga-trust-m/examples\optiga_shell.c ****                     break;
 4893              	 .loc 1 954 0
 4894 012a 0A48     	 ldr r0,.L228+32
 4895 012c FFF7FEFF 	 bl optiga_lib_print_string_with_newline
 4896              	.LVL547:
 4897 0130 A1E7     	 b .L209
 4898              	.L229:
 4899 0132 00BF     	 .align 2
 4900              	.L228:
 4901 0134 68170000 	 .word .LC112
 4902 0138 00000000 	 .word .LANCHOR2
 4903 013c 00000000 	 .word logger_console
 4904 0140 30170000 	 .word .LC109
 4905 0144 6C170000 	 .word .LC113
 4906 0148 9C170000 	 .word .LC115
 4907 014c 34170000 	 .word .LC110
 4908 0150 60170000 	 .word .LC111
 4909 0154 78170000 	 .word .LC114
 4910              	.LBE299:
 4911              	.LBE305:
 4912              	 .cfi_endproc
 4913              	.LFE493:
 4915              	 .section .text.optiga_shell_wait_for_user,"ax",%progbits
 4916              	 .align 2
 4917              	 .global optiga_shell_wait_for_user
 4918              	 .thumb
 4919              	 .thumb_func
 4921              	optiga_shell_wait_for_user:
 4922              	.LFB494:
1005:D:/School/diseratie/SEMS/xmc4800_evaluation_kit/optiga-trust-m/examples\optiga_shell.c ****             }
1006:D:/School/diseratie/SEMS/xmc4800_evaluation_kit/optiga-trust-m/examples\optiga_shell.c ****         }
1007:D:/School/diseratie/SEMS/xmc4800_evaluation_kit/optiga-trust-m/examples\optiga_shell.c ****     }
1008:D:/School/diseratie/SEMS/xmc4800_evaluation_kit/optiga-trust-m/examples\optiga_shell.c **** }
1009:D:/School/diseratie/SEMS/xmc4800_evaluation_kit/optiga-trust-m/examples\optiga_shell.c **** 
1010:D:/School/diseratie/SEMS/xmc4800_evaluation_kit/optiga-trust-m/examples\optiga_shell.c **** void optiga_shell_wait_for_user(void)
1011:D:/School/diseratie/SEMS/xmc4800_evaluation_kit/optiga-trust-m/examples\optiga_shell.c **** {
 4923              	 .loc 1 1011 0
 4924              	 .cfi_startproc
 4925              	 
 4926              	 
 4927              	.LVL548:
 4928 0000 00B5     	 push {lr}
 4929              	.LCFI81:
 4930              	 .cfi_def_cfa_offset 4
 4931              	 .cfi_offset 14,-4
 4932 0002 83B0     	 sub sp,sp,#12
 4933              	.LCFI82:
 4934              	 .cfi_def_cfa_offset 16
1012:D:/School/diseratie/SEMS/xmc4800_evaluation_kit/optiga-trust-m/examples\optiga_shell.c ****     uint16_t bytes = 0;
1013:D:/School/diseratie/SEMS/xmc4800_evaluation_kit/optiga-trust-m/examples\optiga_shell.c ****     uint8_t ch = 0;
 4935              	 .loc 1 1013 0
 4936 0004 0023     	 movs r3,#0
 4937 0006 8DF80730 	 strb r3,[sp,#7]
 4938 000a 09E0     	 b .L232
 4939              	.LVL549:
 4940              	.L231:
1014:D:/School/diseratie/SEMS/xmc4800_evaluation_kit/optiga-trust-m/examples\optiga_shell.c ****     //lint --e{716} Suppress the infinite loop
1015:D:/School/diseratie/SEMS/xmc4800_evaluation_kit/optiga-trust-m/examples\optiga_shell.c ****     while(TRUE)
1016:D:/School/diseratie/SEMS/xmc4800_evaluation_kit/optiga-trust-m/examples\optiga_shell.c ****     {
1017:D:/School/diseratie/SEMS/xmc4800_evaluation_kit/optiga-trust-m/examples\optiga_shell.c ****         bytes = USBD_VCOM_BytesReceived();
1018:D:/School/diseratie/SEMS/xmc4800_evaluation_kit/optiga-trust-m/examples\optiga_shell.c ****         if (bytes)
1019:D:/School/diseratie/SEMS/xmc4800_evaluation_kit/optiga-trust-m/examples\optiga_shell.c ****         {
1020:D:/School/diseratie/SEMS/xmc4800_evaluation_kit/optiga-trust-m/examples\optiga_shell.c ****             //lint --e{534} The return value is not used hence not checked*/
1021:D:/School/diseratie/SEMS/xmc4800_evaluation_kit/optiga-trust-m/examples\optiga_shell.c ****             pal_logger_read(&logger_console,&ch,1);
1022:D:/School/diseratie/SEMS/xmc4800_evaluation_kit/optiga-trust-m/examples\optiga_shell.c ****             break;
1023:D:/School/diseratie/SEMS/xmc4800_evaluation_kit/optiga-trust-m/examples\optiga_shell.c ****         }
1024:D:/School/diseratie/SEMS/xmc4800_evaluation_kit/optiga-trust-m/examples\optiga_shell.c ****         else
1025:D:/School/diseratie/SEMS/xmc4800_evaluation_kit/optiga-trust-m/examples\optiga_shell.c ****         {
1026:D:/School/diseratie/SEMS/xmc4800_evaluation_kit/optiga-trust-m/examples\optiga_shell.c ****             optiga_lib_print_string_with_newline("Press any key to start optiga mini shell");
 4941              	 .loc 1 1026 0
 4942 000c 0B48     	 ldr r0,.L235
 4943              	.LVL550:
 4944 000e FFF7FEFF 	 bl optiga_lib_print_string_with_newline
 4945              	.LVL551:
1027:D:/School/diseratie/SEMS/xmc4800_evaluation_kit/optiga-trust-m/examples\optiga_shell.c ****             pal_os_timer_delay_in_milliseconds(2000);
 4946              	 .loc 1 1027 0
 4947 0012 4FF4FA60 	 mov r0,#2000
 4948 0016 FFF7FEFF 	 bl pal_os_timer_delay_in_milliseconds
 4949              	.LVL552:
1028:D:/School/diseratie/SEMS/xmc4800_evaluation_kit/optiga-trust-m/examples\optiga_shell.c ****         }
1029:D:/School/diseratie/SEMS/xmc4800_evaluation_kit/optiga-trust-m/examples\optiga_shell.c ****         bytes = 0;
1030:D:/School/diseratie/SEMS/xmc4800_evaluation_kit/optiga-trust-m/examples\optiga_shell.c ****         CDC_Device_USBTask(&USBD_VCOM_cdc_interface);
 4950              	 .loc 1 1030 0
 4951 001a 0948     	 ldr r0,.L235+4
 4952 001c FFF7FEFF 	 bl CDC_Device_USBTask
 4953              	.LVL553:
 4954              	.L232:
1017:D:/School/diseratie/SEMS/xmc4800_evaluation_kit/optiga-trust-m/examples\optiga_shell.c ****         if (bytes)
 4955              	 .loc 1 1017 0
 4956 0020 FFF7FEFF 	 bl USBD_VCOM_BytesReceived
 4957              	.LVL554:
1018:D:/School/diseratie/SEMS/xmc4800_evaluation_kit/optiga-trust-m/examples\optiga_shell.c ****         {
 4958              	 .loc 1 1018 0
 4959 0024 0028     	 cmp r0,#0
 4960 0026 F1D0     	 beq .L231
1021:D:/School/diseratie/SEMS/xmc4800_evaluation_kit/optiga-trust-m/examples\optiga_shell.c ****             break;
 4961              	 .loc 1 1021 0
 4962 0028 0DF10701 	 add r1,sp,#7
 4963 002c 0122     	 movs r2,#1
 4964 002e 0548     	 ldr r0,.L235+8
 4965              	.LVL555:
 4966 0030 FFF7FEFF 	 bl pal_logger_read
 4967              	.LVL556:
1031:D:/School/diseratie/SEMS/xmc4800_evaluation_kit/optiga-trust-m/examples\optiga_shell.c ****     }
1032:D:/School/diseratie/SEMS/xmc4800_evaluation_kit/optiga-trust-m/examples\optiga_shell.c **** }
 4968              	 .loc 1 1032 0
 4969 0034 03B0     	 add sp,sp,#12
 4970              	.LCFI83:
 4971              	 .cfi_def_cfa_offset 4
 4972              	 
 4973 0036 5DF804FB 	 ldr pc,[sp],#4
 4974              	.L236:
 4975 003a 00BF     	 .align 2
 4976              	.L235:
 4977 003c D4170000 	 .word .LC116
 4978 0040 00000000 	 .word USBD_VCOM_cdc_interface
 4979 0044 00000000 	 .word logger_console
 4980              	 .cfi_endproc
 4981              	.LFE494:
 4983              	 .global optiga_cmds
 4984              	 .global me_util
 4985              	 .section .data.optiga_cmds,"aw",%progbits
 4986              	 .align 2
 4987              	 .set .LANCHOR2,.+0
 4990              	optiga_cmds:
 4991 0000 30170000 	 .word .LC109
 4992 0004 60170000 	 .word .LC111
 4993 0008 00000000 	 .word optiga_shell_show_usage
 4994 000c 00180000 	 .word .LC117
 4995 0010 3C180000 	 .word .LC118
 4996 0014 00000000 	 .word optiga_shell_init
 4997 0018 44180000 	 .word .LC119
 4998 001c 80180000 	 .word .LC120
 4999 0020 00000000 	 .word optiga_shell_deinit
 5000 0024 88180000 	 .word .LC121
 5001 0028 C4180000 	 .word .LC122
 5002 002c 00000000 	 .word optiga_shell_selftest
 5003 0030 D0180000 	 .word .LC123
 5004 0034 0C190000 	 .word .LC124
 5005 0038 00000000 	 .word optiga_shell_util_read_data
 5006 003c 18190000 	 .word .LC125
 5007 0040 54190000 	 .word .LC126
 5008 0044 00000000 	 .word optiga_shell_util_write_data
 5009 0048 60190000 	 .word .LC127
 5010 004c 9C190000 	 .word .LC128
 5011 0050 00000000 	 .word optiga_shell_util_read_coprocessor_id
 5012 0054 A8190000 	 .word .LC129
 5013 0058 E4190000 	 .word .LC130
 5014 005c 00000000 	 .word optiga_shell_pair_host_optiga
 5015 0060 EC190000 	 .word .LC131
 5016 0064 281A0000 	 .word .LC132
 5017 0068 00000000 	 .word optiga_shell_util_hibernate_restore
 5018 006c 341A0000 	 .word .LC133
 5019 0070 701A0000 	 .word .LC134
 5020 0074 00000000 	 .word optiga_shell_util_update_count
 5021 0078 781A0000 	 .word .LC135
 5022 007c B41A0000 	 .word .LC136
 5023 0080 00000000 	 .word optiga_shell_util_protected_update
 5024 0084 C01A0000 	 .word .LC137
 5025 0088 FC1A0000 	 .word .LC138
 5026 008c 00000000 	 .word optiga_shell_crypt_hash
 5027 0090 041B0000 	 .word .LC139
 5028 0094 401B0000 	 .word .LC140
 5029 0098 00000000 	 .word optiga_shell_crypt_hash_data
 5030 009c 4C1B0000 	 .word .LC141
 5031 00a0 881B0000 	 .word .LC142
 5032 00a4 00000000 	 .word optiga_shell_crypt_tls_prf_sha256
 5033 00a8 8C1B0000 	 .word .LC143
 5034 00ac C81B0000 	 .word .LC144
 5035 00b0 00000000 	 .word optiga_shell_crypt_random
 5036 00b4 D01B0000 	 .word .LC145
 5037 00b8 0C1C0000 	 .word .LC146
 5038 00bc 00000000 	 .word optiga_shell_crypt_ecc_generate_keypair
 5039 00c0 181C0000 	 .word .LC147
 5040 00c4 541C0000 	 .word .LC148
 5041 00c8 00000000 	 .word optiga_shell_crypt_ecdsa_sign
 5042 00cc 601C0000 	 .word .LC149
 5043 00d0 9C1C0000 	 .word .LC150
 5044 00d4 00000000 	 .word optiga_shell_crypt_ecdsa_verify
 5045 00d8 A81C0000 	 .word .LC151
 5046 00dc E41C0000 	 .word .LC152
 5047 00e0 00000000 	 .word optiga_shell_crypt_ecdh
 5048 00e4 EC1C0000 	 .word .LC153
 5049 00e8 281D0000 	 .word .LC154
 5050 00ec 00000000 	 .word optiga_shell_crypt_rsa_generate_keypair
 5051 00f0 341D0000 	 .word .LC155
 5052 00f4 701D0000 	 .word .LC156
 5053 00f8 00000000 	 .word optiga_shell_crypt_rsa_sign
 5054 00fc 781D0000 	 .word .LC157
 5055 0100 B41D0000 	 .word .LC158
 5056 0104 00000000 	 .word optiga_shell_crypt_rsa_verify
 5057 0108 C01D0000 	 .word .LC159
 5058 010c FC1D0000 	 .word .LC160
 5059 0110 00000000 	 .word optiga_shell_crypt_rsa_encrypt_message
 5060 0114 081E0000 	 .word .LC161
 5061 0118 441E0000 	 .word .LC162
 5062 011c 00000000 	 .word optiga_shell_crypt_rsa_encrypt_session
 5063 0120 541E0000 	 .word .LC163
 5064 0124 901E0000 	 .word .LC164
 5065 0128 00000000 	 .word optiga_shell_crypt_rsa_decrypt_and_store
 5066 012c 9C1E0000 	 .word .LC165
 5067 0130 D81E0000 	 .word .LC166
 5068 0134 00000000 	 .word optiga_shell_crypt_rsa_decrypt_and_export
 5069 0138 E41E0000 	 .word .LC167
 5070 013c 201F0000 	 .word .LC168
 5071 0140 00000000 	 .word optiga_shell_crypt_symmetric_encrypt_decrypt_ecb
 5072 0144 2C1F0000 	 .word .LC169
 5073 0148 681F0000 	 .word .LC170
 5074 014c 00000000 	 .word optiga_shell_crypt_symmetric_encrypt_decrypt_cbc
 5075 0150 741F0000 	 .word .LC171
 5076 0154 B01F0000 	 .word .LC172
 5077 0158 00000000 	 .word optiga_shell_crypt_symmetric_encrypt_cbcmac
 5078 015c BC1F0000 	 .word .LC173
 5079 0160 F81F0000 	 .word .LC174
 5080 0164 00000000 	 .word optiga_shell_crypt_hmac
 5081 0168 00200000 	 .word .LC175
 5082 016c 3C200000 	 .word .LC176
 5083 0170 00000000 	 .word optiga_shell_crypt_hkdf
 5084 0174 44200000 	 .word .LC177
 5085 0178 80200000 	 .word .LC178
 5086 017c 00000000 	 .word optiga_shell_crypt_symmetric_generate_key
 5087 0180 8C200000 	 .word .LC179
 5088 0184 C8200000 	 .word .LC180
 5089 0188 00000000 	 .word optiga_shell_crypt_clear_auto_state
 5090 018c D8200000 	 .word .LC181
 5091 0190 14210000 	 .word .LC182
 5092 0194 00000000 	 .word optiga_shell_crypt_hmac_verify_with_authorization_reference
 5093              	 .section .rodata.str1.4,"aMS",%progbits,1
 5094              	 .align 2
 5095              	.LC0:
 5096 0000 496E6974 	 .ascii "Initializing OPTIGA for example demonstration...\000"
 5096      69616C69 
 5096      7A696E67 
 5096      204F5054 
 5096      49474120 
 5097 0031 000000   	 .space 3
 5098              	.LC1:
 5099 0034 5B6F7074 	 .ascii "[optiga shell]  : \000"
 5099      69676120 
 5099      7368656C 
 5099      6C5D2020 
 5099      3A2000
 5100 0047 00       	 .space 1
 5101              	.LC2:
 5102 0048 1B5B3932 	 .ascii "\033[92m\000"
 5102      6D00
 5103 004e 0000     	 .space 2
 5104              	.LC3:
 5105 0050 53746172 	 .ascii "Starting HMAC verify with authorization reference E"
 5105      74696E67 
 5105      20484D41 
 5105      43207665 
 5105      72696679 
 5106 0083 78616D70 	 .ascii "xample\000"
 5106      6C6500
 5107 008a 0000     	 .space 2
 5108              	.LC4:
 5109 008c 31205374 	 .ascii "1 Step: Get the User Secret and store it in OID(0xF"
 5109      65703A20 
 5109      47657420 
 5109      74686520 
 5109      55736572 
 5110 00bf 31443029 	 .ascii "1D0)\000"
 5110      00
 5111              	.LC5:
 5112 00c4 32205374 	 .ascii "2 Step: Set the metadata of 0xF1E0 to Auto with 0xF"
 5112      65703A20 
 5112      53657420 
 5112      74686520 
 5112      6D657461 
 5113 00f7 31443000 	 .ascii "1D0\000"
 5114 00fb 00       	 .space 1
 5115              	.LC6:
 5116 00fc 33205374 	 .ascii "3 Step: Generate authorization code with optional d"
 5116      65703A20 
 5116      47656E65 
 5116      72617465 
 5116      20617574 
 5117 012f 61746100 	 .ascii "ata\000"
 5118 0133 00       	 .space 1
 5119              	.LC7:
 5120 0134 34205374 	 .ascii "4 Step: Calculate HMAC on host using mbedtls\000"
 5120      65703A20 
 5120      43616C63 
 5120      756C6174 
 5120      6520484D 
 5121 0161 000000   	 .space 3
 5122              	.LC8:
 5123 0164 35205374 	 .ascii "5 Step: Perform HMAC verification\000"
 5123      65703A20 
 5123      50657266 
 5123      6F726D20 
 5123      484D4143 
 5124 0186 0000     	 .space 2
 5125              	.LC9:
 5126 0188 36205374 	 .ascii "6 Step: Close the application on OPTIGA\000"
 5126      65703A20 
 5126      436C6F73 
 5126      65207468 
 5126      65206170 
 5127              	.LC10:
 5128 01b0 53746172 	 .ascii "Starting clear auto state Example\000"
 5128      74696E67 
 5128      20636C65 
 5128      61722061 
 5128      75746F20 
 5129 01d2 0000     	 .space 2
 5130              	.LC11:
 5131 01d4 31205374 	 .ascii "1 Step: Change metadata of OID(0xF1D0) Data object "
 5131      65703A20 
 5131      4368616E 
 5131      6765206D 
 5131      65746164 
 5132 0207 74797065 	 .ascii "type  =  Pre-shared secret\000"
 5132      20203D20 
 5132      20507265 
 5132      2D736861 
 5132      72656420 
 5133 0222 0000     	 .space 2
 5134              	.LC12:
 5135 0224 32205374 	 .ascii "2 Step: Get the User Secret and store it in OID(0xF"
 5135      65703A20 
 5135      47657420 
 5135      74686520 
 5135      55736572 
 5136 0257 31443029 	 .ascii "1D0)\000"
 5136      00
 5137              	.LC13:
 5138 025c 33205374 	 .ascii "3 Step: Generate auth code with optional data\000"
 5138      65703A20 
 5138      47656E65 
 5138      72617465 
 5138      20617574 
 5139 028a 0000     	 .space 2
 5140              	.LC14:
 5141 028c 36205374 	 .ascii "6 Step: Perform clear auto state\000"
 5141      65703A20 
 5141      50657266 
 5141      6F726D20 
 5141      636C6561 
 5142 02ad 000000   	 .space 3
 5143              	.LC15:
 5144 02b0 37205374 	 .ascii "7 Step: Close the application on OPTIGA\000"
 5144      65703A20 
 5144      436C6F73 
 5144      65207468 
 5144      65206170 
 5145              	.LC16:
 5146 02d8 53746172 	 .ascii "Starting generation of symmetric AES-128 key\000"
 5146      74696E67 
 5146      2067656E 
 5146      65726174 
 5146      696F6E20 
 5147 0305 000000   	 .space 3
 5148              	.LC17:
 5149 0308 31205374 	 .ascii "1 Step: Generate symmetric AES-128 key and store it"
 5149      65703A20 
 5149      47656E65 
 5149      72617465 
 5149      2073796D 
 5150 033b 20696E20 	 .ascii " in OID(E200)\000"
 5150      4F494428 
 5150      45323030 
 5150      2900
 5151 0349 000000   	 .space 3
 5152              	.LC18:
 5153 034c 32205374 	 .ascii "2 Step: Close the application on OPTIGA\000"
 5153      65703A20 
 5153      436C6F73 
 5153      65207468 
 5153      65206170 
 5154              	.LC19:
 5155 0374 53746172 	 .ascii "Starting HKDF-SHA256 key derivation Example\000"
 5155      74696E67 
 5155      20484B44 
 5155      462D5348 
 5155      41323536 
 5156              	.LC20:
 5157 03a0 31205374 	 .ascii "1 Step: Write the shared secret to the Arbitrary da"
 5157      65703A20 
 5157      57726974 
 5157      65207468 
 5157      65207368 
 5158 03d3 7461206F 	 .ascii "ta object F1D0\000"
 5158      626A6563 
 5158      74204631 
 5158      443000
 5159 03e2 0000     	 .space 2
 5160              	.LC21:
 5161 03e4 32205374 	 .ascii "2 Step: Change metadata of OID(0xF1D0) Data object "
 5161      65703A20 
 5161      4368616E 
 5161      6765206D 
 5161      65746164 
 5162 0417 74797065 	 .ascii "type  =  Pre-shared secret\000"
 5162      20203D20 
 5162      20507265 
 5162      2D736861 
 5162      72656420 
 5163 0432 0000     	 .space 2
 5164              	.LC22:
 5165 0434 33205374 	 .ascii "3 Step: Derive HKDF\000"
 5165      65703A20 
 5165      44657269 
 5165      76652048 
 5165      4B444600 
 5166              	.LC23:
 5167 0448 34205374 	 .ascii "4 Step: Close the application on OPTIGA\000"
 5167      65703A20 
 5167      436C6F73 
 5167      65207468 
 5167      65206170 
 5168              	.LC24:
 5169 0470 53746172 	 .ascii "Starting HMAC-SHA256 generation Example\000"
 5169      74696E67 
 5169      20484D41 
 5169      432D5348 
 5169      41323536 
 5170              	.LC25:
 5171 0498 31205374 	 .ascii "1 Step: Change metadata for OID(0xF1D0) as Execute "
 5171      65703A20 
 5171      4368616E 
 5171      6765206D 
 5171      65746164 
 5172 04cb 61636365 	 .ascii "access condition = Always and Data object type  =  "
 5172      73732063 
 5172      6F6E6469 
 5172      74696F6E 
 5172      203D2041 
 5173 04fe 5072652D 	 .ascii "Pre-shared secret\000"
 5173      73686172 
 5173      65642073 
 5173      65637265 
 5173      7400
 5174              	.LC26:
 5175 0510 32205374 	 .ascii "2 Step: Generate HMAC\000"
 5175      65703A20 
 5175      47656E65 
 5175      72617465 
 5175      20484D41 
 5176 0526 0000     	 .space 2
 5177              	.LC27:
 5178 0528 33205374 	 .ascii "3 Step: Close the application on OPTIGA\000"
 5178      65703A20 
 5178      436C6F73 
 5178      65207468 
 5178      65206170 
 5179              	.LC28:
 5180 0550 53746172 	 .ascii "Starting symmetric Encrypt Data for CBCMAC mode Exa"
 5180      74696E67 
 5180      2073796D 
 5180      6D657472 
 5180      69632045 
 5181 0583 6D706C65 	 .ascii "mple\000"
 5181      00
 5182              	.LC29:
 5183 0588 31205374 	 .ascii "1 Step: Generate and store the AES 128 Symmetric ke"
 5183      65703A20 
 5183      47656E65 
 5183      72617465 
 5183      20616E64 
 5184 05bb 7920696E 	 .ascii "y in OPTIGA Key store OID(E200)\000"
 5184      204F5054 
 5184      49474120 
 5184      4B657920 
 5184      73746F72 
 5185 05db 00       	 .space 1
 5186              	.LC30:
 5187 05dc 32205374 	 .ascii "2 Step: Encrypt the plain data with CBCMAC mode\000"
 5187      65703A20 
 5187      456E6372 
 5187      79707420 
 5187      74686520 
 5188              	.LC31:
 5189 060c 53746172 	 .ascii "Starting symmetric Encrypt and Decrypt Data for CBC"
 5189      74696E67 
 5189      2073796D 
 5189      6D657472 
 5189      69632045 
 5190 063f 206D6F64 	 .ascii " mode Example\000"
 5190      65204578 
 5190      616D706C 
 5190      6500
 5191 064d 000000   	 .space 3
 5192              	.LC32:
 5193 0650 32205374 	 .ascii "2 Step: Encrypt the plain data with CBC mode\000"
 5193      65703A20 
 5193      456E6372 
 5193      79707420 
 5193      74686520 
 5194 067d 000000   	 .space 3
 5195              	.LC33:
 5196 0680 33205374 	 .ascii "3 Step: Decrypt the encrypted data from step 2\000"
 5196      65703A20 
 5196      44656372 
 5196      79707420 
 5196      74686520 
 5197 06af 00       	 .space 1
 5198              	.LC34:
 5199 06b0 53746172 	 .ascii "Starting symmetric Encrypt and Decrypt Data for ECB"
 5199      74696E67 
 5199      2073796D 
 5199      6D657472 
 5199      69632045 
 5200 06e3 206D6F64 	 .ascii " mode Example\000"
 5200      65204578 
 5200      616D706C 
 5200      6500
 5201 06f1 000000   	 .space 3
 5202              	.LC35:
 5203 06f4 32205374 	 .ascii "2 Step: Encrypt the plain data with ECB mode\000"
 5203      65703A20 
 5203      456E6372 
 5203      79707420 
 5203      74686520 
 5204 0721 000000   	 .space 3
 5205              	.LC36:
 5206 0724 53746172 	 .ascii "Starting Decrypt and Export Data with RSA Key Examp"
 5206      74696E67 
 5206      20446563 
 5206      72797074 
 5206      20616E64 
 5207 0757 6C6500   	 .ascii "le\000"
 5208 075a 0000     	 .space 2
 5209              	.LC37:
 5210 075c 31205374 	 .ascii "1 Step: Generate RSA 1024 Key Pair and export the p"
 5210      65703A20 
 5210      47656E65 
 5210      72617465 
 5210      20525341 
 5211 078f 75626C69 	 .ascii "ublic key\000"
 5211      63206B65 
 5211      7900
 5212 0799 000000   	 .space 3
 5213              	.LC38:
 5214 079c 32205374 	 .ascii "2 Step: Encrypt a message with RSAES PKCS#1 Ver1.5 "
 5214      65703A20 
 5214      456E6372 
 5214      79707420 
 5214      61206D65 
 5215 07cf 53636865 	 .ascii "Scheme\000"
 5215      6D6500
 5216 07d6 0000     	 .space 2
 5217              	.LC39:
 5218 07d8 33205374 	 .ascii "3 Step: Select Protected I2C Connection\000"
 5218      65703A20 
 5218      53656C65 
 5218      63742050 
 5218      726F7465 
 5219              	.LC40:
 5220 0800 34205374 	 .ascii "4 Step: Decrypt the message with RSAES PKCS#1 Ver1."
 5220      65703A20 
 5220      44656372 
 5220      79707420 
 5220      74686520 
 5221 0833 35205363 	 .ascii "5 Scheme and export it\000"
 5221      68656D65 
 5221      20616E64 
 5221      20657870 
 5221      6F727420 
 5222 084a 0000     	 .space 2
 5223              	.LC41:
 5224 084c 35205374 	 .ascii "5 Step: Close the application on OPTIGA\000"
 5224      65703A20 
 5224      436C6F73 
 5224      65207468 
 5224      65206170 
 5225              	.LC42:
 5226 0874 53746172 	 .ascii "Starting Decrypt and Store Data on the chip with RS"
 5226      74696E67 
 5226      20446563 
 5226      72797074 
 5226      20616E64 
 5227 08a7 41204B65 	 .ascii "A Key Example\000"
 5227      79204578 
 5227      616D706C 
 5227      6500
 5228 08b5 000000   	 .space 3
 5229              	.LC43:
 5230 08b8 32205374 	 .ascii "2 Step: Generate 70 bytes RSA Pre master secret whi"
 5230      65703A20 
 5230      47656E65 
 5230      72617465 
 5230      20373020 
 5231 08eb 63682069 	 .ascii "ch is stored in acquired session OID\000"
 5231      73207374 
 5231      6F726564 
 5231      20696E20 
 5231      61637175 
 5232              	.LC44:
 5233 0910 34205374 	 .ascii "4 Step: Encrypt Session Data with RSA Public Key\000"
 5233      65703A20 
 5233      456E6372 
 5233      79707420 
 5233      53657373 
 5234 0941 000000   	 .space 3
 5235              	.LC45:
 5236 0944 35205374 	 .ascii "5 Step: Decrypt the message with RSAES PKCS#1 Ver1."
 5236      65703A20 
 5236      44656372 
 5236      79707420 
 5236      74686520 
 5237 0977 35205363 	 .ascii "5 Scheme and store it on chip\000"
 5237      68656D65 
 5237      20616E64 
 5237      2073746F 
 5237      72652069 
 5238 0995 000000   	 .space 3
 5239              	.LC46:
 5240 0998 53746172 	 .ascii "Starting Encrypt Data in Session Object on chip wit"
 5240      74696E67 
 5240      20456E63 
 5240      72797074 
 5240      20446174 
 5241 09cb 68205253 	 .ascii "h RSA Key Example\000"
 5241      41204B65 
 5241      79204578 
 5241      616D706C 
 5241      6500
 5242 09dd 000000   	 .space 3
 5243              	.LC47:
 5244 09e0 31205374 	 .ascii "1 Step: Encrypt a message with RSAES PKCS#1 Ver1.5 "
 5244      65703A20 
 5244      456E6372 
 5244      79707420 
 5244      61206D65 
 5245 0a13 53636865 	 .ascii "Scheme stored on chip in Session Object\000"
 5245      6D652073 
 5245      746F7265 
 5245      64206F6E 
 5245      20636869 
 5246 0a3b 00       	 .space 1
 5247              	.LC48:
 5248 0a3c 53746172 	 .ascii "Starting Encrypt Data with RSA Key Example\000"
 5248      74696E67 
 5248      20456E63 
 5248      72797074 
 5248      20446174 
 5249 0a67 00       	 .space 1
 5250              	.LC49:
 5251 0a68 31205374 	 .ascii "1 Step: Encrypt a message with RSAES PKCS#1 Ver1.5 "
 5251      65703A20 
 5251      456E6372 
 5251      79707420 
 5251      61206D65 
 5252 0a9b 53636865 	 .ascii "Scheme\000"
 5252      6D6500
 5253 0aa2 0000     	 .space 2
 5254              	.LC50:
 5255 0aa4 53746172 	 .ascii "Starting signing example for PKCS#1 Ver1.5 SHA256 S"
 5255      74696E67 
 5255      20736967 
 5255      6E696E67 
 5255      20657861 
 5256 0ad7 69676E61 	 .ascii "ignature scheme (RSA)\000"
 5256      74757265 
 5256      20736368 
 5256      656D6520 
 5256      28525341 
 5257 0aed 000000   	 .space 3
 5258              	.LC51:
 5259 0af0 31205374 	 .ascii "1 Step: Verify prepared signature, with prepared pu"
 5259      65703A20 
 5259      56657269 
 5259      66792070 
 5259      72657061 
 5260 0b23 626C6963 	 .ascii "blic key and digest\000"
 5260      206B6579 
 5260      20616E64 
 5260      20646967 
 5260      65737400 
 5261 0b37 00       	 .space 1
 5262              	.LC52:
 5263 0b38 31205374 	 .ascii "1 Step: Sign prepared Data and export the signature"
 5263      65703A20 
 5263      5369676E 
 5263      20707265 
 5263      70617265 
 5264 0b6b 00       	 .ascii "\000"
 5265              	.LC53:
 5266 0b6c 53746172 	 .ascii "Starting generate RSA Key Example\000"
 5266      74696E67 
 5266      2067656E 
 5266      65726174 
 5266      65205253 
 5267 0b8e 0000     	 .space 2
 5268              	.LC54:
 5269 0b90 53746172 	 .ascii "Starting Elliptic-curve Diffie\342\200\223Hellman ("
 5269      74696E67 
 5269      20456C6C 
 5269      69707469 
 5269      632D6375 
 5270 0bba 45434448 	 .ascii "ECDH) Key Agreement Protocol Example\000"
 5270      29204B65 
 5270      79204167 
 5270      7265656D 
 5270      656E7420 
 5271 0bdf 00       	 .space 1
 5272              	.LC55:
 5273 0be0 31205374 	 .ascii "1 Step: Select Protected I2C Connection\000"
 5273      65703A20 
 5273      53656C65 
 5273      63742050 
 5273      726F7465 
 5274              	.LC56:
 5275 0c08 32205374 	 .ascii "2 Step: Generate new ECC NIST P-256 Key Pair\000"
 5275      65703A20 
 5275      47656E65 
 5275      72617465 
 5275      206E6577 
 5276 0c35 000000   	 .space 3
 5277              	.LC57:
 5278 0c38 34205374 	 .ascii "4 Step: Generate Shared Secret and export it\000"
 5278      65703A20 
 5278      47656E65 
 5278      72617465 
 5278      20536861 
 5279 0c65 000000   	 .space 3
 5280              	.LC58:
 5281 0c68 53746172 	 .ascii "Starting verification example for Elliptic-curve Di"
 5281      74696E67 
 5281      20766572 
 5281      69666963 
 5281      6174696F 
 5282 0c9b 67697461 	 .ascii "gital Signature Algorithm (ECDSA)\000"
 5282      6C205369 
 5282      676E6174 
 5282      75726520 
 5282      416C676F 
 5283 0cbd 000000   	 .space 3
 5284              	.LC59:
 5285 0cc0 53746172 	 .ascii "Starting signing example for Elliptic-curve Digital"
 5285      74696E67 
 5285      20736967 
 5285      6E696E67 
 5285      20657861 
 5286 0cf3 20536967 	 .ascii " Signature Algorithm (ECDSA)\000"
 5286      6E617475 
 5286      72652041 
 5286      6C676F72 
 5286      6974686D 
 5287              	.LC60:
 5288 0d10 53746172 	 .ascii "Starting generate ECC Key Example\000"
 5288      74696E67 
 5288      2067656E 
 5288      65726174 
 5288      65204543 
 5289 0d32 0000     	 .space 2
 5290              	.LC61:
 5291 0d34 31205374 	 .ascii "1 Step: Generate ECC NIST P-256 Key Pair and export"
 5291      65703A20 
 5291      47656E65 
 5291      72617465 
 5291      20454343 
 5292 0d67 20746865 	 .ascii " the public key\000"
 5292      20707562 
 5292      6C696320 
 5292      6B657900 
 5293 0d77 00       	 .space 1
 5294              	.LC62:
 5295 0d78 53746172 	 .ascii "Starting Generate Random Example\000"
 5295      74696E67 
 5295      2047656E 
 5295      65726174 
 5295      65205261 
 5296 0d99 000000   	 .space 3
 5297              	.LC63:
 5298 0d9c 31205374 	 .ascii "1 Step: Generate 32 bytes random\000"
 5298      65703A20 
 5298      47656E65 
 5298      72617465 
 5298      20333220 
 5299 0dbd 000000   	 .space 3
 5300              	.LC64:
 5301 0dc0 53746172 	 .ascii "Starting TLS PRF SHA256 (Key Deriviation) Example\000"
 5301      74696E67 
 5301      20544C53 
 5301      20505246 
 5301      20534841 
 5302 0df2 0000     	 .space 2
 5303              	.LC65:
 5304 0df4 31205374 	 .ascii "1 Step: Write prepared Shared Secret into an Arbitr"
 5304      65703A20 
 5304      57726974 
 5304      65207072 
 5304      65706172 
 5305 0e27 61727920 	 .ascii "ary Data Object\000"
 5305      44617461 
 5305      204F626A 
 5305      65637400 
 5306 0e37 00       	 .space 1
 5307              	.LC66:
 5308 0e38 32205374 	 .ascii "2 Step: Update Metadata of the Object to use the Ar"
 5308      65703A20 
 5308      55706461 
 5308      7465204D 
 5308      65746164 
 5309 0e6b 62697472 	 .ascii "bitrary Data Object only via Shielded I2C Connectio"
 5309      61727920 
 5309      44617461 
 5309      204F626A 
 5309      65637420 
 5310 0e9e 6E00     	 .ascii "n\000"
 5311              	.LC67:
 5312 0ea0 33205374 	 .ascii "3 Step: Generate Shared Secret using the Shared Sec"
 5312      65703A20 
 5312      47656E65 
 5312      72617465 
 5312      20536861 
 5313 0ed3 72657420 	 .ascii "ret from the Arbitrary Data Object\000"
 5313      66726F6D 
 5313      20746865 
 5313      20417262 
 5313      69747261 
 5314 0ef6 0000     	 .space 2
 5315              	.LC68:
 5316 0ef8 34205374 	 .ascii "4 Step: Restore Metadata of the Arbitrary Data Obje"
 5316      65703A20 
 5316      52657374 
 5316      6F726520 
 5316      4D657461 
 5317 0f2b 637400   	 .ascii "ct\000"
 5318 0f2e 0000     	 .space 2
 5319              	.LC69:
 5320 0f30 53746172 	 .ascii "Starting generation of digest Example\000"
 5320      74696E67 
 5320      2067656E 
 5320      65726174 
 5320      696F6E20 
 5321 0f56 0000     	 .space 2
 5322              	.LC70:
 5323 0f58 31205374 	 .ascii "1 Step: Generate hash of given user data \000"
 5323      65703A20 
 5323      47656E65 
 5323      72617465 
 5323      20686173 
 5324 0f82 0000     	 .space 2
 5325              	.LC71:
 5326 0f84 53746172 	 .ascii "Starting Hash Example\000"
 5326      74696E67 
 5326      20486173 
 5326      68204578 
 5326      616D706C 
 5327 0f9a 0000     	 .space 2
 5328              	.LC72:
 5329 0f9c 31205374 	 .ascii "1 Step: Hash given data with Start, Update and Fina"
 5329      65703A20 
 5329      48617368 
 5329      20676976 
 5329      656E2064 
 5330 0fcf 6C697A65 	 .ascii "lize calls\000"
 5330      2063616C 
 5330      6C7300
 5331 0fda 0000     	 .space 2
 5332              	.LC73:
 5333 0fdc 53746172 	 .ascii "Starting Protected Update Example\000"
 5333      74696E67 
 5333      2050726F 
 5333      74656374 
 5333      65642055 
 5334 0ffe 0000     	 .space 2
 5335              	.LC74:
 5336 1000 31205374 	 .ascii "1 Step: Update Metadata for the Object to be update"
 5336      65703A20 
 5336      55706461 
 5336      7465204D 
 5336      65746164 
 5337 1033 6420616E 	 .ascii "d and the Trust Anchor used to verify the update\000"
 5337      64207468 
 5337      65205472 
 5337      75737420 
 5337      416E6368 
 5338              	.LC75:
 5339 1064 32205374 	 .ascii "2 Step: Write Trust Anchor used by the Trust M to v"
 5339      65703A20 
 5339      57726974 
 5339      65205472 
 5339      75737420 
 5340 1097 65726966 	 .ascii "erify the update\000"
 5340      79207468 
 5340      65207570 
 5340      64617465 
 5340      00
 5341              	.LC76:
 5342 10a8 33205374 	 .ascii "3 Step: Start Protected update with prepared manife"
 5342      65703A20 
 5342      53746172 
 5342      74205072 
 5342      6F746563 
 5343 10db 73742061 	 .ascii "st and fragments\000"
 5343      6E642066 
 5343      7261676D 
 5343      656E7473 
 5343      00
 5344              	.LC77:
 5345 10ec 53746172 	 .ascii "Starting Update Counter Example\000"
 5345      74696E67 
 5345      20557064 
 5345      61746520 
 5345      436F756E 
 5346              	.LC78:
 5347 110c 31205374 	 .ascii "1 Step: Write Initial Counter Value\000"
 5347      65703A20 
 5347      57726974 
 5347      6520496E 
 5347      69746961 
 5348              	.LC79:
 5349 1130 32205374 	 .ascii "2 Step: Increase Counter Object\000"
 5349      65703A20 
 5349      496E6372 
 5349      65617365 
 5349      20436F75 
 5350              	.LC80:
 5351 1150 53746172 	 .ascii "Starting Hibernate and Restore Example\000"
 5351      74696E67 
 5351      20486962 
 5351      65726E61 
 5351      74652061 
 5352 1177 00       	 .space 1
 5353              	.LC81:
 5354 1178 31205374 	 .ascii "1 Step: Open Application on the security chip\000"
 5354      65703A20 
 5354      4F70656E 
 5354      20417070 
 5354      6C696361 
 5355 11a6 0000     	 .space 2
 5356              	.LC82:
 5357 11a8 32205374 	 .ascii "2 Step: Pair the host and the security chip\000"
 5357      65703A20 
 5357      50616972 
 5357      20746865 
 5357      20686F73 
 5358              	.LC83:
 5359 11d4 34205374 	 .ascii "4 Step: Generate ECC NIST P-256 Key pair and store "
 5359      65703A20 
 5359      47656E65 
 5359      72617465 
 5359      20454343 
 5360 1207 69742069 	 .ascii "it in Session Data Object, export the public key\000"
 5360      6E205365 
 5360      7373696F 
 5360      6E204461 
 5360      7461204F 
 5361              	.LC84:
 5362 1238 35205374 	 .ascii "5 Step: Check Security Event Counter and wait till "
 5362      65703A20 
 5362      43686563 
 5362      6B205365 
 5362      63757269 
 5363 126b 69742072 	 .ascii "it reaches 0\000"
 5363      65616368 
 5363      65732030 
 5363      00
 5364              	.LC85:
 5365 1278 36205374 	 .ascii "6 Step: Perform Close application with Hibernate pa"
 5365      65703A20 
 5365      50657266 
 5365      6F726D20 
 5365      436C6F73 
 5366 12ab 72616D65 	 .ascii "rameter set to True\000"
 5366      74657220 
 5366      73657420 
 5366      746F2054 
 5366      72756500 
 5367 12bf 00       	 .space 1
 5368              	.LC86:
 5369 12c0 37205374 	 .ascii "7 Step: Open Application on the security chip\000"
 5369      65703A20 
 5369      4F70656E 
 5369      20417070 
 5369      6C696361 
 5370 12ee 0000     	 .space 2
 5371              	.LC87:
 5372 12f0 38205374 	 .ascii "8 Step: Sign prepared data with private key stored "
 5372      65703A20 
 5372      5369676E 
 5372      20707265 
 5372      70617265 
 5373 1323 696E2053 	 .ascii "in Session Data Object\000"
 5373      65737369 
 5373      6F6E2044 
 5373      61746120 
 5373      4F626A65 
 5374 133a 0000     	 .space 2
 5375              	.LC88:
 5376 133c 39205374 	 .ascii "9 Step: Verify the signature with the public key ge"
 5376      65703A20 
 5376      56657269 
 5376      66792074 
 5376      68652073 
 5377 136f 6E657261 	 .ascii "nerated previously\000"
 5377      74656420 
 5377      70726576 
 5377      696F7573 
 5377      6C7900
 5378 1382 0000     	 .space 2
 5379              	.LC89:
 5380 1384 31302053 	 .ascii "10 Step: Close Applicaiton on the chip\000"
 5380      7465703A 
 5380      20436C6F 
 5380      73652041 
 5380      70706C69 
 5381 13ab 00       	 .space 1
 5382              	.LC90:
 5383 13ac 496D706F 	 .ascii "Important note: To continue with other examples you"
 5383      7274616E 
 5383      74206E6F 
 5383      74653A20 
 5383      546F2063 
 5384 13df 206E6565 	 .ascii " need to call the init parameter once again\000"
 5384      6420746F 
 5384      2063616C 
 5384      6C207468 
 5384      6520696E 
 5385 140b 00       	 .space 1
 5386              	.LC91:
 5387 140c 53746172 	 .ascii "Starting Pairing of Host and Trust M Example\000"
 5387      74696E67 
 5387      20506169 
 5387      72696E67 
 5387      206F6620 
 5388 1439 000000   	 .space 3
 5389              	.LC92:
 5390 143c 31205374 	 .ascii "1 Step: Read and Check existing Metadata for the Bi"
 5390      65703A20 
 5390      52656164 
 5390      20616E64 
 5390      20436865 
 5391 146f 6E64696E 	 .ascii "nding Secret\000"
 5391      67205365 
 5391      63726574 
 5391      00
 5392              	.LC93:
 5393 147c 32205374 	 .ascii "2 Step: Generate Random for the new Binding Secret\000"
 5393      65703A20 
 5393      47656E65 
 5393      72617465 
 5393      2052616E 
 5394 14af 00       	 .space 1
 5395              	.LC94:
 5396 14b0 33205374 	 .ascii "3 Step: Write new Binding Secret\000"
 5396      65703A20 
 5396      57726974 
 5396      65206E65 
 5396      77204269 
 5397 14d1 000000   	 .space 3
 5398              	.LC95:
 5399 14d4 34205374 	 .ascii "4 Step: Store new Binding Secret on the Host\000"
 5399      65703A20 
 5399      53746F72 
 5399      65206E65 
 5399      77204269 
 5400 1501 000000   	 .space 3
 5401              	.LC96:
 5402 1504 53746172 	 .ascii "Starting reading of Coprocessor ID and displaying i"
 5402      74696E67 
 5402      20726561 
 5402      64696E67 
 5402      206F6620 
 5403 1537 74277320 	 .ascii "t's individual components Example\000"
 5403      696E6469 
 5403      76696475 
 5403      616C2063 
 5403      6F6D706F 
 5404 1559 000000   	 .space 3
 5405              	.LC97:
 5406 155c 31205374 	 .ascii "1 Step: Read Coprocessor UID from OID(0xE0C2) \000"
 5406      65703A20 
 5406      52656164 
 5406      20436F70 
 5406      726F6365 
 5407 158b 00       	 .space 1
 5408              	.LC98:
 5409 158c 53746172 	 .ascii "Starting Write Data/Metadata Example\000"
 5409      74696E67 
 5409      20577269 
 5409      74652044 
 5409      6174612F 
 5410 15b1 000000   	 .space 3
 5411              	.LC99:
 5412 15b4 31205374 	 .ascii "1 Step: Write Sample Certificate in Trust Anchor Da"
 5412      65703A20 
 5412      57726974 
 5412      65205361 
 5412      6D706C65 
 5413 15e7 7461204F 	 .ascii "ta Object \000"
 5413      626A6563 
 5413      742000
 5414 15f2 0000     	 .space 2
 5415              	.LC100:
 5416 15f4 32205374 	 .ascii "2 Step: Write new Metadata\000"
 5416      65703A20 
 5416      57726974 
 5416      65206E65 
 5416      77204D65 
 5417 160f 00       	 .space 1
 5418              	.LC101:
 5419 1610 53746172 	 .ascii "Starting Read Data/Metadata Example\000"
 5419      74696E67 
 5419      20526561 
 5419      64204461 
 5419      74612F4D 
 5420              	.LC102:
 5421 1634 31205374 	 .ascii "1 Step: Read Certificate \000"
 5421      65703A20 
 5421      52656164 
 5421      20436572 
 5421      74696669 
 5422 164e 0000     	 .space 2
 5423              	.LC103:
 5424 1650 32205374 	 .ascii "2 Step: Read Certificate Metadata\000"
 5424      65703A20 
 5424      52656164 
 5424      20436572 
 5424      74696669 
 5425 1672 0000     	 .space 2
 5426              	.LC104:
 5427 1674 4578616D 	 .ascii "Example takes %d msec\000"
 5427      706C6520 
 5427      74616B65 
 5427      73202564 
 5427      206D7365 
 5428 168a 0000     	 .space 2
 5429              	.LC105:
 5430 168c 496E6974 	 .ascii "Initializing OPTIGA completed...\012\012\000"
 5430      69616C69 
 5430      7A696E67 
 5430      204F5054 
 5430      49474120 
 5431 16af 00       	 .space 1
 5432              	.LC106:
 5433 16b0 50616972 	 .ascii "Pairing of host and OPTIGA completed...\000"
 5433      696E6720 
 5433      6F662068 
 5433      6F737420 
 5433      616E6420 
 5434              	.LC107:
 5435 16d8 53657474 	 .ascii "Setting current limitation to maximum...\000"
 5435      696E6720 
 5435      63757272 
 5435      656E7420 
 5435      6C696D69 
 5436 1701 000000   	 .space 3
 5437              	.LC108:
 5438 1704 53746172 	 .ascii "Starting OPTIGA example demonstration..\012\000"
 5438      74696E67 
 5438      204F5054 
 5438      49474120 
 5438      6578616D 
 5439 172d 000000   	 .space 3
 5440              	.LC109:
 5441 1730 00       	 .ascii "\000"
 5442 1731 000000   	 .space 3
 5443              	.LC110:
 5444 1734 20202020 	 .ascii "    usage                : optiga -<cmd>\000"
 5444      75736167 
 5444      65202020 
 5444      20202020 
 5444      20202020 
 5445 175d 000000   	 .space 3
 5446              	.LC111:
 5447 1760 68656C70 	 .ascii "help\000"
 5447      00
 5448 1765 000000   	 .space 3
 5449              	.LC112:
 5450 1768 2400     	 .ascii "$\000"
 5451 176a 0000     	 .space 2
 5452              	.LC113:
 5453 176c 6F707469 	 .ascii "optiga --\000"
 5453      6761202D 
 5453      2D00
 5454 1776 0000     	 .space 2
 5455              	.LC114:
 5456 1778 4E6F2065 	 .ascii "No example exists for this request\000"
 5456      78616D70 
 5456      6C652065 
 5456      78697374 
 5456      7320666F 
 5457 179b 00       	 .space 1
 5458              	.LC115:
 5459 179c 4E6F2065 	 .ascii "No example exists for this request chose below opti"
 5459      78616D70 
 5459      6C652065 
 5459      78697374 
 5459      7320666F 
 5460 17cf 6F6E7300 	 .ascii "ons\000"
 5461 17d3 00       	 .space 1
 5462              	.LC116:
 5463 17d4 50726573 	 .ascii "Press any key to start optiga mini shell\000"
 5463      7320616E 
 5463      79206B65 
 5463      7920746F 
 5463      20737461 
 5464 17fd 000000   	 .space 3
 5465              	.LC117:
 5466 1800 20202020 	 .ascii "    initialize optiga                        : opti"
 5466      696E6974 
 5466      69616C69 
 5466      7A65206F 
 5466      70746967 
 5467 1833 6761202D 	 .ascii "ga --\000"
 5467      2D00
 5468 1839 000000   	 .space 3
 5469              	.LC118:
 5470 183c 696E6974 	 .ascii "init\000"
 5470      00
 5471 1841 000000   	 .space 3
 5472              	.LC119:
 5473 1844 20202020 	 .ascii "    de-initialize optiga                     : opti"
 5473      64652D69 
 5473      6E697469 
 5473      616C697A 
 5473      65206F70 
 5474 1877 6761202D 	 .ascii "ga --\000"
 5474      2D00
 5475 187d 000000   	 .space 3
 5476              	.LC120:
 5477 1880 6465696E 	 .ascii "deinit\000"
 5477      697400
 5478 1887 00       	 .space 1
 5479              	.LC121:
 5480 1888 20202020 	 .ascii "    run all tests at once                    : opti"
 5480      72756E20 
 5480      616C6C20 
 5480      74657374 
 5480      73206174 
 5481 18bb 6761202D 	 .ascii "ga --\000"
 5481      2D00
 5482 18c1 000000   	 .space 3
 5483              	.LC122:
 5484 18c4 73656C66 	 .ascii "selftest\000"
 5484      74657374 
 5484      00
 5485 18cd 000000   	 .space 3
 5486              	.LC123:
 5487 18d0 20202020 	 .ascii "    read data                                : opti"
 5487      72656164 
 5487      20646174 
 5487      61202020 
 5487      20202020 
 5488 1903 6761202D 	 .ascii "ga --\000"
 5488      2D00
 5489 1909 000000   	 .space 3
 5490              	.LC124:
 5491 190c 72656164 	 .ascii "readdata\000"
 5491      64617461 
 5491      00
 5492 1915 000000   	 .space 3
 5493              	.LC125:
 5494 1918 20202020 	 .ascii "    write data                               : opti"
 5494      77726974 
 5494      65206461 
 5494      74612020 
 5494      20202020 
 5495 194b 6761202D 	 .ascii "ga --\000"
 5495      2D00
 5496 1951 000000   	 .space 3
 5497              	.LC126:
 5498 1954 77726974 	 .ascii "writedata\000"
 5498      65646174 
 5498      6100
 5499 195e 0000     	 .space 2
 5500              	.LC127:
 5501 1960 20202020 	 .ascii "    read coprocessor id                      : opti"
 5501      72656164 
 5501      20636F70 
 5501      726F6365 
 5501      73736F72 
 5502 1993 6761202D 	 .ascii "ga --\000"
 5502      2D00
 5503 1999 000000   	 .space 3
 5504              	.LC128:
 5505 199c 636F7072 	 .ascii "coprocid\000"
 5505      6F636964 
 5505      00
 5506 19a5 000000   	 .space 3
 5507              	.LC129:
 5508 19a8 20202020 	 .ascii "    binding host with optiga                 : opti"
 5508      62696E64 
 5508      696E6720 
 5508      686F7374 
 5508      20776974 
 5509 19db 6761202D 	 .ascii "ga --\000"
 5509      2D00
 5510 19e1 000000   	 .space 3
 5511              	.LC130:
 5512 19e4 62696E64 	 .ascii "bind\000"
 5512      00
 5513 19e9 000000   	 .space 3
 5514              	.LC131:
 5515 19ec 20202020 	 .ascii "    hibernate and restore                    : opti"
 5515      68696265 
 5515      726E6174 
 5515      6520616E 
 5515      64207265 
 5516 1a1f 6761202D 	 .ascii "ga --\000"
 5516      2D00
 5517 1a25 000000   	 .space 3
 5518              	.LC132:
 5519 1a28 68696265 	 .ascii "hibernate\000"
 5519      726E6174 
 5519      6500
 5520 1a32 0000     	 .space 2
 5521              	.LC133:
 5522 1a34 20202020 	 .ascii "    update counter                           : opti"
 5522      75706461 
 5522      74652063 
 5522      6F756E74 
 5522      65722020 
 5523 1a67 6761202D 	 .ascii "ga --\000"
 5523      2D00
 5524 1a6d 000000   	 .space 3
 5525              	.LC134:
 5526 1a70 636F756E 	 .ascii "counter\000"
 5526      74657200 
 5527              	.LC135:
 5528 1a78 20202020 	 .ascii "    protected update                         : opti"
 5528      70726F74 
 5528      65637465 
 5528      64207570 
 5528      64617465 
 5529 1aab 6761202D 	 .ascii "ga --\000"
 5529      2D00
 5530 1ab1 000000   	 .space 3
 5531              	.LC136:
 5532 1ab4 70726F74 	 .ascii "protected\000"
 5532      65637465 
 5532      6400
 5533 1abe 0000     	 .space 2
 5534              	.LC137:
 5535 1ac0 20202020 	 .ascii "    hashing of data                          : opti"
 5535      68617368 
 5535      696E6720 
 5535      6F662064 
 5535      61746120 
 5536 1af3 6761202D 	 .ascii "ga --\000"
 5536      2D00
 5537 1af9 000000   	 .space 3
 5538              	.LC138:
 5539 1afc 68617368 	 .ascii "hash\000"
 5539      00
 5540 1b01 000000   	 .space 3
 5541              	.LC139:
 5542 1b04 20202020 	 .ascii "    hash single function                     : opti"
 5542      68617368 
 5542      2073696E 
 5542      676C6520 
 5542      66756E63 
 5543 1b37 6761202D 	 .ascii "ga --\000"
 5543      2D00
 5544 1b3d 000000   	 .space 3
 5545              	.LC140:
 5546 1b40 68617368 	 .ascii "hashsha256\000"
 5546      73686132 
 5546      353600
 5547 1b4b 00       	 .space 1
 5548              	.LC141:
 5549 1b4c 20202020 	 .ascii "    tls prf sha256                           : opti"
 5549      746C7320 
 5549      70726620 
 5549      73686132 
 5549      35362020 
 5550 1b7f 6761202D 	 .ascii "ga --\000"
 5550      2D00
 5551 1b85 000000   	 .space 3
 5552              	.LC142:
 5553 1b88 70726600 	 .ascii "prf\000"
 5554              	.LC143:
 5555 1b8c 20202020 	 .ascii "    random number generation                 : opti"
 5555      72616E64 
 5555      6F6D206E 
 5555      756D6265 
 5555      72206765 
 5556 1bbf 6761202D 	 .ascii "ga --\000"
 5556      2D00
 5557 1bc5 000000   	 .space 3
 5558              	.LC144:
 5559 1bc8 72616E64 	 .ascii "random\000"
 5559      6F6D00
 5560 1bcf 00       	 .space 1
 5561              	.LC145:
 5562 1bd0 20202020 	 .ascii "    ecc key pair generation                  : opti"
 5562      65636320 
 5562      6B657920 
 5562      70616972 
 5562      2067656E 
 5563 1c03 6761202D 	 .ascii "ga --\000"
 5563      2D00
 5564 1c09 000000   	 .space 3
 5565              	.LC146:
 5566 1c0c 6563636B 	 .ascii "ecckeygen\000"
 5566      65796765 
 5566      6E00
 5567 1c16 0000     	 .space 2
 5568              	.LC147:
 5569 1c18 20202020 	 .ascii "    ecdsa sign                               : opti"
 5569      65636473 
 5569      61207369 
 5569      676E2020 
 5569      20202020 
 5570 1c4b 6761202D 	 .ascii "ga --\000"
 5570      2D00
 5571 1c51 000000   	 .space 3
 5572              	.LC148:
 5573 1c54 65636473 	 .ascii "ecdsasign\000"
 5573      61736967 
 5573      6E00
 5574 1c5e 0000     	 .space 2
 5575              	.LC149:
 5576 1c60 20202020 	 .ascii "    ecdsa verify sign                        : opti"
 5576      65636473 
 5576      61207665 
 5576      72696679 
 5576      20736967 
 5577 1c93 6761202D 	 .ascii "ga --\000"
 5577      2D00
 5578 1c99 000000   	 .space 3
 5579              	.LC150:
 5580 1c9c 65636473 	 .ascii "ecdsaverify\000"
 5580      61766572 
 5580      69667900 
 5581              	.LC151:
 5582 1ca8 20202020 	 .ascii "    ecc diffie hellman                       : opti"
 5582      65636320 
 5582      64696666 
 5582      69652068 
 5582      656C6C6D 
 5583 1cdb 6761202D 	 .ascii "ga --\000"
 5583      2D00
 5584 1ce1 000000   	 .space 3
 5585              	.LC152:
 5586 1ce4 65636468 	 .ascii "ecdh\000"
 5586      00
 5587 1ce9 000000   	 .space 3
 5588              	.LC153:
 5589 1cec 20202020 	 .ascii "    rsa key pair generation                  : opti"
 5589      72736120 
 5589      6B657920 
 5589      70616972 
 5589      2067656E 
 5590 1d1f 6761202D 	 .ascii "ga --\000"
 5590      2D00
 5591 1d25 000000   	 .space 3
 5592              	.LC154:
 5593 1d28 7273616B 	 .ascii "rsakeygen\000"
 5593      65796765 
 5593      6E00
 5594 1d32 0000     	 .space 2
 5595              	.LC155:
 5596 1d34 20202020 	 .ascii "    rsa sign                                 : opti"
 5596      72736120 
 5596      7369676E 
 5596      20202020 
 5596      20202020 
 5597 1d67 6761202D 	 .ascii "ga --\000"
 5597      2D00
 5598 1d6d 000000   	 .space 3
 5599              	.LC156:
 5600 1d70 72736173 	 .ascii "rsasign\000"
 5600      69676E00 
 5601              	.LC157:
 5602 1d78 20202020 	 .ascii "    rsa verify sign                          : opti"
 5602      72736120 
 5602      76657269 
 5602      66792073 
 5602      69676E20 
 5603 1dab 6761202D 	 .ascii "ga --\000"
 5603      2D00
 5604 1db1 000000   	 .space 3
 5605              	.LC158:
 5606 1db4 72736176 	 .ascii "rsaverify\000"
 5606      65726966 
 5606      7900
 5607 1dbe 0000     	 .space 2
 5608              	.LC159:
 5609 1dc0 20202020 	 .ascii "    rsa encrypt message                      : opti"
 5609      72736120 
 5609      656E6372 
 5609      79707420 
 5609      6D657373 
 5610 1df3 6761202D 	 .ascii "ga --\000"
 5610      2D00
 5611 1df9 000000   	 .space 3
 5612              	.LC160:
 5613 1dfc 72736165 	 .ascii "rsaencmsg\000"
 5613      6E636D73 
 5613      6700
 5614 1e06 0000     	 .space 2
 5615              	.LC161:
 5616 1e08 20202020 	 .ascii "    rsa encrypt session                      : opti"
 5616      72736120 
 5616      656E6372 
 5616      79707420 
 5616      73657373 
 5617 1e3b 6761202D 	 .ascii "ga --\000"
 5617      2D00
 5618 1e41 000000   	 .space 3
 5619              	.LC162:
 5620 1e44 72736165 	 .ascii "rsaencsession\000"
 5620      6E637365 
 5620      7373696F 
 5620      6E00
 5621 1e52 0000     	 .space 2
 5622              	.LC163:
 5623 1e54 20202020 	 .ascii "    rsa decrypt and store                    : opti"
 5623      72736120 
 5623      64656372 
 5623      79707420 
 5623      616E6420 
 5624 1e87 6761202D 	 .ascii "ga --\000"
 5624      2D00
 5625 1e8d 000000   	 .space 3
 5626              	.LC164:
 5627 1e90 72736164 	 .ascii "rsadecstore\000"
 5627      65637374 
 5627      6F726500 
 5628              	.LC165:
 5629 1e9c 20202020 	 .ascii "    rsa decrypt and export                   : opti"
 5629      72736120 
 5629      64656372 
 5629      79707420 
 5629      616E6420 
 5630 1ecf 6761202D 	 .ascii "ga --\000"
 5630      2D00
 5631 1ed5 000000   	 .space 3
 5632              	.LC166:
 5633 1ed8 72736164 	 .ascii "rsadecexp\000"
 5633      65636578 
 5633      7000
 5634 1ee2 0000     	 .space 2
 5635              	.LC167:
 5636 1ee4 20202020 	 .ascii "    symmetric ecb encrypt and decrypt        : opti"
 5636      73796D6D 
 5636      65747269 
 5636      63206563 
 5636      6220656E 
 5637 1f17 6761202D 	 .ascii "ga --\000"
 5637      2D00
 5638 1f1d 000000   	 .space 3
 5639              	.LC168:
 5640 1f20 65636265 	 .ascii "ecbencdec\000"
 5640      6E636465 
 5640      6300
 5641 1f2a 0000     	 .space 2
 5642              	.LC169:
 5643 1f2c 20202020 	 .ascii "    symmetric cbc encrypt and decrypt        : opti"
 5643      73796D6D 
 5643      65747269 
 5643      63206362 
 5643      6320656E 
 5644 1f5f 6761202D 	 .ascii "ga --\000"
 5644      2D00
 5645 1f65 000000   	 .space 3
 5646              	.LC170:
 5647 1f68 63626365 	 .ascii "cbcencdec\000"
 5647      6E636465 
 5647      6300
 5648 1f72 0000     	 .space 2
 5649              	.LC171:
 5650 1f74 20202020 	 .ascii "    symmetric cbcmac encrypt                 : opti"
 5650      73796D6D 
 5650      65747269 
 5650      63206362 
 5650      636D6163 
 5651 1fa7 6761202D 	 .ascii "ga --\000"
 5651      2D00
 5652 1fad 000000   	 .space 3
 5653              	.LC172:
 5654 1fb0 6362636D 	 .ascii "cbcmacenc\000"
 5654      6163656E 
 5654      6300
 5655 1fba 0000     	 .space 2
 5656              	.LC173:
 5657 1fbc 20202020 	 .ascii "    hmac-sha256 generation                   : opti"
 5657      686D6163 
 5657      2D736861 
 5657      32353620 
 5657      67656E65 
 5658 1fef 6761202D 	 .ascii "ga --\000"
 5658      2D00
 5659 1ff5 000000   	 .space 3
 5660              	.LC174:
 5661 1ff8 686D6163 	 .ascii "hmac\000"
 5661      00
 5662 1ffd 000000   	 .space 3
 5663              	.LC175:
 5664 2000 20202020 	 .ascii "    hkdf-sha256 key derivation               : opti"
 5664      686B6466 
 5664      2D736861 
 5664      32353620 
 5664      6B657920 
 5665 2033 6761202D 	 .ascii "ga --\000"
 5665      2D00
 5666 2039 000000   	 .space 3
 5667              	.LC176:
 5668 203c 686B6466 	 .ascii "hkdf\000"
 5668      00
 5669 2041 000000   	 .space 3
 5670              	.LC177:
 5671 2044 20202020 	 .ascii "    generate symmetric aes-128 key           : opti"
 5671      67656E65 
 5671      72617465 
 5671      2073796D 
 5671      6D657472 
 5672 2077 6761202D 	 .ascii "ga --\000"
 5672      2D00
 5673 207d 000000   	 .space 3
 5674              	.LC178:
 5675 2080 6165736B 	 .ascii "aeskeygen\000"
 5675      65796765 
 5675      6E00
 5676 208a 0000     	 .space 2
 5677              	.LC179:
 5678 208c 20202020 	 .ascii "    clear auto state                         : opti"
 5678      636C6561 
 5678      72206175 
 5678      746F2073 
 5678      74617465 
 5679 20bf 6761202D 	 .ascii "ga --\000"
 5679      2D00
 5680 20c5 000000   	 .space 3
 5681              	.LC180:
 5682 20c8 636C7261 	 .ascii "clrautostate\000"
 5682      75746F73 
 5682      74617465 
 5682      00
 5683 20d5 000000   	 .space 3
 5684              	.LC181:
 5685 20d8 20202020 	 .ascii "    hmac verify                              : opti"
 5685      686D6163 
 5685      20766572 
 5685      69667920 
 5685      20202020 
 5686 210b 6761202D 	 .ascii "ga --\000"
 5686      2D00
 5687 2111 000000   	 .space 3
 5688              	.LC182:
 5689 2114 686D6163 	 .ascii "hmacverify\000"
 5689      76657269 
 5689      667900
 5690 211f 00       	 .section .bss.me_util,"aw",%nobits
 5691              	 .align 2
 5692              	 .set .LANCHOR1,.+0
 5695              	me_util:
 5696 0000 00000000 	 .space 4
 5697              	 .section .bss.optiga_lib_status,"aw",%nobits
 5698              	 .align 1
 5699              	 .set .LANCHOR0,.+0
 5702              	optiga_lib_status:
 5703 0000 0000     	 .space 2
 5704              	 .text
 5705              	.Letext0:
 5706              	 .file 2 "c:\\infineon\\tools\\dave ide\\4.5.0.202105191637\\eclipse\\arm-gcc-49\\lib\\gcc\\arm-none-eabi\\4.9.3\\include\\stddef.h"
 5707              	 .file 3 "c:\\infineon\\tools\\dave ide\\4.5.0.202105191637\\eclipse\\arm-gcc-49\\arm-none-eabi\\include\\machine\\_default_types.h"
 5708              	 .file 4 "c:\\infineon\\tools\\dave ide\\4.5.0.202105191637\\eclipse\\arm-gcc-49\\arm-none-eabi\\include\\stdint.h"
 5709              	 .file 5 "D:/School/diseratie/SEMS/xmc4800_evaluation_kit/xmc4800_iot_kit/common/Libraries/CMSIS/Infineon/XMC4800_series/Include/XMC4800.h"
 5710              	 .file 6 "D:/School/diseratie/SEMS/xmc4800_evaluation_kit/xmc4800_iot_kit/common/Libraries/XMCLib/inc/xmc_usic.h"
 5711              	 .file 7 "D:/School/diseratie/SEMS/xmc4800_evaluation_kit/xmc4800_iot_kit/common/Libraries/XMCLib/inc/xmc_usbd_regs.h"
 5712              	 .file 8 "D:/School/diseratie/SEMS/xmc4800_evaluation_kit/xmc4800_iot_kit/common/Libraries/XMCLib/inc/xmc_usbd.h"
 5713              	 .file 9 "D:/School/diseratie/SEMS/xmc4800_evaluation_kit/xmc4800_iot_kit/common/Dave/Generated/USBD/usbd.h"
 5714              	 .file 10 "d:\\school\\diseratie\\sems\\xmc4800_evaluation_kit\\xmc4800_iot_kit\\common\\dave\\generated\\usbd\\usb\\core\\endpoint.h"
 5715              	 .file 11 "d:\\school\\diseratie\\sems\\xmc4800_evaluation_kit\\xmc4800_iot_kit\\common\\dave\\generated\\usbd_vcom\\class_driver\\common\\cdc_class_common.h"
 5716              	 .file 12 "d:\\school\\diseratie\\sems\\xmc4800_evaluation_kit\\xmc4800_iot_kit\\common\\dave\\generated\\usbd_vcom\\class_driver\\device/cdc_class_device.h"
 5717              	 .file 13 "D:/School/diseratie/SEMS/xmc4800_evaluation_kit/optiga-trust-m/optiga/include/optiga/common/optiga_lib_types.h"
 5718              	 .file 14 "D:/School/diseratie/SEMS/xmc4800_evaluation_kit/optiga-trust-m/optiga/include/optiga/common/optiga_lib_common.h"
 5719              	 .file 15 "D:/School/diseratie/SEMS/xmc4800_evaluation_kit/optiga-trust-m/optiga/include/optiga/cmd/optiga_cmd.h"
 5720              	 .file 16 "D:/School/diseratie/SEMS/xmc4800_evaluation_kit/optiga-trust-m/optiga/include/optiga/optiga_util.h"
 5721              	 .file 17 "D:/School/diseratie/SEMS/xmc4800_evaluation_kit/optiga-trust-m/optiga/include/optiga/pal/pal.h"
 5722              	 .file 18 "D:/School/diseratie/SEMS/xmc4800_evaluation_kit/optiga-trust-m/optiga/include/optiga/pal/pal_logger.h"
 5723              	 .file 19 "D:/School/diseratie/SEMS/xmc4800_evaluation_kit/xmc4800_iot_kit/common/Libraries/CMSIS/Include/core_cm4.h"
 5724              	 .file 20 "D:/School/diseratie/SEMS/xmc4800_evaluation_kit/xmc4800_iot_kit/common/Libraries/CMSIS/Infineon/XMC4800_series/Include/system_XMC4800.h"
 5725              	 .file 21 "D:/School/diseratie/SEMS/xmc4800_evaluation_kit/xmc4800_iot_kit/common/Dave/Generated/USBD/usbd_extern.h"
 5726              	 .file 22 "D:/School/diseratie/SEMS/xmc4800_evaluation_kit/xmc4800_iot_kit/common/Dave/Generated/USBD_VCOM/usbd_vcom_extern.h"
 5727              	 .file 23 "D:/School/diseratie/SEMS/xmc4800_evaluation_kit/optiga-trust-m/examples/optiga/include/optiga_example.h"
 5728              	 .file 24 "D:/School/diseratie/SEMS/xmc4800_evaluation_kit/optiga-trust-m/optiga/include/optiga/common/optiga_lib_logger.h"
 5729              	 .file 25 "c:\\infineon\\tools\\dave ide\\4.5.0.202105191637\\eclipse\\arm-gcc-49\\arm-none-eabi\\include\\stdio.h"
 5730              	 .file 26 "c:\\infineon\\tools\\dave ide\\4.5.0.202105191637\\eclipse\\arm-gcc-49\\arm-none-eabi\\include\\string.h"
 5731              	 .file 27 "D:/School/diseratie/SEMS/xmc4800_evaluation_kit/optiga-trust-m/optiga/include/optiga/pal/pal_os_timer.h"
 5732              	 .file 28 "D:/School/diseratie/SEMS/xmc4800_evaluation_kit/xmc4800_iot_kit/common/Dave/Generated/USBD_VCOM/usbd_vcom.h"
DEFINED SYMBOLS
                            *ABS*:00000000 optiga_shell.c
    {standard input}:20     .text.optiga_util_callback:00000000 $t
    {standard input}:24     .text.optiga_util_callback:00000000 optiga_util_callback
    {standard input}:40     .text.optiga_util_callback:00000008 $d
    {standard input}:45     .text.optiga_shell_crypt_hmac_verify_with_authorization_reference:00000000 $t
    {standard input}:49     .text.optiga_shell_crypt_hmac_verify_with_authorization_reference:00000000 optiga_shell_crypt_hmac_verify_with_authorization_reference
    {standard input}:126    .text.optiga_shell_crypt_hmac_verify_with_authorization_reference:00000060 $d
    {standard input}:140    .text.optiga_shell_crypt_clear_auto_state:00000000 $t
    {standard input}:144    .text.optiga_shell_crypt_clear_auto_state:00000000 optiga_shell_crypt_clear_auto_state
    {standard input}:227    .text.optiga_shell_crypt_clear_auto_state:00000068 $d
    {standard input}:242    .text.optiga_shell_crypt_symmetric_generate_key:00000000 $t
    {standard input}:246    .text.optiga_shell_crypt_symmetric_generate_key:00000000 optiga_shell_crypt_symmetric_generate_key
    {standard input}:299    .text.optiga_shell_crypt_symmetric_generate_key:00000038 $d
    {standard input}:309    .text.optiga_shell_crypt_hkdf:00000000 $t
    {standard input}:313    .text.optiga_shell_crypt_hkdf:00000000 optiga_shell_crypt_hkdf
    {standard input}:378    .text.optiga_shell_crypt_hkdf:0000004c $d
    {standard input}:390    .text.optiga_shell_crypt_hmac:00000000 $t
    {standard input}:394    .text.optiga_shell_crypt_hmac:00000000 optiga_shell_crypt_hmac
    {standard input}:453    .text.optiga_shell_crypt_hmac:00000040 $d
    {standard input}:464    .text.optiga_shell_crypt_symmetric_encrypt_cbcmac:00000000 $t
    {standard input}:468    .text.optiga_shell_crypt_symmetric_encrypt_cbcmac:00000000 optiga_shell_crypt_symmetric_encrypt_cbcmac
    {standard input}:527    .text.optiga_shell_crypt_symmetric_encrypt_cbcmac:00000040 $d
    {standard input}:538    .text.optiga_shell_crypt_symmetric_encrypt_decrypt_cbc:00000000 $t
    {standard input}:542    .text.optiga_shell_crypt_symmetric_encrypt_decrypt_cbc:00000000 optiga_shell_crypt_symmetric_encrypt_decrypt_cbc
    {standard input}:607    .text.optiga_shell_crypt_symmetric_encrypt_decrypt_cbc:0000004c $d
    {standard input}:619    .text.optiga_shell_crypt_symmetric_encrypt_decrypt_ecb:00000000 $t
    {standard input}:623    .text.optiga_shell_crypt_symmetric_encrypt_decrypt_ecb:00000000 optiga_shell_crypt_symmetric_encrypt_decrypt_ecb
    {standard input}:688    .text.optiga_shell_crypt_symmetric_encrypt_decrypt_ecb:0000004c $d
    {standard input}:700    .text.optiga_shell_crypt_rsa_decrypt_and_export:00000000 $t
    {standard input}:704    .text.optiga_shell_crypt_rsa_decrypt_and_export:00000000 optiga_shell_crypt_rsa_decrypt_and_export
    {standard input}:775    .text.optiga_shell_crypt_rsa_decrypt_and_export:00000054 $d
    {standard input}:788    .text.optiga_shell_crypt_rsa_decrypt_and_store:00000000 $t
    {standard input}:792    .text.optiga_shell_crypt_rsa_decrypt_and_store:00000000 optiga_shell_crypt_rsa_decrypt_and_store
    {standard input}:869    .text.optiga_shell_crypt_rsa_decrypt_and_store:00000060 $d
    {standard input}:883    .text.optiga_shell_crypt_rsa_encrypt_session:00000000 $t
    {standard input}:887    .text.optiga_shell_crypt_rsa_encrypt_session:00000000 optiga_shell_crypt_rsa_encrypt_session
    {standard input}:940    .text.optiga_shell_crypt_rsa_encrypt_session:00000038 $d
    {standard input}:950    .text.optiga_shell_crypt_rsa_encrypt_message:00000000 $t
    {standard input}:954    .text.optiga_shell_crypt_rsa_encrypt_message:00000000 optiga_shell_crypt_rsa_encrypt_message
    {standard input}:1007   .text.optiga_shell_crypt_rsa_encrypt_message:00000038 $d
    {standard input}:1017   .text.optiga_shell_crypt_rsa_verify:00000000 $t
    {standard input}:1021   .text.optiga_shell_crypt_rsa_verify:00000000 optiga_shell_crypt_rsa_verify
    {standard input}:1074   .text.optiga_shell_crypt_rsa_verify:00000038 $d
    {standard input}:1084   .text.optiga_shell_crypt_rsa_sign:00000000 $t
    {standard input}:1088   .text.optiga_shell_crypt_rsa_sign:00000000 optiga_shell_crypt_rsa_sign
    {standard input}:1141   .text.optiga_shell_crypt_rsa_sign:00000038 $d
    {standard input}:1151   .text.optiga_shell_crypt_rsa_generate_keypair:00000000 $t
    {standard input}:1155   .text.optiga_shell_crypt_rsa_generate_keypair:00000000 optiga_shell_crypt_rsa_generate_keypair
    {standard input}:1208   .text.optiga_shell_crypt_rsa_generate_keypair:00000038 $d
    {standard input}:1218   .text.optiga_shell_crypt_ecdh:00000000 $t
    {standard input}:1222   .text.optiga_shell_crypt_ecdh:00000000 optiga_shell_crypt_ecdh
    {standard input}:1293   .text.optiga_shell_crypt_ecdh:00000054 $d
    {standard input}:1306   .text.optiga_shell_crypt_ecdsa_verify:00000000 $t
    {standard input}:1310   .text.optiga_shell_crypt_ecdsa_verify:00000000 optiga_shell_crypt_ecdsa_verify
    {standard input}:1363   .text.optiga_shell_crypt_ecdsa_verify:00000038 $d
    {standard input}:1373   .text.optiga_shell_crypt_ecdsa_sign:00000000 $t
    {standard input}:1377   .text.optiga_shell_crypt_ecdsa_sign:00000000 optiga_shell_crypt_ecdsa_sign
    {standard input}:1430   .text.optiga_shell_crypt_ecdsa_sign:00000038 $d
    {standard input}:1440   .text.optiga_shell_crypt_ecc_generate_keypair:00000000 $t
    {standard input}:1444   .text.optiga_shell_crypt_ecc_generate_keypair:00000000 optiga_shell_crypt_ecc_generate_keypair
    {standard input}:1497   .text.optiga_shell_crypt_ecc_generate_keypair:00000038 $d
    {standard input}:1507   .text.optiga_shell_crypt_random:00000000 $t
    {standard input}:1511   .text.optiga_shell_crypt_random:00000000 optiga_shell_crypt_random
    {standard input}:1564   .text.optiga_shell_crypt_random:00000038 $d
    {standard input}:1574   .text.optiga_shell_crypt_tls_prf_sha256:00000000 $t
    {standard input}:1578   .text.optiga_shell_crypt_tls_prf_sha256:00000000 optiga_shell_crypt_tls_prf_sha256
    {standard input}:1649   .text.optiga_shell_crypt_tls_prf_sha256:00000054 $d
    {standard input}:1662   .text.optiga_shell_crypt_hash_data:00000000 $t
    {standard input}:1666   .text.optiga_shell_crypt_hash_data:00000000 optiga_shell_crypt_hash_data
    {standard input}:1719   .text.optiga_shell_crypt_hash_data:00000038 $d
    {standard input}:1729   .text.optiga_shell_crypt_hash:00000000 $t
    {standard input}:1733   .text.optiga_shell_crypt_hash:00000000 optiga_shell_crypt_hash
    {standard input}:1786   .text.optiga_shell_crypt_hash:00000038 $d
    {standard input}:1796   .text.optiga_shell_util_protected_update:00000000 $t
    {standard input}:1800   .text.optiga_shell_util_protected_update:00000000 optiga_shell_util_protected_update
    {standard input}:1865   .text.optiga_shell_util_protected_update:0000004c $d
    {standard input}:1877   .text.optiga_shell_util_update_count:00000000 $t
    {standard input}:1881   .text.optiga_shell_util_update_count:00000000 optiga_shell_util_update_count
    {standard input}:1940   .text.optiga_shell_util_update_count:00000040 $d
    {standard input}:1951   .text.optiga_shell_util_hibernate_restore:00000000 $t
    {standard input}:1955   .text.optiga_shell_util_hibernate_restore:00000000 optiga_shell_util_hibernate_restore
    {standard input}:2056   .text.optiga_shell_util_hibernate_restore:00000088 $d
    {standard input}:2074   .text.optiga_shell_pair_host_optiga:00000000 $t
    {standard input}:2078   .text.optiga_shell_pair_host_optiga:00000000 optiga_shell_pair_host_optiga
    {standard input}:2149   .text.optiga_shell_pair_host_optiga:00000054 $d
    {standard input}:2162   .text.optiga_shell_util_read_coprocessor_id:00000000 $t
    {standard input}:2166   .text.optiga_shell_util_read_coprocessor_id:00000000 optiga_shell_util_read_coprocessor_id
    {standard input}:2219   .text.optiga_shell_util_read_coprocessor_id:00000038 $d
    {standard input}:2229   .text.optiga_shell_util_write_data:00000000 $t
    {standard input}:2233   .text.optiga_shell_util_write_data:00000000 optiga_shell_util_write_data
    {standard input}:2292   .text.optiga_shell_util_write_data:00000040 $d
    {standard input}:2303   .text.optiga_shell_util_read_data:00000000 $t
    {standard input}:2307   .text.optiga_shell_util_read_data:00000000 optiga_shell_util_read_data
    {standard input}:2366   .text.optiga_shell_util_read_data:00000040 $d
    {standard input}:2377   .text.optiga_shell_deinit:00000000 $t
    {standard input}:2381   .text.optiga_shell_deinit:00000000 optiga_shell_deinit
    {standard input}:2488   .text.optiga_shell_deinit:00000064 $d
    {standard input}:2496   .text.optiga_shell_init:00000000 $t
    {standard input}:2500   .text.optiga_shell_init:00000000 optiga_shell_init
    {standard input}:2694   .text.optiga_shell_init:000000d4 $d
    {standard input}:2709   .text.optiga_shell_show_usage:00000000 $t
    {standard input}:2713   .text.optiga_shell_show_usage:00000000 optiga_shell_show_usage
    {standard input}:2770   .text.optiga_shell_show_usage:00000040 $d
    {standard input}:2778   .text.optiga_shell_selftest:00000000 $t
    {standard input}:2782   .text.optiga_shell_selftest:00000000 optiga_shell_selftest
    {standard input}:3353   .text.optiga_shell_selftest:000002c4 $d
    {standard input}:3401   .text.optiga_shell_selftest:00000360 $t
    {standard input}:3900   .text.optiga_shell_selftest:00000614 $d
    {standard input}:3933   .text.optiga_shell_selftest:00000690 $t
    {standard input}:4421   .text.optiga_shell_selftest:00000940 $d
    {standard input}:4464   .text.optiga_shell_selftest:000009e8 $t
    {standard input}:4560   .text.optiga_shell_selftest:00000a60 $d
    {standard input}:4577   .text.run_example:00000000 $t
    {standard input}:4582   .text.run_example:00000000 run_example
    {standard input}:4615   .text.run_example:00000018 $d
    {standard input}:4620   .text.optiga_shell_begin:00000000 $t
    {standard input}:4625   .text.optiga_shell_begin:00000000 optiga_shell_begin
    {standard input}:4901   .text.optiga_shell_begin:00000134 $d
    {standard input}:4916   .text.optiga_shell_wait_for_user:00000000 $t
    {standard input}:4921   .text.optiga_shell_wait_for_user:00000000 optiga_shell_wait_for_user
    {standard input}:4977   .text.optiga_shell_wait_for_user:0000003c $d
    {standard input}:4990   .data.optiga_cmds:00000000 optiga_cmds
    {standard input}:5695   .bss.me_util:00000000 me_util
    {standard input}:4986   .data.optiga_cmds:00000000 $d
    {standard input}:5094   .rodata.str1.4:00000000 $d
    {standard input}:5691   .bss.me_util:00000000 $d
    {standard input}:5698   .bss.optiga_lib_status:00000000 $d
    {standard input}:5702   .bss.optiga_lib_status:00000000 optiga_lib_status
                     .debug_frame:00000010 $d

UNDEFINED SYMBOLS
optiga_lib_print_message
example_optiga_hmac_verify_with_authorization_reference
example_optiga_crypt_clear_auto_state
example_optiga_crypt_symmetric_generate_key
example_optiga_crypt_hkdf
example_optiga_crypt_hmac
example_optiga_crypt_symmetric_encrypt_cbcmac
example_optiga_crypt_symmetric_encrypt_decrypt_cbc
example_optiga_crypt_symmetric_encrypt_decrypt_ecb
example_optiga_crypt_rsa_decrypt_and_export
example_optiga_crypt_rsa_decrypt_and_store
example_optiga_crypt_rsa_encrypt_session
example_optiga_crypt_rsa_encrypt_message
example_optiga_crypt_rsa_verify
example_optiga_crypt_rsa_sign
example_optiga_crypt_rsa_generate_keypair
example_optiga_crypt_ecdh
example_optiga_crypt_ecdsa_verify
example_optiga_crypt_ecdsa_sign
example_optiga_crypt_ecc_generate_keypair
example_optiga_crypt_random
example_optiga_crypt_tls_prf_sha256
example_optiga_crypt_hash_data
example_optiga_crypt_hash
example_optiga_util_protected_update
example_optiga_util_update_count
example_optiga_util_hibernate_restore
example_pair_host_and_optiga_using_pre_shared_secret
example_read_coprocessor_id
example_optiga_util_write_data
example_optiga_util_read_data
example_performance_measurement
optiga_util_close_application
sprintf
optiga_util_destroy
performance_buffer_string
optiga_util_open_application
optiga_util_create
pair_host_and_optiga_using_pre_shared_secret
optiga_util_write_data
optiga_lib_print_string_with_newline
strcmp
optiga_lib_print_string
pal_os_timer_delay_in_milliseconds
pal_logger_read
pal_logger_write
strncmp
strlen
strcpy
logger_console
CDC_Device_USBTask
USBD_VCOM_BytesReceived
USBD_VCOM_cdc_interface
