   1              	 .syntax unified
   2              	 .cpu cortex-m4
   3              	 .eabi_attribute 27,3
   4              	 .fpu fpv4-sp-d16
   5              	 .eabi_attribute 20,1
   6              	 .eabi_attribute 21,1
   7              	 .eabi_attribute 23,3
   8              	 .eabi_attribute 24,1
   9              	 .eabi_attribute 25,1
  10              	 .eabi_attribute 26,1
  11              	 .eabi_attribute 30,2
  12              	 .eabi_attribute 34,1
  13              	 .eabi_attribute 18,4
  14              	 .thumb
  15              	 .file "aes.c"
  16              	 .text
  17              	.Ltext0:
  18              	 .cfi_sections .debug_frame
  19              	 .section .text.aes_gen_tables,"ax",%progbits
  20              	 .align 2
  21              	 .thumb
  22              	 .thumb_func
  24              	aes_gen_tables:
  25              	.LFB0:
  26              	 .file 1 "D:/School/diseratie/SEMS/xmc4800_evaluation_kit/optiga-trust-m/externals/mbedtls/library/aes.c"
   1:D:/School/diseratie/SEMS/xmc4800_evaluation_kit/optiga-trust-m/externals/mbedtls/library\aes.c **** /*
   2:D:/School/diseratie/SEMS/xmc4800_evaluation_kit/optiga-trust-m/externals/mbedtls/library\aes.c ****  *  FIPS-197 compliant AES implementation
   3:D:/School/diseratie/SEMS/xmc4800_evaluation_kit/optiga-trust-m/externals/mbedtls/library\aes.c ****  *
   4:D:/School/diseratie/SEMS/xmc4800_evaluation_kit/optiga-trust-m/externals/mbedtls/library\aes.c ****  *  Copyright (C) 2006-2015, ARM Limited, All Rights Reserved
   5:D:/School/diseratie/SEMS/xmc4800_evaluation_kit/optiga-trust-m/externals/mbedtls/library\aes.c ****  *  SPDX-License-Identifier: Apache-2.0
   6:D:/School/diseratie/SEMS/xmc4800_evaluation_kit/optiga-trust-m/externals/mbedtls/library\aes.c ****  *
   7:D:/School/diseratie/SEMS/xmc4800_evaluation_kit/optiga-trust-m/externals/mbedtls/library\aes.c ****  *  Licensed under the Apache License, Version 2.0 (the "License"); you may
   8:D:/School/diseratie/SEMS/xmc4800_evaluation_kit/optiga-trust-m/externals/mbedtls/library\aes.c ****  *  not use this file except in compliance with the License.
   9:D:/School/diseratie/SEMS/xmc4800_evaluation_kit/optiga-trust-m/externals/mbedtls/library\aes.c ****  *  You may obtain a copy of the License at
  10:D:/School/diseratie/SEMS/xmc4800_evaluation_kit/optiga-trust-m/externals/mbedtls/library\aes.c ****  *
  11:D:/School/diseratie/SEMS/xmc4800_evaluation_kit/optiga-trust-m/externals/mbedtls/library\aes.c ****  *  http://www.apache.org/licenses/LICENSE-2.0
  12:D:/School/diseratie/SEMS/xmc4800_evaluation_kit/optiga-trust-m/externals/mbedtls/library\aes.c ****  *
  13:D:/School/diseratie/SEMS/xmc4800_evaluation_kit/optiga-trust-m/externals/mbedtls/library\aes.c ****  *  Unless required by applicable law or agreed to in writing, software
  14:D:/School/diseratie/SEMS/xmc4800_evaluation_kit/optiga-trust-m/externals/mbedtls/library\aes.c ****  *  distributed under the License is distributed on an "AS IS" BASIS, WITHOUT
  15:D:/School/diseratie/SEMS/xmc4800_evaluation_kit/optiga-trust-m/externals/mbedtls/library\aes.c ****  *  WARRANTIES OR CONDITIONS OF ANY KIND, either express or implied.
  16:D:/School/diseratie/SEMS/xmc4800_evaluation_kit/optiga-trust-m/externals/mbedtls/library\aes.c ****  *  See the License for the specific language governing permissions and
  17:D:/School/diseratie/SEMS/xmc4800_evaluation_kit/optiga-trust-m/externals/mbedtls/library\aes.c ****  *  limitations under the License.
  18:D:/School/diseratie/SEMS/xmc4800_evaluation_kit/optiga-trust-m/externals/mbedtls/library\aes.c ****  *
  19:D:/School/diseratie/SEMS/xmc4800_evaluation_kit/optiga-trust-m/externals/mbedtls/library\aes.c ****  *  This file is part of mbed TLS (https://tls.mbed.org)
  20:D:/School/diseratie/SEMS/xmc4800_evaluation_kit/optiga-trust-m/externals/mbedtls/library\aes.c ****  */
  21:D:/School/diseratie/SEMS/xmc4800_evaluation_kit/optiga-trust-m/externals/mbedtls/library\aes.c **** /*
  22:D:/School/diseratie/SEMS/xmc4800_evaluation_kit/optiga-trust-m/externals/mbedtls/library\aes.c ****  *  The AES block cipher was designed by Vincent Rijmen and Joan Daemen.
  23:D:/School/diseratie/SEMS/xmc4800_evaluation_kit/optiga-trust-m/externals/mbedtls/library\aes.c ****  *
  24:D:/School/diseratie/SEMS/xmc4800_evaluation_kit/optiga-trust-m/externals/mbedtls/library\aes.c ****  *  http://csrc.nist.gov/encryption/aes/rijndael/Rijndael.pdf
  25:D:/School/diseratie/SEMS/xmc4800_evaluation_kit/optiga-trust-m/externals/mbedtls/library\aes.c ****  *  http://csrc.nist.gov/publications/fips/fips197/fips-197.pdf
  26:D:/School/diseratie/SEMS/xmc4800_evaluation_kit/optiga-trust-m/externals/mbedtls/library\aes.c ****  */
  27:D:/School/diseratie/SEMS/xmc4800_evaluation_kit/optiga-trust-m/externals/mbedtls/library\aes.c **** 
  28:D:/School/diseratie/SEMS/xmc4800_evaluation_kit/optiga-trust-m/externals/mbedtls/library\aes.c **** #if !defined(MBEDTLS_CONFIG_FILE)
  29:D:/School/diseratie/SEMS/xmc4800_evaluation_kit/optiga-trust-m/externals/mbedtls/library\aes.c **** #include "mbedtls/config.h"
  30:D:/School/diseratie/SEMS/xmc4800_evaluation_kit/optiga-trust-m/externals/mbedtls/library\aes.c **** #else
  31:D:/School/diseratie/SEMS/xmc4800_evaluation_kit/optiga-trust-m/externals/mbedtls/library\aes.c **** #include MBEDTLS_CONFIG_FILE
  32:D:/School/diseratie/SEMS/xmc4800_evaluation_kit/optiga-trust-m/externals/mbedtls/library\aes.c **** #endif
  33:D:/School/diseratie/SEMS/xmc4800_evaluation_kit/optiga-trust-m/externals/mbedtls/library\aes.c **** 
  34:D:/School/diseratie/SEMS/xmc4800_evaluation_kit/optiga-trust-m/externals/mbedtls/library\aes.c **** #if defined(MBEDTLS_AES_C)
  35:D:/School/diseratie/SEMS/xmc4800_evaluation_kit/optiga-trust-m/externals/mbedtls/library\aes.c **** 
  36:D:/School/diseratie/SEMS/xmc4800_evaluation_kit/optiga-trust-m/externals/mbedtls/library\aes.c **** #include <string.h>
  37:D:/School/diseratie/SEMS/xmc4800_evaluation_kit/optiga-trust-m/externals/mbedtls/library\aes.c **** 
  38:D:/School/diseratie/SEMS/xmc4800_evaluation_kit/optiga-trust-m/externals/mbedtls/library\aes.c **** #include "mbedtls/aes.h"
  39:D:/School/diseratie/SEMS/xmc4800_evaluation_kit/optiga-trust-m/externals/mbedtls/library\aes.c **** #include "mbedtls/platform.h"
  40:D:/School/diseratie/SEMS/xmc4800_evaluation_kit/optiga-trust-m/externals/mbedtls/library\aes.c **** #include "mbedtls/platform_util.h"
  41:D:/School/diseratie/SEMS/xmc4800_evaluation_kit/optiga-trust-m/externals/mbedtls/library\aes.c **** #if defined(MBEDTLS_PADLOCK_C)
  42:D:/School/diseratie/SEMS/xmc4800_evaluation_kit/optiga-trust-m/externals/mbedtls/library\aes.c **** #include "mbedtls/padlock.h"
  43:D:/School/diseratie/SEMS/xmc4800_evaluation_kit/optiga-trust-m/externals/mbedtls/library\aes.c **** #endif
  44:D:/School/diseratie/SEMS/xmc4800_evaluation_kit/optiga-trust-m/externals/mbedtls/library\aes.c **** #if defined(MBEDTLS_AESNI_C)
  45:D:/School/diseratie/SEMS/xmc4800_evaluation_kit/optiga-trust-m/externals/mbedtls/library\aes.c **** #include "mbedtls/aesni.h"
  46:D:/School/diseratie/SEMS/xmc4800_evaluation_kit/optiga-trust-m/externals/mbedtls/library\aes.c **** #endif
  47:D:/School/diseratie/SEMS/xmc4800_evaluation_kit/optiga-trust-m/externals/mbedtls/library\aes.c **** 
  48:D:/School/diseratie/SEMS/xmc4800_evaluation_kit/optiga-trust-m/externals/mbedtls/library\aes.c **** #if defined(MBEDTLS_SELF_TEST)
  49:D:/School/diseratie/SEMS/xmc4800_evaluation_kit/optiga-trust-m/externals/mbedtls/library\aes.c **** #if defined(MBEDTLS_PLATFORM_C)
  50:D:/School/diseratie/SEMS/xmc4800_evaluation_kit/optiga-trust-m/externals/mbedtls/library\aes.c **** #include "mbedtls/platform.h"
  51:D:/School/diseratie/SEMS/xmc4800_evaluation_kit/optiga-trust-m/externals/mbedtls/library\aes.c **** #else
  52:D:/School/diseratie/SEMS/xmc4800_evaluation_kit/optiga-trust-m/externals/mbedtls/library\aes.c **** #include <stdio.h>
  53:D:/School/diseratie/SEMS/xmc4800_evaluation_kit/optiga-trust-m/externals/mbedtls/library\aes.c **** #define mbedtls_printf printf
  54:D:/School/diseratie/SEMS/xmc4800_evaluation_kit/optiga-trust-m/externals/mbedtls/library\aes.c **** #endif /* MBEDTLS_PLATFORM_C */
  55:D:/School/diseratie/SEMS/xmc4800_evaluation_kit/optiga-trust-m/externals/mbedtls/library\aes.c **** #endif /* MBEDTLS_SELF_TEST */
  56:D:/School/diseratie/SEMS/xmc4800_evaluation_kit/optiga-trust-m/externals/mbedtls/library\aes.c **** 
  57:D:/School/diseratie/SEMS/xmc4800_evaluation_kit/optiga-trust-m/externals/mbedtls/library\aes.c **** #if !defined(MBEDTLS_AES_ALT)
  58:D:/School/diseratie/SEMS/xmc4800_evaluation_kit/optiga-trust-m/externals/mbedtls/library\aes.c **** 
  59:D:/School/diseratie/SEMS/xmc4800_evaluation_kit/optiga-trust-m/externals/mbedtls/library\aes.c **** /* Parameter validation macros based on platform_util.h */
  60:D:/School/diseratie/SEMS/xmc4800_evaluation_kit/optiga-trust-m/externals/mbedtls/library\aes.c **** #define AES_VALIDATE_RET( cond )    \
  61:D:/School/diseratie/SEMS/xmc4800_evaluation_kit/optiga-trust-m/externals/mbedtls/library\aes.c ****     MBEDTLS_INTERNAL_VALIDATE_RET( cond, MBEDTLS_ERR_AES_BAD_INPUT_DATA )
  62:D:/School/diseratie/SEMS/xmc4800_evaluation_kit/optiga-trust-m/externals/mbedtls/library\aes.c **** #define AES_VALIDATE( cond )        \
  63:D:/School/diseratie/SEMS/xmc4800_evaluation_kit/optiga-trust-m/externals/mbedtls/library\aes.c ****     MBEDTLS_INTERNAL_VALIDATE( cond )
  64:D:/School/diseratie/SEMS/xmc4800_evaluation_kit/optiga-trust-m/externals/mbedtls/library\aes.c **** 
  65:D:/School/diseratie/SEMS/xmc4800_evaluation_kit/optiga-trust-m/externals/mbedtls/library\aes.c **** /*
  66:D:/School/diseratie/SEMS/xmc4800_evaluation_kit/optiga-trust-m/externals/mbedtls/library\aes.c ****  * 32-bit integer manipulation macros (little endian)
  67:D:/School/diseratie/SEMS/xmc4800_evaluation_kit/optiga-trust-m/externals/mbedtls/library\aes.c ****  */
  68:D:/School/diseratie/SEMS/xmc4800_evaluation_kit/optiga-trust-m/externals/mbedtls/library\aes.c **** #ifndef GET_UINT32_LE
  69:D:/School/diseratie/SEMS/xmc4800_evaluation_kit/optiga-trust-m/externals/mbedtls/library\aes.c **** #define GET_UINT32_LE(n,b,i)                            \
  70:D:/School/diseratie/SEMS/xmc4800_evaluation_kit/optiga-trust-m/externals/mbedtls/library\aes.c **** {                                                       \
  71:D:/School/diseratie/SEMS/xmc4800_evaluation_kit/optiga-trust-m/externals/mbedtls/library\aes.c ****     (n) = ( (uint32_t) (b)[(i)    ]       )             \
  72:D:/School/diseratie/SEMS/xmc4800_evaluation_kit/optiga-trust-m/externals/mbedtls/library\aes.c ****         | ( (uint32_t) (b)[(i) + 1] <<  8 )             \
  73:D:/School/diseratie/SEMS/xmc4800_evaluation_kit/optiga-trust-m/externals/mbedtls/library\aes.c ****         | ( (uint32_t) (b)[(i) + 2] << 16 )             \
  74:D:/School/diseratie/SEMS/xmc4800_evaluation_kit/optiga-trust-m/externals/mbedtls/library\aes.c ****         | ( (uint32_t) (b)[(i) + 3] << 24 );            \
  75:D:/School/diseratie/SEMS/xmc4800_evaluation_kit/optiga-trust-m/externals/mbedtls/library\aes.c **** }
  76:D:/School/diseratie/SEMS/xmc4800_evaluation_kit/optiga-trust-m/externals/mbedtls/library\aes.c **** #endif
  77:D:/School/diseratie/SEMS/xmc4800_evaluation_kit/optiga-trust-m/externals/mbedtls/library\aes.c **** 
  78:D:/School/diseratie/SEMS/xmc4800_evaluation_kit/optiga-trust-m/externals/mbedtls/library\aes.c **** #ifndef PUT_UINT32_LE
  79:D:/School/diseratie/SEMS/xmc4800_evaluation_kit/optiga-trust-m/externals/mbedtls/library\aes.c **** #define PUT_UINT32_LE(n,b,i)                                    \
  80:D:/School/diseratie/SEMS/xmc4800_evaluation_kit/optiga-trust-m/externals/mbedtls/library\aes.c **** {                                                               \
  81:D:/School/diseratie/SEMS/xmc4800_evaluation_kit/optiga-trust-m/externals/mbedtls/library\aes.c ****     (b)[(i)    ] = (unsigned char) ( ( (n)       ) & 0xFF );    \
  82:D:/School/diseratie/SEMS/xmc4800_evaluation_kit/optiga-trust-m/externals/mbedtls/library\aes.c ****     (b)[(i) + 1] = (unsigned char) ( ( (n) >>  8 ) & 0xFF );    \
  83:D:/School/diseratie/SEMS/xmc4800_evaluation_kit/optiga-trust-m/externals/mbedtls/library\aes.c ****     (b)[(i) + 2] = (unsigned char) ( ( (n) >> 16 ) & 0xFF );    \
  84:D:/School/diseratie/SEMS/xmc4800_evaluation_kit/optiga-trust-m/externals/mbedtls/library\aes.c ****     (b)[(i) + 3] = (unsigned char) ( ( (n) >> 24 ) & 0xFF );    \
  85:D:/School/diseratie/SEMS/xmc4800_evaluation_kit/optiga-trust-m/externals/mbedtls/library\aes.c **** }
  86:D:/School/diseratie/SEMS/xmc4800_evaluation_kit/optiga-trust-m/externals/mbedtls/library\aes.c **** #endif
  87:D:/School/diseratie/SEMS/xmc4800_evaluation_kit/optiga-trust-m/externals/mbedtls/library\aes.c **** 
  88:D:/School/diseratie/SEMS/xmc4800_evaluation_kit/optiga-trust-m/externals/mbedtls/library\aes.c **** #if defined(MBEDTLS_PADLOCK_C) &&                      \
  89:D:/School/diseratie/SEMS/xmc4800_evaluation_kit/optiga-trust-m/externals/mbedtls/library\aes.c ****     ( defined(MBEDTLS_HAVE_X86) || defined(MBEDTLS_PADLOCK_ALIGN16) )
  90:D:/School/diseratie/SEMS/xmc4800_evaluation_kit/optiga-trust-m/externals/mbedtls/library\aes.c **** static int aes_padlock_ace = -1;
  91:D:/School/diseratie/SEMS/xmc4800_evaluation_kit/optiga-trust-m/externals/mbedtls/library\aes.c **** #endif
  92:D:/School/diseratie/SEMS/xmc4800_evaluation_kit/optiga-trust-m/externals/mbedtls/library\aes.c **** 
  93:D:/School/diseratie/SEMS/xmc4800_evaluation_kit/optiga-trust-m/externals/mbedtls/library\aes.c **** #if defined(MBEDTLS_AES_ROM_TABLES)
  94:D:/School/diseratie/SEMS/xmc4800_evaluation_kit/optiga-trust-m/externals/mbedtls/library\aes.c **** /*
  95:D:/School/diseratie/SEMS/xmc4800_evaluation_kit/optiga-trust-m/externals/mbedtls/library\aes.c ****  * Forward S-box
  96:D:/School/diseratie/SEMS/xmc4800_evaluation_kit/optiga-trust-m/externals/mbedtls/library\aes.c ****  */
  97:D:/School/diseratie/SEMS/xmc4800_evaluation_kit/optiga-trust-m/externals/mbedtls/library\aes.c **** static const unsigned char FSb[256] =
  98:D:/School/diseratie/SEMS/xmc4800_evaluation_kit/optiga-trust-m/externals/mbedtls/library\aes.c **** {
  99:D:/School/diseratie/SEMS/xmc4800_evaluation_kit/optiga-trust-m/externals/mbedtls/library\aes.c ****     0x63, 0x7C, 0x77, 0x7B, 0xF2, 0x6B, 0x6F, 0xC5,
 100:D:/School/diseratie/SEMS/xmc4800_evaluation_kit/optiga-trust-m/externals/mbedtls/library\aes.c ****     0x30, 0x01, 0x67, 0x2B, 0xFE, 0xD7, 0xAB, 0x76,
 101:D:/School/diseratie/SEMS/xmc4800_evaluation_kit/optiga-trust-m/externals/mbedtls/library\aes.c ****     0xCA, 0x82, 0xC9, 0x7D, 0xFA, 0x59, 0x47, 0xF0,
 102:D:/School/diseratie/SEMS/xmc4800_evaluation_kit/optiga-trust-m/externals/mbedtls/library\aes.c ****     0xAD, 0xD4, 0xA2, 0xAF, 0x9C, 0xA4, 0x72, 0xC0,
 103:D:/School/diseratie/SEMS/xmc4800_evaluation_kit/optiga-trust-m/externals/mbedtls/library\aes.c ****     0xB7, 0xFD, 0x93, 0x26, 0x36, 0x3F, 0xF7, 0xCC,
 104:D:/School/diseratie/SEMS/xmc4800_evaluation_kit/optiga-trust-m/externals/mbedtls/library\aes.c ****     0x34, 0xA5, 0xE5, 0xF1, 0x71, 0xD8, 0x31, 0x15,
 105:D:/School/diseratie/SEMS/xmc4800_evaluation_kit/optiga-trust-m/externals/mbedtls/library\aes.c ****     0x04, 0xC7, 0x23, 0xC3, 0x18, 0x96, 0x05, 0x9A,
 106:D:/School/diseratie/SEMS/xmc4800_evaluation_kit/optiga-trust-m/externals/mbedtls/library\aes.c ****     0x07, 0x12, 0x80, 0xE2, 0xEB, 0x27, 0xB2, 0x75,
 107:D:/School/diseratie/SEMS/xmc4800_evaluation_kit/optiga-trust-m/externals/mbedtls/library\aes.c ****     0x09, 0x83, 0x2C, 0x1A, 0x1B, 0x6E, 0x5A, 0xA0,
 108:D:/School/diseratie/SEMS/xmc4800_evaluation_kit/optiga-trust-m/externals/mbedtls/library\aes.c ****     0x52, 0x3B, 0xD6, 0xB3, 0x29, 0xE3, 0x2F, 0x84,
 109:D:/School/diseratie/SEMS/xmc4800_evaluation_kit/optiga-trust-m/externals/mbedtls/library\aes.c ****     0x53, 0xD1, 0x00, 0xED, 0x20, 0xFC, 0xB1, 0x5B,
 110:D:/School/diseratie/SEMS/xmc4800_evaluation_kit/optiga-trust-m/externals/mbedtls/library\aes.c ****     0x6A, 0xCB, 0xBE, 0x39, 0x4A, 0x4C, 0x58, 0xCF,
 111:D:/School/diseratie/SEMS/xmc4800_evaluation_kit/optiga-trust-m/externals/mbedtls/library\aes.c ****     0xD0, 0xEF, 0xAA, 0xFB, 0x43, 0x4D, 0x33, 0x85,
 112:D:/School/diseratie/SEMS/xmc4800_evaluation_kit/optiga-trust-m/externals/mbedtls/library\aes.c ****     0x45, 0xF9, 0x02, 0x7F, 0x50, 0x3C, 0x9F, 0xA8,
 113:D:/School/diseratie/SEMS/xmc4800_evaluation_kit/optiga-trust-m/externals/mbedtls/library\aes.c ****     0x51, 0xA3, 0x40, 0x8F, 0x92, 0x9D, 0x38, 0xF5,
 114:D:/School/diseratie/SEMS/xmc4800_evaluation_kit/optiga-trust-m/externals/mbedtls/library\aes.c ****     0xBC, 0xB6, 0xDA, 0x21, 0x10, 0xFF, 0xF3, 0xD2,
 115:D:/School/diseratie/SEMS/xmc4800_evaluation_kit/optiga-trust-m/externals/mbedtls/library\aes.c ****     0xCD, 0x0C, 0x13, 0xEC, 0x5F, 0x97, 0x44, 0x17,
 116:D:/School/diseratie/SEMS/xmc4800_evaluation_kit/optiga-trust-m/externals/mbedtls/library\aes.c ****     0xC4, 0xA7, 0x7E, 0x3D, 0x64, 0x5D, 0x19, 0x73,
 117:D:/School/diseratie/SEMS/xmc4800_evaluation_kit/optiga-trust-m/externals/mbedtls/library\aes.c ****     0x60, 0x81, 0x4F, 0xDC, 0x22, 0x2A, 0x90, 0x88,
 118:D:/School/diseratie/SEMS/xmc4800_evaluation_kit/optiga-trust-m/externals/mbedtls/library\aes.c ****     0x46, 0xEE, 0xB8, 0x14, 0xDE, 0x5E, 0x0B, 0xDB,
 119:D:/School/diseratie/SEMS/xmc4800_evaluation_kit/optiga-trust-m/externals/mbedtls/library\aes.c ****     0xE0, 0x32, 0x3A, 0x0A, 0x49, 0x06, 0x24, 0x5C,
 120:D:/School/diseratie/SEMS/xmc4800_evaluation_kit/optiga-trust-m/externals/mbedtls/library\aes.c ****     0xC2, 0xD3, 0xAC, 0x62, 0x91, 0x95, 0xE4, 0x79,
 121:D:/School/diseratie/SEMS/xmc4800_evaluation_kit/optiga-trust-m/externals/mbedtls/library\aes.c ****     0xE7, 0xC8, 0x37, 0x6D, 0x8D, 0xD5, 0x4E, 0xA9,
 122:D:/School/diseratie/SEMS/xmc4800_evaluation_kit/optiga-trust-m/externals/mbedtls/library\aes.c ****     0x6C, 0x56, 0xF4, 0xEA, 0x65, 0x7A, 0xAE, 0x08,
 123:D:/School/diseratie/SEMS/xmc4800_evaluation_kit/optiga-trust-m/externals/mbedtls/library\aes.c ****     0xBA, 0x78, 0x25, 0x2E, 0x1C, 0xA6, 0xB4, 0xC6,
 124:D:/School/diseratie/SEMS/xmc4800_evaluation_kit/optiga-trust-m/externals/mbedtls/library\aes.c ****     0xE8, 0xDD, 0x74, 0x1F, 0x4B, 0xBD, 0x8B, 0x8A,
 125:D:/School/diseratie/SEMS/xmc4800_evaluation_kit/optiga-trust-m/externals/mbedtls/library\aes.c ****     0x70, 0x3E, 0xB5, 0x66, 0x48, 0x03, 0xF6, 0x0E,
 126:D:/School/diseratie/SEMS/xmc4800_evaluation_kit/optiga-trust-m/externals/mbedtls/library\aes.c ****     0x61, 0x35, 0x57, 0xB9, 0x86, 0xC1, 0x1D, 0x9E,
 127:D:/School/diseratie/SEMS/xmc4800_evaluation_kit/optiga-trust-m/externals/mbedtls/library\aes.c ****     0xE1, 0xF8, 0x98, 0x11, 0x69, 0xD9, 0x8E, 0x94,
 128:D:/School/diseratie/SEMS/xmc4800_evaluation_kit/optiga-trust-m/externals/mbedtls/library\aes.c ****     0x9B, 0x1E, 0x87, 0xE9, 0xCE, 0x55, 0x28, 0xDF,
 129:D:/School/diseratie/SEMS/xmc4800_evaluation_kit/optiga-trust-m/externals/mbedtls/library\aes.c ****     0x8C, 0xA1, 0x89, 0x0D, 0xBF, 0xE6, 0x42, 0x68,
 130:D:/School/diseratie/SEMS/xmc4800_evaluation_kit/optiga-trust-m/externals/mbedtls/library\aes.c ****     0x41, 0x99, 0x2D, 0x0F, 0xB0, 0x54, 0xBB, 0x16
 131:D:/School/diseratie/SEMS/xmc4800_evaluation_kit/optiga-trust-m/externals/mbedtls/library\aes.c **** };
 132:D:/School/diseratie/SEMS/xmc4800_evaluation_kit/optiga-trust-m/externals/mbedtls/library\aes.c **** 
 133:D:/School/diseratie/SEMS/xmc4800_evaluation_kit/optiga-trust-m/externals/mbedtls/library\aes.c **** /*
 134:D:/School/diseratie/SEMS/xmc4800_evaluation_kit/optiga-trust-m/externals/mbedtls/library\aes.c ****  * Forward tables
 135:D:/School/diseratie/SEMS/xmc4800_evaluation_kit/optiga-trust-m/externals/mbedtls/library\aes.c ****  */
 136:D:/School/diseratie/SEMS/xmc4800_evaluation_kit/optiga-trust-m/externals/mbedtls/library\aes.c **** #define FT \
 137:D:/School/diseratie/SEMS/xmc4800_evaluation_kit/optiga-trust-m/externals/mbedtls/library\aes.c **** \
 138:D:/School/diseratie/SEMS/xmc4800_evaluation_kit/optiga-trust-m/externals/mbedtls/library\aes.c ****     V(A5,63,63,C6), V(84,7C,7C,F8), V(99,77,77,EE), V(8D,7B,7B,F6), \
 139:D:/School/diseratie/SEMS/xmc4800_evaluation_kit/optiga-trust-m/externals/mbedtls/library\aes.c ****     V(0D,F2,F2,FF), V(BD,6B,6B,D6), V(B1,6F,6F,DE), V(54,C5,C5,91), \
 140:D:/School/diseratie/SEMS/xmc4800_evaluation_kit/optiga-trust-m/externals/mbedtls/library\aes.c ****     V(50,30,30,60), V(03,01,01,02), V(A9,67,67,CE), V(7D,2B,2B,56), \
 141:D:/School/diseratie/SEMS/xmc4800_evaluation_kit/optiga-trust-m/externals/mbedtls/library\aes.c ****     V(19,FE,FE,E7), V(62,D7,D7,B5), V(E6,AB,AB,4D), V(9A,76,76,EC), \
 142:D:/School/diseratie/SEMS/xmc4800_evaluation_kit/optiga-trust-m/externals/mbedtls/library\aes.c ****     V(45,CA,CA,8F), V(9D,82,82,1F), V(40,C9,C9,89), V(87,7D,7D,FA), \
 143:D:/School/diseratie/SEMS/xmc4800_evaluation_kit/optiga-trust-m/externals/mbedtls/library\aes.c ****     V(15,FA,FA,EF), V(EB,59,59,B2), V(C9,47,47,8E), V(0B,F0,F0,FB), \
 144:D:/School/diseratie/SEMS/xmc4800_evaluation_kit/optiga-trust-m/externals/mbedtls/library\aes.c ****     V(EC,AD,AD,41), V(67,D4,D4,B3), V(FD,A2,A2,5F), V(EA,AF,AF,45), \
 145:D:/School/diseratie/SEMS/xmc4800_evaluation_kit/optiga-trust-m/externals/mbedtls/library\aes.c ****     V(BF,9C,9C,23), V(F7,A4,A4,53), V(96,72,72,E4), V(5B,C0,C0,9B), \
 146:D:/School/diseratie/SEMS/xmc4800_evaluation_kit/optiga-trust-m/externals/mbedtls/library\aes.c ****     V(C2,B7,B7,75), V(1C,FD,FD,E1), V(AE,93,93,3D), V(6A,26,26,4C), \
 147:D:/School/diseratie/SEMS/xmc4800_evaluation_kit/optiga-trust-m/externals/mbedtls/library\aes.c ****     V(5A,36,36,6C), V(41,3F,3F,7E), V(02,F7,F7,F5), V(4F,CC,CC,83), \
 148:D:/School/diseratie/SEMS/xmc4800_evaluation_kit/optiga-trust-m/externals/mbedtls/library\aes.c ****     V(5C,34,34,68), V(F4,A5,A5,51), V(34,E5,E5,D1), V(08,F1,F1,F9), \
 149:D:/School/diseratie/SEMS/xmc4800_evaluation_kit/optiga-trust-m/externals/mbedtls/library\aes.c ****     V(93,71,71,E2), V(73,D8,D8,AB), V(53,31,31,62), V(3F,15,15,2A), \
 150:D:/School/diseratie/SEMS/xmc4800_evaluation_kit/optiga-trust-m/externals/mbedtls/library\aes.c ****     V(0C,04,04,08), V(52,C7,C7,95), V(65,23,23,46), V(5E,C3,C3,9D), \
 151:D:/School/diseratie/SEMS/xmc4800_evaluation_kit/optiga-trust-m/externals/mbedtls/library\aes.c ****     V(28,18,18,30), V(A1,96,96,37), V(0F,05,05,0A), V(B5,9A,9A,2F), \
 152:D:/School/diseratie/SEMS/xmc4800_evaluation_kit/optiga-trust-m/externals/mbedtls/library\aes.c ****     V(09,07,07,0E), V(36,12,12,24), V(9B,80,80,1B), V(3D,E2,E2,DF), \
 153:D:/School/diseratie/SEMS/xmc4800_evaluation_kit/optiga-trust-m/externals/mbedtls/library\aes.c ****     V(26,EB,EB,CD), V(69,27,27,4E), V(CD,B2,B2,7F), V(9F,75,75,EA), \
 154:D:/School/diseratie/SEMS/xmc4800_evaluation_kit/optiga-trust-m/externals/mbedtls/library\aes.c ****     V(1B,09,09,12), V(9E,83,83,1D), V(74,2C,2C,58), V(2E,1A,1A,34), \
 155:D:/School/diseratie/SEMS/xmc4800_evaluation_kit/optiga-trust-m/externals/mbedtls/library\aes.c ****     V(2D,1B,1B,36), V(B2,6E,6E,DC), V(EE,5A,5A,B4), V(FB,A0,A0,5B), \
 156:D:/School/diseratie/SEMS/xmc4800_evaluation_kit/optiga-trust-m/externals/mbedtls/library\aes.c ****     V(F6,52,52,A4), V(4D,3B,3B,76), V(61,D6,D6,B7), V(CE,B3,B3,7D), \
 157:D:/School/diseratie/SEMS/xmc4800_evaluation_kit/optiga-trust-m/externals/mbedtls/library\aes.c ****     V(7B,29,29,52), V(3E,E3,E3,DD), V(71,2F,2F,5E), V(97,84,84,13), \
 158:D:/School/diseratie/SEMS/xmc4800_evaluation_kit/optiga-trust-m/externals/mbedtls/library\aes.c ****     V(F5,53,53,A6), V(68,D1,D1,B9), V(00,00,00,00), V(2C,ED,ED,C1), \
 159:D:/School/diseratie/SEMS/xmc4800_evaluation_kit/optiga-trust-m/externals/mbedtls/library\aes.c ****     V(60,20,20,40), V(1F,FC,FC,E3), V(C8,B1,B1,79), V(ED,5B,5B,B6), \
 160:D:/School/diseratie/SEMS/xmc4800_evaluation_kit/optiga-trust-m/externals/mbedtls/library\aes.c ****     V(BE,6A,6A,D4), V(46,CB,CB,8D), V(D9,BE,BE,67), V(4B,39,39,72), \
 161:D:/School/diseratie/SEMS/xmc4800_evaluation_kit/optiga-trust-m/externals/mbedtls/library\aes.c ****     V(DE,4A,4A,94), V(D4,4C,4C,98), V(E8,58,58,B0), V(4A,CF,CF,85), \
 162:D:/School/diseratie/SEMS/xmc4800_evaluation_kit/optiga-trust-m/externals/mbedtls/library\aes.c ****     V(6B,D0,D0,BB), V(2A,EF,EF,C5), V(E5,AA,AA,4F), V(16,FB,FB,ED), \
 163:D:/School/diseratie/SEMS/xmc4800_evaluation_kit/optiga-trust-m/externals/mbedtls/library\aes.c ****     V(C5,43,43,86), V(D7,4D,4D,9A), V(55,33,33,66), V(94,85,85,11), \
 164:D:/School/diseratie/SEMS/xmc4800_evaluation_kit/optiga-trust-m/externals/mbedtls/library\aes.c ****     V(CF,45,45,8A), V(10,F9,F9,E9), V(06,02,02,04), V(81,7F,7F,FE), \
 165:D:/School/diseratie/SEMS/xmc4800_evaluation_kit/optiga-trust-m/externals/mbedtls/library\aes.c ****     V(F0,50,50,A0), V(44,3C,3C,78), V(BA,9F,9F,25), V(E3,A8,A8,4B), \
 166:D:/School/diseratie/SEMS/xmc4800_evaluation_kit/optiga-trust-m/externals/mbedtls/library\aes.c ****     V(F3,51,51,A2), V(FE,A3,A3,5D), V(C0,40,40,80), V(8A,8F,8F,05), \
 167:D:/School/diseratie/SEMS/xmc4800_evaluation_kit/optiga-trust-m/externals/mbedtls/library\aes.c ****     V(AD,92,92,3F), V(BC,9D,9D,21), V(48,38,38,70), V(04,F5,F5,F1), \
 168:D:/School/diseratie/SEMS/xmc4800_evaluation_kit/optiga-trust-m/externals/mbedtls/library\aes.c ****     V(DF,BC,BC,63), V(C1,B6,B6,77), V(75,DA,DA,AF), V(63,21,21,42), \
 169:D:/School/diseratie/SEMS/xmc4800_evaluation_kit/optiga-trust-m/externals/mbedtls/library\aes.c ****     V(30,10,10,20), V(1A,FF,FF,E5), V(0E,F3,F3,FD), V(6D,D2,D2,BF), \
 170:D:/School/diseratie/SEMS/xmc4800_evaluation_kit/optiga-trust-m/externals/mbedtls/library\aes.c ****     V(4C,CD,CD,81), V(14,0C,0C,18), V(35,13,13,26), V(2F,EC,EC,C3), \
 171:D:/School/diseratie/SEMS/xmc4800_evaluation_kit/optiga-trust-m/externals/mbedtls/library\aes.c ****     V(E1,5F,5F,BE), V(A2,97,97,35), V(CC,44,44,88), V(39,17,17,2E), \
 172:D:/School/diseratie/SEMS/xmc4800_evaluation_kit/optiga-trust-m/externals/mbedtls/library\aes.c ****     V(57,C4,C4,93), V(F2,A7,A7,55), V(82,7E,7E,FC), V(47,3D,3D,7A), \
 173:D:/School/diseratie/SEMS/xmc4800_evaluation_kit/optiga-trust-m/externals/mbedtls/library\aes.c ****     V(AC,64,64,C8), V(E7,5D,5D,BA), V(2B,19,19,32), V(95,73,73,E6), \
 174:D:/School/diseratie/SEMS/xmc4800_evaluation_kit/optiga-trust-m/externals/mbedtls/library\aes.c ****     V(A0,60,60,C0), V(98,81,81,19), V(D1,4F,4F,9E), V(7F,DC,DC,A3), \
 175:D:/School/diseratie/SEMS/xmc4800_evaluation_kit/optiga-trust-m/externals/mbedtls/library\aes.c ****     V(66,22,22,44), V(7E,2A,2A,54), V(AB,90,90,3B), V(83,88,88,0B), \
 176:D:/School/diseratie/SEMS/xmc4800_evaluation_kit/optiga-trust-m/externals/mbedtls/library\aes.c ****     V(CA,46,46,8C), V(29,EE,EE,C7), V(D3,B8,B8,6B), V(3C,14,14,28), \
 177:D:/School/diseratie/SEMS/xmc4800_evaluation_kit/optiga-trust-m/externals/mbedtls/library\aes.c ****     V(79,DE,DE,A7), V(E2,5E,5E,BC), V(1D,0B,0B,16), V(76,DB,DB,AD), \
 178:D:/School/diseratie/SEMS/xmc4800_evaluation_kit/optiga-trust-m/externals/mbedtls/library\aes.c ****     V(3B,E0,E0,DB), V(56,32,32,64), V(4E,3A,3A,74), V(1E,0A,0A,14), \
 179:D:/School/diseratie/SEMS/xmc4800_evaluation_kit/optiga-trust-m/externals/mbedtls/library\aes.c ****     V(DB,49,49,92), V(0A,06,06,0C), V(6C,24,24,48), V(E4,5C,5C,B8), \
 180:D:/School/diseratie/SEMS/xmc4800_evaluation_kit/optiga-trust-m/externals/mbedtls/library\aes.c ****     V(5D,C2,C2,9F), V(6E,D3,D3,BD), V(EF,AC,AC,43), V(A6,62,62,C4), \
 181:D:/School/diseratie/SEMS/xmc4800_evaluation_kit/optiga-trust-m/externals/mbedtls/library\aes.c ****     V(A8,91,91,39), V(A4,95,95,31), V(37,E4,E4,D3), V(8B,79,79,F2), \
 182:D:/School/diseratie/SEMS/xmc4800_evaluation_kit/optiga-trust-m/externals/mbedtls/library\aes.c ****     V(32,E7,E7,D5), V(43,C8,C8,8B), V(59,37,37,6E), V(B7,6D,6D,DA), \
 183:D:/School/diseratie/SEMS/xmc4800_evaluation_kit/optiga-trust-m/externals/mbedtls/library\aes.c ****     V(8C,8D,8D,01), V(64,D5,D5,B1), V(D2,4E,4E,9C), V(E0,A9,A9,49), \
 184:D:/School/diseratie/SEMS/xmc4800_evaluation_kit/optiga-trust-m/externals/mbedtls/library\aes.c ****     V(B4,6C,6C,D8), V(FA,56,56,AC), V(07,F4,F4,F3), V(25,EA,EA,CF), \
 185:D:/School/diseratie/SEMS/xmc4800_evaluation_kit/optiga-trust-m/externals/mbedtls/library\aes.c ****     V(AF,65,65,CA), V(8E,7A,7A,F4), V(E9,AE,AE,47), V(18,08,08,10), \
 186:D:/School/diseratie/SEMS/xmc4800_evaluation_kit/optiga-trust-m/externals/mbedtls/library\aes.c ****     V(D5,BA,BA,6F), V(88,78,78,F0), V(6F,25,25,4A), V(72,2E,2E,5C), \
 187:D:/School/diseratie/SEMS/xmc4800_evaluation_kit/optiga-trust-m/externals/mbedtls/library\aes.c ****     V(24,1C,1C,38), V(F1,A6,A6,57), V(C7,B4,B4,73), V(51,C6,C6,97), \
 188:D:/School/diseratie/SEMS/xmc4800_evaluation_kit/optiga-trust-m/externals/mbedtls/library\aes.c ****     V(23,E8,E8,CB), V(7C,DD,DD,A1), V(9C,74,74,E8), V(21,1F,1F,3E), \
 189:D:/School/diseratie/SEMS/xmc4800_evaluation_kit/optiga-trust-m/externals/mbedtls/library\aes.c ****     V(DD,4B,4B,96), V(DC,BD,BD,61), V(86,8B,8B,0D), V(85,8A,8A,0F), \
 190:D:/School/diseratie/SEMS/xmc4800_evaluation_kit/optiga-trust-m/externals/mbedtls/library\aes.c ****     V(90,70,70,E0), V(42,3E,3E,7C), V(C4,B5,B5,71), V(AA,66,66,CC), \
 191:D:/School/diseratie/SEMS/xmc4800_evaluation_kit/optiga-trust-m/externals/mbedtls/library\aes.c ****     V(D8,48,48,90), V(05,03,03,06), V(01,F6,F6,F7), V(12,0E,0E,1C), \
 192:D:/School/diseratie/SEMS/xmc4800_evaluation_kit/optiga-trust-m/externals/mbedtls/library\aes.c ****     V(A3,61,61,C2), V(5F,35,35,6A), V(F9,57,57,AE), V(D0,B9,B9,69), \
 193:D:/School/diseratie/SEMS/xmc4800_evaluation_kit/optiga-trust-m/externals/mbedtls/library\aes.c ****     V(91,86,86,17), V(58,C1,C1,99), V(27,1D,1D,3A), V(B9,9E,9E,27), \
 194:D:/School/diseratie/SEMS/xmc4800_evaluation_kit/optiga-trust-m/externals/mbedtls/library\aes.c ****     V(38,E1,E1,D9), V(13,F8,F8,EB), V(B3,98,98,2B), V(33,11,11,22), \
 195:D:/School/diseratie/SEMS/xmc4800_evaluation_kit/optiga-trust-m/externals/mbedtls/library\aes.c ****     V(BB,69,69,D2), V(70,D9,D9,A9), V(89,8E,8E,07), V(A7,94,94,33), \
 196:D:/School/diseratie/SEMS/xmc4800_evaluation_kit/optiga-trust-m/externals/mbedtls/library\aes.c ****     V(B6,9B,9B,2D), V(22,1E,1E,3C), V(92,87,87,15), V(20,E9,E9,C9), \
 197:D:/School/diseratie/SEMS/xmc4800_evaluation_kit/optiga-trust-m/externals/mbedtls/library\aes.c ****     V(49,CE,CE,87), V(FF,55,55,AA), V(78,28,28,50), V(7A,DF,DF,A5), \
 198:D:/School/diseratie/SEMS/xmc4800_evaluation_kit/optiga-trust-m/externals/mbedtls/library\aes.c ****     V(8F,8C,8C,03), V(F8,A1,A1,59), V(80,89,89,09), V(17,0D,0D,1A), \
 199:D:/School/diseratie/SEMS/xmc4800_evaluation_kit/optiga-trust-m/externals/mbedtls/library\aes.c ****     V(DA,BF,BF,65), V(31,E6,E6,D7), V(C6,42,42,84), V(B8,68,68,D0), \
 200:D:/School/diseratie/SEMS/xmc4800_evaluation_kit/optiga-trust-m/externals/mbedtls/library\aes.c ****     V(C3,41,41,82), V(B0,99,99,29), V(77,2D,2D,5A), V(11,0F,0F,1E), \
 201:D:/School/diseratie/SEMS/xmc4800_evaluation_kit/optiga-trust-m/externals/mbedtls/library\aes.c ****     V(CB,B0,B0,7B), V(FC,54,54,A8), V(D6,BB,BB,6D), V(3A,16,16,2C)
 202:D:/School/diseratie/SEMS/xmc4800_evaluation_kit/optiga-trust-m/externals/mbedtls/library\aes.c **** 
 203:D:/School/diseratie/SEMS/xmc4800_evaluation_kit/optiga-trust-m/externals/mbedtls/library\aes.c **** #define V(a,b,c,d) 0x##a##b##c##d
 204:D:/School/diseratie/SEMS/xmc4800_evaluation_kit/optiga-trust-m/externals/mbedtls/library\aes.c **** static const uint32_t FT0[256] = { FT };
 205:D:/School/diseratie/SEMS/xmc4800_evaluation_kit/optiga-trust-m/externals/mbedtls/library\aes.c **** #undef V
 206:D:/School/diseratie/SEMS/xmc4800_evaluation_kit/optiga-trust-m/externals/mbedtls/library\aes.c **** 
 207:D:/School/diseratie/SEMS/xmc4800_evaluation_kit/optiga-trust-m/externals/mbedtls/library\aes.c **** #if !defined(MBEDTLS_AES_FEWER_TABLES)
 208:D:/School/diseratie/SEMS/xmc4800_evaluation_kit/optiga-trust-m/externals/mbedtls/library\aes.c **** 
 209:D:/School/diseratie/SEMS/xmc4800_evaluation_kit/optiga-trust-m/externals/mbedtls/library\aes.c **** #define V(a,b,c,d) 0x##b##c##d##a
 210:D:/School/diseratie/SEMS/xmc4800_evaluation_kit/optiga-trust-m/externals/mbedtls/library\aes.c **** static const uint32_t FT1[256] = { FT };
 211:D:/School/diseratie/SEMS/xmc4800_evaluation_kit/optiga-trust-m/externals/mbedtls/library\aes.c **** #undef V
 212:D:/School/diseratie/SEMS/xmc4800_evaluation_kit/optiga-trust-m/externals/mbedtls/library\aes.c **** 
 213:D:/School/diseratie/SEMS/xmc4800_evaluation_kit/optiga-trust-m/externals/mbedtls/library\aes.c **** #define V(a,b,c,d) 0x##c##d##a##b
 214:D:/School/diseratie/SEMS/xmc4800_evaluation_kit/optiga-trust-m/externals/mbedtls/library\aes.c **** static const uint32_t FT2[256] = { FT };
 215:D:/School/diseratie/SEMS/xmc4800_evaluation_kit/optiga-trust-m/externals/mbedtls/library\aes.c **** #undef V
 216:D:/School/diseratie/SEMS/xmc4800_evaluation_kit/optiga-trust-m/externals/mbedtls/library\aes.c **** 
 217:D:/School/diseratie/SEMS/xmc4800_evaluation_kit/optiga-trust-m/externals/mbedtls/library\aes.c **** #define V(a,b,c,d) 0x##d##a##b##c
 218:D:/School/diseratie/SEMS/xmc4800_evaluation_kit/optiga-trust-m/externals/mbedtls/library\aes.c **** static const uint32_t FT3[256] = { FT };
 219:D:/School/diseratie/SEMS/xmc4800_evaluation_kit/optiga-trust-m/externals/mbedtls/library\aes.c **** #undef V
 220:D:/School/diseratie/SEMS/xmc4800_evaluation_kit/optiga-trust-m/externals/mbedtls/library\aes.c **** 
 221:D:/School/diseratie/SEMS/xmc4800_evaluation_kit/optiga-trust-m/externals/mbedtls/library\aes.c **** #endif /* !MBEDTLS_AES_FEWER_TABLES */
 222:D:/School/diseratie/SEMS/xmc4800_evaluation_kit/optiga-trust-m/externals/mbedtls/library\aes.c **** 
 223:D:/School/diseratie/SEMS/xmc4800_evaluation_kit/optiga-trust-m/externals/mbedtls/library\aes.c **** #undef FT
 224:D:/School/diseratie/SEMS/xmc4800_evaluation_kit/optiga-trust-m/externals/mbedtls/library\aes.c **** 
 225:D:/School/diseratie/SEMS/xmc4800_evaluation_kit/optiga-trust-m/externals/mbedtls/library\aes.c **** /*
 226:D:/School/diseratie/SEMS/xmc4800_evaluation_kit/optiga-trust-m/externals/mbedtls/library\aes.c ****  * Reverse S-box
 227:D:/School/diseratie/SEMS/xmc4800_evaluation_kit/optiga-trust-m/externals/mbedtls/library\aes.c ****  */
 228:D:/School/diseratie/SEMS/xmc4800_evaluation_kit/optiga-trust-m/externals/mbedtls/library\aes.c **** static const unsigned char RSb[256] =
 229:D:/School/diseratie/SEMS/xmc4800_evaluation_kit/optiga-trust-m/externals/mbedtls/library\aes.c **** {
 230:D:/School/diseratie/SEMS/xmc4800_evaluation_kit/optiga-trust-m/externals/mbedtls/library\aes.c ****     0x52, 0x09, 0x6A, 0xD5, 0x30, 0x36, 0xA5, 0x38,
 231:D:/School/diseratie/SEMS/xmc4800_evaluation_kit/optiga-trust-m/externals/mbedtls/library\aes.c ****     0xBF, 0x40, 0xA3, 0x9E, 0x81, 0xF3, 0xD7, 0xFB,
 232:D:/School/diseratie/SEMS/xmc4800_evaluation_kit/optiga-trust-m/externals/mbedtls/library\aes.c ****     0x7C, 0xE3, 0x39, 0x82, 0x9B, 0x2F, 0xFF, 0x87,
 233:D:/School/diseratie/SEMS/xmc4800_evaluation_kit/optiga-trust-m/externals/mbedtls/library\aes.c ****     0x34, 0x8E, 0x43, 0x44, 0xC4, 0xDE, 0xE9, 0xCB,
 234:D:/School/diseratie/SEMS/xmc4800_evaluation_kit/optiga-trust-m/externals/mbedtls/library\aes.c ****     0x54, 0x7B, 0x94, 0x32, 0xA6, 0xC2, 0x23, 0x3D,
 235:D:/School/diseratie/SEMS/xmc4800_evaluation_kit/optiga-trust-m/externals/mbedtls/library\aes.c ****     0xEE, 0x4C, 0x95, 0x0B, 0x42, 0xFA, 0xC3, 0x4E,
 236:D:/School/diseratie/SEMS/xmc4800_evaluation_kit/optiga-trust-m/externals/mbedtls/library\aes.c ****     0x08, 0x2E, 0xA1, 0x66, 0x28, 0xD9, 0x24, 0xB2,
 237:D:/School/diseratie/SEMS/xmc4800_evaluation_kit/optiga-trust-m/externals/mbedtls/library\aes.c ****     0x76, 0x5B, 0xA2, 0x49, 0x6D, 0x8B, 0xD1, 0x25,
 238:D:/School/diseratie/SEMS/xmc4800_evaluation_kit/optiga-trust-m/externals/mbedtls/library\aes.c ****     0x72, 0xF8, 0xF6, 0x64, 0x86, 0x68, 0x98, 0x16,
 239:D:/School/diseratie/SEMS/xmc4800_evaluation_kit/optiga-trust-m/externals/mbedtls/library\aes.c ****     0xD4, 0xA4, 0x5C, 0xCC, 0x5D, 0x65, 0xB6, 0x92,
 240:D:/School/diseratie/SEMS/xmc4800_evaluation_kit/optiga-trust-m/externals/mbedtls/library\aes.c ****     0x6C, 0x70, 0x48, 0x50, 0xFD, 0xED, 0xB9, 0xDA,
 241:D:/School/diseratie/SEMS/xmc4800_evaluation_kit/optiga-trust-m/externals/mbedtls/library\aes.c ****     0x5E, 0x15, 0x46, 0x57, 0xA7, 0x8D, 0x9D, 0x84,
 242:D:/School/diseratie/SEMS/xmc4800_evaluation_kit/optiga-trust-m/externals/mbedtls/library\aes.c ****     0x90, 0xD8, 0xAB, 0x00, 0x8C, 0xBC, 0xD3, 0x0A,
 243:D:/School/diseratie/SEMS/xmc4800_evaluation_kit/optiga-trust-m/externals/mbedtls/library\aes.c ****     0xF7, 0xE4, 0x58, 0x05, 0xB8, 0xB3, 0x45, 0x06,
 244:D:/School/diseratie/SEMS/xmc4800_evaluation_kit/optiga-trust-m/externals/mbedtls/library\aes.c ****     0xD0, 0x2C, 0x1E, 0x8F, 0xCA, 0x3F, 0x0F, 0x02,
 245:D:/School/diseratie/SEMS/xmc4800_evaluation_kit/optiga-trust-m/externals/mbedtls/library\aes.c ****     0xC1, 0xAF, 0xBD, 0x03, 0x01, 0x13, 0x8A, 0x6B,
 246:D:/School/diseratie/SEMS/xmc4800_evaluation_kit/optiga-trust-m/externals/mbedtls/library\aes.c ****     0x3A, 0x91, 0x11, 0x41, 0x4F, 0x67, 0xDC, 0xEA,
 247:D:/School/diseratie/SEMS/xmc4800_evaluation_kit/optiga-trust-m/externals/mbedtls/library\aes.c ****     0x97, 0xF2, 0xCF, 0xCE, 0xF0, 0xB4, 0xE6, 0x73,
 248:D:/School/diseratie/SEMS/xmc4800_evaluation_kit/optiga-trust-m/externals/mbedtls/library\aes.c ****     0x96, 0xAC, 0x74, 0x22, 0xE7, 0xAD, 0x35, 0x85,
 249:D:/School/diseratie/SEMS/xmc4800_evaluation_kit/optiga-trust-m/externals/mbedtls/library\aes.c ****     0xE2, 0xF9, 0x37, 0xE8, 0x1C, 0x75, 0xDF, 0x6E,
 250:D:/School/diseratie/SEMS/xmc4800_evaluation_kit/optiga-trust-m/externals/mbedtls/library\aes.c ****     0x47, 0xF1, 0x1A, 0x71, 0x1D, 0x29, 0xC5, 0x89,
 251:D:/School/diseratie/SEMS/xmc4800_evaluation_kit/optiga-trust-m/externals/mbedtls/library\aes.c ****     0x6F, 0xB7, 0x62, 0x0E, 0xAA, 0x18, 0xBE, 0x1B,
 252:D:/School/diseratie/SEMS/xmc4800_evaluation_kit/optiga-trust-m/externals/mbedtls/library\aes.c ****     0xFC, 0x56, 0x3E, 0x4B, 0xC6, 0xD2, 0x79, 0x20,
 253:D:/School/diseratie/SEMS/xmc4800_evaluation_kit/optiga-trust-m/externals/mbedtls/library\aes.c ****     0x9A, 0xDB, 0xC0, 0xFE, 0x78, 0xCD, 0x5A, 0xF4,
 254:D:/School/diseratie/SEMS/xmc4800_evaluation_kit/optiga-trust-m/externals/mbedtls/library\aes.c ****     0x1F, 0xDD, 0xA8, 0x33, 0x88, 0x07, 0xC7, 0x31,
 255:D:/School/diseratie/SEMS/xmc4800_evaluation_kit/optiga-trust-m/externals/mbedtls/library\aes.c ****     0xB1, 0x12, 0x10, 0x59, 0x27, 0x80, 0xEC, 0x5F,
 256:D:/School/diseratie/SEMS/xmc4800_evaluation_kit/optiga-trust-m/externals/mbedtls/library\aes.c ****     0x60, 0x51, 0x7F, 0xA9, 0x19, 0xB5, 0x4A, 0x0D,
 257:D:/School/diseratie/SEMS/xmc4800_evaluation_kit/optiga-trust-m/externals/mbedtls/library\aes.c ****     0x2D, 0xE5, 0x7A, 0x9F, 0x93, 0xC9, 0x9C, 0xEF,
 258:D:/School/diseratie/SEMS/xmc4800_evaluation_kit/optiga-trust-m/externals/mbedtls/library\aes.c ****     0xA0, 0xE0, 0x3B, 0x4D, 0xAE, 0x2A, 0xF5, 0xB0,
 259:D:/School/diseratie/SEMS/xmc4800_evaluation_kit/optiga-trust-m/externals/mbedtls/library\aes.c ****     0xC8, 0xEB, 0xBB, 0x3C, 0x83, 0x53, 0x99, 0x61,
 260:D:/School/diseratie/SEMS/xmc4800_evaluation_kit/optiga-trust-m/externals/mbedtls/library\aes.c ****     0x17, 0x2B, 0x04, 0x7E, 0xBA, 0x77, 0xD6, 0x26,
 261:D:/School/diseratie/SEMS/xmc4800_evaluation_kit/optiga-trust-m/externals/mbedtls/library\aes.c ****     0xE1, 0x69, 0x14, 0x63, 0x55, 0x21, 0x0C, 0x7D
 262:D:/School/diseratie/SEMS/xmc4800_evaluation_kit/optiga-trust-m/externals/mbedtls/library\aes.c **** };
 263:D:/School/diseratie/SEMS/xmc4800_evaluation_kit/optiga-trust-m/externals/mbedtls/library\aes.c **** 
 264:D:/School/diseratie/SEMS/xmc4800_evaluation_kit/optiga-trust-m/externals/mbedtls/library\aes.c **** /*
 265:D:/School/diseratie/SEMS/xmc4800_evaluation_kit/optiga-trust-m/externals/mbedtls/library\aes.c ****  * Reverse tables
 266:D:/School/diseratie/SEMS/xmc4800_evaluation_kit/optiga-trust-m/externals/mbedtls/library\aes.c ****  */
 267:D:/School/diseratie/SEMS/xmc4800_evaluation_kit/optiga-trust-m/externals/mbedtls/library\aes.c **** #define RT \
 268:D:/School/diseratie/SEMS/xmc4800_evaluation_kit/optiga-trust-m/externals/mbedtls/library\aes.c **** \
 269:D:/School/diseratie/SEMS/xmc4800_evaluation_kit/optiga-trust-m/externals/mbedtls/library\aes.c ****     V(50,A7,F4,51), V(53,65,41,7E), V(C3,A4,17,1A), V(96,5E,27,3A), \
 270:D:/School/diseratie/SEMS/xmc4800_evaluation_kit/optiga-trust-m/externals/mbedtls/library\aes.c ****     V(CB,6B,AB,3B), V(F1,45,9D,1F), V(AB,58,FA,AC), V(93,03,E3,4B), \
 271:D:/School/diseratie/SEMS/xmc4800_evaluation_kit/optiga-trust-m/externals/mbedtls/library\aes.c ****     V(55,FA,30,20), V(F6,6D,76,AD), V(91,76,CC,88), V(25,4C,02,F5), \
 272:D:/School/diseratie/SEMS/xmc4800_evaluation_kit/optiga-trust-m/externals/mbedtls/library\aes.c ****     V(FC,D7,E5,4F), V(D7,CB,2A,C5), V(80,44,35,26), V(8F,A3,62,B5), \
 273:D:/School/diseratie/SEMS/xmc4800_evaluation_kit/optiga-trust-m/externals/mbedtls/library\aes.c ****     V(49,5A,B1,DE), V(67,1B,BA,25), V(98,0E,EA,45), V(E1,C0,FE,5D), \
 274:D:/School/diseratie/SEMS/xmc4800_evaluation_kit/optiga-trust-m/externals/mbedtls/library\aes.c ****     V(02,75,2F,C3), V(12,F0,4C,81), V(A3,97,46,8D), V(C6,F9,D3,6B), \
 275:D:/School/diseratie/SEMS/xmc4800_evaluation_kit/optiga-trust-m/externals/mbedtls/library\aes.c ****     V(E7,5F,8F,03), V(95,9C,92,15), V(EB,7A,6D,BF), V(DA,59,52,95), \
 276:D:/School/diseratie/SEMS/xmc4800_evaluation_kit/optiga-trust-m/externals/mbedtls/library\aes.c ****     V(2D,83,BE,D4), V(D3,21,74,58), V(29,69,E0,49), V(44,C8,C9,8E), \
 277:D:/School/diseratie/SEMS/xmc4800_evaluation_kit/optiga-trust-m/externals/mbedtls/library\aes.c ****     V(6A,89,C2,75), V(78,79,8E,F4), V(6B,3E,58,99), V(DD,71,B9,27), \
 278:D:/School/diseratie/SEMS/xmc4800_evaluation_kit/optiga-trust-m/externals/mbedtls/library\aes.c ****     V(B6,4F,E1,BE), V(17,AD,88,F0), V(66,AC,20,C9), V(B4,3A,CE,7D), \
 279:D:/School/diseratie/SEMS/xmc4800_evaluation_kit/optiga-trust-m/externals/mbedtls/library\aes.c ****     V(18,4A,DF,63), V(82,31,1A,E5), V(60,33,51,97), V(45,7F,53,62), \
 280:D:/School/diseratie/SEMS/xmc4800_evaluation_kit/optiga-trust-m/externals/mbedtls/library\aes.c ****     V(E0,77,64,B1), V(84,AE,6B,BB), V(1C,A0,81,FE), V(94,2B,08,F9), \
 281:D:/School/diseratie/SEMS/xmc4800_evaluation_kit/optiga-trust-m/externals/mbedtls/library\aes.c ****     V(58,68,48,70), V(19,FD,45,8F), V(87,6C,DE,94), V(B7,F8,7B,52), \
 282:D:/School/diseratie/SEMS/xmc4800_evaluation_kit/optiga-trust-m/externals/mbedtls/library\aes.c ****     V(23,D3,73,AB), V(E2,02,4B,72), V(57,8F,1F,E3), V(2A,AB,55,66), \
 283:D:/School/diseratie/SEMS/xmc4800_evaluation_kit/optiga-trust-m/externals/mbedtls/library\aes.c ****     V(07,28,EB,B2), V(03,C2,B5,2F), V(9A,7B,C5,86), V(A5,08,37,D3), \
 284:D:/School/diseratie/SEMS/xmc4800_evaluation_kit/optiga-trust-m/externals/mbedtls/library\aes.c ****     V(F2,87,28,30), V(B2,A5,BF,23), V(BA,6A,03,02), V(5C,82,16,ED), \
 285:D:/School/diseratie/SEMS/xmc4800_evaluation_kit/optiga-trust-m/externals/mbedtls/library\aes.c ****     V(2B,1C,CF,8A), V(92,B4,79,A7), V(F0,F2,07,F3), V(A1,E2,69,4E), \
 286:D:/School/diseratie/SEMS/xmc4800_evaluation_kit/optiga-trust-m/externals/mbedtls/library\aes.c ****     V(CD,F4,DA,65), V(D5,BE,05,06), V(1F,62,34,D1), V(8A,FE,A6,C4), \
 287:D:/School/diseratie/SEMS/xmc4800_evaluation_kit/optiga-trust-m/externals/mbedtls/library\aes.c ****     V(9D,53,2E,34), V(A0,55,F3,A2), V(32,E1,8A,05), V(75,EB,F6,A4), \
 288:D:/School/diseratie/SEMS/xmc4800_evaluation_kit/optiga-trust-m/externals/mbedtls/library\aes.c ****     V(39,EC,83,0B), V(AA,EF,60,40), V(06,9F,71,5E), V(51,10,6E,BD), \
 289:D:/School/diseratie/SEMS/xmc4800_evaluation_kit/optiga-trust-m/externals/mbedtls/library\aes.c ****     V(F9,8A,21,3E), V(3D,06,DD,96), V(AE,05,3E,DD), V(46,BD,E6,4D), \
 290:D:/School/diseratie/SEMS/xmc4800_evaluation_kit/optiga-trust-m/externals/mbedtls/library\aes.c ****     V(B5,8D,54,91), V(05,5D,C4,71), V(6F,D4,06,04), V(FF,15,50,60), \
 291:D:/School/diseratie/SEMS/xmc4800_evaluation_kit/optiga-trust-m/externals/mbedtls/library\aes.c ****     V(24,FB,98,19), V(97,E9,BD,D6), V(CC,43,40,89), V(77,9E,D9,67), \
 292:D:/School/diseratie/SEMS/xmc4800_evaluation_kit/optiga-trust-m/externals/mbedtls/library\aes.c ****     V(BD,42,E8,B0), V(88,8B,89,07), V(38,5B,19,E7), V(DB,EE,C8,79), \
 293:D:/School/diseratie/SEMS/xmc4800_evaluation_kit/optiga-trust-m/externals/mbedtls/library\aes.c ****     V(47,0A,7C,A1), V(E9,0F,42,7C), V(C9,1E,84,F8), V(00,00,00,00), \
 294:D:/School/diseratie/SEMS/xmc4800_evaluation_kit/optiga-trust-m/externals/mbedtls/library\aes.c ****     V(83,86,80,09), V(48,ED,2B,32), V(AC,70,11,1E), V(4E,72,5A,6C), \
 295:D:/School/diseratie/SEMS/xmc4800_evaluation_kit/optiga-trust-m/externals/mbedtls/library\aes.c ****     V(FB,FF,0E,FD), V(56,38,85,0F), V(1E,D5,AE,3D), V(27,39,2D,36), \
 296:D:/School/diseratie/SEMS/xmc4800_evaluation_kit/optiga-trust-m/externals/mbedtls/library\aes.c ****     V(64,D9,0F,0A), V(21,A6,5C,68), V(D1,54,5B,9B), V(3A,2E,36,24), \
 297:D:/School/diseratie/SEMS/xmc4800_evaluation_kit/optiga-trust-m/externals/mbedtls/library\aes.c ****     V(B1,67,0A,0C), V(0F,E7,57,93), V(D2,96,EE,B4), V(9E,91,9B,1B), \
 298:D:/School/diseratie/SEMS/xmc4800_evaluation_kit/optiga-trust-m/externals/mbedtls/library\aes.c ****     V(4F,C5,C0,80), V(A2,20,DC,61), V(69,4B,77,5A), V(16,1A,12,1C), \
 299:D:/School/diseratie/SEMS/xmc4800_evaluation_kit/optiga-trust-m/externals/mbedtls/library\aes.c ****     V(0A,BA,93,E2), V(E5,2A,A0,C0), V(43,E0,22,3C), V(1D,17,1B,12), \
 300:D:/School/diseratie/SEMS/xmc4800_evaluation_kit/optiga-trust-m/externals/mbedtls/library\aes.c ****     V(0B,0D,09,0E), V(AD,C7,8B,F2), V(B9,A8,B6,2D), V(C8,A9,1E,14), \
 301:D:/School/diseratie/SEMS/xmc4800_evaluation_kit/optiga-trust-m/externals/mbedtls/library\aes.c ****     V(85,19,F1,57), V(4C,07,75,AF), V(BB,DD,99,EE), V(FD,60,7F,A3), \
 302:D:/School/diseratie/SEMS/xmc4800_evaluation_kit/optiga-trust-m/externals/mbedtls/library\aes.c ****     V(9F,26,01,F7), V(BC,F5,72,5C), V(C5,3B,66,44), V(34,7E,FB,5B), \
 303:D:/School/diseratie/SEMS/xmc4800_evaluation_kit/optiga-trust-m/externals/mbedtls/library\aes.c ****     V(76,29,43,8B), V(DC,C6,23,CB), V(68,FC,ED,B6), V(63,F1,E4,B8), \
 304:D:/School/diseratie/SEMS/xmc4800_evaluation_kit/optiga-trust-m/externals/mbedtls/library\aes.c ****     V(CA,DC,31,D7), V(10,85,63,42), V(40,22,97,13), V(20,11,C6,84), \
 305:D:/School/diseratie/SEMS/xmc4800_evaluation_kit/optiga-trust-m/externals/mbedtls/library\aes.c ****     V(7D,24,4A,85), V(F8,3D,BB,D2), V(11,32,F9,AE), V(6D,A1,29,C7), \
 306:D:/School/diseratie/SEMS/xmc4800_evaluation_kit/optiga-trust-m/externals/mbedtls/library\aes.c ****     V(4B,2F,9E,1D), V(F3,30,B2,DC), V(EC,52,86,0D), V(D0,E3,C1,77), \
 307:D:/School/diseratie/SEMS/xmc4800_evaluation_kit/optiga-trust-m/externals/mbedtls/library\aes.c ****     V(6C,16,B3,2B), V(99,B9,70,A9), V(FA,48,94,11), V(22,64,E9,47), \
 308:D:/School/diseratie/SEMS/xmc4800_evaluation_kit/optiga-trust-m/externals/mbedtls/library\aes.c ****     V(C4,8C,FC,A8), V(1A,3F,F0,A0), V(D8,2C,7D,56), V(EF,90,33,22), \
 309:D:/School/diseratie/SEMS/xmc4800_evaluation_kit/optiga-trust-m/externals/mbedtls/library\aes.c ****     V(C7,4E,49,87), V(C1,D1,38,D9), V(FE,A2,CA,8C), V(36,0B,D4,98), \
 310:D:/School/diseratie/SEMS/xmc4800_evaluation_kit/optiga-trust-m/externals/mbedtls/library\aes.c ****     V(CF,81,F5,A6), V(28,DE,7A,A5), V(26,8E,B7,DA), V(A4,BF,AD,3F), \
 311:D:/School/diseratie/SEMS/xmc4800_evaluation_kit/optiga-trust-m/externals/mbedtls/library\aes.c ****     V(E4,9D,3A,2C), V(0D,92,78,50), V(9B,CC,5F,6A), V(62,46,7E,54), \
 312:D:/School/diseratie/SEMS/xmc4800_evaluation_kit/optiga-trust-m/externals/mbedtls/library\aes.c ****     V(C2,13,8D,F6), V(E8,B8,D8,90), V(5E,F7,39,2E), V(F5,AF,C3,82), \
 313:D:/School/diseratie/SEMS/xmc4800_evaluation_kit/optiga-trust-m/externals/mbedtls/library\aes.c ****     V(BE,80,5D,9F), V(7C,93,D0,69), V(A9,2D,D5,6F), V(B3,12,25,CF), \
 314:D:/School/diseratie/SEMS/xmc4800_evaluation_kit/optiga-trust-m/externals/mbedtls/library\aes.c ****     V(3B,99,AC,C8), V(A7,7D,18,10), V(6E,63,9C,E8), V(7B,BB,3B,DB), \
 315:D:/School/diseratie/SEMS/xmc4800_evaluation_kit/optiga-trust-m/externals/mbedtls/library\aes.c ****     V(09,78,26,CD), V(F4,18,59,6E), V(01,B7,9A,EC), V(A8,9A,4F,83), \
 316:D:/School/diseratie/SEMS/xmc4800_evaluation_kit/optiga-trust-m/externals/mbedtls/library\aes.c ****     V(65,6E,95,E6), V(7E,E6,FF,AA), V(08,CF,BC,21), V(E6,E8,15,EF), \
 317:D:/School/diseratie/SEMS/xmc4800_evaluation_kit/optiga-trust-m/externals/mbedtls/library\aes.c ****     V(D9,9B,E7,BA), V(CE,36,6F,4A), V(D4,09,9F,EA), V(D6,7C,B0,29), \
 318:D:/School/diseratie/SEMS/xmc4800_evaluation_kit/optiga-trust-m/externals/mbedtls/library\aes.c ****     V(AF,B2,A4,31), V(31,23,3F,2A), V(30,94,A5,C6), V(C0,66,A2,35), \
 319:D:/School/diseratie/SEMS/xmc4800_evaluation_kit/optiga-trust-m/externals/mbedtls/library\aes.c ****     V(37,BC,4E,74), V(A6,CA,82,FC), V(B0,D0,90,E0), V(15,D8,A7,33), \
 320:D:/School/diseratie/SEMS/xmc4800_evaluation_kit/optiga-trust-m/externals/mbedtls/library\aes.c ****     V(4A,98,04,F1), V(F7,DA,EC,41), V(0E,50,CD,7F), V(2F,F6,91,17), \
 321:D:/School/diseratie/SEMS/xmc4800_evaluation_kit/optiga-trust-m/externals/mbedtls/library\aes.c ****     V(8D,D6,4D,76), V(4D,B0,EF,43), V(54,4D,AA,CC), V(DF,04,96,E4), \
 322:D:/School/diseratie/SEMS/xmc4800_evaluation_kit/optiga-trust-m/externals/mbedtls/library\aes.c ****     V(E3,B5,D1,9E), V(1B,88,6A,4C), V(B8,1F,2C,C1), V(7F,51,65,46), \
 323:D:/School/diseratie/SEMS/xmc4800_evaluation_kit/optiga-trust-m/externals/mbedtls/library\aes.c ****     V(04,EA,5E,9D), V(5D,35,8C,01), V(73,74,87,FA), V(2E,41,0B,FB), \
 324:D:/School/diseratie/SEMS/xmc4800_evaluation_kit/optiga-trust-m/externals/mbedtls/library\aes.c ****     V(5A,1D,67,B3), V(52,D2,DB,92), V(33,56,10,E9), V(13,47,D6,6D), \
 325:D:/School/diseratie/SEMS/xmc4800_evaluation_kit/optiga-trust-m/externals/mbedtls/library\aes.c ****     V(8C,61,D7,9A), V(7A,0C,A1,37), V(8E,14,F8,59), V(89,3C,13,EB), \
 326:D:/School/diseratie/SEMS/xmc4800_evaluation_kit/optiga-trust-m/externals/mbedtls/library\aes.c ****     V(EE,27,A9,CE), V(35,C9,61,B7), V(ED,E5,1C,E1), V(3C,B1,47,7A), \
 327:D:/School/diseratie/SEMS/xmc4800_evaluation_kit/optiga-trust-m/externals/mbedtls/library\aes.c ****     V(59,DF,D2,9C), V(3F,73,F2,55), V(79,CE,14,18), V(BF,37,C7,73), \
 328:D:/School/diseratie/SEMS/xmc4800_evaluation_kit/optiga-trust-m/externals/mbedtls/library\aes.c ****     V(EA,CD,F7,53), V(5B,AA,FD,5F), V(14,6F,3D,DF), V(86,DB,44,78), \
 329:D:/School/diseratie/SEMS/xmc4800_evaluation_kit/optiga-trust-m/externals/mbedtls/library\aes.c ****     V(81,F3,AF,CA), V(3E,C4,68,B9), V(2C,34,24,38), V(5F,40,A3,C2), \
 330:D:/School/diseratie/SEMS/xmc4800_evaluation_kit/optiga-trust-m/externals/mbedtls/library\aes.c ****     V(72,C3,1D,16), V(0C,25,E2,BC), V(8B,49,3C,28), V(41,95,0D,FF), \
 331:D:/School/diseratie/SEMS/xmc4800_evaluation_kit/optiga-trust-m/externals/mbedtls/library\aes.c ****     V(71,01,A8,39), V(DE,B3,0C,08), V(9C,E4,B4,D8), V(90,C1,56,64), \
 332:D:/School/diseratie/SEMS/xmc4800_evaluation_kit/optiga-trust-m/externals/mbedtls/library\aes.c ****     V(61,84,CB,7B), V(70,B6,32,D5), V(74,5C,6C,48), V(42,57,B8,D0)
 333:D:/School/diseratie/SEMS/xmc4800_evaluation_kit/optiga-trust-m/externals/mbedtls/library\aes.c **** 
 334:D:/School/diseratie/SEMS/xmc4800_evaluation_kit/optiga-trust-m/externals/mbedtls/library\aes.c **** #define V(a,b,c,d) 0x##a##b##c##d
 335:D:/School/diseratie/SEMS/xmc4800_evaluation_kit/optiga-trust-m/externals/mbedtls/library\aes.c **** static const uint32_t RT0[256] = { RT };
 336:D:/School/diseratie/SEMS/xmc4800_evaluation_kit/optiga-trust-m/externals/mbedtls/library\aes.c **** #undef V
 337:D:/School/diseratie/SEMS/xmc4800_evaluation_kit/optiga-trust-m/externals/mbedtls/library\aes.c **** 
 338:D:/School/diseratie/SEMS/xmc4800_evaluation_kit/optiga-trust-m/externals/mbedtls/library\aes.c **** #if !defined(MBEDTLS_AES_FEWER_TABLES)
 339:D:/School/diseratie/SEMS/xmc4800_evaluation_kit/optiga-trust-m/externals/mbedtls/library\aes.c **** 
 340:D:/School/diseratie/SEMS/xmc4800_evaluation_kit/optiga-trust-m/externals/mbedtls/library\aes.c **** #define V(a,b,c,d) 0x##b##c##d##a
 341:D:/School/diseratie/SEMS/xmc4800_evaluation_kit/optiga-trust-m/externals/mbedtls/library\aes.c **** static const uint32_t RT1[256] = { RT };
 342:D:/School/diseratie/SEMS/xmc4800_evaluation_kit/optiga-trust-m/externals/mbedtls/library\aes.c **** #undef V
 343:D:/School/diseratie/SEMS/xmc4800_evaluation_kit/optiga-trust-m/externals/mbedtls/library\aes.c **** 
 344:D:/School/diseratie/SEMS/xmc4800_evaluation_kit/optiga-trust-m/externals/mbedtls/library\aes.c **** #define V(a,b,c,d) 0x##c##d##a##b
 345:D:/School/diseratie/SEMS/xmc4800_evaluation_kit/optiga-trust-m/externals/mbedtls/library\aes.c **** static const uint32_t RT2[256] = { RT };
 346:D:/School/diseratie/SEMS/xmc4800_evaluation_kit/optiga-trust-m/externals/mbedtls/library\aes.c **** #undef V
 347:D:/School/diseratie/SEMS/xmc4800_evaluation_kit/optiga-trust-m/externals/mbedtls/library\aes.c **** 
 348:D:/School/diseratie/SEMS/xmc4800_evaluation_kit/optiga-trust-m/externals/mbedtls/library\aes.c **** #define V(a,b,c,d) 0x##d##a##b##c
 349:D:/School/diseratie/SEMS/xmc4800_evaluation_kit/optiga-trust-m/externals/mbedtls/library\aes.c **** static const uint32_t RT3[256] = { RT };
 350:D:/School/diseratie/SEMS/xmc4800_evaluation_kit/optiga-trust-m/externals/mbedtls/library\aes.c **** #undef V
 351:D:/School/diseratie/SEMS/xmc4800_evaluation_kit/optiga-trust-m/externals/mbedtls/library\aes.c **** 
 352:D:/School/diseratie/SEMS/xmc4800_evaluation_kit/optiga-trust-m/externals/mbedtls/library\aes.c **** #endif /* !MBEDTLS_AES_FEWER_TABLES */
 353:D:/School/diseratie/SEMS/xmc4800_evaluation_kit/optiga-trust-m/externals/mbedtls/library\aes.c **** 
 354:D:/School/diseratie/SEMS/xmc4800_evaluation_kit/optiga-trust-m/externals/mbedtls/library\aes.c **** #undef RT
 355:D:/School/diseratie/SEMS/xmc4800_evaluation_kit/optiga-trust-m/externals/mbedtls/library\aes.c **** 
 356:D:/School/diseratie/SEMS/xmc4800_evaluation_kit/optiga-trust-m/externals/mbedtls/library\aes.c **** /*
 357:D:/School/diseratie/SEMS/xmc4800_evaluation_kit/optiga-trust-m/externals/mbedtls/library\aes.c ****  * Round constants
 358:D:/School/diseratie/SEMS/xmc4800_evaluation_kit/optiga-trust-m/externals/mbedtls/library\aes.c ****  */
 359:D:/School/diseratie/SEMS/xmc4800_evaluation_kit/optiga-trust-m/externals/mbedtls/library\aes.c **** static const uint32_t RCON[10] =
 360:D:/School/diseratie/SEMS/xmc4800_evaluation_kit/optiga-trust-m/externals/mbedtls/library\aes.c **** {
 361:D:/School/diseratie/SEMS/xmc4800_evaluation_kit/optiga-trust-m/externals/mbedtls/library\aes.c ****     0x00000001, 0x00000002, 0x00000004, 0x00000008,
 362:D:/School/diseratie/SEMS/xmc4800_evaluation_kit/optiga-trust-m/externals/mbedtls/library\aes.c ****     0x00000010, 0x00000020, 0x00000040, 0x00000080,
 363:D:/School/diseratie/SEMS/xmc4800_evaluation_kit/optiga-trust-m/externals/mbedtls/library\aes.c ****     0x0000001B, 0x00000036
 364:D:/School/diseratie/SEMS/xmc4800_evaluation_kit/optiga-trust-m/externals/mbedtls/library\aes.c **** };
 365:D:/School/diseratie/SEMS/xmc4800_evaluation_kit/optiga-trust-m/externals/mbedtls/library\aes.c **** 
 366:D:/School/diseratie/SEMS/xmc4800_evaluation_kit/optiga-trust-m/externals/mbedtls/library\aes.c **** #else /* MBEDTLS_AES_ROM_TABLES */
 367:D:/School/diseratie/SEMS/xmc4800_evaluation_kit/optiga-trust-m/externals/mbedtls/library\aes.c **** 
 368:D:/School/diseratie/SEMS/xmc4800_evaluation_kit/optiga-trust-m/externals/mbedtls/library\aes.c **** /*
 369:D:/School/diseratie/SEMS/xmc4800_evaluation_kit/optiga-trust-m/externals/mbedtls/library\aes.c ****  * Forward S-box & tables
 370:D:/School/diseratie/SEMS/xmc4800_evaluation_kit/optiga-trust-m/externals/mbedtls/library\aes.c ****  */
 371:D:/School/diseratie/SEMS/xmc4800_evaluation_kit/optiga-trust-m/externals/mbedtls/library\aes.c **** static unsigned char FSb[256];
 372:D:/School/diseratie/SEMS/xmc4800_evaluation_kit/optiga-trust-m/externals/mbedtls/library\aes.c **** static uint32_t FT0[256];
 373:D:/School/diseratie/SEMS/xmc4800_evaluation_kit/optiga-trust-m/externals/mbedtls/library\aes.c **** #if !defined(MBEDTLS_AES_FEWER_TABLES)
 374:D:/School/diseratie/SEMS/xmc4800_evaluation_kit/optiga-trust-m/externals/mbedtls/library\aes.c **** static uint32_t FT1[256];
 375:D:/School/diseratie/SEMS/xmc4800_evaluation_kit/optiga-trust-m/externals/mbedtls/library\aes.c **** static uint32_t FT2[256];
 376:D:/School/diseratie/SEMS/xmc4800_evaluation_kit/optiga-trust-m/externals/mbedtls/library\aes.c **** static uint32_t FT3[256];
 377:D:/School/diseratie/SEMS/xmc4800_evaluation_kit/optiga-trust-m/externals/mbedtls/library\aes.c **** #endif /* !MBEDTLS_AES_FEWER_TABLES */
 378:D:/School/diseratie/SEMS/xmc4800_evaluation_kit/optiga-trust-m/externals/mbedtls/library\aes.c **** 
 379:D:/School/diseratie/SEMS/xmc4800_evaluation_kit/optiga-trust-m/externals/mbedtls/library\aes.c **** /*
 380:D:/School/diseratie/SEMS/xmc4800_evaluation_kit/optiga-trust-m/externals/mbedtls/library\aes.c ****  * Reverse S-box & tables
 381:D:/School/diseratie/SEMS/xmc4800_evaluation_kit/optiga-trust-m/externals/mbedtls/library\aes.c ****  */
 382:D:/School/diseratie/SEMS/xmc4800_evaluation_kit/optiga-trust-m/externals/mbedtls/library\aes.c **** static unsigned char RSb[256];
 383:D:/School/diseratie/SEMS/xmc4800_evaluation_kit/optiga-trust-m/externals/mbedtls/library\aes.c **** static uint32_t RT0[256];
 384:D:/School/diseratie/SEMS/xmc4800_evaluation_kit/optiga-trust-m/externals/mbedtls/library\aes.c **** #if !defined(MBEDTLS_AES_FEWER_TABLES)
 385:D:/School/diseratie/SEMS/xmc4800_evaluation_kit/optiga-trust-m/externals/mbedtls/library\aes.c **** static uint32_t RT1[256];
 386:D:/School/diseratie/SEMS/xmc4800_evaluation_kit/optiga-trust-m/externals/mbedtls/library\aes.c **** static uint32_t RT2[256];
 387:D:/School/diseratie/SEMS/xmc4800_evaluation_kit/optiga-trust-m/externals/mbedtls/library\aes.c **** static uint32_t RT3[256];
 388:D:/School/diseratie/SEMS/xmc4800_evaluation_kit/optiga-trust-m/externals/mbedtls/library\aes.c **** #endif /* !MBEDTLS_AES_FEWER_TABLES */
 389:D:/School/diseratie/SEMS/xmc4800_evaluation_kit/optiga-trust-m/externals/mbedtls/library\aes.c **** 
 390:D:/School/diseratie/SEMS/xmc4800_evaluation_kit/optiga-trust-m/externals/mbedtls/library\aes.c **** /*
 391:D:/School/diseratie/SEMS/xmc4800_evaluation_kit/optiga-trust-m/externals/mbedtls/library\aes.c ****  * Round constants
 392:D:/School/diseratie/SEMS/xmc4800_evaluation_kit/optiga-trust-m/externals/mbedtls/library\aes.c ****  */
 393:D:/School/diseratie/SEMS/xmc4800_evaluation_kit/optiga-trust-m/externals/mbedtls/library\aes.c **** static uint32_t RCON[10];
 394:D:/School/diseratie/SEMS/xmc4800_evaluation_kit/optiga-trust-m/externals/mbedtls/library\aes.c **** 
 395:D:/School/diseratie/SEMS/xmc4800_evaluation_kit/optiga-trust-m/externals/mbedtls/library\aes.c **** /*
 396:D:/School/diseratie/SEMS/xmc4800_evaluation_kit/optiga-trust-m/externals/mbedtls/library\aes.c ****  * Tables generation code
 397:D:/School/diseratie/SEMS/xmc4800_evaluation_kit/optiga-trust-m/externals/mbedtls/library\aes.c ****  */
 398:D:/School/diseratie/SEMS/xmc4800_evaluation_kit/optiga-trust-m/externals/mbedtls/library\aes.c **** #define ROTL8(x) ( ( x << 8 ) & 0xFFFFFFFF ) | ( x >> 24 )
 399:D:/School/diseratie/SEMS/xmc4800_evaluation_kit/optiga-trust-m/externals/mbedtls/library\aes.c **** #define XTIME(x) ( ( x << 1 ) ^ ( ( x & 0x80 ) ? 0x1B : 0x00 ) )
 400:D:/School/diseratie/SEMS/xmc4800_evaluation_kit/optiga-trust-m/externals/mbedtls/library\aes.c **** #define MUL(x,y) ( ( x && y ) ? pow[(log[x]+log[y]) % 255] : 0 )
 401:D:/School/diseratie/SEMS/xmc4800_evaluation_kit/optiga-trust-m/externals/mbedtls/library\aes.c **** 
 402:D:/School/diseratie/SEMS/xmc4800_evaluation_kit/optiga-trust-m/externals/mbedtls/library\aes.c **** static int aes_init_done = 0;
 403:D:/School/diseratie/SEMS/xmc4800_evaluation_kit/optiga-trust-m/externals/mbedtls/library\aes.c **** 
 404:D:/School/diseratie/SEMS/xmc4800_evaluation_kit/optiga-trust-m/externals/mbedtls/library\aes.c **** static void aes_gen_tables( void )
 405:D:/School/diseratie/SEMS/xmc4800_evaluation_kit/optiga-trust-m/externals/mbedtls/library\aes.c **** {
  27              	 .loc 1 405 0
  28              	 .cfi_startproc
  29              	 
  30              	 
  31              	.LVL0:
  32 0000 2DE9F04F 	 push {r4,r5,r6,r7,r8,r9,r10,fp,lr}
  33              	.LCFI0:
  34              	 .cfi_def_cfa_offset 36
  35              	 .cfi_offset 4,-36
  36              	 .cfi_offset 5,-32
  37              	 .cfi_offset 6,-28
  38              	 .cfi_offset 7,-24
  39              	 .cfi_offset 8,-20
  40              	 .cfi_offset 9,-16
  41              	 .cfi_offset 10,-12
  42              	 .cfi_offset 11,-8
  43              	 .cfi_offset 14,-4
  44 0004 ADF61C0D 	 subw sp,sp,#2076
  45              	.LCFI1:
  46              	 .cfi_def_cfa_offset 2112
 406:D:/School/diseratie/SEMS/xmc4800_evaluation_kit/optiga-trust-m/externals/mbedtls/library\aes.c ****     int i, x, y, z;
 407:D:/School/diseratie/SEMS/xmc4800_evaluation_kit/optiga-trust-m/externals/mbedtls/library\aes.c ****     int pow[256];
 408:D:/School/diseratie/SEMS/xmc4800_evaluation_kit/optiga-trust-m/externals/mbedtls/library\aes.c ****     int log[256];
 409:D:/School/diseratie/SEMS/xmc4800_evaluation_kit/optiga-trust-m/externals/mbedtls/library\aes.c **** 
 410:D:/School/diseratie/SEMS/xmc4800_evaluation_kit/optiga-trust-m/externals/mbedtls/library\aes.c ****     /*
 411:D:/School/diseratie/SEMS/xmc4800_evaluation_kit/optiga-trust-m/externals/mbedtls/library\aes.c ****      * compute pow and log tables over GF(2^8)
 412:D:/School/diseratie/SEMS/xmc4800_evaluation_kit/optiga-trust-m/externals/mbedtls/library\aes.c ****      */
 413:D:/School/diseratie/SEMS/xmc4800_evaluation_kit/optiga-trust-m/externals/mbedtls/library\aes.c ****     for( i = 0, x = 1; i < 256; i++ )
 414:D:/School/diseratie/SEMS/xmc4800_evaluation_kit/optiga-trust-m/externals/mbedtls/library\aes.c ****     {
 415:D:/School/diseratie/SEMS/xmc4800_evaluation_kit/optiga-trust-m/externals/mbedtls/library\aes.c ****         pow[i] = x;
 416:D:/School/diseratie/SEMS/xmc4800_evaluation_kit/optiga-trust-m/externals/mbedtls/library\aes.c ****         log[x] = i;
  47              	 .loc 1 416 0
  48 0008 0023     	 movs r3,#0
 415:D:/School/diseratie/SEMS/xmc4800_evaluation_kit/optiga-trust-m/externals/mbedtls/library\aes.c ****         log[x] = i;
  49              	 .loc 1 415 0
  50 000a 0121     	 movs r1,#1
 413:D:/School/diseratie/SEMS/xmc4800_evaluation_kit/optiga-trust-m/externals/mbedtls/library\aes.c ****     {
  51              	 .loc 1 413 0
  52 000c 1846     	 mov r0,r3
  53              	 .loc 1 416 0
  54 000e CDF81C34 	 str r3,[sp,#1052]
 415:D:/School/diseratie/SEMS/xmc4800_evaluation_kit/optiga-trust-m/externals/mbedtls/library\aes.c ****         log[x] = i;
  55              	 .loc 1 415 0
  56 0012 0691     	 str r1,[sp,#24]
  57 0014 06AC     	 add r4,sp,#24
 417:D:/School/diseratie/SEMS/xmc4800_evaluation_kit/optiga-trust-m/externals/mbedtls/library\aes.c ****         x = ( x ^ XTIME( x ) ) & 0xFF;
  58              	 .loc 1 417 0
  59 0016 0222     	 movs r2,#2
  60 0018 0AE0     	 b .L2
  61              	.LVL1:
  62              	.L4:
 416:D:/School/diseratie/SEMS/xmc4800_evaluation_kit/optiga-trust-m/externals/mbedtls/library\aes.c ****         x = ( x ^ XTIME( x ) ) & 0xFF;
  63              	 .loc 1 416 0
  64 001a 0DF58362 	 add r2,sp,#1048
  65              	 .loc 1 417 0
  66 001e 13F08003 	 ands r3,r3,#128
 415:D:/School/diseratie/SEMS/xmc4800_evaluation_kit/optiga-trust-m/externals/mbedtls/library\aes.c ****         log[x] = i;
  67              	 .loc 1 415 0
  68 0022 44F8041F 	 str r1,[r4,#4]!
 416:D:/School/diseratie/SEMS/xmc4800_evaluation_kit/optiga-trust-m/externals/mbedtls/library\aes.c ****         x = ( x ^ XTIME( x ) ) & 0xFF;
  69              	 .loc 1 416 0
  70 0026 42F82100 	 str r0,[r2,r1,lsl#2]
  71              	 .loc 1 417 0
  72 002a 18BF     	 it ne
  73 002c 1B23     	 movne r3,#27
  74 002e 4A00     	 lsls r2,r1,#1
  75              	.LVL2:
  76              	.L2:
  77 0030 4B40     	 eors r3,r3,r1
 413:D:/School/diseratie/SEMS/xmc4800_evaluation_kit/optiga-trust-m/externals/mbedtls/library\aes.c ****     {
  78              	 .loc 1 413 0 discriminator 4
  79 0032 0130     	 adds r0,r0,#1
  80              	 .loc 1 417 0 discriminator 4
  81 0034 5340     	 eors r3,r3,r2
 413:D:/School/diseratie/SEMS/xmc4800_evaluation_kit/optiga-trust-m/externals/mbedtls/library\aes.c ****     {
  82              	 .loc 1 413 0 discriminator 4
  83 0036 B0F5807F 	 cmp r0,#256
  84              	 .loc 1 417 0 discriminator 4
  85 003a D9B2     	 uxtb r1,r3
  86              	.LVL3:
 413:D:/School/diseratie/SEMS/xmc4800_evaluation_kit/optiga-trust-m/externals/mbedtls/library\aes.c ****     {
  87              	 .loc 1 413 0 discriminator 4
  88 003c EDD1     	 bne .L4
  89              	.LVL4:
 418:D:/School/diseratie/SEMS/xmc4800_evaluation_kit/optiga-trust-m/externals/mbedtls/library\aes.c ****     }
 419:D:/School/diseratie/SEMS/xmc4800_evaluation_kit/optiga-trust-m/externals/mbedtls/library\aes.c **** 
 420:D:/School/diseratie/SEMS/xmc4800_evaluation_kit/optiga-trust-m/externals/mbedtls/library\aes.c ****     /*
 421:D:/School/diseratie/SEMS/xmc4800_evaluation_kit/optiga-trust-m/externals/mbedtls/library\aes.c ****      * calculate the round constants
 422:D:/School/diseratie/SEMS/xmc4800_evaluation_kit/optiga-trust-m/externals/mbedtls/library\aes.c ****      */
 423:D:/School/diseratie/SEMS/xmc4800_evaluation_kit/optiga-trust-m/externals/mbedtls/library\aes.c ****     for( i = 0, x = 1; i < 10; i++ )
 424:D:/School/diseratie/SEMS/xmc4800_evaluation_kit/optiga-trust-m/externals/mbedtls/library\aes.c ****     {
 425:D:/School/diseratie/SEMS/xmc4800_evaluation_kit/optiga-trust-m/externals/mbedtls/library\aes.c ****         RCON[i] = (uint32_t) x;
  90              	 .loc 1 425 0
  91 003e 7A4B     	 ldr r3,.L19
 426:D:/School/diseratie/SEMS/xmc4800_evaluation_kit/optiga-trust-m/externals/mbedtls/library\aes.c ****         x = XTIME( x ) & 0xFF;
 427:D:/School/diseratie/SEMS/xmc4800_evaluation_kit/optiga-trust-m/externals/mbedtls/library\aes.c ****     }
 428:D:/School/diseratie/SEMS/xmc4800_evaluation_kit/optiga-trust-m/externals/mbedtls/library\aes.c **** 
 429:D:/School/diseratie/SEMS/xmc4800_evaluation_kit/optiga-trust-m/externals/mbedtls/library\aes.c ****     /*
 430:D:/School/diseratie/SEMS/xmc4800_evaluation_kit/optiga-trust-m/externals/mbedtls/library\aes.c ****      * generate the forward and reverse S-boxes
 431:D:/School/diseratie/SEMS/xmc4800_evaluation_kit/optiga-trust-m/externals/mbedtls/library\aes.c ****      */
 432:D:/School/diseratie/SEMS/xmc4800_evaluation_kit/optiga-trust-m/externals/mbedtls/library\aes.c ****     FSb[0x00] = 0x63;
  92              	 .loc 1 432 0
  93 0040 7A4E     	 ldr r6,.L19+4
 433:D:/School/diseratie/SEMS/xmc4800_evaluation_kit/optiga-trust-m/externals/mbedtls/library\aes.c ****     RSb[0x63] = 0x00;
  94              	 .loc 1 433 0
  95 0042 DFF80CE2 	 ldr lr,.L19+40
 425:D:/School/diseratie/SEMS/xmc4800_evaluation_kit/optiga-trust-m/externals/mbedtls/library\aes.c ****         x = XTIME( x ) & 0xFF;
  96              	 .loc 1 425 0
  97 0046 0225     	 movs r5,#2
  98 0048 0421     	 movs r1,#4
  99 004a 0822     	 movs r2,#8
 100 004c 8027     	 movs r7,#128
 101 004e 4FF01009 	 mov r9,#16
 102 0052 4FF02008 	 mov r8,#32
 103 0056 4FF0400C 	 mov ip,#64
 104 005a 1B24     	 movs r4,#27
 105 005c 3620     	 movs r0,#54
 106 005e 5D60     	 str r5,[r3,#4]
 107 0060 9960     	 str r1,[r3,#8]
 108 0062 0125     	 movs r5,#1
 432:D:/School/diseratie/SEMS/xmc4800_evaluation_kit/optiga-trust-m/externals/mbedtls/library\aes.c ****     RSb[0x63] = 0x00;
 109              	 .loc 1 432 0
 110 0064 6321     	 movs r1,#99
 425:D:/School/diseratie/SEMS/xmc4800_evaluation_kit/optiga-trust-m/externals/mbedtls/library\aes.c ****         x = XTIME( x ) & 0xFF;
 111              	 .loc 1 425 0
 112 0066 DA60     	 str r2,[r3,#12]
 113              	 .loc 1 433 0
 114 0068 0022     	 movs r2,#0
 425:D:/School/diseratie/SEMS/xmc4800_evaluation_kit/optiga-trust-m/externals/mbedtls/library\aes.c ****         x = XTIME( x ) & 0xFF;
 115              	 .loc 1 425 0
 116 006a DF61     	 str r7,[r3,#28]
 117 006c C3F81090 	 str r9,[r3,#16]
 118 0070 C3F81480 	 str r8,[r3,#20]
 119 0074 C3F818C0 	 str ip,[r3,#24]
 120 0078 1C62     	 str r4,[r3,#32]
 121 007a 5862     	 str r0,[r3,#36]
 122 007c 1D60     	 str r5,[r3]
 123              	.LVL5:
 432:D:/School/diseratie/SEMS/xmc4800_evaluation_kit/optiga-trust-m/externals/mbedtls/library\aes.c ****     RSb[0x63] = 0x00;
 124              	 .loc 1 432 0
 125 007e 3170     	 strb r1,[r6]
 126              	 .loc 1 433 0
 127 0080 8EF86320 	 strb r2,[lr,#99]
 128              	.LVL6:
 129 0084 0DF58367 	 add r7,sp,#1048
 130              	.LVL7:
 131              	.L5:
 434:D:/School/diseratie/SEMS/xmc4800_evaluation_kit/optiga-trust-m/externals/mbedtls/library\aes.c **** 
 435:D:/School/diseratie/SEMS/xmc4800_evaluation_kit/optiga-trust-m/externals/mbedtls/library\aes.c ****     for( i = 1; i < 256; i++ )
 436:D:/School/diseratie/SEMS/xmc4800_evaluation_kit/optiga-trust-m/externals/mbedtls/library\aes.c ****     {
 437:D:/School/diseratie/SEMS/xmc4800_evaluation_kit/optiga-trust-m/externals/mbedtls/library\aes.c ****         x = pow[255 - log[i]];
 132              	 .loc 1 437 0 discriminator 3
 133 0088 57F8043F 	 ldr r3,[r7,#4]!
 134 008c 06AA     	 add r2,sp,#24
 135 008e C3F1FF03 	 rsb r3,r3,#255
 136 0092 52F82300 	 ldr r0,[r2,r3,lsl#2]
 137              	.LVL8:
 438:D:/School/diseratie/SEMS/xmc4800_evaluation_kit/optiga-trust-m/externals/mbedtls/library\aes.c **** 
 439:D:/School/diseratie/SEMS/xmc4800_evaluation_kit/optiga-trust-m/externals/mbedtls/library\aes.c ****         y  = x; y = ( ( y << 1 ) | ( y >> 7 ) ) & 0xFF;
 138              	 .loc 1 439 0 discriminator 3
 139 0096 4100     	 lsls r1,r0,#1
 140 0098 41EAE011 	 orr r1,r1,r0,asr#7
 141 009c C9B2     	 uxtb r1,r1
 142              	.LVL9:
 440:D:/School/diseratie/SEMS/xmc4800_evaluation_kit/optiga-trust-m/externals/mbedtls/library\aes.c ****         x ^= y; y = ( ( y << 1 ) | ( y >> 7 ) ) & 0xFF;
 143              	 .loc 1 440 0 discriminator 3
 144 009e 4A00     	 lsls r2,r1,#1
 145 00a0 42EAD112 	 orr r2,r2,r1,lsr#7
 146 00a4 D2B2     	 uxtb r2,r2
 147              	.LVL10:
 441:D:/School/diseratie/SEMS/xmc4800_evaluation_kit/optiga-trust-m/externals/mbedtls/library\aes.c ****         x ^= y; y = ( ( y << 1 ) | ( y >> 7 ) ) & 0xFF;
 148              	 .loc 1 441 0 discriminator 3
 149 00a6 5300     	 lsls r3,r2,#1
 150 00a8 43EAD213 	 orr r3,r3,r2,lsr#7
 151 00ac DBB2     	 uxtb r3,r3
 152              	.LVL11:
 153 00ae 80F06300 	 eor r0,r0,#99
 154              	.LVL12:
 155 00b2 4140     	 eors r1,r1,r0
 156              	.LVL13:
 442:D:/School/diseratie/SEMS/xmc4800_evaluation_kit/optiga-trust-m/externals/mbedtls/library\aes.c ****         x ^= y; y = ( ( y << 1 ) | ( y >> 7 ) ) & 0xFF;
 157              	 .loc 1 442 0 discriminator 3
 158 00b4 5800     	 lsls r0,r3,#1
 159 00b6 4A40     	 eors r2,r2,r1
 160              	.LVL14:
 161 00b8 40EAD311 	 orr r1,r0,r3,lsr#7
 162              	.LVL15:
 163 00bc 5340     	 eors r3,r3,r2
 164              	.LVL16:
 165 00be CAB2     	 uxtb r2,r1
 443:D:/School/diseratie/SEMS/xmc4800_evaluation_kit/optiga-trust-m/externals/mbedtls/library\aes.c ****         x ^= y ^ 0x63;
 166              	 .loc 1 443 0 discriminator 3
 167 00c0 5340     	 eors r3,r3,r2
 168              	.LVL17:
 444:D:/School/diseratie/SEMS/xmc4800_evaluation_kit/optiga-trust-m/externals/mbedtls/library\aes.c **** 
 445:D:/School/diseratie/SEMS/xmc4800_evaluation_kit/optiga-trust-m/externals/mbedtls/library\aes.c ****         FSb[i] = (unsigned char) x;
 169              	 .loc 1 445 0 discriminator 3
 170 00c2 06F8013F 	 strb r3,[r6,#1]!
 446:D:/School/diseratie/SEMS/xmc4800_evaluation_kit/optiga-trust-m/externals/mbedtls/library\aes.c ****         RSb[x] = (unsigned char) i;
 171              	 .loc 1 446 0 discriminator 3
 172 00c6 0EF80350 	 strb r5,[lr,r3]
 435:D:/School/diseratie/SEMS/xmc4800_evaluation_kit/optiga-trust-m/externals/mbedtls/library\aes.c ****     {
 173              	 .loc 1 435 0 discriminator 3
 174 00ca 0135     	 adds r5,r5,#1
 175              	.LVL18:
 176 00cc B5F5807F 	 cmp r5,#256
 177 00d0 DAD1     	 bne .L5
 447:D:/School/diseratie/SEMS/xmc4800_evaluation_kit/optiga-trust-m/externals/mbedtls/library\aes.c ****     }
 448:D:/School/diseratie/SEMS/xmc4800_evaluation_kit/optiga-trust-m/externals/mbedtls/library\aes.c **** 
 449:D:/School/diseratie/SEMS/xmc4800_evaluation_kit/optiga-trust-m/externals/mbedtls/library\aes.c ****     /*
 450:D:/School/diseratie/SEMS/xmc4800_evaluation_kit/optiga-trust-m/externals/mbedtls/library\aes.c ****      * generate the forward and reverse tables
 451:D:/School/diseratie/SEMS/xmc4800_evaluation_kit/optiga-trust-m/externals/mbedtls/library\aes.c ****      */
 452:D:/School/diseratie/SEMS/xmc4800_evaluation_kit/optiga-trust-m/externals/mbedtls/library\aes.c ****     for( i = 0; i < 256; i++ )
 453:D:/School/diseratie/SEMS/xmc4800_evaluation_kit/optiga-trust-m/externals/mbedtls/library\aes.c ****     {
 454:D:/School/diseratie/SEMS/xmc4800_evaluation_kit/optiga-trust-m/externals/mbedtls/library\aes.c ****         x = FSb[i];
 455:D:/School/diseratie/SEMS/xmc4800_evaluation_kit/optiga-trust-m/externals/mbedtls/library\aes.c ****         y = XTIME( x ) & 0xFF;
 456:D:/School/diseratie/SEMS/xmc4800_evaluation_kit/optiga-trust-m/externals/mbedtls/library\aes.c ****         z =  ( y ^ x ) & 0xFF;
 457:D:/School/diseratie/SEMS/xmc4800_evaluation_kit/optiga-trust-m/externals/mbedtls/library\aes.c **** 
 458:D:/School/diseratie/SEMS/xmc4800_evaluation_kit/optiga-trust-m/externals/mbedtls/library\aes.c ****         FT0[i] = ( (uint32_t) y       ) ^
 459:D:/School/diseratie/SEMS/xmc4800_evaluation_kit/optiga-trust-m/externals/mbedtls/library\aes.c ****                  ( (uint32_t) x <<  8 ) ^
 460:D:/School/diseratie/SEMS/xmc4800_evaluation_kit/optiga-trust-m/externals/mbedtls/library\aes.c ****                  ( (uint32_t) x << 16 ) ^
 461:D:/School/diseratie/SEMS/xmc4800_evaluation_kit/optiga-trust-m/externals/mbedtls/library\aes.c ****                  ( (uint32_t) z << 24 );
 462:D:/School/diseratie/SEMS/xmc4800_evaluation_kit/optiga-trust-m/externals/mbedtls/library\aes.c **** 
 463:D:/School/diseratie/SEMS/xmc4800_evaluation_kit/optiga-trust-m/externals/mbedtls/library\aes.c **** #if !defined(MBEDTLS_AES_FEWER_TABLES)
 464:D:/School/diseratie/SEMS/xmc4800_evaluation_kit/optiga-trust-m/externals/mbedtls/library\aes.c ****         FT1[i] = ROTL8( FT0[i] );
 465:D:/School/diseratie/SEMS/xmc4800_evaluation_kit/optiga-trust-m/externals/mbedtls/library\aes.c ****         FT2[i] = ROTL8( FT1[i] );
 466:D:/School/diseratie/SEMS/xmc4800_evaluation_kit/optiga-trust-m/externals/mbedtls/library\aes.c ****         FT3[i] = ROTL8( FT2[i] );
 467:D:/School/diseratie/SEMS/xmc4800_evaluation_kit/optiga-trust-m/externals/mbedtls/library\aes.c **** #endif /* !MBEDTLS_AES_FEWER_TABLES */
 468:D:/School/diseratie/SEMS/xmc4800_evaluation_kit/optiga-trust-m/externals/mbedtls/library\aes.c **** 
 469:D:/School/diseratie/SEMS/xmc4800_evaluation_kit/optiga-trust-m/externals/mbedtls/library\aes.c ****         x = RSb[i];
 470:D:/School/diseratie/SEMS/xmc4800_evaluation_kit/optiga-trust-m/externals/mbedtls/library\aes.c **** 
 471:D:/School/diseratie/SEMS/xmc4800_evaluation_kit/optiga-trust-m/externals/mbedtls/library\aes.c ****         RT0[i] = ( (uint32_t) MUL( 0x0E, x )       ) ^
 178              	 .loc 1 471 0
 179 00d2 DDF85034 	 ldr r3,[sp,#1104]
 180              	.LVL19:
 181 00d6 0293     	 str r3,[sp,#8]
 472:D:/School/diseratie/SEMS/xmc4800_evaluation_kit/optiga-trust-m/externals/mbedtls/library\aes.c ****                  ( (uint32_t) MUL( 0x09, x ) <<  8 ) ^
 182              	 .loc 1 472 0
 183 00d8 DDF83C34 	 ldr r3,[sp,#1084]
 184 00dc 0393     	 str r3,[sp,#12]
 473:D:/School/diseratie/SEMS/xmc4800_evaluation_kit/optiga-trust-m/externals/mbedtls/library\aes.c ****                  ( (uint32_t) MUL( 0x0D, x ) << 16 ) ^
 185              	 .loc 1 473 0
 186 00de DDF84C34 	 ldr r3,[sp,#1100]
 187 00e2 0493     	 str r3,[sp,#16]
 188 00e4 DFF86CA1 	 ldr r10,.L19+44
 474:D:/School/diseratie/SEMS/xmc4800_evaluation_kit/optiga-trust-m/externals/mbedtls/library\aes.c ****                  ( (uint32_t) MUL( 0x0B, x ) << 24 );
 189              	 .loc 1 474 0
 190 00e8 DDF84434 	 ldr r3,[sp,#1092]
 191 00ec 0593     	 str r3,[sp,#20]
 192 00ee 504C     	 ldr r4,.L19+8
 193 00f0 504B     	 ldr r3,.L19+12
 194 00f2 0093     	 str r3,[sp]
 195 00f4 DFF860C1 	 ldr ip,.L19+48
 196 00f8 DFF860E1 	 ldr lr,.L19+52
 197 00fc 4E4D     	 ldr r5,.L19+16
 198              	.LVL20:
 472:D:/School/diseratie/SEMS/xmc4800_evaluation_kit/optiga-trust-m/externals/mbedtls/library\aes.c ****                  ( (uint32_t) MUL( 0x09, x ) <<  8 ) ^
 199              	 .loc 1 472 0
 200 00fe 4F48     	 ldr r0,.L19+20
 201              	 .loc 1 474 0
 202 0100 0194     	 str r4,[sp,#4]
 203 0102 0021     	 movs r1,#0
 204              	.LVL21:
 205 0104 D346     	 mov fp,r10
 206 0106 5DE0     	 b .L8
 207              	.LVL22:
 208              	.L18:
 471:D:/School/diseratie/SEMS/xmc4800_evaluation_kit/optiga-trust-m/externals/mbedtls/library\aes.c ****                  ( (uint32_t) MUL( 0x09, x ) <<  8 ) ^
 209              	 .loc 1 471 0 discriminator 1
 210 0108 0DF58363 	 add r3,sp,#1048
 472:D:/School/diseratie/SEMS/xmc4800_evaluation_kit/optiga-trust-m/externals/mbedtls/library\aes.c ****                  ( (uint32_t) MUL( 0x0D, x ) << 16 ) ^
 211              	 .loc 1 472 0 discriminator 1
 212 010c 039C     	 ldr r4,[sp,#12]
 471:D:/School/diseratie/SEMS/xmc4800_evaluation_kit/optiga-trust-m/externals/mbedtls/library\aes.c ****                  ( (uint32_t) MUL( 0x09, x ) <<  8 ) ^
 213              	 .loc 1 471 0 discriminator 1
 214 010e 53F82660 	 ldr r6,[r3,r6,lsl#2]
 215              	.LVL23:
 473:D:/School/diseratie/SEMS/xmc4800_evaluation_kit/optiga-trust-m/externals/mbedtls/library\aes.c ****                  ( (uint32_t) MUL( 0x0B, x ) << 24 );
 216              	 .loc 1 473 0 discriminator 1
 217 0112 049B     	 ldr r3,[sp,#16]
 218 0114 06EB030A 	 add r10,r6,r3
 219 0118 8AFB0023 	 smull r2,r3,r10,r0
 220 011c 0AEB0308 	 add r8,r10,r3
 221 0120 4FEAEA73 	 asr r3,r10,#31
 222 0124 C3EBE818 	 rsb r8,r3,r8,asr#7
 471:D:/School/diseratie/SEMS/xmc4800_evaluation_kit/optiga-trust-m/externals/mbedtls/library\aes.c ****                  ( (uint32_t) MUL( 0x09, x ) <<  8 ) ^
 223              	 .loc 1 471 0 discriminator 1
 224 0128 029A     	 ldr r2,[sp,#8]
 225              	 .loc 1 474 0 discriminator 1
 226 012a 059B     	 ldr r3,[sp,#20]
 472:D:/School/diseratie/SEMS/xmc4800_evaluation_kit/optiga-trust-m/externals/mbedtls/library\aes.c ****                  ( (uint32_t) MUL( 0x0D, x ) << 16 ) ^
 227              	 .loc 1 472 0 discriminator 1
 228 012c 06EB0409 	 add r9,r6,r4
 471:D:/School/diseratie/SEMS/xmc4800_evaluation_kit/optiga-trust-m/externals/mbedtls/library\aes.c ****                  ( (uint32_t) MUL( 0x09, x ) <<  8 ) ^
 229              	 .loc 1 471 0 discriminator 1
 230 0130 3244     	 add r2,r2,r6
 231              	 .loc 1 474 0 discriminator 1
 232 0132 F318     	 adds r3,r6,r3
 473:D:/School/diseratie/SEMS/xmc4800_evaluation_kit/optiga-trust-m/externals/mbedtls/library\aes.c ****                  ( (uint32_t) MUL( 0x0B, x ) << 24 );
 233              	 .loc 1 473 0 discriminator 1
 234 0134 C8EB0828 	 rsb r8,r8,r8,lsl#8
 472:D:/School/diseratie/SEMS/xmc4800_evaluation_kit/optiga-trust-m/externals/mbedtls/library\aes.c ****                  ( (uint32_t) MUL( 0x0D, x ) << 16 ) ^
 235              	 .loc 1 472 0 discriminator 1
 236 0138 89FB0067 	 smull r6,r7,r9,r0
 237 013c 09EB0706 	 add r6,r9,r7
 473:D:/School/diseratie/SEMS/xmc4800_evaluation_kit/optiga-trust-m/externals/mbedtls/library\aes.c ****                  ( (uint32_t) MUL( 0x0B, x ) << 24 );
 238              	 .loc 1 473 0 discriminator 1
 239 0140 C8EB0A08 	 rsb r8,r8,r10
 472:D:/School/diseratie/SEMS/xmc4800_evaluation_kit/optiga-trust-m/externals/mbedtls/library\aes.c ****                  ( (uint32_t) MUL( 0x0D, x ) << 16 ) ^
 240              	 .loc 1 472 0 discriminator 1
 241 0144 4FEAE97A 	 asr r10,r9,#31
 242 0148 CAEBE61A 	 rsb r10,r10,r6,asr#7
 243 014c CAEB0A2A 	 rsb r10,r10,r10,lsl#8
 471:D:/School/diseratie/SEMS/xmc4800_evaluation_kit/optiga-trust-m/externals/mbedtls/library\aes.c ****                  ( (uint32_t) MUL( 0x09, x ) <<  8 ) ^
 244              	 .loc 1 471 0 discriminator 1
 245 0150 82FB0067 	 smull r6,r7,r2,r0
 473:D:/School/diseratie/SEMS/xmc4800_evaluation_kit/optiga-trust-m/externals/mbedtls/library\aes.c ****                  ( (uint32_t) MUL( 0x0B, x ) << 24 );
 246              	 .loc 1 473 0 discriminator 1
 247 0154 06AC     	 add r4,sp,#24
 471:D:/School/diseratie/SEMS/xmc4800_evaluation_kit/optiga-trust-m/externals/mbedtls/library\aes.c ****                  ( (uint32_t) MUL( 0x09, x ) <<  8 ) ^
 248              	 .loc 1 471 0 discriminator 1
 249 0156 D619     	 adds r6,r2,r7
 472:D:/School/diseratie/SEMS/xmc4800_evaluation_kit/optiga-trust-m/externals/mbedtls/library\aes.c ****                  ( (uint32_t) MUL( 0x0D, x ) << 16 ) ^
 250              	 .loc 1 472 0 discriminator 1
 251 0158 CAEB0909 	 rsb r9,r10,r9
 471:D:/School/diseratie/SEMS/xmc4800_evaluation_kit/optiga-trust-m/externals/mbedtls/library\aes.c ****                  ( (uint32_t) MUL( 0x09, x ) <<  8 ) ^
 252              	 .loc 1 471 0 discriminator 1
 253 015c 4FEAE27A 	 asr r10,r2,#31
 254 0160 CAEBE61A 	 rsb r10,r10,r6,asr#7
 255              	 .loc 1 474 0 discriminator 1
 256 0164 83FB0067 	 smull r6,r7,r3,r0
 257 0168 DE19     	 adds r6,r3,r7
 473:D:/School/diseratie/SEMS/xmc4800_evaluation_kit/optiga-trust-m/externals/mbedtls/library\aes.c ****                  ( (uint32_t) MUL( 0x0B, x ) << 24 );
 258              	 .loc 1 473 0 discriminator 1
 259 016a 54F82870 	 ldr r7,[r4,r8,lsl#2]
 472:D:/School/diseratie/SEMS/xmc4800_evaluation_kit/optiga-trust-m/externals/mbedtls/library\aes.c ****                  ( (uint32_t) MUL( 0x0D, x ) << 16 ) ^
 260              	 .loc 1 472 0 discriminator 1
 261 016e 54F82980 	 ldr r8,[r4,r9,lsl#2]
 262              	 .loc 1 474 0 discriminator 1
 263 0172 4FEAE379 	 asr r9,r3,#31
 471:D:/School/diseratie/SEMS/xmc4800_evaluation_kit/optiga-trust-m/externals/mbedtls/library\aes.c ****                  ( (uint32_t) MUL( 0x09, x ) <<  8 ) ^
 264              	 .loc 1 471 0 discriminator 1
 265 0176 CAEB0A2A 	 rsb r10,r10,r10,lsl#8
 266              	 .loc 1 474 0 discriminator 1
 267 017a C9EBE616 	 rsb r6,r9,r6,asr#7
 471:D:/School/diseratie/SEMS/xmc4800_evaluation_kit/optiga-trust-m/externals/mbedtls/library\aes.c ****                  ( (uint32_t) MUL( 0x09, x ) <<  8 ) ^
 268              	 .loc 1 471 0 discriminator 1
 269 017e CAEB020A 	 rsb r10,r10,r2
 270              	 .loc 1 474 0 discriminator 1
 271 0182 C6EB0626 	 rsb r6,r6,r6,lsl#8
 272 0186 9E1B     	 subs r6,r3,r6
 472:D:/School/diseratie/SEMS/xmc4800_evaluation_kit/optiga-trust-m/externals/mbedtls/library\aes.c ****                  ( (uint32_t) MUL( 0x0D, x ) << 16 ) ^
 273              	 .loc 1 472 0 discriminator 1
 274 0188 54F82A20 	 ldr r2,[r4,r10,lsl#2]
 275              	 .loc 1 474 0 discriminator 1
 276 018c 54F82660 	 ldr r6,[r4,r6,lsl#2]
 473:D:/School/diseratie/SEMS/xmc4800_evaluation_kit/optiga-trust-m/externals/mbedtls/library\aes.c ****                  ( (uint32_t) MUL( 0x0B, x ) << 24 );
 277              	 .loc 1 473 0 discriminator 1
 278 0190 3B04     	 lsls r3,r7,#16
 279 0192 83EA0827 	 eor r7,r3,r8,lsl#8
 472:D:/School/diseratie/SEMS/xmc4800_evaluation_kit/optiga-trust-m/externals/mbedtls/library\aes.c ****                  ( (uint32_t) MUL( 0x0D, x ) << 16 ) ^
 280              	 .loc 1 472 0 discriminator 1
 281 0196 5740     	 eors r7,r7,r2
 282 0198 87EA0667 	 eor r7,r7,r6,lsl#24
 283 019c 4FEA3766 	 ror r6,r7,#24
 284 01a0 4FEA3662 	 ror r2,r6,#24
 285 01a4 4FEA3263 	 ror r3,r2,#24
 286              	.L7:
 475:D:/School/diseratie/SEMS/xmc4800_evaluation_kit/optiga-trust-m/externals/mbedtls/library\aes.c **** 
 476:D:/School/diseratie/SEMS/xmc4800_evaluation_kit/optiga-trust-m/externals/mbedtls/library\aes.c **** #if !defined(MBEDTLS_AES_FEWER_TABLES)
 477:D:/School/diseratie/SEMS/xmc4800_evaluation_kit/optiga-trust-m/externals/mbedtls/library\aes.c ****         RT1[i] = ROTL8( RT0[i] );
 478:D:/School/diseratie/SEMS/xmc4800_evaluation_kit/optiga-trust-m/externals/mbedtls/library\aes.c ****         RT2[i] = ROTL8( RT1[i] );
 287              	 .loc 1 478 0 discriminator 2
 288 01a8 45F8042F 	 str r2,[r5,#4]!
 479:D:/School/diseratie/SEMS/xmc4800_evaluation_kit/optiga-trust-m/externals/mbedtls/library\aes.c ****         RT3[i] = ROTL8( RT2[i] );
 289              	 .loc 1 479 0 discriminator 2
 290 01ac 019A     	 ldr r2,[sp,#4]
 471:D:/School/diseratie/SEMS/xmc4800_evaluation_kit/optiga-trust-m/externals/mbedtls/library\aes.c ****                  ( (uint32_t) MUL( 0x09, x ) <<  8 ) ^
 291              	 .loc 1 471 0 discriminator 2
 292 01ae 4CF8047F 	 str r7,[ip,#4]!
 452:D:/School/diseratie/SEMS/xmc4800_evaluation_kit/optiga-trust-m/externals/mbedtls/library\aes.c ****     {
 293              	 .loc 1 452 0 discriminator 2
 294 01b2 0131     	 adds r1,r1,#1
 295              	.LVL24:
 296              	 .loc 1 479 0 discriminator 2
 297 01b4 42F8043F 	 str r3,[r2,#4]!
 452:D:/School/diseratie/SEMS/xmc4800_evaluation_kit/optiga-trust-m/externals/mbedtls/library\aes.c ****     {
 298              	 .loc 1 452 0 discriminator 2
 299 01b8 B1F5807F 	 cmp r1,#256
 477:D:/School/diseratie/SEMS/xmc4800_evaluation_kit/optiga-trust-m/externals/mbedtls/library\aes.c ****         RT2[i] = ROTL8( RT1[i] );
 300              	 .loc 1 477 0 discriminator 2
 301 01bc 4EF8046F 	 str r6,[lr,#4]!
 302              	 .loc 1 479 0 discriminator 2
 303 01c0 0192     	 str r2,[sp,#4]
 452:D:/School/diseratie/SEMS/xmc4800_evaluation_kit/optiga-trust-m/externals/mbedtls/library\aes.c ****     {
 304              	 .loc 1 452 0 discriminator 2
 305 01c2 2DD0     	 beq .L17
 306              	.LVL25:
 307              	.L8:
 454:D:/School/diseratie/SEMS/xmc4800_evaluation_kit/optiga-trust-m/externals/mbedtls/library\aes.c ****         y = XTIME( x ) & 0xFF;
 308              	 .loc 1 454 0
 309 01c4 009A     	 ldr r2,[sp]
 458:D:/School/diseratie/SEMS/xmc4800_evaluation_kit/optiga-trust-m/externals/mbedtls/library\aes.c ****                  ( (uint32_t) x <<  8 ) ^
 310              	 .loc 1 458 0
 311 01c6 1E4C     	 ldr r4,.L19+24
 454:D:/School/diseratie/SEMS/xmc4800_evaluation_kit/optiga-trust-m/externals/mbedtls/library\aes.c ****         y = XTIME( x ) & 0xFF;
 312              	 .loc 1 454 0
 313 01c8 12F8013F 	 ldrb r3,[r2,#1]!
 314 01cc 0092     	 str r2,[sp]
 315              	.LVL26:
 455:D:/School/diseratie/SEMS/xmc4800_evaluation_kit/optiga-trust-m/externals/mbedtls/library\aes.c ****         z =  ( y ^ x ) & 0xFF;
 316              	 .loc 1 455 0
 317 01ce 13F0800F 	 tst r3,#128
 318 01d2 14BF     	 ite ne
 319 01d4 1B22     	 movne r2,#27
 320 01d6 0022     	 moveq r2,#0
 321 01d8 82EA4302 	 eor r2,r2,r3,lsl#1
 459:D:/School/diseratie/SEMS/xmc4800_evaluation_kit/optiga-trust-m/externals/mbedtls/library\aes.c ****                  ( (uint32_t) x << 16 ) ^
 322              	 .loc 1 459 0
 323 01dc 1F02     	 lsls r7,r3,#8
 455:D:/School/diseratie/SEMS/xmc4800_evaluation_kit/optiga-trust-m/externals/mbedtls/library\aes.c ****         z =  ( y ^ x ) & 0xFF;
 324              	 .loc 1 455 0
 325 01de D2B2     	 uxtb r2,r2
 326              	.LVL27:
 327 01e0 47EA0347 	 orr r7,r7,r3,lsl#16
 459:D:/School/diseratie/SEMS/xmc4800_evaluation_kit/optiga-trust-m/externals/mbedtls/library\aes.c ****                  ( (uint32_t) x << 16 ) ^
 328              	 .loc 1 459 0
 329 01e4 5740     	 eors r7,r7,r2
 456:D:/School/diseratie/SEMS/xmc4800_evaluation_kit/optiga-trust-m/externals/mbedtls/library\aes.c **** 
 330              	 .loc 1 456 0
 331 01e6 5340     	 eors r3,r3,r2
 332              	.LVL28:
 460:D:/School/diseratie/SEMS/xmc4800_evaluation_kit/optiga-trust-m/externals/mbedtls/library\aes.c ****                  ( (uint32_t) z << 24 );
 333              	 .loc 1 460 0
 334 01e8 47EA0363 	 orr r3,r7,r3,lsl#24
 335              	.LVL29:
 458:D:/School/diseratie/SEMS/xmc4800_evaluation_kit/optiga-trust-m/externals/mbedtls/library\aes.c ****                  ( (uint32_t) x <<  8 ) ^
 336              	 .loc 1 458 0
 337 01ec 44F82130 	 str r3,[r4,r1,lsl#2]
 464:D:/School/diseratie/SEMS/xmc4800_evaluation_kit/optiga-trust-m/externals/mbedtls/library\aes.c ****         FT2[i] = ROTL8( FT1[i] );
 338              	 .loc 1 464 0
 339 01f0 144C     	 ldr r4,.L19+28
 469:D:/School/diseratie/SEMS/xmc4800_evaluation_kit/optiga-trust-m/externals/mbedtls/library\aes.c **** 
 340              	 .loc 1 469 0
 341 01f2 1BF8016F 	 ldrb r6,[fp,#1]!
 342              	.LVL30:
 464:D:/School/diseratie/SEMS/xmc4800_evaluation_kit/optiga-trust-m/externals/mbedtls/library\aes.c ****         FT2[i] = ROTL8( FT1[i] );
 343              	 .loc 1 464 0
 344 01f6 4FEA3367 	 ror r7,r3,#24
 345 01fa 44F82170 	 str r7,[r4,r1,lsl#2]
 465:D:/School/diseratie/SEMS/xmc4800_evaluation_kit/optiga-trust-m/externals/mbedtls/library\aes.c ****         FT3[i] = ROTL8( FT2[i] );
 346              	 .loc 1 465 0
 347 01fe 124C     	 ldr r4,.L19+32
 348 0200 4FEA3762 	 ror r2,r7,#24
 349              	.LVL31:
 466:D:/School/diseratie/SEMS/xmc4800_evaluation_kit/optiga-trust-m/externals/mbedtls/library\aes.c **** #endif /* !MBEDTLS_AES_FEWER_TABLES */
 350              	 .loc 1 466 0
 351 0204 4FEA3263 	 ror r3,r2,#24
 465:D:/School/diseratie/SEMS/xmc4800_evaluation_kit/optiga-trust-m/externals/mbedtls/library\aes.c ****         FT3[i] = ROTL8( FT2[i] );
 352              	 .loc 1 465 0
 353 0208 44F82120 	 str r2,[r4,r1,lsl#2]
 466:D:/School/diseratie/SEMS/xmc4800_evaluation_kit/optiga-trust-m/externals/mbedtls/library\aes.c **** #endif /* !MBEDTLS_AES_FEWER_TABLES */
 354              	 .loc 1 466 0
 355 020c 0F4A     	 ldr r2,.L19+36
 356 020e 42F82130 	 str r3,[r2,r1,lsl#2]
 471:D:/School/diseratie/SEMS/xmc4800_evaluation_kit/optiga-trust-m/externals/mbedtls/library\aes.c ****                  ( (uint32_t) MUL( 0x09, x ) <<  8 ) ^
 357              	 .loc 1 471 0
 358 0212 002E     	 cmp r6,#0
 359 0214 7FF478AF 	 bne .L18
 360              	.LVL32:
 361 0218 3346     	 mov r3,r6
 362 021a 3246     	 mov r2,r6
 363 021c 1F46     	 mov r7,r3
 364 021e C3E7     	 b .L7
 365              	.LVL33:
 366              	.L17:
 480:D:/School/diseratie/SEMS/xmc4800_evaluation_kit/optiga-trust-m/externals/mbedtls/library\aes.c **** #endif /* !MBEDTLS_AES_FEWER_TABLES */
 481:D:/School/diseratie/SEMS/xmc4800_evaluation_kit/optiga-trust-m/externals/mbedtls/library\aes.c ****     }
 482:D:/School/diseratie/SEMS/xmc4800_evaluation_kit/optiga-trust-m/externals/mbedtls/library\aes.c **** }
 367              	 .loc 1 482 0
 368 0220 0DF61C0D 	 addw sp,sp,#2076
 369              	.LCFI2:
 370              	 .cfi_def_cfa_offset 36
 371              	.LVL34:
 372              	 
 373 0224 BDE8F08F 	 pop {r4,r5,r6,r7,r8,r9,r10,fp,pc}
 374              	.LVL35:
 375              	.L20:
 376              	 .align 2
 377              	.L19:
 378 0228 00000000 	 .word .LANCHOR0
 379 022c 00000000 	 .word .LANCHOR1
 380 0230 FCFFFFFF 	 .word .LANCHOR6-4
 381 0234 FFFFFFFF 	 .word .LANCHOR1-1
 382 0238 FCFFFFFF 	 .word .LANCHOR5-4
 383 023c 81808080 	 .word -2139062143
 384 0240 00000000 	 .word .LANCHOR7
 385 0244 00000000 	 .word .LANCHOR8
 386 0248 00000000 	 .word .LANCHOR9
 387 024c 00000000 	 .word .LANCHOR10
 388 0250 00000000 	 .word .LANCHOR2
 389 0254 FFFFFFFF 	 .word .LANCHOR2-1
 390 0258 FCFFFFFF 	 .word .LANCHOR3-4
 391 025c FCFFFFFF 	 .word .LANCHOR4-4
 392              	 .cfi_endproc
 393              	.LFE0:
 395              	 .section .text.mbedtls_aes_init,"ax",%progbits
 396              	 .align 2
 397              	 .global mbedtls_aes_init
 398              	 .thumb
 399              	 .thumb_func
 401              	mbedtls_aes_init:
 402              	.LFB1:
 483:D:/School/diseratie/SEMS/xmc4800_evaluation_kit/optiga-trust-m/externals/mbedtls/library\aes.c **** 
 484:D:/School/diseratie/SEMS/xmc4800_evaluation_kit/optiga-trust-m/externals/mbedtls/library\aes.c **** #undef ROTL8
 485:D:/School/diseratie/SEMS/xmc4800_evaluation_kit/optiga-trust-m/externals/mbedtls/library\aes.c **** 
 486:D:/School/diseratie/SEMS/xmc4800_evaluation_kit/optiga-trust-m/externals/mbedtls/library\aes.c **** #endif /* MBEDTLS_AES_ROM_TABLES */
 487:D:/School/diseratie/SEMS/xmc4800_evaluation_kit/optiga-trust-m/externals/mbedtls/library\aes.c **** 
 488:D:/School/diseratie/SEMS/xmc4800_evaluation_kit/optiga-trust-m/externals/mbedtls/library\aes.c **** #if defined(MBEDTLS_AES_FEWER_TABLES)
 489:D:/School/diseratie/SEMS/xmc4800_evaluation_kit/optiga-trust-m/externals/mbedtls/library\aes.c **** 
 490:D:/School/diseratie/SEMS/xmc4800_evaluation_kit/optiga-trust-m/externals/mbedtls/library\aes.c **** #define ROTL8(x)  ( (uint32_t)( ( x ) <<  8 ) + (uint32_t)( ( x ) >> 24 ) )
 491:D:/School/diseratie/SEMS/xmc4800_evaluation_kit/optiga-trust-m/externals/mbedtls/library\aes.c **** #define ROTL16(x) ( (uint32_t)( ( x ) << 16 ) + (uint32_t)( ( x ) >> 16 ) )
 492:D:/School/diseratie/SEMS/xmc4800_evaluation_kit/optiga-trust-m/externals/mbedtls/library\aes.c **** #define ROTL24(x) ( (uint32_t)( ( x ) << 24 ) + (uint32_t)( ( x ) >>  8 ) )
 493:D:/School/diseratie/SEMS/xmc4800_evaluation_kit/optiga-trust-m/externals/mbedtls/library\aes.c **** 
 494:D:/School/diseratie/SEMS/xmc4800_evaluation_kit/optiga-trust-m/externals/mbedtls/library\aes.c **** #define AES_RT0(idx) RT0[idx]
 495:D:/School/diseratie/SEMS/xmc4800_evaluation_kit/optiga-trust-m/externals/mbedtls/library\aes.c **** #define AES_RT1(idx) ROTL8(  RT0[idx] )
 496:D:/School/diseratie/SEMS/xmc4800_evaluation_kit/optiga-trust-m/externals/mbedtls/library\aes.c **** #define AES_RT2(idx) ROTL16( RT0[idx] )
 497:D:/School/diseratie/SEMS/xmc4800_evaluation_kit/optiga-trust-m/externals/mbedtls/library\aes.c **** #define AES_RT3(idx) ROTL24( RT0[idx] )
 498:D:/School/diseratie/SEMS/xmc4800_evaluation_kit/optiga-trust-m/externals/mbedtls/library\aes.c **** 
 499:D:/School/diseratie/SEMS/xmc4800_evaluation_kit/optiga-trust-m/externals/mbedtls/library\aes.c **** #define AES_FT0(idx) FT0[idx]
 500:D:/School/diseratie/SEMS/xmc4800_evaluation_kit/optiga-trust-m/externals/mbedtls/library\aes.c **** #define AES_FT1(idx) ROTL8(  FT0[idx] )
 501:D:/School/diseratie/SEMS/xmc4800_evaluation_kit/optiga-trust-m/externals/mbedtls/library\aes.c **** #define AES_FT2(idx) ROTL16( FT0[idx] )
 502:D:/School/diseratie/SEMS/xmc4800_evaluation_kit/optiga-trust-m/externals/mbedtls/library\aes.c **** #define AES_FT3(idx) ROTL24( FT0[idx] )
 503:D:/School/diseratie/SEMS/xmc4800_evaluation_kit/optiga-trust-m/externals/mbedtls/library\aes.c **** 
 504:D:/School/diseratie/SEMS/xmc4800_evaluation_kit/optiga-trust-m/externals/mbedtls/library\aes.c **** #else /* MBEDTLS_AES_FEWER_TABLES */
 505:D:/School/diseratie/SEMS/xmc4800_evaluation_kit/optiga-trust-m/externals/mbedtls/library\aes.c **** 
 506:D:/School/diseratie/SEMS/xmc4800_evaluation_kit/optiga-trust-m/externals/mbedtls/library\aes.c **** #define AES_RT0(idx) RT0[idx]
 507:D:/School/diseratie/SEMS/xmc4800_evaluation_kit/optiga-trust-m/externals/mbedtls/library\aes.c **** #define AES_RT1(idx) RT1[idx]
 508:D:/School/diseratie/SEMS/xmc4800_evaluation_kit/optiga-trust-m/externals/mbedtls/library\aes.c **** #define AES_RT2(idx) RT2[idx]
 509:D:/School/diseratie/SEMS/xmc4800_evaluation_kit/optiga-trust-m/externals/mbedtls/library\aes.c **** #define AES_RT3(idx) RT3[idx]
 510:D:/School/diseratie/SEMS/xmc4800_evaluation_kit/optiga-trust-m/externals/mbedtls/library\aes.c **** 
 511:D:/School/diseratie/SEMS/xmc4800_evaluation_kit/optiga-trust-m/externals/mbedtls/library\aes.c **** #define AES_FT0(idx) FT0[idx]
 512:D:/School/diseratie/SEMS/xmc4800_evaluation_kit/optiga-trust-m/externals/mbedtls/library\aes.c **** #define AES_FT1(idx) FT1[idx]
 513:D:/School/diseratie/SEMS/xmc4800_evaluation_kit/optiga-trust-m/externals/mbedtls/library\aes.c **** #define AES_FT2(idx) FT2[idx]
 514:D:/School/diseratie/SEMS/xmc4800_evaluation_kit/optiga-trust-m/externals/mbedtls/library\aes.c **** #define AES_FT3(idx) FT3[idx]
 515:D:/School/diseratie/SEMS/xmc4800_evaluation_kit/optiga-trust-m/externals/mbedtls/library\aes.c **** 
 516:D:/School/diseratie/SEMS/xmc4800_evaluation_kit/optiga-trust-m/externals/mbedtls/library\aes.c **** #endif /* MBEDTLS_AES_FEWER_TABLES */
 517:D:/School/diseratie/SEMS/xmc4800_evaluation_kit/optiga-trust-m/externals/mbedtls/library\aes.c **** 
 518:D:/School/diseratie/SEMS/xmc4800_evaluation_kit/optiga-trust-m/externals/mbedtls/library\aes.c **** void mbedtls_aes_init( mbedtls_aes_context *ctx )
 519:D:/School/diseratie/SEMS/xmc4800_evaluation_kit/optiga-trust-m/externals/mbedtls/library\aes.c **** {
 403              	 .loc 1 519 0
 404              	 .cfi_startproc
 405              	 
 406              	 
 407              	 
 408              	.LVL36:
 520:D:/School/diseratie/SEMS/xmc4800_evaluation_kit/optiga-trust-m/externals/mbedtls/library\aes.c ****     AES_VALIDATE( ctx != NULL );
 521:D:/School/diseratie/SEMS/xmc4800_evaluation_kit/optiga-trust-m/externals/mbedtls/library\aes.c **** 
 522:D:/School/diseratie/SEMS/xmc4800_evaluation_kit/optiga-trust-m/externals/mbedtls/library\aes.c ****     memset( ctx, 0, sizeof( mbedtls_aes_context ) );
 409              	 .loc 1 522 0
 410 0000 0021     	 movs r1,#0
 411 0002 4FF48C72 	 mov r2,#280
 412 0006 FFF7FEBF 	 b memset
 413              	.LVL37:
 414              	 .cfi_endproc
 415              	.LFE1:
 417 000a 00BF     	 .section .text.mbedtls_aes_free,"ax",%progbits
 418              	 .align 2
 419              	 .global mbedtls_aes_free
 420              	 .thumb
 421              	 .thumb_func
 423              	mbedtls_aes_free:
 424              	.LFB2:
 523:D:/School/diseratie/SEMS/xmc4800_evaluation_kit/optiga-trust-m/externals/mbedtls/library\aes.c **** }
 524:D:/School/diseratie/SEMS/xmc4800_evaluation_kit/optiga-trust-m/externals/mbedtls/library\aes.c **** 
 525:D:/School/diseratie/SEMS/xmc4800_evaluation_kit/optiga-trust-m/externals/mbedtls/library\aes.c **** void mbedtls_aes_free( mbedtls_aes_context *ctx )
 526:D:/School/diseratie/SEMS/xmc4800_evaluation_kit/optiga-trust-m/externals/mbedtls/library\aes.c **** {
 425              	 .loc 1 526 0
 426              	 .cfi_startproc
 427              	 
 428              	 
 429              	 
 430              	.LVL38:
 527:D:/School/diseratie/SEMS/xmc4800_evaluation_kit/optiga-trust-m/externals/mbedtls/library\aes.c ****     if( ctx == NULL )
 431              	 .loc 1 527 0
 432 0000 18B1     	 cbz r0,.L22
 528:D:/School/diseratie/SEMS/xmc4800_evaluation_kit/optiga-trust-m/externals/mbedtls/library\aes.c ****         return;
 529:D:/School/diseratie/SEMS/xmc4800_evaluation_kit/optiga-trust-m/externals/mbedtls/library\aes.c **** 
 530:D:/School/diseratie/SEMS/xmc4800_evaluation_kit/optiga-trust-m/externals/mbedtls/library\aes.c ****     mbedtls_platform_zeroize( ctx, sizeof( mbedtls_aes_context ) );
 433              	 .loc 1 530 0
 434 0002 4FF48C71 	 mov r1,#280
 435 0006 FFF7FEBF 	 b mbedtls_platform_zeroize
 436              	.LVL39:
 437              	.L22:
 438 000a 7047     	 bx lr
 439              	 .cfi_endproc
 440              	.LFE2:
 442              	 .section .text.mbedtls_aes_setkey_enc,"ax",%progbits
 443              	 .align 2
 444              	 .global mbedtls_aes_setkey_enc
 445              	 .thumb
 446              	 .thumb_func
 448              	mbedtls_aes_setkey_enc:
 449              	.LFB3:
 531:D:/School/diseratie/SEMS/xmc4800_evaluation_kit/optiga-trust-m/externals/mbedtls/library\aes.c **** }
 532:D:/School/diseratie/SEMS/xmc4800_evaluation_kit/optiga-trust-m/externals/mbedtls/library\aes.c **** 
 533:D:/School/diseratie/SEMS/xmc4800_evaluation_kit/optiga-trust-m/externals/mbedtls/library\aes.c **** #if defined(MBEDTLS_CIPHER_MODE_XTS)
 534:D:/School/diseratie/SEMS/xmc4800_evaluation_kit/optiga-trust-m/externals/mbedtls/library\aes.c **** void mbedtls_aes_xts_init( mbedtls_aes_xts_context *ctx )
 535:D:/School/diseratie/SEMS/xmc4800_evaluation_kit/optiga-trust-m/externals/mbedtls/library\aes.c **** {
 536:D:/School/diseratie/SEMS/xmc4800_evaluation_kit/optiga-trust-m/externals/mbedtls/library\aes.c ****     AES_VALIDATE( ctx != NULL );
 537:D:/School/diseratie/SEMS/xmc4800_evaluation_kit/optiga-trust-m/externals/mbedtls/library\aes.c **** 
 538:D:/School/diseratie/SEMS/xmc4800_evaluation_kit/optiga-trust-m/externals/mbedtls/library\aes.c ****     mbedtls_aes_init( &ctx->crypt );
 539:D:/School/diseratie/SEMS/xmc4800_evaluation_kit/optiga-trust-m/externals/mbedtls/library\aes.c ****     mbedtls_aes_init( &ctx->tweak );
 540:D:/School/diseratie/SEMS/xmc4800_evaluation_kit/optiga-trust-m/externals/mbedtls/library\aes.c **** }
 541:D:/School/diseratie/SEMS/xmc4800_evaluation_kit/optiga-trust-m/externals/mbedtls/library\aes.c **** 
 542:D:/School/diseratie/SEMS/xmc4800_evaluation_kit/optiga-trust-m/externals/mbedtls/library\aes.c **** void mbedtls_aes_xts_free( mbedtls_aes_xts_context *ctx )
 543:D:/School/diseratie/SEMS/xmc4800_evaluation_kit/optiga-trust-m/externals/mbedtls/library\aes.c **** {
 544:D:/School/diseratie/SEMS/xmc4800_evaluation_kit/optiga-trust-m/externals/mbedtls/library\aes.c ****     if( ctx == NULL )
 545:D:/School/diseratie/SEMS/xmc4800_evaluation_kit/optiga-trust-m/externals/mbedtls/library\aes.c ****         return;
 546:D:/School/diseratie/SEMS/xmc4800_evaluation_kit/optiga-trust-m/externals/mbedtls/library\aes.c **** 
 547:D:/School/diseratie/SEMS/xmc4800_evaluation_kit/optiga-trust-m/externals/mbedtls/library\aes.c ****     mbedtls_aes_free( &ctx->crypt );
 548:D:/School/diseratie/SEMS/xmc4800_evaluation_kit/optiga-trust-m/externals/mbedtls/library\aes.c ****     mbedtls_aes_free( &ctx->tweak );
 549:D:/School/diseratie/SEMS/xmc4800_evaluation_kit/optiga-trust-m/externals/mbedtls/library\aes.c **** }
 550:D:/School/diseratie/SEMS/xmc4800_evaluation_kit/optiga-trust-m/externals/mbedtls/library\aes.c **** #endif /* MBEDTLS_CIPHER_MODE_XTS */
 551:D:/School/diseratie/SEMS/xmc4800_evaluation_kit/optiga-trust-m/externals/mbedtls/library\aes.c **** 
 552:D:/School/diseratie/SEMS/xmc4800_evaluation_kit/optiga-trust-m/externals/mbedtls/library\aes.c **** /*
 553:D:/School/diseratie/SEMS/xmc4800_evaluation_kit/optiga-trust-m/externals/mbedtls/library\aes.c ****  * AES key schedule (encryption)
 554:D:/School/diseratie/SEMS/xmc4800_evaluation_kit/optiga-trust-m/externals/mbedtls/library\aes.c ****  */
 555:D:/School/diseratie/SEMS/xmc4800_evaluation_kit/optiga-trust-m/externals/mbedtls/library\aes.c **** #if !defined(MBEDTLS_AES_SETKEY_ENC_ALT)
 556:D:/School/diseratie/SEMS/xmc4800_evaluation_kit/optiga-trust-m/externals/mbedtls/library\aes.c **** int mbedtls_aes_setkey_enc( mbedtls_aes_context *ctx, const unsigned char *key,
 557:D:/School/diseratie/SEMS/xmc4800_evaluation_kit/optiga-trust-m/externals/mbedtls/library\aes.c ****                     unsigned int keybits )
 558:D:/School/diseratie/SEMS/xmc4800_evaluation_kit/optiga-trust-m/externals/mbedtls/library\aes.c **** {
 450              	 .loc 1 558 0
 451              	 .cfi_startproc
 452              	 
 453              	 
 454              	.LVL40:
 455 0000 2DE9F04F 	 push {r4,r5,r6,r7,r8,r9,r10,fp,lr}
 456              	.LCFI3:
 457              	 .cfi_def_cfa_offset 36
 458              	 .cfi_offset 4,-36
 459              	 .cfi_offset 5,-32
 460              	 .cfi_offset 6,-28
 461              	 .cfi_offset 7,-24
 462              	 .cfi_offset 8,-20
 463              	 .cfi_offset 9,-16
 464              	 .cfi_offset 10,-12
 465              	 .cfi_offset 11,-8
 466              	 .cfi_offset 14,-4
 559:D:/School/diseratie/SEMS/xmc4800_evaluation_kit/optiga-trust-m/externals/mbedtls/library\aes.c ****     unsigned int i;
 560:D:/School/diseratie/SEMS/xmc4800_evaluation_kit/optiga-trust-m/externals/mbedtls/library\aes.c ****     uint32_t *RK;
 561:D:/School/diseratie/SEMS/xmc4800_evaluation_kit/optiga-trust-m/externals/mbedtls/library\aes.c **** 
 562:D:/School/diseratie/SEMS/xmc4800_evaluation_kit/optiga-trust-m/externals/mbedtls/library\aes.c ****     AES_VALIDATE_RET( ctx != NULL );
 563:D:/School/diseratie/SEMS/xmc4800_evaluation_kit/optiga-trust-m/externals/mbedtls/library\aes.c ****     AES_VALIDATE_RET( key != NULL );
 564:D:/School/diseratie/SEMS/xmc4800_evaluation_kit/optiga-trust-m/externals/mbedtls/library\aes.c **** 
 565:D:/School/diseratie/SEMS/xmc4800_evaluation_kit/optiga-trust-m/externals/mbedtls/library\aes.c ****     switch( keybits )
 467              	 .loc 1 565 0
 468 0004 C02A     	 cmp r2,#192
 558:D:/School/diseratie/SEMS/xmc4800_evaluation_kit/optiga-trust-m/externals/mbedtls/library\aes.c ****     unsigned int i;
 469              	 .loc 1 558 0
 470 0006 83B0     	 sub sp,sp,#12
 471              	.LCFI4:
 472              	 .cfi_def_cfa_offset 48
 473              	 .loc 1 565 0
 474 0008 4DD0     	 beq .L26
 475 000a B2F5807F 	 cmp r2,#256
 476 000e 36D0     	 beq .L27
 477 0010 802A     	 cmp r2,#128
 478 0012 04D0     	 beq .L53
 566:D:/School/diseratie/SEMS/xmc4800_evaluation_kit/optiga-trust-m/externals/mbedtls/library\aes.c ****     {
 567:D:/School/diseratie/SEMS/xmc4800_evaluation_kit/optiga-trust-m/externals/mbedtls/library\aes.c ****         case 128: ctx->nr = 10; break;
 568:D:/School/diseratie/SEMS/xmc4800_evaluation_kit/optiga-trust-m/externals/mbedtls/library\aes.c ****         case 192: ctx->nr = 12; break;
 569:D:/School/diseratie/SEMS/xmc4800_evaluation_kit/optiga-trust-m/externals/mbedtls/library\aes.c ****         case 256: ctx->nr = 14; break;
 570:D:/School/diseratie/SEMS/xmc4800_evaluation_kit/optiga-trust-m/externals/mbedtls/library\aes.c ****         default : return( MBEDTLS_ERR_AES_INVALID_KEY_LENGTH );
 479              	 .loc 1 570 0
 480 0014 6FF01F00 	 mvn r0,#31
 481              	.LVL41:
 571:D:/School/diseratie/SEMS/xmc4800_evaluation_kit/optiga-trust-m/externals/mbedtls/library\aes.c ****     }
 572:D:/School/diseratie/SEMS/xmc4800_evaluation_kit/optiga-trust-m/externals/mbedtls/library\aes.c **** 
 573:D:/School/diseratie/SEMS/xmc4800_evaluation_kit/optiga-trust-m/externals/mbedtls/library\aes.c **** #if !defined(MBEDTLS_AES_ROM_TABLES)
 574:D:/School/diseratie/SEMS/xmc4800_evaluation_kit/optiga-trust-m/externals/mbedtls/library\aes.c ****     if( aes_init_done == 0 )
 575:D:/School/diseratie/SEMS/xmc4800_evaluation_kit/optiga-trust-m/externals/mbedtls/library\aes.c ****     {
 576:D:/School/diseratie/SEMS/xmc4800_evaluation_kit/optiga-trust-m/externals/mbedtls/library\aes.c ****         aes_gen_tables();
 577:D:/School/diseratie/SEMS/xmc4800_evaluation_kit/optiga-trust-m/externals/mbedtls/library\aes.c ****         aes_init_done = 1;
 578:D:/School/diseratie/SEMS/xmc4800_evaluation_kit/optiga-trust-m/externals/mbedtls/library\aes.c ****     }
 579:D:/School/diseratie/SEMS/xmc4800_evaluation_kit/optiga-trust-m/externals/mbedtls/library\aes.c **** #endif
 580:D:/School/diseratie/SEMS/xmc4800_evaluation_kit/optiga-trust-m/externals/mbedtls/library\aes.c **** 
 581:D:/School/diseratie/SEMS/xmc4800_evaluation_kit/optiga-trust-m/externals/mbedtls/library\aes.c **** #if defined(MBEDTLS_PADLOCK_C) && defined(MBEDTLS_PADLOCK_ALIGN16)
 582:D:/School/diseratie/SEMS/xmc4800_evaluation_kit/optiga-trust-m/externals/mbedtls/library\aes.c ****     if( aes_padlock_ace == -1 )
 583:D:/School/diseratie/SEMS/xmc4800_evaluation_kit/optiga-trust-m/externals/mbedtls/library\aes.c ****         aes_padlock_ace = mbedtls_padlock_has_support( MBEDTLS_PADLOCK_ACE );
 584:D:/School/diseratie/SEMS/xmc4800_evaluation_kit/optiga-trust-m/externals/mbedtls/library\aes.c **** 
 585:D:/School/diseratie/SEMS/xmc4800_evaluation_kit/optiga-trust-m/externals/mbedtls/library\aes.c ****     if( aes_padlock_ace )
 586:D:/School/diseratie/SEMS/xmc4800_evaluation_kit/optiga-trust-m/externals/mbedtls/library\aes.c ****         ctx->rk = RK = MBEDTLS_PADLOCK_ALIGN16( ctx->buf );
 587:D:/School/diseratie/SEMS/xmc4800_evaluation_kit/optiga-trust-m/externals/mbedtls/library\aes.c ****     else
 588:D:/School/diseratie/SEMS/xmc4800_evaluation_kit/optiga-trust-m/externals/mbedtls/library\aes.c **** #endif
 589:D:/School/diseratie/SEMS/xmc4800_evaluation_kit/optiga-trust-m/externals/mbedtls/library\aes.c ****     ctx->rk = RK = ctx->buf;
 590:D:/School/diseratie/SEMS/xmc4800_evaluation_kit/optiga-trust-m/externals/mbedtls/library\aes.c **** 
 591:D:/School/diseratie/SEMS/xmc4800_evaluation_kit/optiga-trust-m/externals/mbedtls/library\aes.c **** #if defined(MBEDTLS_AESNI_C) && defined(MBEDTLS_HAVE_X86_64)
 592:D:/School/diseratie/SEMS/xmc4800_evaluation_kit/optiga-trust-m/externals/mbedtls/library\aes.c ****     if( mbedtls_aesni_has_support( MBEDTLS_AESNI_AES ) )
 593:D:/School/diseratie/SEMS/xmc4800_evaluation_kit/optiga-trust-m/externals/mbedtls/library\aes.c ****         return( mbedtls_aesni_setkey_enc( (unsigned char *) ctx->rk, key, keybits ) );
 594:D:/School/diseratie/SEMS/xmc4800_evaluation_kit/optiga-trust-m/externals/mbedtls/library\aes.c **** #endif
 595:D:/School/diseratie/SEMS/xmc4800_evaluation_kit/optiga-trust-m/externals/mbedtls/library\aes.c **** 
 596:D:/School/diseratie/SEMS/xmc4800_evaluation_kit/optiga-trust-m/externals/mbedtls/library\aes.c ****     for( i = 0; i < ( keybits >> 5 ); i++ )
 597:D:/School/diseratie/SEMS/xmc4800_evaluation_kit/optiga-trust-m/externals/mbedtls/library\aes.c ****     {
 598:D:/School/diseratie/SEMS/xmc4800_evaluation_kit/optiga-trust-m/externals/mbedtls/library\aes.c ****         GET_UINT32_LE( RK[i], key, i << 2 );
 599:D:/School/diseratie/SEMS/xmc4800_evaluation_kit/optiga-trust-m/externals/mbedtls/library\aes.c ****     }
 600:D:/School/diseratie/SEMS/xmc4800_evaluation_kit/optiga-trust-m/externals/mbedtls/library\aes.c **** 
 601:D:/School/diseratie/SEMS/xmc4800_evaluation_kit/optiga-trust-m/externals/mbedtls/library\aes.c ****     switch( ctx->nr )
 602:D:/School/diseratie/SEMS/xmc4800_evaluation_kit/optiga-trust-m/externals/mbedtls/library\aes.c ****     {
 603:D:/School/diseratie/SEMS/xmc4800_evaluation_kit/optiga-trust-m/externals/mbedtls/library\aes.c ****         case 10:
 604:D:/School/diseratie/SEMS/xmc4800_evaluation_kit/optiga-trust-m/externals/mbedtls/library\aes.c **** 
 605:D:/School/diseratie/SEMS/xmc4800_evaluation_kit/optiga-trust-m/externals/mbedtls/library\aes.c ****             for( i = 0; i < 10; i++, RK += 4 )
 606:D:/School/diseratie/SEMS/xmc4800_evaluation_kit/optiga-trust-m/externals/mbedtls/library\aes.c ****             {
 607:D:/School/diseratie/SEMS/xmc4800_evaluation_kit/optiga-trust-m/externals/mbedtls/library\aes.c ****                 RK[4]  = RK[0] ^ RCON[i] ^
 608:D:/School/diseratie/SEMS/xmc4800_evaluation_kit/optiga-trust-m/externals/mbedtls/library\aes.c ****                 ( (uint32_t) FSb[ ( RK[3] >>  8 ) & 0xFF ]       ) ^
 609:D:/School/diseratie/SEMS/xmc4800_evaluation_kit/optiga-trust-m/externals/mbedtls/library\aes.c ****                 ( (uint32_t) FSb[ ( RK[3] >> 16 ) & 0xFF ] <<  8 ) ^
 610:D:/School/diseratie/SEMS/xmc4800_evaluation_kit/optiga-trust-m/externals/mbedtls/library\aes.c ****                 ( (uint32_t) FSb[ ( RK[3] >> 24 ) & 0xFF ] << 16 ) ^
 611:D:/School/diseratie/SEMS/xmc4800_evaluation_kit/optiga-trust-m/externals/mbedtls/library\aes.c ****                 ( (uint32_t) FSb[ ( RK[3]       ) & 0xFF ] << 24 );
 612:D:/School/diseratie/SEMS/xmc4800_evaluation_kit/optiga-trust-m/externals/mbedtls/library\aes.c **** 
 613:D:/School/diseratie/SEMS/xmc4800_evaluation_kit/optiga-trust-m/externals/mbedtls/library\aes.c ****                 RK[5]  = RK[1] ^ RK[4];
 614:D:/School/diseratie/SEMS/xmc4800_evaluation_kit/optiga-trust-m/externals/mbedtls/library\aes.c ****                 RK[6]  = RK[2] ^ RK[5];
 615:D:/School/diseratie/SEMS/xmc4800_evaluation_kit/optiga-trust-m/externals/mbedtls/library\aes.c ****                 RK[7]  = RK[3] ^ RK[6];
 616:D:/School/diseratie/SEMS/xmc4800_evaluation_kit/optiga-trust-m/externals/mbedtls/library\aes.c ****             }
 617:D:/School/diseratie/SEMS/xmc4800_evaluation_kit/optiga-trust-m/externals/mbedtls/library\aes.c ****             break;
 618:D:/School/diseratie/SEMS/xmc4800_evaluation_kit/optiga-trust-m/externals/mbedtls/library\aes.c **** 
 619:D:/School/diseratie/SEMS/xmc4800_evaluation_kit/optiga-trust-m/externals/mbedtls/library\aes.c ****         case 12:
 620:D:/School/diseratie/SEMS/xmc4800_evaluation_kit/optiga-trust-m/externals/mbedtls/library\aes.c **** 
 621:D:/School/diseratie/SEMS/xmc4800_evaluation_kit/optiga-trust-m/externals/mbedtls/library\aes.c ****             for( i = 0; i < 8; i++, RK += 6 )
 622:D:/School/diseratie/SEMS/xmc4800_evaluation_kit/optiga-trust-m/externals/mbedtls/library\aes.c ****             {
 623:D:/School/diseratie/SEMS/xmc4800_evaluation_kit/optiga-trust-m/externals/mbedtls/library\aes.c ****                 RK[6]  = RK[0] ^ RCON[i] ^
 624:D:/School/diseratie/SEMS/xmc4800_evaluation_kit/optiga-trust-m/externals/mbedtls/library\aes.c ****                 ( (uint32_t) FSb[ ( RK[5] >>  8 ) & 0xFF ]       ) ^
 625:D:/School/diseratie/SEMS/xmc4800_evaluation_kit/optiga-trust-m/externals/mbedtls/library\aes.c ****                 ( (uint32_t) FSb[ ( RK[5] >> 16 ) & 0xFF ] <<  8 ) ^
 626:D:/School/diseratie/SEMS/xmc4800_evaluation_kit/optiga-trust-m/externals/mbedtls/library\aes.c ****                 ( (uint32_t) FSb[ ( RK[5] >> 24 ) & 0xFF ] << 16 ) ^
 627:D:/School/diseratie/SEMS/xmc4800_evaluation_kit/optiga-trust-m/externals/mbedtls/library\aes.c ****                 ( (uint32_t) FSb[ ( RK[5]       ) & 0xFF ] << 24 );
 628:D:/School/diseratie/SEMS/xmc4800_evaluation_kit/optiga-trust-m/externals/mbedtls/library\aes.c **** 
 629:D:/School/diseratie/SEMS/xmc4800_evaluation_kit/optiga-trust-m/externals/mbedtls/library\aes.c ****                 RK[7]  = RK[1] ^ RK[6];
 630:D:/School/diseratie/SEMS/xmc4800_evaluation_kit/optiga-trust-m/externals/mbedtls/library\aes.c ****                 RK[8]  = RK[2] ^ RK[7];
 631:D:/School/diseratie/SEMS/xmc4800_evaluation_kit/optiga-trust-m/externals/mbedtls/library\aes.c ****                 RK[9]  = RK[3] ^ RK[8];
 632:D:/School/diseratie/SEMS/xmc4800_evaluation_kit/optiga-trust-m/externals/mbedtls/library\aes.c ****                 RK[10] = RK[4] ^ RK[9];
 633:D:/School/diseratie/SEMS/xmc4800_evaluation_kit/optiga-trust-m/externals/mbedtls/library\aes.c ****                 RK[11] = RK[5] ^ RK[10];
 634:D:/School/diseratie/SEMS/xmc4800_evaluation_kit/optiga-trust-m/externals/mbedtls/library\aes.c ****             }
 635:D:/School/diseratie/SEMS/xmc4800_evaluation_kit/optiga-trust-m/externals/mbedtls/library\aes.c ****             break;
 636:D:/School/diseratie/SEMS/xmc4800_evaluation_kit/optiga-trust-m/externals/mbedtls/library\aes.c **** 
 637:D:/School/diseratie/SEMS/xmc4800_evaluation_kit/optiga-trust-m/externals/mbedtls/library\aes.c ****         case 14:
 638:D:/School/diseratie/SEMS/xmc4800_evaluation_kit/optiga-trust-m/externals/mbedtls/library\aes.c **** 
 639:D:/School/diseratie/SEMS/xmc4800_evaluation_kit/optiga-trust-m/externals/mbedtls/library\aes.c ****             for( i = 0; i < 7; i++, RK += 8 )
 640:D:/School/diseratie/SEMS/xmc4800_evaluation_kit/optiga-trust-m/externals/mbedtls/library\aes.c ****             {
 641:D:/School/diseratie/SEMS/xmc4800_evaluation_kit/optiga-trust-m/externals/mbedtls/library\aes.c ****                 RK[8]  = RK[0] ^ RCON[i] ^
 642:D:/School/diseratie/SEMS/xmc4800_evaluation_kit/optiga-trust-m/externals/mbedtls/library\aes.c ****                 ( (uint32_t) FSb[ ( RK[7] >>  8 ) & 0xFF ]       ) ^
 643:D:/School/diseratie/SEMS/xmc4800_evaluation_kit/optiga-trust-m/externals/mbedtls/library\aes.c ****                 ( (uint32_t) FSb[ ( RK[7] >> 16 ) & 0xFF ] <<  8 ) ^
 644:D:/School/diseratie/SEMS/xmc4800_evaluation_kit/optiga-trust-m/externals/mbedtls/library\aes.c ****                 ( (uint32_t) FSb[ ( RK[7] >> 24 ) & 0xFF ] << 16 ) ^
 645:D:/School/diseratie/SEMS/xmc4800_evaluation_kit/optiga-trust-m/externals/mbedtls/library\aes.c ****                 ( (uint32_t) FSb[ ( RK[7]       ) & 0xFF ] << 24 );
 646:D:/School/diseratie/SEMS/xmc4800_evaluation_kit/optiga-trust-m/externals/mbedtls/library\aes.c **** 
 647:D:/School/diseratie/SEMS/xmc4800_evaluation_kit/optiga-trust-m/externals/mbedtls/library\aes.c ****                 RK[9]  = RK[1] ^ RK[8];
 648:D:/School/diseratie/SEMS/xmc4800_evaluation_kit/optiga-trust-m/externals/mbedtls/library\aes.c ****                 RK[10] = RK[2] ^ RK[9];
 649:D:/School/diseratie/SEMS/xmc4800_evaluation_kit/optiga-trust-m/externals/mbedtls/library\aes.c ****                 RK[11] = RK[3] ^ RK[10];
 650:D:/School/diseratie/SEMS/xmc4800_evaluation_kit/optiga-trust-m/externals/mbedtls/library\aes.c **** 
 651:D:/School/diseratie/SEMS/xmc4800_evaluation_kit/optiga-trust-m/externals/mbedtls/library\aes.c ****                 RK[12] = RK[4] ^
 652:D:/School/diseratie/SEMS/xmc4800_evaluation_kit/optiga-trust-m/externals/mbedtls/library\aes.c ****                 ( (uint32_t) FSb[ ( RK[11]       ) & 0xFF ]       ) ^
 653:D:/School/diseratie/SEMS/xmc4800_evaluation_kit/optiga-trust-m/externals/mbedtls/library\aes.c ****                 ( (uint32_t) FSb[ ( RK[11] >>  8 ) & 0xFF ] <<  8 ) ^
 654:D:/School/diseratie/SEMS/xmc4800_evaluation_kit/optiga-trust-m/externals/mbedtls/library\aes.c ****                 ( (uint32_t) FSb[ ( RK[11] >> 16 ) & 0xFF ] << 16 ) ^
 655:D:/School/diseratie/SEMS/xmc4800_evaluation_kit/optiga-trust-m/externals/mbedtls/library\aes.c ****                 ( (uint32_t) FSb[ ( RK[11] >> 24 ) & 0xFF ] << 24 );
 656:D:/School/diseratie/SEMS/xmc4800_evaluation_kit/optiga-trust-m/externals/mbedtls/library\aes.c **** 
 657:D:/School/diseratie/SEMS/xmc4800_evaluation_kit/optiga-trust-m/externals/mbedtls/library\aes.c ****                 RK[13] = RK[5] ^ RK[12];
 658:D:/School/diseratie/SEMS/xmc4800_evaluation_kit/optiga-trust-m/externals/mbedtls/library\aes.c ****                 RK[14] = RK[6] ^ RK[13];
 659:D:/School/diseratie/SEMS/xmc4800_evaluation_kit/optiga-trust-m/externals/mbedtls/library\aes.c ****                 RK[15] = RK[7] ^ RK[14];
 660:D:/School/diseratie/SEMS/xmc4800_evaluation_kit/optiga-trust-m/externals/mbedtls/library\aes.c ****             }
 661:D:/School/diseratie/SEMS/xmc4800_evaluation_kit/optiga-trust-m/externals/mbedtls/library\aes.c ****             break;
 662:D:/School/diseratie/SEMS/xmc4800_evaluation_kit/optiga-trust-m/externals/mbedtls/library\aes.c ****     }
 663:D:/School/diseratie/SEMS/xmc4800_evaluation_kit/optiga-trust-m/externals/mbedtls/library\aes.c **** 
 664:D:/School/diseratie/SEMS/xmc4800_evaluation_kit/optiga-trust-m/externals/mbedtls/library\aes.c ****     return( 0 );
 665:D:/School/diseratie/SEMS/xmc4800_evaluation_kit/optiga-trust-m/externals/mbedtls/library\aes.c **** }
 482              	 .loc 1 665 0
 483 0018 03B0     	 add sp,sp,#12
 484              	.LCFI5:
 485              	 .cfi_remember_state
 486              	 .cfi_def_cfa_offset 36
 487              	 
 488 001a BDE8F08F 	 pop {r4,r5,r6,r7,r8,r9,r10,fp,pc}
 489              	.LVL42:
 490              	.L53:
 491              	.LCFI6:
 492              	 .cfi_restore_state
 567:D:/School/diseratie/SEMS/xmc4800_evaluation_kit/optiga-trust-m/externals/mbedtls/library\aes.c ****         case 192: ctx->nr = 12; break;
 493              	 .loc 1 567 0
 494 001e 0A23     	 movs r3,#10
 495 0020 0360     	 str r3,[r0]
 496              	.L29:
 574:D:/School/diseratie/SEMS/xmc4800_evaluation_kit/optiga-trust-m/externals/mbedtls/library\aes.c ****     {
 497              	 .loc 1 574 0
 498 0022 894C     	 ldr r4,.L56
 499 0024 2368     	 ldr r3,[r4]
 500 0026 8946     	 mov r9,r1
 501 0028 8046     	 mov r8,r0
 502 002a 1646     	 mov r6,r2
 503 002c 83B3     	 cbz r3,.L54
 504              	.L50:
 589:D:/School/diseratie/SEMS/xmc4800_evaluation_kit/optiga-trust-m/externals/mbedtls/library\aes.c **** 
 505              	 .loc 1 589 0
 506 002e 08F10803 	 add r3,r8,#8
 507              	.LVL43:
 596:D:/School/diseratie/SEMS/xmc4800_evaluation_kit/optiga-trust-m/externals/mbedtls/library\aes.c ****     {
 508              	 .loc 1 596 0
 509 0032 4FEA561C 	 lsr ip,r6,#5
 589:D:/School/diseratie/SEMS/xmc4800_evaluation_kit/optiga-trust-m/externals/mbedtls/library\aes.c **** 
 510              	 .loc 1 589 0
 511 0036 C8F80430 	 str r3,[r8,#4]
 512              	.LVL44:
 513              	.L38:
 514 003a A3F1040E 	 sub lr,r3,#4
 558:D:/School/diseratie/SEMS/xmc4800_evaluation_kit/optiga-trust-m/externals/mbedtls/library\aes.c ****     unsigned int i;
 515              	 .loc 1 558 0 discriminator 3
 516 003e 0027     	 movs r7,#0
 517              	.LVL45:
 518              	.L30:
 598:D:/School/diseratie/SEMS/xmc4800_evaluation_kit/optiga-trust-m/externals/mbedtls/library\aes.c ****     }
 519              	 .loc 1 598 0 discriminator 3
 520 0040 09EB8704 	 add r4,r9,r7,lsl#2
 521 0044 19F82710 	 ldrb r1,[r9,r7,lsl#2]
 522 0048 A078     	 ldrb r0,[r4,#2]
 523 004a 6278     	 ldrb r2,[r4,#1]
 524 004c E478     	 ldrb r4,[r4,#3]
 525 004e 0004     	 lsls r0,r0,#16
 526 0050 40EA0222 	 orr r2,r0,r2,lsl#8
 527 0054 0A43     	 orrs r2,r2,r1
 596:D:/School/diseratie/SEMS/xmc4800_evaluation_kit/optiga-trust-m/externals/mbedtls/library\aes.c ****     {
 528              	 .loc 1 596 0 discriminator 3
 529 0056 0137     	 adds r7,r7,#1
 530              	.LVL46:
 598:D:/School/diseratie/SEMS/xmc4800_evaluation_kit/optiga-trust-m/externals/mbedtls/library\aes.c ****     }
 531              	 .loc 1 598 0 discriminator 3
 532 0058 42EA0462 	 orr r2,r2,r4,lsl#24
 596:D:/School/diseratie/SEMS/xmc4800_evaluation_kit/optiga-trust-m/externals/mbedtls/library\aes.c ****     {
 533              	 .loc 1 596 0 discriminator 3
 534 005c 6745     	 cmp r7,ip
 598:D:/School/diseratie/SEMS/xmc4800_evaluation_kit/optiga-trust-m/externals/mbedtls/library\aes.c ****     }
 535              	 .loc 1 598 0 discriminator 3
 536 005e 4EF8042F 	 str r2,[lr,#4]!
 596:D:/School/diseratie/SEMS/xmc4800_evaluation_kit/optiga-trust-m/externals/mbedtls/library\aes.c ****     {
 537              	 .loc 1 596 0 discriminator 3
 538 0062 EDD3     	 bcc .L30
 601:D:/School/diseratie/SEMS/xmc4800_evaluation_kit/optiga-trust-m/externals/mbedtls/library\aes.c ****     {
 539              	 .loc 1 601 0
 540 0064 D8F80020 	 ldr r2,[r8]
 541 0068 0C2A     	 cmp r2,#12
 542 006a 1FD0     	 beq .L31
 543 006c 0E2A     	 cmp r2,#14
 544 006e 00F08980 	 beq .L32
 545 0072 0A2A     	 cmp r2,#10
 546 0074 5AD0     	 beq .L55
 547              	.LVL47:
 548              	.L48:
 664:D:/School/diseratie/SEMS/xmc4800_evaluation_kit/optiga-trust-m/externals/mbedtls/library\aes.c **** }
 549              	 .loc 1 664 0
 550 0076 0020     	 movs r0,#0
 551              	 .loc 1 665 0
 552 0078 03B0     	 add sp,sp,#12
 553              	.LCFI7:
 554              	 .cfi_remember_state
 555              	 .cfi_def_cfa_offset 36
 556              	 
 557 007a BDE8F08F 	 pop {r4,r5,r6,r7,r8,r9,r10,fp,pc}
 558              	.LVL48:
 559              	.L27:
 560              	.LCFI8:
 561              	 .cfi_restore_state
 574:D:/School/diseratie/SEMS/xmc4800_evaluation_kit/optiga-trust-m/externals/mbedtls/library\aes.c ****     {
 562              	 .loc 1 574 0
 563 007e 724C     	 ldr r4,.L56
 569:D:/School/diseratie/SEMS/xmc4800_evaluation_kit/optiga-trust-m/externals/mbedtls/library\aes.c ****         default : return( MBEDTLS_ERR_AES_INVALID_KEY_LENGTH );
 564              	 .loc 1 569 0
 565 0080 0E23     	 movs r3,#14
 566 0082 0360     	 str r3,[r0]
 574:D:/School/diseratie/SEMS/xmc4800_evaluation_kit/optiga-trust-m/externals/mbedtls/library\aes.c ****     {
 567              	 .loc 1 574 0
 568 0084 2368     	 ldr r3,[r4]
 569 0086 8946     	 mov r9,r1
 570 0088 8046     	 mov r8,r0
 571 008a 1646     	 mov r6,r2
 572 008c 002B     	 cmp r3,#0
 573 008e CED1     	 bne .L50
 574              	.L54:
 576:D:/School/diseratie/SEMS/xmc4800_evaluation_kit/optiga-trust-m/externals/mbedtls/library\aes.c ****         aes_init_done = 1;
 575              	 .loc 1 576 0
 576 0090 FFF7FEFF 	 bl aes_gen_tables
 577              	.LVL49:
 577:D:/School/diseratie/SEMS/xmc4800_evaluation_kit/optiga-trust-m/externals/mbedtls/library\aes.c ****     }
 578              	 .loc 1 577 0
 579 0094 0125     	 movs r5,#1
 589:D:/School/diseratie/SEMS/xmc4800_evaluation_kit/optiga-trust-m/externals/mbedtls/library\aes.c **** 
 580              	 .loc 1 589 0
 581 0096 08F10803 	 add r3,r8,#8
 582              	.LVL50:
 596:D:/School/diseratie/SEMS/xmc4800_evaluation_kit/optiga-trust-m/externals/mbedtls/library\aes.c ****     {
 583              	 .loc 1 596 0
 584 009a 4FEA561C 	 lsr ip,r6,#5
 577:D:/School/diseratie/SEMS/xmc4800_evaluation_kit/optiga-trust-m/externals/mbedtls/library\aes.c ****     }
 585              	 .loc 1 577 0
 586 009e 2560     	 str r5,[r4]
 589:D:/School/diseratie/SEMS/xmc4800_evaluation_kit/optiga-trust-m/externals/mbedtls/library\aes.c **** 
 587              	 .loc 1 589 0
 588 00a0 C8F80430 	 str r3,[r8,#4]
 589              	.LVL51:
 590 00a4 C9E7     	 b .L38
 591              	.LVL52:
 592              	.L26:
 568:D:/School/diseratie/SEMS/xmc4800_evaluation_kit/optiga-trust-m/externals/mbedtls/library\aes.c ****         case 256: ctx->nr = 14; break;
 593              	 .loc 1 568 0
 594 00a6 0C23     	 movs r3,#12
 595 00a8 0360     	 str r3,[r0]
 596 00aa BAE7     	 b .L29
 597              	.LVL53:
 598              	.L31:
 599 00ac 6749     	 ldr r1,.L56+4
 600 00ae D3F80CC0 	 ldr ip,[r3,#12]
 601 00b2 D3F81080 	 ldr r8,[r3,#16]
 602              	.LVL54:
 603 00b6 D3F808E0 	 ldr lr,[r3,#8]
 604 00ba 5F68     	 ldr r7,[r3,#4]
 605              	.LVL55:
 606 00bc 5D69     	 ldr r5,[r3,#20]
 607 00be 1A68     	 ldr r2,[r3]
 608 00c0 DFF88C91 	 ldr r9,.L56+8
 609              	.LVL56:
 601:D:/School/diseratie/SEMS/xmc4800_evaluation_kit/optiga-trust-m/externals/mbedtls/library\aes.c ****     {
 610              	 .loc 1 601 0
 611 00c4 0846     	 mov r0,r1
 612 00c6 0026     	 movs r6,#0
 613              	.LVL57:
 614 00c8 6146     	 mov r1,ip
 615 00ca 8446     	 mov ip,r0
 616              	.L35:
 617              	.LVL58:
 626:D:/School/diseratie/SEMS/xmc4800_evaluation_kit/optiga-trust-m/externals/mbedtls/library\aes.c ****                 ( (uint32_t) FSb[ ( RK[5]       ) & 0xFF ] << 24 );
 618              	 .loc 1 626 0 discriminator 3
 619 00cc 2C0E     	 lsrs r4,r5,#24
 624:D:/School/diseratie/SEMS/xmc4800_evaluation_kit/optiga-trust-m/externals/mbedtls/library\aes.c ****                 ( (uint32_t) FSb[ ( RK[5] >> 16 ) & 0xFF ] <<  8 ) ^
 620              	 .loc 1 624 0 discriminator 3
 621 00ce C5F30720 	 ubfx r0,r5,#8,#8
 626:D:/School/diseratie/SEMS/xmc4800_evaluation_kit/optiga-trust-m/externals/mbedtls/library\aes.c ****                 ( (uint32_t) FSb[ ( RK[5]       ) & 0xFF ] << 24 );
 622              	 .loc 1 626 0 discriminator 3
 623 00d2 1CF804A0 	 ldrb r10,[ip,r4]
 624:D:/School/diseratie/SEMS/xmc4800_evaluation_kit/optiga-trust-m/externals/mbedtls/library\aes.c ****                 ( (uint32_t) FSb[ ( RK[5] >> 16 ) & 0xFF ] <<  8 ) ^
 624              	 .loc 1 624 0 discriminator 3
 625 00d6 1CF80000 	 ldrb r0,[ip,r0]
 626:D:/School/diseratie/SEMS/xmc4800_evaluation_kit/optiga-trust-m/externals/mbedtls/library\aes.c ****                 ( (uint32_t) FSb[ ( RK[5]       ) & 0xFF ] << 24 );
 626              	 .loc 1 626 0 discriminator 3
 627 00da 59F82640 	 ldr r4,[r9,r6,lsl#2]
 627:D:/School/diseratie/SEMS/xmc4800_evaluation_kit/optiga-trust-m/externals/mbedtls/library\aes.c **** 
 628              	 .loc 1 627 0 discriminator 3
 629 00de 5FFA85FB 	 uxtb fp,r5
 630 00e2 40EA0A40 	 orr r0,r0,r10,lsl#16
 625:D:/School/diseratie/SEMS/xmc4800_evaluation_kit/optiga-trust-m/externals/mbedtls/library\aes.c ****                 ( (uint32_t) FSb[ ( RK[5] >> 24 ) & 0xFF ] << 16 ) ^
 631              	 .loc 1 625 0 discriminator 3
 632 00e6 C5F3074A 	 ubfx r10,r5,#16,#8
 627:D:/School/diseratie/SEMS/xmc4800_evaluation_kit/optiga-trust-m/externals/mbedtls/library\aes.c **** 
 633              	 .loc 1 627 0 discriminator 3
 634 00ea 1CF80BB0 	 ldrb fp,[ip,fp]
 625:D:/School/diseratie/SEMS/xmc4800_evaluation_kit/optiga-trust-m/externals/mbedtls/library\aes.c ****                 ( (uint32_t) FSb[ ( RK[5] >> 24 ) & 0xFF ] << 16 ) ^
 635              	 .loc 1 625 0 discriminator 3
 636 00ee 1CF80AA0 	 ldrb r10,[ip,r10]
 637 00f2 5040     	 eors r0,r0,r2
 638 00f4 80EA0B62 	 eor r2,r0,fp,lsl#24
 639 00f8 82EA0A22 	 eor r2,r2,r10,lsl#8
 626:D:/School/diseratie/SEMS/xmc4800_evaluation_kit/optiga-trust-m/externals/mbedtls/library\aes.c ****                 ( (uint32_t) FSb[ ( RK[5]       ) & 0xFF ] << 24 );
 640              	 .loc 1 626 0 discriminator 3
 641 00fc 6240     	 eors r2,r2,r4
 629:D:/School/diseratie/SEMS/xmc4800_evaluation_kit/optiga-trust-m/externals/mbedtls/library\aes.c ****                 RK[8]  = RK[2] ^ RK[7];
 642              	 .loc 1 629 0 discriminator 3
 643 00fe 5740     	 eors r7,r7,r2
 630:D:/School/diseratie/SEMS/xmc4800_evaluation_kit/optiga-trust-m/externals/mbedtls/library\aes.c ****                 RK[9]  = RK[3] ^ RK[8];
 644              	 .loc 1 630 0 discriminator 3
 645 0100 8EEA070E 	 eor lr,lr,r7
 631:D:/School/diseratie/SEMS/xmc4800_evaluation_kit/optiga-trust-m/externals/mbedtls/library\aes.c ****                 RK[10] = RK[4] ^ RK[9];
 646              	 .loc 1 631 0 discriminator 3
 647 0104 81EA0E01 	 eor r1,r1,lr
 632:D:/School/diseratie/SEMS/xmc4800_evaluation_kit/optiga-trust-m/externals/mbedtls/library\aes.c ****                 RK[11] = RK[5] ^ RK[10];
 648              	 .loc 1 632 0 discriminator 3
 649 0108 88EA0108 	 eor r8,r8,r1
 621:D:/School/diseratie/SEMS/xmc4800_evaluation_kit/optiga-trust-m/externals/mbedtls/library\aes.c ****             {
 650              	 .loc 1 621 0 discriminator 3
 651 010c 0136     	 adds r6,r6,#1
 652              	.LVL59:
 633:D:/School/diseratie/SEMS/xmc4800_evaluation_kit/optiga-trust-m/externals/mbedtls/library\aes.c ****             }
 653              	 .loc 1 633 0 discriminator 3
 654 010e 85EA0805 	 eor r5,r5,r8
 621:D:/School/diseratie/SEMS/xmc4800_evaluation_kit/optiga-trust-m/externals/mbedtls/library\aes.c ****             {
 655              	 .loc 1 621 0 discriminator 3
 656 0112 082E     	 cmp r6,#8
 633:D:/School/diseratie/SEMS/xmc4800_evaluation_kit/optiga-trust-m/externals/mbedtls/library\aes.c ****             }
 657              	 .loc 1 633 0 discriminator 3
 658 0114 DD62     	 str r5,[r3,#44]
 632:D:/School/diseratie/SEMS/xmc4800_evaluation_kit/optiga-trust-m/externals/mbedtls/library\aes.c ****                 RK[11] = RK[5] ^ RK[10];
 659              	 .loc 1 632 0 discriminator 3
 660 0116 C3F82880 	 str r8,[r3,#40]
 631:D:/School/diseratie/SEMS/xmc4800_evaluation_kit/optiga-trust-m/externals/mbedtls/library\aes.c ****                 RK[10] = RK[4] ^ RK[9];
 661              	 .loc 1 631 0 discriminator 3
 662 011a 5962     	 str r1,[r3,#36]
 630:D:/School/diseratie/SEMS/xmc4800_evaluation_kit/optiga-trust-m/externals/mbedtls/library\aes.c ****                 RK[9]  = RK[3] ^ RK[8];
 663              	 .loc 1 630 0 discriminator 3
 664 011c C3F820E0 	 str lr,[r3,#32]
 629:D:/School/diseratie/SEMS/xmc4800_evaluation_kit/optiga-trust-m/externals/mbedtls/library\aes.c ****                 RK[8]  = RK[2] ^ RK[7];
 665              	 .loc 1 629 0 discriminator 3
 666 0120 DF61     	 str r7,[r3,#28]
 623:D:/School/diseratie/SEMS/xmc4800_evaluation_kit/optiga-trust-m/externals/mbedtls/library\aes.c ****                 ( (uint32_t) FSb[ ( RK[5] >>  8 ) & 0xFF ]       ) ^
 667              	 .loc 1 623 0 discriminator 3
 668 0122 9A61     	 str r2,[r3,#24]
 621:D:/School/diseratie/SEMS/xmc4800_evaluation_kit/optiga-trust-m/externals/mbedtls/library\aes.c ****             {
 669              	 .loc 1 621 0 discriminator 3
 670 0124 03F11803 	 add r3,r3,#24
 671              	.LVL60:
 672 0128 D0D1     	 bne .L35
 673 012a A4E7     	 b .L48
 674              	.LVL61:
 675              	.L55:
 676 012c 9846     	 mov r8,r3
 677              	.LVL62:
 678 012e 9F68     	 ldr r7,[r3,#8]
 679              	.LVL63:
 680 0130 58F8A02B 	 ldr r2,[r8],#160
 681 0134 5E68     	 ldr r6,[r3,#4]
 682              	.LVL64:
 683 0136 DD68     	 ldr r5,[r3,#12]
 684 0138 DFF814E1 	 ldr lr,.L56+8
 685 013c 4349     	 ldr r1,.L56+4
 686              	.LVL65:
 687              	.L34:
 607:D:/School/diseratie/SEMS/xmc4800_evaluation_kit/optiga-trust-m/externals/mbedtls/library\aes.c ****                 ( (uint32_t) FSb[ ( RK[3] >>  8 ) & 0xFF ]       ) ^
 688              	 .loc 1 607 0 discriminator 3
 689 013e 5EF804CB 	 ldr ip,[lr],#4
 608:D:/School/diseratie/SEMS/xmc4800_evaluation_kit/optiga-trust-m/externals/mbedtls/library\aes.c ****                 ( (uint32_t) FSb[ ( RK[3] >> 16 ) & 0xFF ] <<  8 ) ^
 690              	 .loc 1 608 0 discriminator 3
 691 0142 C5F30724 	 ubfx r4,r5,#8,#8
 610:D:/School/diseratie/SEMS/xmc4800_evaluation_kit/optiga-trust-m/externals/mbedtls/library\aes.c ****                 ( (uint32_t) FSb[ ( RK[3]       ) & 0xFF ] << 24 );
 692              	 .loc 1 610 0 discriminator 3
 693 0146 280E     	 lsrs r0,r5,#24
 608:D:/School/diseratie/SEMS/xmc4800_evaluation_kit/optiga-trust-m/externals/mbedtls/library\aes.c ****                 ( (uint32_t) FSb[ ( RK[3] >> 16 ) & 0xFF ] <<  8 ) ^
 694              	 .loc 1 608 0 discriminator 3
 695 0148 0C5D     	 ldrb r4,[r1,r4]
 610:D:/School/diseratie/SEMS/xmc4800_evaluation_kit/optiga-trust-m/externals/mbedtls/library\aes.c ****                 ( (uint32_t) FSb[ ( RK[3]       ) & 0xFF ] << 24 );
 696              	 .loc 1 610 0 discriminator 3
 697 014a 085C     	 ldrb r0,[r1,r0]
 611:D:/School/diseratie/SEMS/xmc4800_evaluation_kit/optiga-trust-m/externals/mbedtls/library\aes.c **** 
 698              	 .loc 1 611 0 discriminator 3
 699 014c 5FFA85F9 	 uxtb r9,r5
 609:D:/School/diseratie/SEMS/xmc4800_evaluation_kit/optiga-trust-m/externals/mbedtls/library\aes.c ****                 ( (uint32_t) FSb[ ( RK[3] >> 24 ) & 0xFF ] << 16 ) ^
 700              	 .loc 1 609 0 discriminator 3
 701 0150 C5F3074A 	 ubfx r10,r5,#16,#8
 611:D:/School/diseratie/SEMS/xmc4800_evaluation_kit/optiga-trust-m/externals/mbedtls/library\aes.c **** 
 702              	 .loc 1 611 0 discriminator 3
 703 0154 11F80990 	 ldrb r9,[r1,r9]
 704 0158 44EA0040 	 orr r0,r4,r0,lsl#16
 705 015c 5040     	 eors r0,r0,r2
 609:D:/School/diseratie/SEMS/xmc4800_evaluation_kit/optiga-trust-m/externals/mbedtls/library\aes.c ****                 ( (uint32_t) FSb[ ( RK[3] >> 24 ) & 0xFF ] << 16 ) ^
 706              	 .loc 1 609 0 discriminator 3
 707 015e 11F80A40 	 ldrb r4,[r1,r10]
 708 0162 80EA0962 	 eor r2,r0,r9,lsl#24
 709 0166 82EA0422 	 eor r2,r2,r4,lsl#8
 610:D:/School/diseratie/SEMS/xmc4800_evaluation_kit/optiga-trust-m/externals/mbedtls/library\aes.c ****                 ( (uint32_t) FSb[ ( RK[3]       ) & 0xFF ] << 24 );
 710              	 .loc 1 610 0 discriminator 3
 711 016a 82EA0C02 	 eor r2,r2,ip
 613:D:/School/diseratie/SEMS/xmc4800_evaluation_kit/optiga-trust-m/externals/mbedtls/library\aes.c ****                 RK[6]  = RK[2] ^ RK[5];
 712              	 .loc 1 613 0 discriminator 3
 713 016e 5640     	 eors r6,r6,r2
 614:D:/School/diseratie/SEMS/xmc4800_evaluation_kit/optiga-trust-m/externals/mbedtls/library\aes.c ****                 RK[7]  = RK[3] ^ RK[6];
 714              	 .loc 1 614 0 discriminator 3
 715 0170 7740     	 eors r7,r7,r6
 615:D:/School/diseratie/SEMS/xmc4800_evaluation_kit/optiga-trust-m/externals/mbedtls/library\aes.c ****             }
 716              	 .loc 1 615 0 discriminator 3
 717 0172 7D40     	 eors r5,r5,r7
 718 0174 DD61     	 str r5,[r3,#28]
 614:D:/School/diseratie/SEMS/xmc4800_evaluation_kit/optiga-trust-m/externals/mbedtls/library\aes.c ****                 RK[7]  = RK[3] ^ RK[6];
 719              	 .loc 1 614 0 discriminator 3
 720 0176 9F61     	 str r7,[r3,#24]
 613:D:/School/diseratie/SEMS/xmc4800_evaluation_kit/optiga-trust-m/externals/mbedtls/library\aes.c ****                 RK[6]  = RK[2] ^ RK[5];
 721              	 .loc 1 613 0 discriminator 3
 722 0178 5E61     	 str r6,[r3,#20]
 607:D:/School/diseratie/SEMS/xmc4800_evaluation_kit/optiga-trust-m/externals/mbedtls/library\aes.c ****                 ( (uint32_t) FSb[ ( RK[3] >>  8 ) & 0xFF ]       ) ^
 723              	 .loc 1 607 0 discriminator 3
 724 017a 1A61     	 str r2,[r3,#16]
 605:D:/School/diseratie/SEMS/xmc4800_evaluation_kit/optiga-trust-m/externals/mbedtls/library\aes.c ****             {
 725              	 .loc 1 605 0 discriminator 3
 726 017c 1033     	 adds r3,r3,#16
 727              	.LVL66:
 728 017e 4345     	 cmp r3,r8
 729 0180 DDD1     	 bne .L34
 730 0182 78E7     	 b .L48
 731              	.LVL67:
 732              	.L32:
 733 0184 5A68     	 ldr r2,[r3,#4]
 734 0186 D3F814C0 	 ldr ip,[r3,#20]
 735 018a DFF8C490 	 ldr r9,.L56+8
 736              	.LVL68:
 737 018e D3F81880 	 ldr r8,[r3,#24]
 738              	.LVL69:
 739 0192 1869     	 ldr r0,[r3,#16]
 740 0194 DE68     	 ldr r6,[r3,#12]
 741              	.LVL70:
 742 0196 D3F808E0 	 ldr lr,[r3,#8]
 743 019a DD69     	 ldr r5,[r3,#28]
 744 019c 2B49     	 ldr r1,.L56+4
 601:D:/School/diseratie/SEMS/xmc4800_evaluation_kit/optiga-trust-m/externals/mbedtls/library\aes.c ****     {
 745              	 .loc 1 601 0
 746 019e CDF800C0 	 str ip,[sp]
 747 01a2 1446     	 mov r4,r2
 748 01a4 0027     	 movs r7,#0
 749              	.LVL71:
 750 01a6 1A68     	 ldr r2,[r3]
 751 01a8 CDF80490 	 str r9,[sp,#4]
 752 01ac BC46     	 mov ip,r7
 753 01ae A146     	 mov r9,r4
 754              	.L37:
 755              	.LVL72:
 642:D:/School/diseratie/SEMS/xmc4800_evaluation_kit/optiga-trust-m/externals/mbedtls/library\aes.c ****                 ( (uint32_t) FSb[ ( RK[7] >> 16 ) & 0xFF ] <<  8 ) ^
 756              	 .loc 1 642 0 discriminator 3
 757 01b0 C5F3072A 	 ubfx r10,r5,#8,#8
 644:D:/School/diseratie/SEMS/xmc4800_evaluation_kit/optiga-trust-m/externals/mbedtls/library\aes.c ****                 ( (uint32_t) FSb[ ( RK[7]       ) & 0xFF ] << 24 );
 758              	 .loc 1 644 0 discriminator 3
 759 01b4 2C0E     	 lsrs r4,r5,#24
 642:D:/School/diseratie/SEMS/xmc4800_evaluation_kit/optiga-trust-m/externals/mbedtls/library\aes.c ****                 ( (uint32_t) FSb[ ( RK[7] >> 16 ) & 0xFF ] <<  8 ) ^
 760              	 .loc 1 642 0 discriminator 3
 761 01b6 11F80AA0 	 ldrb r10,[r1,r10]
 644:D:/School/diseratie/SEMS/xmc4800_evaluation_kit/optiga-trust-m/externals/mbedtls/library\aes.c ****                 ( (uint32_t) FSb[ ( RK[7]       ) & 0xFF ] << 24 );
 762              	 .loc 1 644 0 discriminator 3
 763 01ba 0C5D     	 ldrb r4,[r1,r4]
 764 01bc 019F     	 ldr r7,[sp,#4]
 765 01be 4AEA0444 	 orr r4,r10,r4,lsl#16
 645:D:/School/diseratie/SEMS/xmc4800_evaluation_kit/optiga-trust-m/externals/mbedtls/library\aes.c **** 
 766              	 .loc 1 645 0 discriminator 3
 767 01c2 5FFA85FA 	 uxtb r10,r5
 768 01c6 6240     	 eors r2,r2,r4
 643:D:/School/diseratie/SEMS/xmc4800_evaluation_kit/optiga-trust-m/externals/mbedtls/library\aes.c ****                 ( (uint32_t) FSb[ ( RK[7] >> 24 ) & 0xFF ] << 16 ) ^
 769              	 .loc 1 643 0 discriminator 3
 770 01c8 C5F30744 	 ubfx r4,r5,#16,#8
 645:D:/School/diseratie/SEMS/xmc4800_evaluation_kit/optiga-trust-m/externals/mbedtls/library\aes.c **** 
 771              	 .loc 1 645 0 discriminator 3
 772 01cc 11F80AA0 	 ldrb r10,[r1,r10]
 643:D:/School/diseratie/SEMS/xmc4800_evaluation_kit/optiga-trust-m/externals/mbedtls/library\aes.c ****                 ( (uint32_t) FSb[ ( RK[7] >> 24 ) & 0xFF ] << 16 ) ^
 773              	 .loc 1 643 0 discriminator 3
 774 01d0 0C5D     	 ldrb r4,[r1,r4]
 644:D:/School/diseratie/SEMS/xmc4800_evaluation_kit/optiga-trust-m/externals/mbedtls/library\aes.c ****                 ( (uint32_t) FSb[ ( RK[7]       ) & 0xFF ] << 24 );
 775              	 .loc 1 644 0 discriminator 3
 776 01d2 57F82C70 	 ldr r7,[r7,ip,lsl#2]
 777 01d6 82EA0A62 	 eor r2,r2,r10,lsl#24
 778 01da 82EA0422 	 eor r2,r2,r4,lsl#8
 779 01de 7A40     	 eors r2,r2,r7
 647:D:/School/diseratie/SEMS/xmc4800_evaluation_kit/optiga-trust-m/externals/mbedtls/library\aes.c ****                 RK[10] = RK[2] ^ RK[9];
 780              	 .loc 1 647 0 discriminator 3
 781 01e0 89EA0209 	 eor r9,r9,r2
 648:D:/School/diseratie/SEMS/xmc4800_evaluation_kit/optiga-trust-m/externals/mbedtls/library\aes.c ****                 RK[11] = RK[3] ^ RK[10];
 782              	 .loc 1 648 0 discriminator 3
 783 01e4 8EEA090E 	 eor lr,lr,r9
 649:D:/School/diseratie/SEMS/xmc4800_evaluation_kit/optiga-trust-m/externals/mbedtls/library\aes.c **** 
 784              	 .loc 1 649 0 discriminator 3
 785 01e8 86EA0E06 	 eor r6,r6,lr
 652:D:/School/diseratie/SEMS/xmc4800_evaluation_kit/optiga-trust-m/externals/mbedtls/library\aes.c ****                 ( (uint32_t) FSb[ ( RK[11] >>  8 ) & 0xFF ] <<  8 ) ^
 786              	 .loc 1 652 0 discriminator 3
 787 01ec F4B2     	 uxtb r4,r6
 649:D:/School/diseratie/SEMS/xmc4800_evaluation_kit/optiga-trust-m/externals/mbedtls/library\aes.c **** 
 788              	 .loc 1 649 0 discriminator 3
 789 01ee DE62     	 str r6,[r3,#44]
 648:D:/School/diseratie/SEMS/xmc4800_evaluation_kit/optiga-trust-m/externals/mbedtls/library\aes.c ****                 RK[11] = RK[3] ^ RK[10];
 790              	 .loc 1 648 0 discriminator 3
 791 01f0 C3F828E0 	 str lr,[r3,#40]
 647:D:/School/diseratie/SEMS/xmc4800_evaluation_kit/optiga-trust-m/externals/mbedtls/library\aes.c ****                 RK[10] = RK[2] ^ RK[9];
 792              	 .loc 1 647 0 discriminator 3
 793 01f4 C3F82490 	 str r9,[r3,#36]
 641:D:/School/diseratie/SEMS/xmc4800_evaluation_kit/optiga-trust-m/externals/mbedtls/library\aes.c ****                 ( (uint32_t) FSb[ ( RK[7] >>  8 ) & 0xFF ]       ) ^
 794              	 .loc 1 641 0 discriminator 3
 795 01f8 1A62     	 str r2,[r3,#32]
 652:D:/School/diseratie/SEMS/xmc4800_evaluation_kit/optiga-trust-m/externals/mbedtls/library\aes.c ****                 ( (uint32_t) FSb[ ( RK[11] >>  8 ) & 0xFF ] <<  8 ) ^
 796              	 .loc 1 652 0 discriminator 3
 797 01fa 0C5D     	 ldrb r4,[r1,r4]
 655:D:/School/diseratie/SEMS/xmc4800_evaluation_kit/optiga-trust-m/externals/mbedtls/library\aes.c **** 
 798              	 .loc 1 655 0 discriminator 3
 799 01fc 4FEA166A 	 lsr r10,r6,#24
 653:D:/School/diseratie/SEMS/xmc4800_evaluation_kit/optiga-trust-m/externals/mbedtls/library\aes.c ****                 ( (uint32_t) FSb[ ( RK[11] >> 16 ) & 0xFF ] << 16 ) ^
 800              	 .loc 1 653 0 discriminator 3
 801 0200 C6F3072B 	 ubfx fp,r6,#8,#8
 655:D:/School/diseratie/SEMS/xmc4800_evaluation_kit/optiga-trust-m/externals/mbedtls/library\aes.c **** 
 802              	 .loc 1 655 0 discriminator 3
 803 0204 11F80AA0 	 ldrb r10,[r1,r10]
 653:D:/School/diseratie/SEMS/xmc4800_evaluation_kit/optiga-trust-m/externals/mbedtls/library\aes.c ****                 ( (uint32_t) FSb[ ( RK[11] >> 16 ) & 0xFF ] << 16 ) ^
 804              	 .loc 1 653 0 discriminator 3
 805 0208 11F80BB0 	 ldrb fp,[r1,fp]
 806 020c 4440     	 eors r4,r4,r0
 654:D:/School/diseratie/SEMS/xmc4800_evaluation_kit/optiga-trust-m/externals/mbedtls/library\aes.c ****                 ( (uint32_t) FSb[ ( RK[11] >> 24 ) & 0xFF ] << 24 );
 807              	 .loc 1 654 0 discriminator 3
 808 020e C6F30740 	 ubfx r0,r6,#16,#8
 809 0212 84EA0A64 	 eor r4,r4,r10,lsl#24
 810 0216 085C     	 ldrb r0,[r1,r0]
 811 0218 84EA0B2B 	 eor fp,r4,fp,lsl#8
 657:D:/School/diseratie/SEMS/xmc4800_evaluation_kit/optiga-trust-m/externals/mbedtls/library\aes.c ****                 RK[14] = RK[6] ^ RK[13];
 812              	 .loc 1 657 0 discriminator 3
 813 021c 009C     	 ldr r4,[sp]
 654:D:/School/diseratie/SEMS/xmc4800_evaluation_kit/optiga-trust-m/externals/mbedtls/library\aes.c ****                 ( (uint32_t) FSb[ ( RK[11] >> 24 ) & 0xFF ] << 24 );
 814              	 .loc 1 654 0 discriminator 3
 815 021e 8BEA0040 	 eor r0,fp,r0,lsl#16
 657:D:/School/diseratie/SEMS/xmc4800_evaluation_kit/optiga-trust-m/externals/mbedtls/library\aes.c ****                 RK[14] = RK[6] ^ RK[13];
 816              	 .loc 1 657 0 discriminator 3
 817 0222 4440     	 eors r4,r4,r0
 658:D:/School/diseratie/SEMS/xmc4800_evaluation_kit/optiga-trust-m/externals/mbedtls/library\aes.c ****                 RK[15] = RK[7] ^ RK[14];
 818              	 .loc 1 658 0 discriminator 3
 819 0224 88EA0408 	 eor r8,r8,r4
 639:D:/School/diseratie/SEMS/xmc4800_evaluation_kit/optiga-trust-m/externals/mbedtls/library\aes.c ****             {
 820              	 .loc 1 639 0 discriminator 3
 821 0228 0CF1010C 	 add ip,ip,#1
 822              	.LVL73:
 659:D:/School/diseratie/SEMS/xmc4800_evaluation_kit/optiga-trust-m/externals/mbedtls/library\aes.c ****             }
 823              	 .loc 1 659 0 discriminator 3
 824 022c 85EA0805 	 eor r5,r5,r8
 639:D:/School/diseratie/SEMS/xmc4800_evaluation_kit/optiga-trust-m/externals/mbedtls/library\aes.c ****             {
 825              	 .loc 1 639 0 discriminator 3
 826 0230 BCF1070F 	 cmp ip,#7
 659:D:/School/diseratie/SEMS/xmc4800_evaluation_kit/optiga-trust-m/externals/mbedtls/library\aes.c ****             }
 827              	 .loc 1 659 0 discriminator 3
 828 0234 DD63     	 str r5,[r3,#60]
 658:D:/School/diseratie/SEMS/xmc4800_evaluation_kit/optiga-trust-m/externals/mbedtls/library\aes.c ****                 RK[15] = RK[7] ^ RK[14];
 829              	 .loc 1 658 0 discriminator 3
 830 0236 C3F83880 	 str r8,[r3,#56]
 657:D:/School/diseratie/SEMS/xmc4800_evaluation_kit/optiga-trust-m/externals/mbedtls/library\aes.c ****                 RK[14] = RK[6] ^ RK[13];
 831              	 .loc 1 657 0 discriminator 3
 832 023a 5C63     	 str r4,[r3,#52]
 651:D:/School/diseratie/SEMS/xmc4800_evaluation_kit/optiga-trust-m/externals/mbedtls/library\aes.c ****                 ( (uint32_t) FSb[ ( RK[11]       ) & 0xFF ]       ) ^
 833              	 .loc 1 651 0 discriminator 3
 834 023c 1863     	 str r0,[r3,#48]
 657:D:/School/diseratie/SEMS/xmc4800_evaluation_kit/optiga-trust-m/externals/mbedtls/library\aes.c ****                 RK[14] = RK[6] ^ RK[13];
 835              	 .loc 1 657 0 discriminator 3
 836 023e 0094     	 str r4,[sp]
 639:D:/School/diseratie/SEMS/xmc4800_evaluation_kit/optiga-trust-m/externals/mbedtls/library\aes.c ****             {
 837              	 .loc 1 639 0 discriminator 3
 838 0240 03F12003 	 add r3,r3,#32
 839              	.LVL74:
 840 0244 B4D1     	 bne .L37
 841 0246 16E7     	 b .L48
 842              	.L57:
 843              	 .align 2
 844              	.L56:
 845 0248 00000000 	 .word .LANCHOR11
 846 024c 00000000 	 .word .LANCHOR1
 847 0250 00000000 	 .word .LANCHOR0
 848              	 .cfi_endproc
 849              	.LFE3:
 851              	 .section .text.mbedtls_aes_setkey_dec,"ax",%progbits
 852              	 .align 2
 853              	 .global mbedtls_aes_setkey_dec
 854              	 .thumb
 855              	 .thumb_func
 857              	mbedtls_aes_setkey_dec:
 858              	.LFB4:
 666:D:/School/diseratie/SEMS/xmc4800_evaluation_kit/optiga-trust-m/externals/mbedtls/library\aes.c **** #endif /* !MBEDTLS_AES_SETKEY_ENC_ALT */
 667:D:/School/diseratie/SEMS/xmc4800_evaluation_kit/optiga-trust-m/externals/mbedtls/library\aes.c **** 
 668:D:/School/diseratie/SEMS/xmc4800_evaluation_kit/optiga-trust-m/externals/mbedtls/library\aes.c **** /*
 669:D:/School/diseratie/SEMS/xmc4800_evaluation_kit/optiga-trust-m/externals/mbedtls/library\aes.c ****  * AES key schedule (decryption)
 670:D:/School/diseratie/SEMS/xmc4800_evaluation_kit/optiga-trust-m/externals/mbedtls/library\aes.c ****  */
 671:D:/School/diseratie/SEMS/xmc4800_evaluation_kit/optiga-trust-m/externals/mbedtls/library\aes.c **** #if !defined(MBEDTLS_AES_SETKEY_DEC_ALT)
 672:D:/School/diseratie/SEMS/xmc4800_evaluation_kit/optiga-trust-m/externals/mbedtls/library\aes.c **** int mbedtls_aes_setkey_dec( mbedtls_aes_context *ctx, const unsigned char *key,
 673:D:/School/diseratie/SEMS/xmc4800_evaluation_kit/optiga-trust-m/externals/mbedtls/library\aes.c ****                     unsigned int keybits )
 674:D:/School/diseratie/SEMS/xmc4800_evaluation_kit/optiga-trust-m/externals/mbedtls/library\aes.c **** {
 859              	 .loc 1 674 0
 860              	 .cfi_startproc
 861              	 
 862              	 
 863              	.LVL75:
 864 0000 2DE9F04F 	 push {r4,r5,r6,r7,r8,r9,r10,fp,lr}
 865              	.LCFI9:
 866              	 .cfi_def_cfa_offset 36
 867              	 .cfi_offset 4,-36
 868              	 .cfi_offset 5,-32
 869              	 .cfi_offset 6,-28
 870              	 .cfi_offset 7,-24
 871              	 .cfi_offset 8,-20
 872              	 .cfi_offset 9,-16
 873              	 .cfi_offset 10,-12
 874              	 .cfi_offset 11,-8
 875              	 .cfi_offset 14,-4
 876 0004 CBB0     	 sub sp,sp,#300
 877              	.LCFI10:
 878              	 .cfi_def_cfa_offset 336
 879              	.LVL76:
 880              	 .loc 1 674 0
 881 0006 0546     	 mov r5,r0
 882 0008 0E46     	 mov r6,r1
 883 000a 1446     	 mov r4,r2
 884              	.LBB6:
 885              	.LBB7:
 522:D:/School/diseratie/SEMS/xmc4800_evaluation_kit/optiga-trust-m/externals/mbedtls/library\aes.c **** }
 886              	 .loc 1 522 0
 887 000c 0021     	 movs r1,#0
 888              	.LVL77:
 889 000e 4FF48C72 	 mov r2,#280
 890              	.LVL78:
 891 0012 04A8     	 add r0,sp,#16
 892              	.LVL79:
 893 0014 FFF7FEFF 	 bl memset
 894              	.LVL80:
 895              	.LBE7:
 896              	.LBE6:
 675:D:/School/diseratie/SEMS/xmc4800_evaluation_kit/optiga-trust-m/externals/mbedtls/library\aes.c ****     int i, j, ret;
 676:D:/School/diseratie/SEMS/xmc4800_evaluation_kit/optiga-trust-m/externals/mbedtls/library\aes.c ****     mbedtls_aes_context cty;
 677:D:/School/diseratie/SEMS/xmc4800_evaluation_kit/optiga-trust-m/externals/mbedtls/library\aes.c ****     uint32_t *RK;
 678:D:/School/diseratie/SEMS/xmc4800_evaluation_kit/optiga-trust-m/externals/mbedtls/library\aes.c ****     uint32_t *SK;
 679:D:/School/diseratie/SEMS/xmc4800_evaluation_kit/optiga-trust-m/externals/mbedtls/library\aes.c **** 
 680:D:/School/diseratie/SEMS/xmc4800_evaluation_kit/optiga-trust-m/externals/mbedtls/library\aes.c ****     AES_VALIDATE_RET( ctx != NULL );
 681:D:/School/diseratie/SEMS/xmc4800_evaluation_kit/optiga-trust-m/externals/mbedtls/library\aes.c ****     AES_VALIDATE_RET( key != NULL );
 682:D:/School/diseratie/SEMS/xmc4800_evaluation_kit/optiga-trust-m/externals/mbedtls/library\aes.c **** 
 683:D:/School/diseratie/SEMS/xmc4800_evaluation_kit/optiga-trust-m/externals/mbedtls/library\aes.c ****     mbedtls_aes_init( &cty );
 684:D:/School/diseratie/SEMS/xmc4800_evaluation_kit/optiga-trust-m/externals/mbedtls/library\aes.c **** 
 685:D:/School/diseratie/SEMS/xmc4800_evaluation_kit/optiga-trust-m/externals/mbedtls/library\aes.c **** #if defined(MBEDTLS_PADLOCK_C) && defined(MBEDTLS_PADLOCK_ALIGN16)
 686:D:/School/diseratie/SEMS/xmc4800_evaluation_kit/optiga-trust-m/externals/mbedtls/library\aes.c ****     if( aes_padlock_ace == -1 )
 687:D:/School/diseratie/SEMS/xmc4800_evaluation_kit/optiga-trust-m/externals/mbedtls/library\aes.c ****         aes_padlock_ace = mbedtls_padlock_has_support( MBEDTLS_PADLOCK_ACE );
 688:D:/School/diseratie/SEMS/xmc4800_evaluation_kit/optiga-trust-m/externals/mbedtls/library\aes.c **** 
 689:D:/School/diseratie/SEMS/xmc4800_evaluation_kit/optiga-trust-m/externals/mbedtls/library\aes.c ****     if( aes_padlock_ace )
 690:D:/School/diseratie/SEMS/xmc4800_evaluation_kit/optiga-trust-m/externals/mbedtls/library\aes.c ****         ctx->rk = RK = MBEDTLS_PADLOCK_ALIGN16( ctx->buf );
 691:D:/School/diseratie/SEMS/xmc4800_evaluation_kit/optiga-trust-m/externals/mbedtls/library\aes.c ****     else
 692:D:/School/diseratie/SEMS/xmc4800_evaluation_kit/optiga-trust-m/externals/mbedtls/library\aes.c **** #endif
 693:D:/School/diseratie/SEMS/xmc4800_evaluation_kit/optiga-trust-m/externals/mbedtls/library\aes.c ****     ctx->rk = RK = ctx->buf;
 897              	 .loc 1 693 0
 898 0018 05F10803 	 add r3,r5,#8
 899              	.LVL81:
 694:D:/School/diseratie/SEMS/xmc4800_evaluation_kit/optiga-trust-m/externals/mbedtls/library\aes.c **** 
 695:D:/School/diseratie/SEMS/xmc4800_evaluation_kit/optiga-trust-m/externals/mbedtls/library\aes.c ****     /* Also checks keybits */
 696:D:/School/diseratie/SEMS/xmc4800_evaluation_kit/optiga-trust-m/externals/mbedtls/library\aes.c ****     if( ( ret = mbedtls_aes_setkey_enc( &cty, key, keybits ) ) != 0 )
 900              	 .loc 1 696 0
 901 001c 3146     	 mov r1,r6
 902 001e 2246     	 mov r2,r4
 693:D:/School/diseratie/SEMS/xmc4800_evaluation_kit/optiga-trust-m/externals/mbedtls/library\aes.c **** 
 903              	 .loc 1 693 0
 904 0020 6B60     	 str r3,[r5,#4]
 905              	 .loc 1 696 0
 906 0022 04A8     	 add r0,sp,#16
 907              	.LVL82:
 908 0024 FFF7FEFF 	 bl mbedtls_aes_setkey_enc
 909              	.LVL83:
 910 0028 0190     	 str r0,[sp,#4]
 911 002a 0028     	 cmp r0,#0
 912 002c 40F0A280 	 bne .L59
 697:D:/School/diseratie/SEMS/xmc4800_evaluation_kit/optiga-trust-m/externals/mbedtls/library\aes.c ****         goto exit;
 698:D:/School/diseratie/SEMS/xmc4800_evaluation_kit/optiga-trust-m/externals/mbedtls/library\aes.c **** 
 699:D:/School/diseratie/SEMS/xmc4800_evaluation_kit/optiga-trust-m/externals/mbedtls/library\aes.c ****     ctx->nr = cty.nr;
 913              	 .loc 1 699 0
 914 0030 049B     	 ldr r3,[sp,#16]
 915 0032 0293     	 str r3,[sp,#8]
 916 0034 1A46     	 mov r2,r3
 700:D:/School/diseratie/SEMS/xmc4800_evaluation_kit/optiga-trust-m/externals/mbedtls/library\aes.c **** 
 701:D:/School/diseratie/SEMS/xmc4800_evaluation_kit/optiga-trust-m/externals/mbedtls/library\aes.c **** #if defined(MBEDTLS_AESNI_C) && defined(MBEDTLS_HAVE_X86_64)
 702:D:/School/diseratie/SEMS/xmc4800_evaluation_kit/optiga-trust-m/externals/mbedtls/library\aes.c ****     if( mbedtls_aesni_has_support( MBEDTLS_AESNI_AES ) )
 703:D:/School/diseratie/SEMS/xmc4800_evaluation_kit/optiga-trust-m/externals/mbedtls/library\aes.c ****     {
 704:D:/School/diseratie/SEMS/xmc4800_evaluation_kit/optiga-trust-m/externals/mbedtls/library\aes.c ****         mbedtls_aesni_inverse_key( (unsigned char *) ctx->rk,
 705:D:/School/diseratie/SEMS/xmc4800_evaluation_kit/optiga-trust-m/externals/mbedtls/library\aes.c ****                            (const unsigned char *) cty.rk, ctx->nr );
 706:D:/School/diseratie/SEMS/xmc4800_evaluation_kit/optiga-trust-m/externals/mbedtls/library\aes.c ****         goto exit;
 707:D:/School/diseratie/SEMS/xmc4800_evaluation_kit/optiga-trust-m/externals/mbedtls/library\aes.c ****     }
 708:D:/School/diseratie/SEMS/xmc4800_evaluation_kit/optiga-trust-m/externals/mbedtls/library\aes.c **** #endif
 709:D:/School/diseratie/SEMS/xmc4800_evaluation_kit/optiga-trust-m/externals/mbedtls/library\aes.c **** 
 710:D:/School/diseratie/SEMS/xmc4800_evaluation_kit/optiga-trust-m/externals/mbedtls/library\aes.c ****     SK = cty.rk + cty.nr * 4;
 917              	 .loc 1 710 0
 918 0036 1101     	 lsls r1,r2,#4
 919 0038 059B     	 ldr r3,[sp,#20]
 699:D:/School/diseratie/SEMS/xmc4800_evaluation_kit/optiga-trust-m/externals/mbedtls/library\aes.c **** 
 920              	 .loc 1 699 0
 921 003a 2A60     	 str r2,[r5]
 922              	 .loc 1 710 0
 923 003c 5E18     	 adds r6,r3,r1
 924              	.LVL84:
 711:D:/School/diseratie/SEMS/xmc4800_evaluation_kit/optiga-trust-m/externals/mbedtls/library\aes.c **** 
 712:D:/School/diseratie/SEMS/xmc4800_evaluation_kit/optiga-trust-m/externals/mbedtls/library\aes.c ****     *RK++ = *SK++;
 925              	 .loc 1 712 0
 926 003e 5B58     	 ldr r3,[r3,r1]
 927 0040 AB60     	 str r3,[r5,#8]
 928              	.LVL85:
 713:D:/School/diseratie/SEMS/xmc4800_evaluation_kit/optiga-trust-m/externals/mbedtls/library\aes.c ****     *RK++ = *SK++;
 929              	 .loc 1 713 0
 930 0042 7368     	 ldr r3,[r6,#4]
 931 0044 EB60     	 str r3,[r5,#12]
 932              	.LVL86:
 714:D:/School/diseratie/SEMS/xmc4800_evaluation_kit/optiga-trust-m/externals/mbedtls/library\aes.c ****     *RK++ = *SK++;
 933              	 .loc 1 714 0
 934 0046 B368     	 ldr r3,[r6,#8]
 935 0048 2B61     	 str r3,[r5,#16]
 715:D:/School/diseratie/SEMS/xmc4800_evaluation_kit/optiga-trust-m/externals/mbedtls/library\aes.c ****     *RK++ = *SK++;
 716:D:/School/diseratie/SEMS/xmc4800_evaluation_kit/optiga-trust-m/externals/mbedtls/library\aes.c **** 
 717:D:/School/diseratie/SEMS/xmc4800_evaluation_kit/optiga-trust-m/externals/mbedtls/library\aes.c ****     for( i = ctx->nr - 1, SK -= 8; i > 0; i--, SK -= 8 )
 936              	 .loc 1 717 0
 937 004a 02F1FF39 	 add r9,r2,#-1
 715:D:/School/diseratie/SEMS/xmc4800_evaluation_kit/optiga-trust-m/externals/mbedtls/library\aes.c ****     *RK++ = *SK++;
 938              	 .loc 1 715 0
 939 004e F368     	 ldr r3,[r6,#12]
 710:D:/School/diseratie/SEMS/xmc4800_evaluation_kit/optiga-trust-m/externals/mbedtls/library\aes.c **** 
 940              	 .loc 1 710 0
 941 0050 0391     	 str r1,[sp,#12]
 942              	 .loc 1 717 0
 943 0052 B9F1000F 	 cmp r9,#0
 715:D:/School/diseratie/SEMS/xmc4800_evaluation_kit/optiga-trust-m/externals/mbedtls/library\aes.c ****     *RK++ = *SK++;
 944              	 .loc 1 715 0
 945 0056 6B61     	 str r3,[r5,#20]
 946              	 .loc 1 717 0
 947 0058 A6F1100B 	 sub fp,r6,#16
 715:D:/School/diseratie/SEMS/xmc4800_evaluation_kit/optiga-trust-m/externals/mbedtls/library\aes.c ****     *RK++ = *SK++;
 948              	 .loc 1 715 0
 949 005c 05F1180A 	 add r10,r5,#24
 950              	.LVL87:
 951              	 .loc 1 717 0
 952 0060 78DD     	 ble .L60
 953 0062 DFF82C81 	 ldr r8,.L64+8
 954 0066 484B     	 ldr r3,.L64
 955 0068 DFF828C1 	 ldr ip,.L64+12
 956 006c DFF828E1 	 ldr lr,.L64+16
 957 0070 464F     	 ldr r7,.L64+4
 958 0072 203E     	 subs r6,r6,#32
 959 0074 2835     	 adds r5,r5,#40
 960              	.LVL88:
 961              	.L61:
 718:D:/School/diseratie/SEMS/xmc4800_evaluation_kit/optiga-trust-m/externals/mbedtls/library\aes.c ****     {
 719:D:/School/diseratie/SEMS/xmc4800_evaluation_kit/optiga-trust-m/externals/mbedtls/library\aes.c ****         for( j = 0; j < 4; j++, SK++ )
 720:D:/School/diseratie/SEMS/xmc4800_evaluation_kit/optiga-trust-m/externals/mbedtls/library\aes.c ****         {
 721:D:/School/diseratie/SEMS/xmc4800_evaluation_kit/optiga-trust-m/externals/mbedtls/library\aes.c ****             *RK++ = AES_RT0( FSb[ ( *SK       ) & 0xFF ] ) ^
 962              	 .loc 1 721 0 discriminator 1
 963 0076 3269     	 ldr r2,[r6,#16]
 722:D:/School/diseratie/SEMS/xmc4800_evaluation_kit/optiga-trust-m/externals/mbedtls/library\aes.c ****                     AES_RT1( FSb[ ( *SK >>  8 ) & 0xFF ] ) ^
 723:D:/School/diseratie/SEMS/xmc4800_evaluation_kit/optiga-trust-m/externals/mbedtls/library\aes.c ****                     AES_RT2( FSb[ ( *SK >> 16 ) & 0xFF ] ) ^
 724:D:/School/diseratie/SEMS/xmc4800_evaluation_kit/optiga-trust-m/externals/mbedtls/library\aes.c ****                     AES_RT3( FSb[ ( *SK >> 24 ) & 0xFF ] );
 964              	 .loc 1 724 0 discriminator 1
 965 0078 140E     	 lsrs r4,r2,#24
 721:D:/School/diseratie/SEMS/xmc4800_evaluation_kit/optiga-trust-m/externals/mbedtls/library\aes.c ****                     AES_RT1( FSb[ ( *SK >>  8 ) & 0xFF ] ) ^
 966              	 .loc 1 721 0 discriminator 1
 967 007a D0B2     	 uxtb r0,r2
 722:D:/School/diseratie/SEMS/xmc4800_evaluation_kit/optiga-trust-m/externals/mbedtls/library\aes.c ****                     AES_RT1( FSb[ ( *SK >>  8 ) & 0xFF ] ) ^
 968              	 .loc 1 722 0 discriminator 1
 969 007c C2F30721 	 ubfx r1,r2,#8,#8
 970              	 .loc 1 724 0 discriminator 1
 971 0080 1C5D     	 ldrb r4,[r3,r4]
 721:D:/School/diseratie/SEMS/xmc4800_evaluation_kit/optiga-trust-m/externals/mbedtls/library\aes.c ****                     AES_RT1( FSb[ ( *SK >>  8 ) & 0xFF ] ) ^
 972              	 .loc 1 721 0 discriminator 1
 973 0082 185C     	 ldrb r0,[r3,r0]
 722:D:/School/diseratie/SEMS/xmc4800_evaluation_kit/optiga-trust-m/externals/mbedtls/library\aes.c ****                     AES_RT1( FSb[ ( *SK >>  8 ) & 0xFF ] ) ^
 974              	 .loc 1 722 0 discriminator 1
 975 0084 595C     	 ldrb r1,[r3,r1]
 976 0086 58F82440 	 ldr r4,[r8,r4,lsl#2]
 977 008a 5CF82000 	 ldr r0,[ip,r0,lsl#2]
 978 008e 5EF82110 	 ldr r1,[lr,r1,lsl#2]
 723:D:/School/diseratie/SEMS/xmc4800_evaluation_kit/optiga-trust-m/externals/mbedtls/library\aes.c ****                     AES_RT3( FSb[ ( *SK >> 24 ) & 0xFF ] );
 979              	 .loc 1 723 0 discriminator 1
 980 0092 C2F30742 	 ubfx r2,r2,#16,#8
 981 0096 6040     	 eors r0,r0,r4
 982 0098 9A5C     	 ldrb r2,[r3,r2]
 983 009a 57F82220 	 ldr r2,[r7,r2,lsl#2]
 984 009e 4140     	 eors r1,r1,r0
 985 00a0 5140     	 eors r1,r1,r2
 721:D:/School/diseratie/SEMS/xmc4800_evaluation_kit/optiga-trust-m/externals/mbedtls/library\aes.c ****                     AES_RT1( FSb[ ( *SK >>  8 ) & 0xFF ] ) ^
 986              	 .loc 1 721 0 discriminator 1
 987 00a2 45F8101C 	 str r1,[r5,#-16]
 988              	.LVL89:
 989 00a6 7269     	 ldr r2,[r6,#20]
 990              	 .loc 1 724 0 discriminator 1
 991 00a8 140E     	 lsrs r4,r2,#24
 721:D:/School/diseratie/SEMS/xmc4800_evaluation_kit/optiga-trust-m/externals/mbedtls/library\aes.c ****                     AES_RT1( FSb[ ( *SK >>  8 ) & 0xFF ] ) ^
 992              	 .loc 1 721 0 discriminator 1
 993 00aa D0B2     	 uxtb r0,r2
 722:D:/School/diseratie/SEMS/xmc4800_evaluation_kit/optiga-trust-m/externals/mbedtls/library\aes.c ****                     AES_RT1( FSb[ ( *SK >>  8 ) & 0xFF ] ) ^
 994              	 .loc 1 722 0 discriminator 1
 995 00ac C2F30721 	 ubfx r1,r2,#8,#8
 996              	 .loc 1 724 0 discriminator 1
 997 00b0 1C5D     	 ldrb r4,[r3,r4]
 721:D:/School/diseratie/SEMS/xmc4800_evaluation_kit/optiga-trust-m/externals/mbedtls/library\aes.c ****                     AES_RT1( FSb[ ( *SK >>  8 ) & 0xFF ] ) ^
 998              	 .loc 1 721 0 discriminator 1
 999 00b2 185C     	 ldrb r0,[r3,r0]
 722:D:/School/diseratie/SEMS/xmc4800_evaluation_kit/optiga-trust-m/externals/mbedtls/library\aes.c ****                     AES_RT1( FSb[ ( *SK >>  8 ) & 0xFF ] ) ^
 1000              	 .loc 1 722 0 discriminator 1
 1001 00b4 595C     	 ldrb r1,[r3,r1]
 1002 00b6 58F82440 	 ldr r4,[r8,r4,lsl#2]
 1003 00ba 5CF82000 	 ldr r0,[ip,r0,lsl#2]
 1004 00be 5EF82110 	 ldr r1,[lr,r1,lsl#2]
 723:D:/School/diseratie/SEMS/xmc4800_evaluation_kit/optiga-trust-m/externals/mbedtls/library\aes.c ****                     AES_RT3( FSb[ ( *SK >> 24 ) & 0xFF ] );
 1005              	 .loc 1 723 0 discriminator 1
 1006 00c2 C2F30742 	 ubfx r2,r2,#16,#8
 1007 00c6 6040     	 eors r0,r0,r4
 1008 00c8 9A5C     	 ldrb r2,[r3,r2]
 1009 00ca 57F82220 	 ldr r2,[r7,r2,lsl#2]
 1010 00ce 4140     	 eors r1,r1,r0
 1011 00d0 5140     	 eors r1,r1,r2
 721:D:/School/diseratie/SEMS/xmc4800_evaluation_kit/optiga-trust-m/externals/mbedtls/library\aes.c ****                     AES_RT1( FSb[ ( *SK >>  8 ) & 0xFF ] ) ^
 1012              	 .loc 1 721 0 discriminator 1
 1013 00d2 45F80C1C 	 str r1,[r5,#-12]
 1014              	.LVL90:
 1015 00d6 B269     	 ldr r2,[r6,#24]
 1016              	 .loc 1 724 0 discriminator 1
 1017 00d8 140E     	 lsrs r4,r2,#24
 721:D:/School/diseratie/SEMS/xmc4800_evaluation_kit/optiga-trust-m/externals/mbedtls/library\aes.c ****                     AES_RT1( FSb[ ( *SK >>  8 ) & 0xFF ] ) ^
 1018              	 .loc 1 721 0 discriminator 1
 1019 00da D0B2     	 uxtb r0,r2
 722:D:/School/diseratie/SEMS/xmc4800_evaluation_kit/optiga-trust-m/externals/mbedtls/library\aes.c ****                     AES_RT1( FSb[ ( *SK >>  8 ) & 0xFF ] ) ^
 1020              	 .loc 1 722 0 discriminator 1
 1021 00dc C2F30721 	 ubfx r1,r2,#8,#8
 1022              	 .loc 1 724 0 discriminator 1
 1023 00e0 1C5D     	 ldrb r4,[r3,r4]
 721:D:/School/diseratie/SEMS/xmc4800_evaluation_kit/optiga-trust-m/externals/mbedtls/library\aes.c ****                     AES_RT1( FSb[ ( *SK >>  8 ) & 0xFF ] ) ^
 1024              	 .loc 1 721 0 discriminator 1
 1025 00e2 185C     	 ldrb r0,[r3,r0]
 722:D:/School/diseratie/SEMS/xmc4800_evaluation_kit/optiga-trust-m/externals/mbedtls/library\aes.c ****                     AES_RT1( FSb[ ( *SK >>  8 ) & 0xFF ] ) ^
 1026              	 .loc 1 722 0 discriminator 1
 1027 00e4 595C     	 ldrb r1,[r3,r1]
 1028 00e6 58F82440 	 ldr r4,[r8,r4,lsl#2]
 1029 00ea 5CF82000 	 ldr r0,[ip,r0,lsl#2]
 1030 00ee 5EF82110 	 ldr r1,[lr,r1,lsl#2]
 723:D:/School/diseratie/SEMS/xmc4800_evaluation_kit/optiga-trust-m/externals/mbedtls/library\aes.c ****                     AES_RT3( FSb[ ( *SK >> 24 ) & 0xFF ] );
 1031              	 .loc 1 723 0 discriminator 1
 1032 00f2 C2F30742 	 ubfx r2,r2,#16,#8
 1033 00f6 6040     	 eors r0,r0,r4
 1034 00f8 9A5C     	 ldrb r2,[r3,r2]
 1035 00fa 57F82220 	 ldr r2,[r7,r2,lsl#2]
 1036 00fe 4140     	 eors r1,r1,r0
 1037 0100 5140     	 eors r1,r1,r2
 721:D:/School/diseratie/SEMS/xmc4800_evaluation_kit/optiga-trust-m/externals/mbedtls/library\aes.c ****                     AES_RT1( FSb[ ( *SK >>  8 ) & 0xFF ] ) ^
 1038              	 .loc 1 721 0 discriminator 1
 1039 0102 45F8081C 	 str r1,[r5,#-8]
 1040              	.LVL91:
 1041 0106 F269     	 ldr r2,[r6,#28]
 1042              	 .loc 1 724 0 discriminator 1
 1043 0108 100E     	 lsrs r0,r2,#24
 721:D:/School/diseratie/SEMS/xmc4800_evaluation_kit/optiga-trust-m/externals/mbedtls/library\aes.c ****                     AES_RT1( FSb[ ( *SK >>  8 ) & 0xFF ] ) ^
 1044              	 .loc 1 721 0 discriminator 1
 1045 010a D1B2     	 uxtb r1,r2
 722:D:/School/diseratie/SEMS/xmc4800_evaluation_kit/optiga-trust-m/externals/mbedtls/library\aes.c ****                     AES_RT1( FSb[ ( *SK >>  8 ) & 0xFF ] ) ^
 1046              	 .loc 1 722 0 discriminator 1
 1047 010c C2F30724 	 ubfx r4,r2,#8,#8
 1048              	 .loc 1 724 0 discriminator 1
 1049 0110 185C     	 ldrb r0,[r3,r0]
 721:D:/School/diseratie/SEMS/xmc4800_evaluation_kit/optiga-trust-m/externals/mbedtls/library\aes.c ****                     AES_RT1( FSb[ ( *SK >>  8 ) & 0xFF ] ) ^
 1050              	 .loc 1 721 0 discriminator 1
 1051 0112 595C     	 ldrb r1,[r3,r1]
 1052 0114 58F82000 	 ldr r0,[r8,r0,lsl#2]
 722:D:/School/diseratie/SEMS/xmc4800_evaluation_kit/optiga-trust-m/externals/mbedtls/library\aes.c ****                     AES_RT1( FSb[ ( *SK >>  8 ) & 0xFF ] ) ^
 1053              	 .loc 1 722 0 discriminator 1
 1054 0118 1C5D     	 ldrb r4,[r3,r4]
 1055 011a 5CF82110 	 ldr r1,[ip,r1,lsl#2]
 1056 011e 5EF82440 	 ldr r4,[lr,r4,lsl#2]
 723:D:/School/diseratie/SEMS/xmc4800_evaluation_kit/optiga-trust-m/externals/mbedtls/library\aes.c ****                     AES_RT3( FSb[ ( *SK >> 24 ) & 0xFF ] );
 1057              	 .loc 1 723 0 discriminator 1
 1058 0122 C2F30742 	 ubfx r2,r2,#16,#8
 1059 0126 4140     	 eors r1,r1,r0
 1060 0128 9A5C     	 ldrb r2,[r3,r2]
 1061 012a 57F82220 	 ldr r2,[r7,r2,lsl#2]
 1062 012e 6140     	 eors r1,r1,r4
 1063 0130 5140     	 eors r1,r1,r2
 717:D:/School/diseratie/SEMS/xmc4800_evaluation_kit/optiga-trust-m/externals/mbedtls/library\aes.c ****     {
 1064              	 .loc 1 717 0 discriminator 1
 1065 0132 B9F10109 	 subs r9,r9,#1
 1066              	.LVL92:
 721:D:/School/diseratie/SEMS/xmc4800_evaluation_kit/optiga-trust-m/externals/mbedtls/library\aes.c ****                     AES_RT1( FSb[ ( *SK >>  8 ) & 0xFF ] ) ^
 1067              	 .loc 1 721 0 discriminator 1
 1068 0136 45F8041C 	 str r1,[r5,#-4]
 1069              	.LVL93:
 1070 013a A6F11006 	 sub r6,r6,#16
 1071 013e 05F11005 	 add r5,r5,#16
 1072              	.LVL94:
 717:D:/School/diseratie/SEMS/xmc4800_evaluation_kit/optiga-trust-m/externals/mbedtls/library\aes.c ****     {
 1073              	 .loc 1 717 0 discriminator 1
 1074 0142 98D1     	 bne .L61
 1075 0144 029B     	 ldr r3,[sp,#8]
 1076 0146 039A     	 ldr r2,[sp,#12]
 1077 0148 1B01     	 lsls r3,r3,#4
 1078 014a C3F11003 	 rsb r3,r3,#16
 1079 014e 103A     	 subs r2,r2,#16
 1080 0150 9B44     	 add fp,fp,r3
 1081 0152 9244     	 add r10,r10,r2
 1082              	.LVL95:
 1083              	.L60:
 725:D:/School/diseratie/SEMS/xmc4800_evaluation_kit/optiga-trust-m/externals/mbedtls/library\aes.c ****         }
 726:D:/School/diseratie/SEMS/xmc4800_evaluation_kit/optiga-trust-m/externals/mbedtls/library\aes.c ****     }
 727:D:/School/diseratie/SEMS/xmc4800_evaluation_kit/optiga-trust-m/externals/mbedtls/library\aes.c **** 
 728:D:/School/diseratie/SEMS/xmc4800_evaluation_kit/optiga-trust-m/externals/mbedtls/library\aes.c ****     *RK++ = *SK++;
 1084              	 .loc 1 728 0
 1085 0154 DBF80030 	 ldr r3,[fp]
 1086 0158 CAF80030 	 str r3,[r10]
 1087              	.LVL96:
 729:D:/School/diseratie/SEMS/xmc4800_evaluation_kit/optiga-trust-m/externals/mbedtls/library\aes.c ****     *RK++ = *SK++;
 1088              	 .loc 1 729 0
 1089 015c DBF80430 	 ldr r3,[fp,#4]
 1090 0160 CAF80430 	 str r3,[r10,#4]
 1091              	.LVL97:
 730:D:/School/diseratie/SEMS/xmc4800_evaluation_kit/optiga-trust-m/externals/mbedtls/library\aes.c ****     *RK++ = *SK++;
 1092              	 .loc 1 730 0
 1093 0164 DBF80830 	 ldr r3,[fp,#8]
 1094 0168 CAF80830 	 str r3,[r10,#8]
 1095              	.LVL98:
 731:D:/School/diseratie/SEMS/xmc4800_evaluation_kit/optiga-trust-m/externals/mbedtls/library\aes.c ****     *RK++ = *SK++;
 1096              	 .loc 1 731 0
 1097 016c DBF80C30 	 ldr r3,[fp,#12]
 1098 0170 CAF80C30 	 str r3,[r10,#12]
 1099              	.LVL99:
 1100              	.L59:
 1101              	.LBB8:
 1102              	.LBB9:
 530:D:/School/diseratie/SEMS/xmc4800_evaluation_kit/optiga-trust-m/externals/mbedtls/library\aes.c **** }
 1103              	 .loc 1 530 0
 1104 0174 04A8     	 add r0,sp,#16
 1105              	.LVL100:
 1106 0176 4FF48C71 	 mov r1,#280
 1107 017a FFF7FEFF 	 bl mbedtls_platform_zeroize
 1108              	.LVL101:
 1109              	.LBE9:
 1110              	.LBE8:
 732:D:/School/diseratie/SEMS/xmc4800_evaluation_kit/optiga-trust-m/externals/mbedtls/library\aes.c **** 
 733:D:/School/diseratie/SEMS/xmc4800_evaluation_kit/optiga-trust-m/externals/mbedtls/library\aes.c **** exit:
 734:D:/School/diseratie/SEMS/xmc4800_evaluation_kit/optiga-trust-m/externals/mbedtls/library\aes.c ****     mbedtls_aes_free( &cty );
 735:D:/School/diseratie/SEMS/xmc4800_evaluation_kit/optiga-trust-m/externals/mbedtls/library\aes.c **** 
 736:D:/School/diseratie/SEMS/xmc4800_evaluation_kit/optiga-trust-m/externals/mbedtls/library\aes.c ****     return( ret );
 737:D:/School/diseratie/SEMS/xmc4800_evaluation_kit/optiga-trust-m/externals/mbedtls/library\aes.c **** }
 1111              	 .loc 1 737 0
 1112 017e 0198     	 ldr r0,[sp,#4]
 1113 0180 4BB0     	 add sp,sp,#300
 1114              	.LCFI11:
 1115              	 .cfi_def_cfa_offset 36
 1116              	 
 1117 0182 BDE8F08F 	 pop {r4,r5,r6,r7,r8,r9,r10,fp,pc}
 1118              	.LVL102:
 1119              	.L65:
 1120 0186 00BF     	 .align 2
 1121              	.L64:
 1122 0188 00000000 	 .word .LANCHOR1
 1123 018c 00000000 	 .word .LANCHOR5
 1124 0190 00000000 	 .word .LANCHOR6
 1125 0194 00000000 	 .word .LANCHOR3
 1126 0198 00000000 	 .word .LANCHOR4
 1127              	 .cfi_endproc
 1128              	.LFE4:
 1130              	 .section .text.mbedtls_internal_aes_encrypt,"ax",%progbits
 1131              	 .align 2
 1132              	 .global mbedtls_internal_aes_encrypt
 1133              	 .thumb
 1134              	 .thumb_func
 1136              	mbedtls_internal_aes_encrypt:
 1137              	.LFB5:
 738:D:/School/diseratie/SEMS/xmc4800_evaluation_kit/optiga-trust-m/externals/mbedtls/library\aes.c **** 
 739:D:/School/diseratie/SEMS/xmc4800_evaluation_kit/optiga-trust-m/externals/mbedtls/library\aes.c **** #if defined(MBEDTLS_CIPHER_MODE_XTS)
 740:D:/School/diseratie/SEMS/xmc4800_evaluation_kit/optiga-trust-m/externals/mbedtls/library\aes.c **** static int mbedtls_aes_xts_decode_keys( const unsigned char *key,
 741:D:/School/diseratie/SEMS/xmc4800_evaluation_kit/optiga-trust-m/externals/mbedtls/library\aes.c ****                                         unsigned int keybits,
 742:D:/School/diseratie/SEMS/xmc4800_evaluation_kit/optiga-trust-m/externals/mbedtls/library\aes.c ****                                         const unsigned char **key1,
 743:D:/School/diseratie/SEMS/xmc4800_evaluation_kit/optiga-trust-m/externals/mbedtls/library\aes.c ****                                         unsigned int *key1bits,
 744:D:/School/diseratie/SEMS/xmc4800_evaluation_kit/optiga-trust-m/externals/mbedtls/library\aes.c ****                                         const unsigned char **key2,
 745:D:/School/diseratie/SEMS/xmc4800_evaluation_kit/optiga-trust-m/externals/mbedtls/library\aes.c ****                                         unsigned int *key2bits )
 746:D:/School/diseratie/SEMS/xmc4800_evaluation_kit/optiga-trust-m/externals/mbedtls/library\aes.c **** {
 747:D:/School/diseratie/SEMS/xmc4800_evaluation_kit/optiga-trust-m/externals/mbedtls/library\aes.c ****     const unsigned int half_keybits = keybits / 2;
 748:D:/School/diseratie/SEMS/xmc4800_evaluation_kit/optiga-trust-m/externals/mbedtls/library\aes.c ****     const unsigned int half_keybytes = half_keybits / 8;
 749:D:/School/diseratie/SEMS/xmc4800_evaluation_kit/optiga-trust-m/externals/mbedtls/library\aes.c **** 
 750:D:/School/diseratie/SEMS/xmc4800_evaluation_kit/optiga-trust-m/externals/mbedtls/library\aes.c ****     switch( keybits )
 751:D:/School/diseratie/SEMS/xmc4800_evaluation_kit/optiga-trust-m/externals/mbedtls/library\aes.c ****     {
 752:D:/School/diseratie/SEMS/xmc4800_evaluation_kit/optiga-trust-m/externals/mbedtls/library\aes.c ****         case 256: break;
 753:D:/School/diseratie/SEMS/xmc4800_evaluation_kit/optiga-trust-m/externals/mbedtls/library\aes.c ****         case 512: break;
 754:D:/School/diseratie/SEMS/xmc4800_evaluation_kit/optiga-trust-m/externals/mbedtls/library\aes.c ****         default : return( MBEDTLS_ERR_AES_INVALID_KEY_LENGTH );
 755:D:/School/diseratie/SEMS/xmc4800_evaluation_kit/optiga-trust-m/externals/mbedtls/library\aes.c ****     }
 756:D:/School/diseratie/SEMS/xmc4800_evaluation_kit/optiga-trust-m/externals/mbedtls/library\aes.c **** 
 757:D:/School/diseratie/SEMS/xmc4800_evaluation_kit/optiga-trust-m/externals/mbedtls/library\aes.c ****     *key1bits = half_keybits;
 758:D:/School/diseratie/SEMS/xmc4800_evaluation_kit/optiga-trust-m/externals/mbedtls/library\aes.c ****     *key2bits = half_keybits;
 759:D:/School/diseratie/SEMS/xmc4800_evaluation_kit/optiga-trust-m/externals/mbedtls/library\aes.c ****     *key1 = &key[0];
 760:D:/School/diseratie/SEMS/xmc4800_evaluation_kit/optiga-trust-m/externals/mbedtls/library\aes.c ****     *key2 = &key[half_keybytes];
 761:D:/School/diseratie/SEMS/xmc4800_evaluation_kit/optiga-trust-m/externals/mbedtls/library\aes.c **** 
 762:D:/School/diseratie/SEMS/xmc4800_evaluation_kit/optiga-trust-m/externals/mbedtls/library\aes.c ****     return 0;
 763:D:/School/diseratie/SEMS/xmc4800_evaluation_kit/optiga-trust-m/externals/mbedtls/library\aes.c **** }
 764:D:/School/diseratie/SEMS/xmc4800_evaluation_kit/optiga-trust-m/externals/mbedtls/library\aes.c **** 
 765:D:/School/diseratie/SEMS/xmc4800_evaluation_kit/optiga-trust-m/externals/mbedtls/library\aes.c **** int mbedtls_aes_xts_setkey_enc( mbedtls_aes_xts_context *ctx,
 766:D:/School/diseratie/SEMS/xmc4800_evaluation_kit/optiga-trust-m/externals/mbedtls/library\aes.c ****                                 const unsigned char *key,
 767:D:/School/diseratie/SEMS/xmc4800_evaluation_kit/optiga-trust-m/externals/mbedtls/library\aes.c ****                                 unsigned int keybits)
 768:D:/School/diseratie/SEMS/xmc4800_evaluation_kit/optiga-trust-m/externals/mbedtls/library\aes.c **** {
 769:D:/School/diseratie/SEMS/xmc4800_evaluation_kit/optiga-trust-m/externals/mbedtls/library\aes.c ****     int ret;
 770:D:/School/diseratie/SEMS/xmc4800_evaluation_kit/optiga-trust-m/externals/mbedtls/library\aes.c ****     const unsigned char *key1, *key2;
 771:D:/School/diseratie/SEMS/xmc4800_evaluation_kit/optiga-trust-m/externals/mbedtls/library\aes.c ****     unsigned int key1bits, key2bits;
 772:D:/School/diseratie/SEMS/xmc4800_evaluation_kit/optiga-trust-m/externals/mbedtls/library\aes.c **** 
 773:D:/School/diseratie/SEMS/xmc4800_evaluation_kit/optiga-trust-m/externals/mbedtls/library\aes.c ****     AES_VALIDATE_RET( ctx != NULL );
 774:D:/School/diseratie/SEMS/xmc4800_evaluation_kit/optiga-trust-m/externals/mbedtls/library\aes.c ****     AES_VALIDATE_RET( key != NULL );
 775:D:/School/diseratie/SEMS/xmc4800_evaluation_kit/optiga-trust-m/externals/mbedtls/library\aes.c **** 
 776:D:/School/diseratie/SEMS/xmc4800_evaluation_kit/optiga-trust-m/externals/mbedtls/library\aes.c ****     ret = mbedtls_aes_xts_decode_keys( key, keybits, &key1, &key1bits,
 777:D:/School/diseratie/SEMS/xmc4800_evaluation_kit/optiga-trust-m/externals/mbedtls/library\aes.c ****                                        &key2, &key2bits );
 778:D:/School/diseratie/SEMS/xmc4800_evaluation_kit/optiga-trust-m/externals/mbedtls/library\aes.c ****     if( ret != 0 )
 779:D:/School/diseratie/SEMS/xmc4800_evaluation_kit/optiga-trust-m/externals/mbedtls/library\aes.c ****         return( ret );
 780:D:/School/diseratie/SEMS/xmc4800_evaluation_kit/optiga-trust-m/externals/mbedtls/library\aes.c **** 
 781:D:/School/diseratie/SEMS/xmc4800_evaluation_kit/optiga-trust-m/externals/mbedtls/library\aes.c ****     /* Set the tweak key. Always set tweak key for the encryption mode. */
 782:D:/School/diseratie/SEMS/xmc4800_evaluation_kit/optiga-trust-m/externals/mbedtls/library\aes.c ****     ret = mbedtls_aes_setkey_enc( &ctx->tweak, key2, key2bits );
 783:D:/School/diseratie/SEMS/xmc4800_evaluation_kit/optiga-trust-m/externals/mbedtls/library\aes.c ****     if( ret != 0 )
 784:D:/School/diseratie/SEMS/xmc4800_evaluation_kit/optiga-trust-m/externals/mbedtls/library\aes.c ****         return( ret );
 785:D:/School/diseratie/SEMS/xmc4800_evaluation_kit/optiga-trust-m/externals/mbedtls/library\aes.c **** 
 786:D:/School/diseratie/SEMS/xmc4800_evaluation_kit/optiga-trust-m/externals/mbedtls/library\aes.c ****     /* Set crypt key for encryption. */
 787:D:/School/diseratie/SEMS/xmc4800_evaluation_kit/optiga-trust-m/externals/mbedtls/library\aes.c ****     return mbedtls_aes_setkey_enc( &ctx->crypt, key1, key1bits );
 788:D:/School/diseratie/SEMS/xmc4800_evaluation_kit/optiga-trust-m/externals/mbedtls/library\aes.c **** }
 789:D:/School/diseratie/SEMS/xmc4800_evaluation_kit/optiga-trust-m/externals/mbedtls/library\aes.c **** 
 790:D:/School/diseratie/SEMS/xmc4800_evaluation_kit/optiga-trust-m/externals/mbedtls/library\aes.c **** int mbedtls_aes_xts_setkey_dec( mbedtls_aes_xts_context *ctx,
 791:D:/School/diseratie/SEMS/xmc4800_evaluation_kit/optiga-trust-m/externals/mbedtls/library\aes.c ****                                 const unsigned char *key,
 792:D:/School/diseratie/SEMS/xmc4800_evaluation_kit/optiga-trust-m/externals/mbedtls/library\aes.c ****                                 unsigned int keybits)
 793:D:/School/diseratie/SEMS/xmc4800_evaluation_kit/optiga-trust-m/externals/mbedtls/library\aes.c **** {
 794:D:/School/diseratie/SEMS/xmc4800_evaluation_kit/optiga-trust-m/externals/mbedtls/library\aes.c ****     int ret;
 795:D:/School/diseratie/SEMS/xmc4800_evaluation_kit/optiga-trust-m/externals/mbedtls/library\aes.c ****     const unsigned char *key1, *key2;
 796:D:/School/diseratie/SEMS/xmc4800_evaluation_kit/optiga-trust-m/externals/mbedtls/library\aes.c ****     unsigned int key1bits, key2bits;
 797:D:/School/diseratie/SEMS/xmc4800_evaluation_kit/optiga-trust-m/externals/mbedtls/library\aes.c **** 
 798:D:/School/diseratie/SEMS/xmc4800_evaluation_kit/optiga-trust-m/externals/mbedtls/library\aes.c ****     AES_VALIDATE_RET( ctx != NULL );
 799:D:/School/diseratie/SEMS/xmc4800_evaluation_kit/optiga-trust-m/externals/mbedtls/library\aes.c ****     AES_VALIDATE_RET( key != NULL );
 800:D:/School/diseratie/SEMS/xmc4800_evaluation_kit/optiga-trust-m/externals/mbedtls/library\aes.c **** 
 801:D:/School/diseratie/SEMS/xmc4800_evaluation_kit/optiga-trust-m/externals/mbedtls/library\aes.c ****     ret = mbedtls_aes_xts_decode_keys( key, keybits, &key1, &key1bits,
 802:D:/School/diseratie/SEMS/xmc4800_evaluation_kit/optiga-trust-m/externals/mbedtls/library\aes.c ****                                        &key2, &key2bits );
 803:D:/School/diseratie/SEMS/xmc4800_evaluation_kit/optiga-trust-m/externals/mbedtls/library\aes.c ****     if( ret != 0 )
 804:D:/School/diseratie/SEMS/xmc4800_evaluation_kit/optiga-trust-m/externals/mbedtls/library\aes.c ****         return( ret );
 805:D:/School/diseratie/SEMS/xmc4800_evaluation_kit/optiga-trust-m/externals/mbedtls/library\aes.c **** 
 806:D:/School/diseratie/SEMS/xmc4800_evaluation_kit/optiga-trust-m/externals/mbedtls/library\aes.c ****     /* Set the tweak key. Always set tweak key for encryption. */
 807:D:/School/diseratie/SEMS/xmc4800_evaluation_kit/optiga-trust-m/externals/mbedtls/library\aes.c ****     ret = mbedtls_aes_setkey_enc( &ctx->tweak, key2, key2bits );
 808:D:/School/diseratie/SEMS/xmc4800_evaluation_kit/optiga-trust-m/externals/mbedtls/library\aes.c ****     if( ret != 0 )
 809:D:/School/diseratie/SEMS/xmc4800_evaluation_kit/optiga-trust-m/externals/mbedtls/library\aes.c ****         return( ret );
 810:D:/School/diseratie/SEMS/xmc4800_evaluation_kit/optiga-trust-m/externals/mbedtls/library\aes.c **** 
 811:D:/School/diseratie/SEMS/xmc4800_evaluation_kit/optiga-trust-m/externals/mbedtls/library\aes.c ****     /* Set crypt key for decryption. */
 812:D:/School/diseratie/SEMS/xmc4800_evaluation_kit/optiga-trust-m/externals/mbedtls/library\aes.c ****     return mbedtls_aes_setkey_dec( &ctx->crypt, key1, key1bits );
 813:D:/School/diseratie/SEMS/xmc4800_evaluation_kit/optiga-trust-m/externals/mbedtls/library\aes.c **** }
 814:D:/School/diseratie/SEMS/xmc4800_evaluation_kit/optiga-trust-m/externals/mbedtls/library\aes.c **** #endif /* MBEDTLS_CIPHER_MODE_XTS */
 815:D:/School/diseratie/SEMS/xmc4800_evaluation_kit/optiga-trust-m/externals/mbedtls/library\aes.c **** 
 816:D:/School/diseratie/SEMS/xmc4800_evaluation_kit/optiga-trust-m/externals/mbedtls/library\aes.c **** #endif /* !MBEDTLS_AES_SETKEY_DEC_ALT */
 817:D:/School/diseratie/SEMS/xmc4800_evaluation_kit/optiga-trust-m/externals/mbedtls/library\aes.c **** 
 818:D:/School/diseratie/SEMS/xmc4800_evaluation_kit/optiga-trust-m/externals/mbedtls/library\aes.c **** #define AES_FROUND(X0,X1,X2,X3,Y0,Y1,Y2,Y3)         \
 819:D:/School/diseratie/SEMS/xmc4800_evaluation_kit/optiga-trust-m/externals/mbedtls/library\aes.c **** {                                                   \
 820:D:/School/diseratie/SEMS/xmc4800_evaluation_kit/optiga-trust-m/externals/mbedtls/library\aes.c ****     X0 = *RK++ ^ AES_FT0( ( Y0       ) & 0xFF ) ^   \
 821:D:/School/diseratie/SEMS/xmc4800_evaluation_kit/optiga-trust-m/externals/mbedtls/library\aes.c ****                  AES_FT1( ( Y1 >>  8 ) & 0xFF ) ^   \
 822:D:/School/diseratie/SEMS/xmc4800_evaluation_kit/optiga-trust-m/externals/mbedtls/library\aes.c ****                  AES_FT2( ( Y2 >> 16 ) & 0xFF ) ^   \
 823:D:/School/diseratie/SEMS/xmc4800_evaluation_kit/optiga-trust-m/externals/mbedtls/library\aes.c ****                  AES_FT3( ( Y3 >> 24 ) & 0xFF );    \
 824:D:/School/diseratie/SEMS/xmc4800_evaluation_kit/optiga-trust-m/externals/mbedtls/library\aes.c ****                                                     \
 825:D:/School/diseratie/SEMS/xmc4800_evaluation_kit/optiga-trust-m/externals/mbedtls/library\aes.c ****     X1 = *RK++ ^ AES_FT0( ( Y1       ) & 0xFF ) ^   \
 826:D:/School/diseratie/SEMS/xmc4800_evaluation_kit/optiga-trust-m/externals/mbedtls/library\aes.c ****                  AES_FT1( ( Y2 >>  8 ) & 0xFF ) ^   \
 827:D:/School/diseratie/SEMS/xmc4800_evaluation_kit/optiga-trust-m/externals/mbedtls/library\aes.c ****                  AES_FT2( ( Y3 >> 16 ) & 0xFF ) ^   \
 828:D:/School/diseratie/SEMS/xmc4800_evaluation_kit/optiga-trust-m/externals/mbedtls/library\aes.c ****                  AES_FT3( ( Y0 >> 24 ) & 0xFF );    \
 829:D:/School/diseratie/SEMS/xmc4800_evaluation_kit/optiga-trust-m/externals/mbedtls/library\aes.c ****                                                     \
 830:D:/School/diseratie/SEMS/xmc4800_evaluation_kit/optiga-trust-m/externals/mbedtls/library\aes.c ****     X2 = *RK++ ^ AES_FT0( ( Y2       ) & 0xFF ) ^   \
 831:D:/School/diseratie/SEMS/xmc4800_evaluation_kit/optiga-trust-m/externals/mbedtls/library\aes.c ****                  AES_FT1( ( Y3 >>  8 ) & 0xFF ) ^   \
 832:D:/School/diseratie/SEMS/xmc4800_evaluation_kit/optiga-trust-m/externals/mbedtls/library\aes.c ****                  AES_FT2( ( Y0 >> 16 ) & 0xFF ) ^   \
 833:D:/School/diseratie/SEMS/xmc4800_evaluation_kit/optiga-trust-m/externals/mbedtls/library\aes.c ****                  AES_FT3( ( Y1 >> 24 ) & 0xFF );    \
 834:D:/School/diseratie/SEMS/xmc4800_evaluation_kit/optiga-trust-m/externals/mbedtls/library\aes.c ****                                                     \
 835:D:/School/diseratie/SEMS/xmc4800_evaluation_kit/optiga-trust-m/externals/mbedtls/library\aes.c ****     X3 = *RK++ ^ AES_FT0( ( Y3       ) & 0xFF ) ^   \
 836:D:/School/diseratie/SEMS/xmc4800_evaluation_kit/optiga-trust-m/externals/mbedtls/library\aes.c ****                  AES_FT1( ( Y0 >>  8 ) & 0xFF ) ^   \
 837:D:/School/diseratie/SEMS/xmc4800_evaluation_kit/optiga-trust-m/externals/mbedtls/library\aes.c ****                  AES_FT2( ( Y1 >> 16 ) & 0xFF ) ^   \
 838:D:/School/diseratie/SEMS/xmc4800_evaluation_kit/optiga-trust-m/externals/mbedtls/library\aes.c ****                  AES_FT3( ( Y2 >> 24 ) & 0xFF );    \
 839:D:/School/diseratie/SEMS/xmc4800_evaluation_kit/optiga-trust-m/externals/mbedtls/library\aes.c **** }
 840:D:/School/diseratie/SEMS/xmc4800_evaluation_kit/optiga-trust-m/externals/mbedtls/library\aes.c **** 
 841:D:/School/diseratie/SEMS/xmc4800_evaluation_kit/optiga-trust-m/externals/mbedtls/library\aes.c **** #define AES_RROUND(X0,X1,X2,X3,Y0,Y1,Y2,Y3)         \
 842:D:/School/diseratie/SEMS/xmc4800_evaluation_kit/optiga-trust-m/externals/mbedtls/library\aes.c **** {                                                   \
 843:D:/School/diseratie/SEMS/xmc4800_evaluation_kit/optiga-trust-m/externals/mbedtls/library\aes.c ****     X0 = *RK++ ^ AES_RT0( ( Y0       ) & 0xFF ) ^   \
 844:D:/School/diseratie/SEMS/xmc4800_evaluation_kit/optiga-trust-m/externals/mbedtls/library\aes.c ****                  AES_RT1( ( Y3 >>  8 ) & 0xFF ) ^   \
 845:D:/School/diseratie/SEMS/xmc4800_evaluation_kit/optiga-trust-m/externals/mbedtls/library\aes.c ****                  AES_RT2( ( Y2 >> 16 ) & 0xFF ) ^   \
 846:D:/School/diseratie/SEMS/xmc4800_evaluation_kit/optiga-trust-m/externals/mbedtls/library\aes.c ****                  AES_RT3( ( Y1 >> 24 ) & 0xFF );    \
 847:D:/School/diseratie/SEMS/xmc4800_evaluation_kit/optiga-trust-m/externals/mbedtls/library\aes.c ****                                                     \
 848:D:/School/diseratie/SEMS/xmc4800_evaluation_kit/optiga-trust-m/externals/mbedtls/library\aes.c ****     X1 = *RK++ ^ AES_RT0( ( Y1       ) & 0xFF ) ^   \
 849:D:/School/diseratie/SEMS/xmc4800_evaluation_kit/optiga-trust-m/externals/mbedtls/library\aes.c ****                  AES_RT1( ( Y0 >>  8 ) & 0xFF ) ^   \
 850:D:/School/diseratie/SEMS/xmc4800_evaluation_kit/optiga-trust-m/externals/mbedtls/library\aes.c ****                  AES_RT2( ( Y3 >> 16 ) & 0xFF ) ^   \
 851:D:/School/diseratie/SEMS/xmc4800_evaluation_kit/optiga-trust-m/externals/mbedtls/library\aes.c ****                  AES_RT3( ( Y2 >> 24 ) & 0xFF );    \
 852:D:/School/diseratie/SEMS/xmc4800_evaluation_kit/optiga-trust-m/externals/mbedtls/library\aes.c ****                                                     \
 853:D:/School/diseratie/SEMS/xmc4800_evaluation_kit/optiga-trust-m/externals/mbedtls/library\aes.c ****     X2 = *RK++ ^ AES_RT0( ( Y2       ) & 0xFF ) ^   \
 854:D:/School/diseratie/SEMS/xmc4800_evaluation_kit/optiga-trust-m/externals/mbedtls/library\aes.c ****                  AES_RT1( ( Y1 >>  8 ) & 0xFF ) ^   \
 855:D:/School/diseratie/SEMS/xmc4800_evaluation_kit/optiga-trust-m/externals/mbedtls/library\aes.c ****                  AES_RT2( ( Y0 >> 16 ) & 0xFF ) ^   \
 856:D:/School/diseratie/SEMS/xmc4800_evaluation_kit/optiga-trust-m/externals/mbedtls/library\aes.c ****                  AES_RT3( ( Y3 >> 24 ) & 0xFF );    \
 857:D:/School/diseratie/SEMS/xmc4800_evaluation_kit/optiga-trust-m/externals/mbedtls/library\aes.c ****                                                     \
 858:D:/School/diseratie/SEMS/xmc4800_evaluation_kit/optiga-trust-m/externals/mbedtls/library\aes.c ****     X3 = *RK++ ^ AES_RT0( ( Y3       ) & 0xFF ) ^   \
 859:D:/School/diseratie/SEMS/xmc4800_evaluation_kit/optiga-trust-m/externals/mbedtls/library\aes.c ****                  AES_RT1( ( Y2 >>  8 ) & 0xFF ) ^   \
 860:D:/School/diseratie/SEMS/xmc4800_evaluation_kit/optiga-trust-m/externals/mbedtls/library\aes.c ****                  AES_RT2( ( Y1 >> 16 ) & 0xFF ) ^   \
 861:D:/School/diseratie/SEMS/xmc4800_evaluation_kit/optiga-trust-m/externals/mbedtls/library\aes.c ****                  AES_RT3( ( Y0 >> 24 ) & 0xFF );    \
 862:D:/School/diseratie/SEMS/xmc4800_evaluation_kit/optiga-trust-m/externals/mbedtls/library\aes.c **** }
 863:D:/School/diseratie/SEMS/xmc4800_evaluation_kit/optiga-trust-m/externals/mbedtls/library\aes.c **** 
 864:D:/School/diseratie/SEMS/xmc4800_evaluation_kit/optiga-trust-m/externals/mbedtls/library\aes.c **** /*
 865:D:/School/diseratie/SEMS/xmc4800_evaluation_kit/optiga-trust-m/externals/mbedtls/library\aes.c ****  * AES-ECB block encryption
 866:D:/School/diseratie/SEMS/xmc4800_evaluation_kit/optiga-trust-m/externals/mbedtls/library\aes.c ****  */
 867:D:/School/diseratie/SEMS/xmc4800_evaluation_kit/optiga-trust-m/externals/mbedtls/library\aes.c **** #if !defined(MBEDTLS_AES_ENCRYPT_ALT)
 868:D:/School/diseratie/SEMS/xmc4800_evaluation_kit/optiga-trust-m/externals/mbedtls/library\aes.c **** int mbedtls_internal_aes_encrypt( mbedtls_aes_context *ctx,
 869:D:/School/diseratie/SEMS/xmc4800_evaluation_kit/optiga-trust-m/externals/mbedtls/library\aes.c ****                                   const unsigned char input[16],
 870:D:/School/diseratie/SEMS/xmc4800_evaluation_kit/optiga-trust-m/externals/mbedtls/library\aes.c ****                                   unsigned char output[16] )
 871:D:/School/diseratie/SEMS/xmc4800_evaluation_kit/optiga-trust-m/externals/mbedtls/library\aes.c **** {
 1138              	 .loc 1 871 0
 1139              	 .cfi_startproc
 1140              	 
 1141              	 
 1142              	.LVL103:
 1143 0000 2DE9F04F 	 push {r4,r5,r6,r7,r8,r9,r10,fp,lr}
 1144              	.LCFI12:
 1145              	 .cfi_def_cfa_offset 36
 1146              	 .cfi_offset 4,-36
 1147              	 .cfi_offset 5,-32
 1148              	 .cfi_offset 6,-28
 1149              	 .cfi_offset 7,-24
 1150              	 .cfi_offset 8,-20
 1151              	 .cfi_offset 9,-16
 1152              	 .cfi_offset 10,-12
 1153              	 .cfi_offset 11,-8
 1154              	 .cfi_offset 14,-4
 1155 0004 8DB0     	 sub sp,sp,#52
 1156              	.LCFI13:
 1157              	 .cfi_def_cfa_offset 88
 872:D:/School/diseratie/SEMS/xmc4800_evaluation_kit/optiga-trust-m/externals/mbedtls/library\aes.c ****     int i;
 873:D:/School/diseratie/SEMS/xmc4800_evaluation_kit/optiga-trust-m/externals/mbedtls/library\aes.c ****     uint32_t *RK, X0, X1, X2, X3, Y0, Y1, Y2, Y3;
 874:D:/School/diseratie/SEMS/xmc4800_evaluation_kit/optiga-trust-m/externals/mbedtls/library\aes.c **** 
 875:D:/School/diseratie/SEMS/xmc4800_evaluation_kit/optiga-trust-m/externals/mbedtls/library\aes.c ****     RK = ctx->rk;
 1158              	 .loc 1 875 0
 1159 0006 4368     	 ldr r3,[r0,#4]
 1160              	.LVL104:
 876:D:/School/diseratie/SEMS/xmc4800_evaluation_kit/optiga-trust-m/externals/mbedtls/library\aes.c **** 
 877:D:/School/diseratie/SEMS/xmc4800_evaluation_kit/optiga-trust-m/externals/mbedtls/library\aes.c ****     GET_UINT32_LE( X0, input,  0 ); X0 ^= *RK++;
 878:D:/School/diseratie/SEMS/xmc4800_evaluation_kit/optiga-trust-m/externals/mbedtls/library\aes.c ****     GET_UINT32_LE( X1, input,  4 ); X1 ^= *RK++;
 879:D:/School/diseratie/SEMS/xmc4800_evaluation_kit/optiga-trust-m/externals/mbedtls/library\aes.c ****     GET_UINT32_LE( X2, input,  8 ); X2 ^= *RK++;
 880:D:/School/diseratie/SEMS/xmc4800_evaluation_kit/optiga-trust-m/externals/mbedtls/library\aes.c ****     GET_UINT32_LE( X3, input, 12 ); X3 ^= *RK++;
 1161              	 .loc 1 880 0
 1162 0008 91F80EA0 	 ldrb r10,[r1,#14]
 881:D:/School/diseratie/SEMS/xmc4800_evaluation_kit/optiga-trust-m/externals/mbedtls/library\aes.c **** 
 882:D:/School/diseratie/SEMS/xmc4800_evaluation_kit/optiga-trust-m/externals/mbedtls/library\aes.c ****     for( i = ( ctx->nr >> 1 ) - 1; i > 0; i-- )
 1163              	 .loc 1 882 0
 1164 000c 0668     	 ldr r6,[r0]
 877:D:/School/diseratie/SEMS/xmc4800_evaluation_kit/optiga-trust-m/externals/mbedtls/library\aes.c ****     GET_UINT32_LE( X1, input,  4 ); X1 ^= *RK++;
 1165              	 .loc 1 877 0
 1166 000e 91F80280 	 ldrb r8,[r1,#2]
 878:D:/School/diseratie/SEMS/xmc4800_evaluation_kit/optiga-trust-m/externals/mbedtls/library\aes.c ****     GET_UINT32_LE( X2, input,  8 ); X2 ^= *RK++;
 1167              	 .loc 1 878 0
 1168 0012 0879     	 ldrb r0,[r1,#4]
 1169              	.LVL105:
 877:D:/School/diseratie/SEMS/xmc4800_evaluation_kit/optiga-trust-m/externals/mbedtls/library\aes.c ****     GET_UINT32_LE( X1, input,  4 ); X1 ^= *RK++;
 1170              	 .loc 1 877 0
 1171 0014 4C78     	 ldrb r4,[r1,#1]
 880:D:/School/diseratie/SEMS/xmc4800_evaluation_kit/optiga-trust-m/externals/mbedtls/library\aes.c **** 
 1172              	 .loc 1 880 0
 1173 0016 91F80D90 	 ldrb r9,[r1,#13]
 878:D:/School/diseratie/SEMS/xmc4800_evaluation_kit/optiga-trust-m/externals/mbedtls/library\aes.c ****     GET_UINT32_LE( X2, input,  8 ); X2 ^= *RK++;
 1174              	 .loc 1 878 0
 1175 001a 8D79     	 ldrb r5,[r1,#6]
 879:D:/School/diseratie/SEMS/xmc4800_evaluation_kit/optiga-trust-m/externals/mbedtls/library\aes.c ****     GET_UINT32_LE( X3, input, 12 ); X3 ^= *RK++;
 1176              	 .loc 1 879 0
 1177 001c 91F80AE0 	 ldrb lr,[r1,#10]
 878:D:/School/diseratie/SEMS/xmc4800_evaluation_kit/optiga-trust-m/externals/mbedtls/library\aes.c ****     GET_UINT32_LE( X2, input,  8 ); X2 ^= *RK++;
 1178              	 .loc 1 878 0
 1179 0020 0190     	 str r0,[sp,#4]
 879:D:/School/diseratie/SEMS/xmc4800_evaluation_kit/optiga-trust-m/externals/mbedtls/library\aes.c ****     GET_UINT32_LE( X3, input, 12 ); X3 ^= *RK++;
 1180              	 .loc 1 879 0
 1181 0022 087A     	 ldrb r0,[r1,#8]
 878:D:/School/diseratie/SEMS/xmc4800_evaluation_kit/optiga-trust-m/externals/mbedtls/library\aes.c ****     GET_UINT32_LE( X2, input,  8 ); X2 ^= *RK++;
 1182              	 .loc 1 878 0
 1183 0024 4F79     	 ldrb r7,[r1,#5]
 879:D:/School/diseratie/SEMS/xmc4800_evaluation_kit/optiga-trust-m/externals/mbedtls/library\aes.c ****     GET_UINT32_LE( X3, input, 12 ); X3 ^= *RK++;
 1184              	 .loc 1 879 0
 1185 0026 91F809B0 	 ldrb fp,[r1,#9]
 877:D:/School/diseratie/SEMS/xmc4800_evaluation_kit/optiga-trust-m/externals/mbedtls/library\aes.c ****     GET_UINT32_LE( X1, input,  4 ); X1 ^= *RK++;
 1186              	 .loc 1 877 0
 1187 002a 91F800C0 	 ldrb ip,[r1]
 879:D:/School/diseratie/SEMS/xmc4800_evaluation_kit/optiga-trust-m/externals/mbedtls/library\aes.c ****     GET_UINT32_LE( X3, input, 12 ); X3 ^= *RK++;
 1188              	 .loc 1 879 0
 1189 002e 0290     	 str r0,[sp,#8]
 877:D:/School/diseratie/SEMS/xmc4800_evaluation_kit/optiga-trust-m/externals/mbedtls/library\aes.c ****     GET_UINT32_LE( X1, input,  4 ); X1 ^= *RK++;
 1190              	 .loc 1 877 0
 1191 0030 4FEA0848 	 lsl r8,r8,#16
 880:D:/School/diseratie/SEMS/xmc4800_evaluation_kit/optiga-trust-m/externals/mbedtls/library\aes.c **** 
 1192              	 .loc 1 880 0
 1193 0034 4FEA0A40 	 lsl r0,r10,#16
 878:D:/School/diseratie/SEMS/xmc4800_evaluation_kit/optiga-trust-m/externals/mbedtls/library\aes.c ****     GET_UINT32_LE( X2, input,  8 ); X2 ^= *RK++;
 1194              	 .loc 1 878 0
 1195 0038 2D04     	 lsls r5,r5,#16
 1196 003a 48EA0428 	 orr r8,r8,r4,lsl#8
 879:D:/School/diseratie/SEMS/xmc4800_evaluation_kit/optiga-trust-m/externals/mbedtls/library\aes.c ****     GET_UINT32_LE( X3, input, 12 ); X3 ^= *RK++;
 1197              	 .loc 1 879 0
 1198 003e 4FEA0E4E 	 lsl lr,lr,#16
 1199 0042 40EA0924 	 orr r4,r0,r9,lsl#8
 877:D:/School/diseratie/SEMS/xmc4800_evaluation_kit/optiga-trust-m/externals/mbedtls/library\aes.c ****     GET_UINT32_LE( X1, input,  4 ); X1 ^= *RK++;
 1200              	 .loc 1 877 0
 1201 0046 91F80390 	 ldrb r9,[r1,#3]
 880:D:/School/diseratie/SEMS/xmc4800_evaluation_kit/optiga-trust-m/externals/mbedtls/library\aes.c **** 
 1202              	 .loc 1 880 0
 1203 004a C87B     	 ldrb r0,[r1,#15]
 871:D:/School/diseratie/SEMS/xmc4800_evaluation_kit/optiga-trust-m/externals/mbedtls/library\aes.c ****     int i;
 1204              	 .loc 1 871 0
 1205 004c 0A92     	 str r2,[sp,#40]
 1206 004e 45EA072A 	 orr r10,r5,r7,lsl#8
 1207 0052 4EEA0B2E 	 orr lr,lr,fp,lsl#8
 880:D:/School/diseratie/SEMS/xmc4800_evaluation_kit/optiga-trust-m/externals/mbedtls/library\aes.c **** 
 1208              	 .loc 1 880 0
 1209 0056 0D7B     	 ldrb r5,[r1,#12]
 878:D:/School/diseratie/SEMS/xmc4800_evaluation_kit/optiga-trust-m/externals/mbedtls/library\aes.c ****     GET_UINT32_LE( X2, input,  8 ); X2 ^= *RK++;
 1210              	 .loc 1 878 0
 1211 0058 CF79     	 ldrb r7,[r1,#7]
 879:D:/School/diseratie/SEMS/xmc4800_evaluation_kit/optiga-trust-m/externals/mbedtls/library\aes.c ****     GET_UINT32_LE( X3, input, 12 ); X3 ^= *RK++;
 1212              	 .loc 1 879 0
 1213 005a 91F80BB0 	 ldrb fp,[r1,#11]
 877:D:/School/diseratie/SEMS/xmc4800_evaluation_kit/optiga-trust-m/externals/mbedtls/library\aes.c ****     GET_UINT32_LE( X1, input,  4 ); X1 ^= *RK++;
 1214              	 .loc 1 877 0
 1215 005e 1A68     	 ldr r2,[r3]
 1216              	.LVL106:
 1217              	 .loc 1 882 0
 1218 0060 7110     	 asrs r1,r6,#1
 1219              	.LVL107:
 877:D:/School/diseratie/SEMS/xmc4800_evaluation_kit/optiga-trust-m/externals/mbedtls/library\aes.c ****     GET_UINT32_LE( X1, input,  4 ); X1 ^= *RK++;
 1220              	 .loc 1 877 0
 1221 0062 48EA0C0C 	 orr ip,r8,ip
 878:D:/School/diseratie/SEMS/xmc4800_evaluation_kit/optiga-trust-m/externals/mbedtls/library\aes.c ****     GET_UINT32_LE( X2, input,  8 ); X2 ^= *RK++;
 1222              	 .loc 1 878 0
 1223 0066 019E     	 ldr r6,[sp,#4]
 1224              	 .loc 1 882 0
 1225 0068 0B91     	 str r1,[sp,#44]
 877:D:/School/diseratie/SEMS/xmc4800_evaluation_kit/optiga-trust-m/externals/mbedtls/library\aes.c ****     GET_UINT32_LE( X1, input,  4 ); X1 ^= *RK++;
 1226              	 .loc 1 877 0
 1227 006a 4CEA096C 	 orr ip,ip,r9,lsl#24
 1228              	.LVL108:
 878:D:/School/diseratie/SEMS/xmc4800_evaluation_kit/optiga-trust-m/externals/mbedtls/library\aes.c ****     GET_UINT32_LE( X2, input,  8 ); X2 ^= *RK++;
 1229              	 .loc 1 878 0
 1230 006e 4AEA060A 	 orr r10,r10,r6
 880:D:/School/diseratie/SEMS/xmc4800_evaluation_kit/optiga-trust-m/externals/mbedtls/library\aes.c **** 
 1231              	 .loc 1 880 0
 1232 0072 2C43     	 orrs r4,r4,r5
 879:D:/School/diseratie/SEMS/xmc4800_evaluation_kit/optiga-trust-m/externals/mbedtls/library\aes.c ****     GET_UINT32_LE( X3, input, 12 ); X3 ^= *RK++;
 1233              	 .loc 1 879 0
 1234 0074 029E     	 ldr r6,[sp,#8]
 880:D:/School/diseratie/SEMS/xmc4800_evaluation_kit/optiga-trust-m/externals/mbedtls/library\aes.c **** 
 1235              	 .loc 1 880 0
 1236 0076 D968     	 ldr r1,[r3,#12]
 877:D:/School/diseratie/SEMS/xmc4800_evaluation_kit/optiga-trust-m/externals/mbedtls/library\aes.c ****     GET_UINT32_LE( X1, input,  4 ); X1 ^= *RK++;
 1237              	 .loc 1 877 0
 1238 0078 8CEA020C 	 eor ip,ip,r2
 1239              	.LVL109:
 878:D:/School/diseratie/SEMS/xmc4800_evaluation_kit/optiga-trust-m/externals/mbedtls/library\aes.c ****     GET_UINT32_LE( X2, input,  8 ); X2 ^= *RK++;
 1240              	 .loc 1 878 0
 1241 007c 5A68     	 ldr r2,[r3,#4]
 880:D:/School/diseratie/SEMS/xmc4800_evaluation_kit/optiga-trust-m/externals/mbedtls/library\aes.c **** 
 1242              	 .loc 1 880 0
 1243 007e 44EA0060 	 orr r0,r4,r0,lsl#24
 878:D:/School/diseratie/SEMS/xmc4800_evaluation_kit/optiga-trust-m/externals/mbedtls/library\aes.c ****     GET_UINT32_LE( X2, input,  8 ); X2 ^= *RK++;
 1244              	 .loc 1 878 0
 1245 0082 4AEA0767 	 orr r7,r10,r7,lsl#24
 1246              	.LVL110:
 1247              	 .loc 1 882 0
 1248 0086 0B9C     	 ldr r4,[sp,#44]
 879:D:/School/diseratie/SEMS/xmc4800_evaluation_kit/optiga-trust-m/externals/mbedtls/library\aes.c ****     GET_UINT32_LE( X3, input, 12 ); X3 ^= *RK++;
 1249              	 .loc 1 879 0
 1250 0088 4EEA060E 	 orr lr,lr,r6
 878:D:/School/diseratie/SEMS/xmc4800_evaluation_kit/optiga-trust-m/externals/mbedtls/library\aes.c ****     GET_UINT32_LE( X2, input,  8 ); X2 ^= *RK++;
 1251              	 .loc 1 878 0
 1252 008c 5740     	 eors r7,r7,r2
 1253              	.LVL111:
 879:D:/School/diseratie/SEMS/xmc4800_evaluation_kit/optiga-trust-m/externals/mbedtls/library\aes.c ****     GET_UINT32_LE( X3, input, 12 ); X3 ^= *RK++;
 1254              	 .loc 1 879 0
 1255 008e 9A68     	 ldr r2,[r3,#8]
 1256              	 .loc 1 882 0
 1257 0090 013C     	 subs r4,r4,#1
 879:D:/School/diseratie/SEMS/xmc4800_evaluation_kit/optiga-trust-m/externals/mbedtls/library\aes.c ****     GET_UINT32_LE( X3, input, 12 ); X3 ^= *RK++;
 1258              	 .loc 1 879 0
 1259 0092 4EEA0B66 	 orr r6,lr,fp,lsl#24
 1260              	.LVL112:
 1261 0096 5640     	 eors r6,r6,r2
 1262              	.LVL113:
 1263              	 .loc 1 882 0
 1264 0098 002C     	 cmp r4,#0
 880:D:/School/diseratie/SEMS/xmc4800_evaluation_kit/optiga-trust-m/externals/mbedtls/library\aes.c **** 
 1265              	 .loc 1 880 0
 1266 009a 03F11002 	 add r2,r3,#16
 1267              	 .loc 1 882 0
 1268 009e 0594     	 str r4,[sp,#20]
 880:D:/School/diseratie/SEMS/xmc4800_evaluation_kit/optiga-trust-m/externals/mbedtls/library\aes.c **** 
 1269              	 .loc 1 880 0
 1270 00a0 80EA0109 	 eor r9,r0,r1
 1271 00a4 0992     	 str r2,[sp,#36]
 1272              	.LVL114:
 1273              	 .loc 1 882 0
 1274 00a6 40F31D82 	 ble .L73
 1275 00aa D34A     	 ldr r2,.L74
 1276              	.LVL115:
 1277 00ac 0392     	 str r2,[sp,#12]
 1278 00ae DFF85483 	 ldr r8,.L74+12
 1279 00b2 D24A     	 ldr r2,.L74+4
 1280 00b4 DFF850E3 	 ldr lr,.L74+16
 1281 00b8 0192     	 str r2,[sp,#4]
 1282 00ba 03F1300B 	 add fp,r3,#48
 1283 00be 0496     	 str r6,[sp,#16]
 1284 00c0 CDF80880 	 str r8,[sp,#8]
 1285              	.LVL116:
 1286              	.L68:
 883:D:/School/diseratie/SEMS/xmc4800_evaluation_kit/optiga-trust-m/externals/mbedtls/library\aes.c ****     {
 884:D:/School/diseratie/SEMS/xmc4800_evaluation_kit/optiga-trust-m/externals/mbedtls/library\aes.c ****         AES_FROUND( Y0, Y1, Y2, Y3, X0, X1, X2, X3 );
 1287              	 .loc 1 884 0 discriminator 3
 1288 00c4 DDF810A0 	 ldr r10,[sp,#16]
 1289 00c8 039E     	 ldr r6,[sp,#12]
 1290 00ca 5FFA89F0 	 uxtb r0,r9
 1291 00ce F9B2     	 uxtb r1,r7
 1292 00d0 5FFA8AF2 	 uxtb r2,r10
 1293 00d4 5FFA8CF4 	 uxtb r4,ip
 1294 00d8 56F82050 	 ldr r5,[r6,r0,lsl#2]
 1295 00dc 56F82440 	 ldr r4,[r6,r4,lsl#2]
 1296 00e0 56F82100 	 ldr r0,[r6,r1,lsl#2]
 1297 00e4 56F82210 	 ldr r1,[r6,r2,lsl#2]
 1298 00e8 019E     	 ldr r6,[sp,#4]
 1299 00ea 5BF8142C 	 ldr r2,[fp,#-20]
 1300 00ee 4FEA1963 	 lsr r3,r9,#24
 1301 00f2 6A40     	 eors r2,r2,r5
 1302 00f4 56F82380 	 ldr r8,[r6,r3,lsl#2]
 1303 00f8 5BF81C3C 	 ldr r3,[fp,#-28]
 1304 00fc 0193     	 str r3,[sp,#4]
 1305 00fe 5BF8203C 	 ldr r3,[fp,#-32]
 1306 0102 5C40     	 eors r4,r4,r3
 1307 0104 5346     	 mov r3,r10
 1308 0106 1D0E     	 lsrs r5,r3,#24
 1309 0108 019B     	 ldr r3,[sp,#4]
 1310 010a 56F82550 	 ldr r5,[r6,r5,lsl#2]
 1311 010e 0196     	 str r6,[sp,#4]
 1312 0110 4340     	 eors r3,r3,r0
 1313 0112 380E     	 lsrs r0,r7,#24
 1314 0114 84EA0804 	 eor r4,r4,r8
 1315 0118 56F820A0 	 ldr r10,[r6,r0,lsl#2]
 1316 011c 5BF8180C 	 ldr r0,[fp,#-24]
 1317 0120 0694     	 str r4,[sp,#24]
 1318 0122 4140     	 eors r1,r1,r0
 1319 0124 4FEA1C60 	 lsr r0,ip,#24
 1320 0128 029C     	 ldr r4,[sp,#8]
 1321 012a 56F82000 	 ldr r0,[r6,r0,lsl#2]
 1322 012e 049E     	 ldr r6,[sp,#16]
 1323 0130 81EA0A01 	 eor r1,r1,r10
 1324 0134 C6F3072A 	 ubfx r10,r6,#8,#8
 1325 0138 C7F30728 	 ubfx r8,r7,#8,#8
 1326 013c 6A40     	 eors r2,r2,r5
 1327 013e 4340     	 eors r3,r3,r0
 1328 0140 CCF30725 	 ubfx r5,ip,#8,#8
 1329 0144 C6F30740 	 ubfx r0,r6,#16,#8
 1330 0148 54F82A60 	 ldr r6,[r4,r10,lsl#2]
 1331 014c 54F82880 	 ldr r8,[r4,r8,lsl#2]
 1332 0150 54F82550 	 ldr r5,[r4,r5,lsl#2]
 1333 0154 5EF82000 	 ldr r0,[lr,r0,lsl#2]
 1334 0158 C9F3072A 	 ubfx r10,r9,#8,#8
 1335 015c C7F30747 	 ubfx r7,r7,#16,#8
 1336              	.LVL117:
 1337 0160 54F82AA0 	 ldr r10,[r4,r10,lsl#2]
 1338 0164 069C     	 ldr r4,[sp,#24]
 1339 0166 5EF82770 	 ldr r7,[lr,r7,lsl#2]
 1340 016a 84EA0804 	 eor r4,r4,r8
 1341 016e CCF3074C 	 ubfx ip,ip,#16,#8
 1342              	.LVL118:
 1343 0172 4440     	 eors r4,r4,r0
 1344              	.LVL119:
 1345 0174 7340     	 eors r3,r3,r6
 1346 0176 5EF82CC0 	 ldr ip,[lr,ip,lsl#2]
 885:D:/School/diseratie/SEMS/xmc4800_evaluation_kit/optiga-trust-m/externals/mbedtls/library\aes.c ****         AES_FROUND( X0, X1, X2, X3, Y0, Y1, Y2, Y3 );
 1347              	 .loc 1 885 0 discriminator 3
 1348 017a 0494     	 str r4,[sp,#16]
 1349              	.LVL120:
 1350 017c 260E     	 lsrs r6,r4,#24
 1351 017e 6A40     	 eors r2,r2,r5
 1352 0180 E0B2     	 uxtb r0,r4
 884:D:/School/diseratie/SEMS/xmc4800_evaluation_kit/optiga-trust-m/externals/mbedtls/library\aes.c ****         AES_FROUND( X0, X1, X2, X3, Y0, Y1, Y2, Y3 );
 1353              	 .loc 1 884 0 discriminator 3
 1354 0182 C9F30749 	 ubfx r9,r9,#16,#8
 1355              	.LVL121:
 1356 0186 039C     	 ldr r4,[sp,#12]
 1357              	.LVL122:
 1358 0188 5EF82990 	 ldr r9,[lr,r9,lsl#2]
 1359 018c 54F82000 	 ldr r0,[r4,r0,lsl#2]
 1360 0190 019C     	 ldr r4,[sp,#4]
 1361 0192 7A40     	 eors r2,r2,r7
 1362 0194 81EA0A01 	 eor r1,r1,r10
 1363 0198 81EA0C0C 	 eor ip,r1,ip
 1364              	 .loc 1 885 0 discriminator 3
 1365 019c 110E     	 lsrs r1,r2,#24
 884:D:/School/diseratie/SEMS/xmc4800_evaluation_kit/optiga-trust-m/externals/mbedtls/library\aes.c ****         AES_FROUND( X0, X1, X2, X3, Y0, Y1, Y2, Y3 );
 1366              	 .loc 1 884 0 discriminator 3
 1367 019e 83EA0909 	 eor r9,r3,r9
 1368              	.LVL123:
 1369 01a2 54F82110 	 ldr r1,[r4,r1,lsl#2]
 1370 01a6 029C     	 ldr r4,[sp,#8]
 1371              	 .loc 1 885 0 discriminator 3
 1372 01a8 C9F30728 	 ubfx r8,r9,#8,#8
 1373 01ac A246     	 mov r10,r4
 1374 01ae CCF30747 	 ubfx r7,ip,#16,#8
 1375 01b2 CCF30725 	 ubfx r5,ip,#8,#8
 1376 01b6 54F82840 	 ldr r4,[r4,r8,lsl#2]
 1377 01ba 5AF82550 	 ldr r5,[r10,r5,lsl#2]
 1378 01be 5EF82770 	 ldr r7,[lr,r7,lsl#2]
 1379 01c2 0694     	 str r4,[sp,#24]
 1380 01c4 0797     	 str r7,[sp,#28]
 1381 01c6 039C     	 ldr r4,[sp,#12]
 1382 01c8 019F     	 ldr r7,[sp,#4]
 1383 01ca 0895     	 str r5,[sp,#32]
 1384 01cc 5FFA89F3 	 uxtb r3,r9
 1385 01d0 5BF8105C 	 ldr r5,[fp,#-16]
 1386 01d4 54F82330 	 ldr r3,[r4,r3,lsl#2]
 1387 01d8 4140     	 eors r1,r1,r0
 1388 01da C2F30740 	 ubfx r0,r2,#16,#8
 1389 01de B846     	 mov r8,r7
 1390 01e0 5EF820A0 	 ldr r10,[lr,r0,lsl#2]
 1391 01e4 57F82670 	 ldr r7,[r7,r6,lsl#2]
 1392 01e8 6940     	 eors r1,r1,r5
 1393 01ea 5FFA8CF0 	 uxtb r0,ip
 1394 01ee 4FEA1965 	 lsr r5,r9,#24
 1395 01f2 54F82000 	 ldr r0,[r4,r0,lsl#2]
 1396 01f6 58F82560 	 ldr r6,[r8,r5,lsl#2]
 1397 01fa 029D     	 ldr r5,[sp,#8]
 1398 01fc 5F40     	 eors r7,r7,r3
 1399 01fe 5BF80C3C 	 ldr r3,[fp,#-12]
 1400 0202 7B40     	 eors r3,r3,r7
 1401 0204 4746     	 mov r7,r8
 1402 0206 80EA0608 	 eor r8,r0,r6
 1403 020a C2F30720 	 ubfx r0,r2,#8,#8
 1404 020e D2B2     	 uxtb r2,r2
 1405              	.LVL124:
 1406 0210 4FEA1C6C 	 lsr ip,ip,#24
 1407              	.LVL125:
 1408 0214 54F82220 	 ldr r2,[r4,r2,lsl#2]
 1409 0218 5BF8084C 	 ldr r4,[fp,#-8]
 1410 021c 55F82060 	 ldr r6,[r5,r0,lsl#2]
 1411 0220 57F82C00 	 ldr r0,[r7,ip,lsl#2]
 1412 0224 029F     	 ldr r7,[sp,#8]
 1413 0226 88EA0408 	 eor r8,r8,r4
 1414 022a 049C     	 ldr r4,[sp,#16]
 1415 022c 4240     	 eors r2,r2,r0
 1416 022e C4F30720 	 ubfx r0,r4,#8,#8
 1417 0232 C4F30744 	 ubfx r4,r4,#16,#8
 1418 0236 57F82070 	 ldr r7,[r7,r0,lsl#2]
 1419 023a 5BF8040C 	 ldr r0,[fp,#-4]
 1420 023e 5EF82440 	 ldr r4,[lr,r4,lsl#2]
 1421 0242 4240     	 eors r2,r2,r0
 1422 0244 0698     	 ldr r0,[sp,#24]
 1423 0246 4140     	 eors r1,r1,r0
 1424 0248 0898     	 ldr r0,[sp,#32]
 1425 024a 7A40     	 eors r2,r2,r7
 1426 024c 079F     	 ldr r7,[sp,#28]
 1427 024e C9F30749 	 ubfx r9,r9,#16,#8
 1428              	.LVL126:
 1429 0252 4340     	 eors r3,r3,r0
 1430 0254 88EA0606 	 eor r6,r8,r6
 1431 0258 81EA070C 	 eor ip,r1,r7
 1432              	.LVL127:
 1433 025c 83EA0A07 	 eor r7,r3,r10
 1434              	.LVL128:
 1435 0260 86EA0403 	 eor r3,r6,r4
 1436 0264 5EF82950 	 ldr r5,[lr,r9,lsl#2]
 1437 0268 0493     	 str r3,[sp,#16]
 1438              	.LVL129:
 882:D:/School/diseratie/SEMS/xmc4800_evaluation_kit/optiga-trust-m/externals/mbedtls/library\aes.c ****     {
 1439              	 .loc 1 882 0 discriminator 3
 1440 026a 059B     	 ldr r3,[sp,#20]
 1441              	.LVL130:
 1442 026c 013B     	 subs r3,r3,#1
 1443              	 .loc 1 885 0 discriminator 3
 1444 026e 82EA0509 	 eor r9,r2,r5
 1445              	.LVL131:
 1446 0272 0BF1200B 	 add fp,fp,#32
 1447              	.LVL132:
 882:D:/School/diseratie/SEMS/xmc4800_evaluation_kit/optiga-trust-m/externals/mbedtls/library\aes.c ****     {
 1448              	 .loc 1 882 0 discriminator 3
 1449 0276 0593     	 str r3,[sp,#20]
 1450 0278 7FF424AF 	 bne .L68
 1451 027c 0B9B     	 ldr r3,[sp,#44]
 1452 027e 099A     	 ldr r2,[sp,#36]
 1453 0280 049E     	 ldr r6,[sp,#16]
 1454 0282 DDF80880 	 ldr r8,[sp,#8]
 1455 0286 03F10063 	 add r3,r3,#134217728
 1456 028a 013B     	 subs r3,r3,#1
 1457 028c 02EB4313 	 add r3,r2,r3,lsl#5
 1458 0290 0993     	 str r3,[sp,#36]
 1459              	.LVL133:
 1460              	.L67:
 1461 0292 039B     	 ldr r3,[sp,#12]
 886:D:/School/diseratie/SEMS/xmc4800_evaluation_kit/optiga-trust-m/externals/mbedtls/library\aes.c ****     }
 887:D:/School/diseratie/SEMS/xmc4800_evaluation_kit/optiga-trust-m/externals/mbedtls/library\aes.c **** 
 888:D:/School/diseratie/SEMS/xmc4800_evaluation_kit/optiga-trust-m/externals/mbedtls/library\aes.c ****     AES_FROUND( Y0, Y1, Y2, Y3, X0, X1, X2, X3 );
 1462              	 .loc 1 888 0
 1463 0294 5FFA8CF5 	 uxtb r5,ip
 1464 0298 4FEA1960 	 lsr r0,r9,#24
 1465 029c 53F82550 	 ldr r5,[r3,r5,lsl#2]
 1466 02a0 019B     	 ldr r3,[sp,#4]
 1467 02a2 5FFA89F4 	 uxtb r4,r9
 1468 02a6 53F82000 	 ldr r0,[r3,r0,lsl#2]
 1469 02aa 039B     	 ldr r3,[sp,#12]
 1470 02ac 53F82440 	 ldr r4,[r3,r4,lsl#2]
 1471 02b0 0494     	 str r4,[sp,#16]
 1472 02b2 019B     	 ldr r3,[sp,#4]
 1473 02b4 039C     	 ldr r4,[sp,#12]
 1474 02b6 4FEA176B 	 lsr fp,r7,#24
 1475 02ba 320E     	 lsrs r2,r6,#24
 1476 02bc F9B2     	 uxtb r1,r7
 1477 02be 53F82BA0 	 ldr r10,[r3,fp,lsl#2]
 1478 02c2 53F82220 	 ldr r2,[r3,r2,lsl#2]
 1479 02c6 54F82110 	 ldr r1,[r4,r1,lsl#2]
 1480 02ca 1C46     	 mov r4,r3
 1481 02cc 099B     	 ldr r3,[sp,#36]
 1482 02ce 85EA000B 	 eor fp,r5,r0
 1483 02d2 1B68     	 ldr r3,[r3]
 1484 02d4 0293     	 str r3,[sp,#8]
 1485 02d6 C7F30720 	 ubfx r0,r7,#8,#8
 1486 02da 4FEA1C63 	 lsr r3,ip,#24
 1487 02de 58F82000 	 ldr r0,[r8,r0,lsl#2]
 1488 02e2 54F82350 	 ldr r5,[r4,r3,lsl#2]
 1489 02e6 0190     	 str r0,[sp,#4]
 1490 02e8 C7F30747 	 ubfx r7,r7,#16,#8
 1491              	.LVL134:
 1492 02ec 039B     	 ldr r3,[sp,#12]
 1493 02ee 5EF82770 	 ldr r7,[lr,r7,lsl#2]
 1494 02f2 0597     	 str r7,[sp,#20]
 1495 02f4 F0B2     	 uxtb r0,r6
 1496 02f6 049F     	 ldr r7,[sp,#16]
 1497 02f8 53F82000 	 ldr r0,[r3,r0,lsl#2]
 1498 02fc 099C     	 ldr r4,[sp,#36]
 1499 02fe CCF30723 	 ubfx r3,ip,#8,#8
 1500 0302 7A40     	 eors r2,r2,r7
 1501 0304 58F82370 	 ldr r7,[r8,r3,lsl#2]
 1502 0308 0397     	 str r7,[sp,#12]
 1503 030a C6F30723 	 ubfx r3,r6,#8,#8
 1504 030e C6F30746 	 ubfx r6,r6,#16,#8
 1505 0312 6940     	 eors r1,r1,r5
 1506 0314 80EA0A0A 	 eor r10,r0,r10
 1507 0318 E568     	 ldr r5,[r4,#12]
 1508 031a 5EF82600 	 ldr r0,[lr,r6,lsl#2]
 1509 031e 6668     	 ldr r6,[r4,#4]
 1510 0320 CCF3074C 	 ubfx ip,ip,#16,#8
 1511              	.LVL135:
 1512 0324 3446     	 mov r4,r6
 1513 0326 6A40     	 eors r2,r2,r5
 1514 0328 C9F30726 	 ubfx r6,r9,#8,#8
 1515 032c C9F30745 	 ubfx r5,r9,#16,#8
 1516 0330 5EF82C70 	 ldr r7,[lr,ip,lsl#2]
 1517 0334 58F82690 	 ldr r9,[r8,r6,lsl#2]
 1518              	.LVL136:
 1519 0338 58F823C0 	 ldr ip,[r8,r3,lsl#2]
 1520 033c 029B     	 ldr r3,[sp,#8]
 1521 033e 5EF82560 	 ldr r6,[lr,r5,lsl#2]
 1522 0342 099D     	 ldr r5,[sp,#36]
 1523 0344 AD68     	 ldr r5,[r5,#8]
 1524 0346 8AEA050A 	 eor r10,r10,r5
 1525 034a 019D     	 ldr r5,[sp,#4]
 1526 034c 8BEA0303 	 eor r3,fp,r3
 1527 0350 6B40     	 eors r3,r3,r5
 1528 0352 039D     	 ldr r5,[sp,#12]
 1529 0354 5840     	 eors r0,r0,r3
 1530              	.LVL137:
 1531 0356 8AEA090A 	 eor r10,r10,r9
 1532 035a 059B     	 ldr r3,[sp,#20]
 1533 035c 6140     	 eors r1,r1,r4
 1534 035e 8AEA0707 	 eor r7,r10,r7
 1535 0362 81EA0C01 	 eor r1,r1,ip
 1536 0366 6A40     	 eors r2,r2,r5
 1537 0368 82EA0305 	 eor r5,r2,r3
 1538 036c 81EA0603 	 eor r3,r1,r6
 1539              	.LVL138:
 889:D:/School/diseratie/SEMS/xmc4800_evaluation_kit/optiga-trust-m/externals/mbedtls/library\aes.c **** 
 890:D:/School/diseratie/SEMS/xmc4800_evaluation_kit/optiga-trust-m/externals/mbedtls/library\aes.c ****     X0 = *RK++ ^ \
 891:D:/School/diseratie/SEMS/xmc4800_evaluation_kit/optiga-trust-m/externals/mbedtls/library\aes.c ****             ( (uint32_t) FSb[ ( Y0       ) & 0xFF ]       ) ^
 892:D:/School/diseratie/SEMS/xmc4800_evaluation_kit/optiga-trust-m/externals/mbedtls/library\aes.c ****             ( (uint32_t) FSb[ ( Y1 >>  8 ) & 0xFF ] <<  8 ) ^
 893:D:/School/diseratie/SEMS/xmc4800_evaluation_kit/optiga-trust-m/externals/mbedtls/library\aes.c ****             ( (uint32_t) FSb[ ( Y2 >> 16 ) & 0xFF ] << 16 ) ^
 894:D:/School/diseratie/SEMS/xmc4800_evaluation_kit/optiga-trust-m/externals/mbedtls/library\aes.c ****             ( (uint32_t) FSb[ ( Y3 >> 24 ) & 0xFF ] << 24 );
 895:D:/School/diseratie/SEMS/xmc4800_evaluation_kit/optiga-trust-m/externals/mbedtls/library\aes.c **** 
 896:D:/School/diseratie/SEMS/xmc4800_evaluation_kit/optiga-trust-m/externals/mbedtls/library\aes.c ****     X1 = *RK++ ^ \
 897:D:/School/diseratie/SEMS/xmc4800_evaluation_kit/optiga-trust-m/externals/mbedtls/library\aes.c ****             ( (uint32_t) FSb[ ( Y1       ) & 0xFF ]       ) ^
 898:D:/School/diseratie/SEMS/xmc4800_evaluation_kit/optiga-trust-m/externals/mbedtls/library\aes.c ****             ( (uint32_t) FSb[ ( Y2 >>  8 ) & 0xFF ] <<  8 ) ^
 899:D:/School/diseratie/SEMS/xmc4800_evaluation_kit/optiga-trust-m/externals/mbedtls/library\aes.c ****             ( (uint32_t) FSb[ ( Y3 >> 16 ) & 0xFF ] << 16 ) ^
 900:D:/School/diseratie/SEMS/xmc4800_evaluation_kit/optiga-trust-m/externals/mbedtls/library\aes.c ****             ( (uint32_t) FSb[ ( Y0 >> 24 ) & 0xFF ] << 24 );
 901:D:/School/diseratie/SEMS/xmc4800_evaluation_kit/optiga-trust-m/externals/mbedtls/library\aes.c **** 
 902:D:/School/diseratie/SEMS/xmc4800_evaluation_kit/optiga-trust-m/externals/mbedtls/library\aes.c ****     X2 = *RK++ ^ \
 903:D:/School/diseratie/SEMS/xmc4800_evaluation_kit/optiga-trust-m/externals/mbedtls/library\aes.c ****             ( (uint32_t) FSb[ ( Y2       ) & 0xFF ]       ) ^
 1540              	 .loc 1 903 0
 1541 0370 F9B2     	 uxtb r1,r7
 1542 0372 0791     	 str r1,[sp,#28]
 904:D:/School/diseratie/SEMS/xmc4800_evaluation_kit/optiga-trust-m/externals/mbedtls/library\aes.c ****             ( (uint32_t) FSb[ ( Y3 >>  8 ) & 0xFF ] <<  8 ) ^
 905:D:/School/diseratie/SEMS/xmc4800_evaluation_kit/optiga-trust-m/externals/mbedtls/library\aes.c ****             ( (uint32_t) FSb[ ( Y0 >> 16 ) & 0xFF ] << 16 ) ^
 906:D:/School/diseratie/SEMS/xmc4800_evaluation_kit/optiga-trust-m/externals/mbedtls/library\aes.c ****             ( (uint32_t) FSb[ ( Y1 >> 24 ) & 0xFF ] << 24 );
 907:D:/School/diseratie/SEMS/xmc4800_evaluation_kit/optiga-trust-m/externals/mbedtls/library\aes.c **** 
 908:D:/School/diseratie/SEMS/xmc4800_evaluation_kit/optiga-trust-m/externals/mbedtls/library\aes.c ****     X3 = *RK++ ^ \
 909:D:/School/diseratie/SEMS/xmc4800_evaluation_kit/optiga-trust-m/externals/mbedtls/library\aes.c ****             ( (uint32_t) FSb[ ( Y3       ) & 0xFF ]       ) ^
 910:D:/School/diseratie/SEMS/xmc4800_evaluation_kit/optiga-trust-m/externals/mbedtls/library\aes.c ****             ( (uint32_t) FSb[ ( Y0 >>  8 ) & 0xFF ] <<  8 ) ^
 911:D:/School/diseratie/SEMS/xmc4800_evaluation_kit/optiga-trust-m/externals/mbedtls/library\aes.c ****             ( (uint32_t) FSb[ ( Y1 >> 16 ) & 0xFF ] << 16 ) ^
 912:D:/School/diseratie/SEMS/xmc4800_evaluation_kit/optiga-trust-m/externals/mbedtls/library\aes.c ****             ( (uint32_t) FSb[ ( Y2 >> 24 ) & 0xFF ] << 24 );
 1543              	 .loc 1 912 0
 1544 0374 390E     	 lsrs r1,r7,#24
 1545 0376 0C46     	 mov r4,r1
 891:D:/School/diseratie/SEMS/xmc4800_evaluation_kit/optiga-trust-m/externals/mbedtls/library\aes.c ****             ( (uint32_t) FSb[ ( Y1 >>  8 ) & 0xFF ] <<  8 ) ^
 1546              	 .loc 1 891 0
 1547 0378 5FFA80FB 	 uxtb fp,r0
 1548 037c 2049     	 ldr r1,.L74+8
 1549 037e 11F80BB0 	 ldrb fp,[r1,fp]
 1550 0382 0999     	 ldr r1,[sp,#36]
 1551 0384 0969     	 ldr r1,[r1,#16]
 1552 0386 0191     	 str r1,[sp,#4]
 894:D:/School/diseratie/SEMS/xmc4800_evaluation_kit/optiga-trust-m/externals/mbedtls/library\aes.c **** 
 1553              	 .loc 1 894 0
 1554 0388 2A0E     	 lsrs r2,r5,#24
 1555 038a 1D49     	 ldr r1,.L74+8
 892:D:/School/diseratie/SEMS/xmc4800_evaluation_kit/optiga-trust-m/externals/mbedtls/library\aes.c ****             ( (uint32_t) FSb[ ( Y2 >> 16 ) & 0xFF ] << 16 ) ^
 1556              	 .loc 1 892 0
 1557 038c C3F3072A 	 ubfx r10,r3,#8,#8
 894:D:/School/diseratie/SEMS/xmc4800_evaluation_kit/optiga-trust-m/externals/mbedtls/library\aes.c **** 
 1558              	 .loc 1 894 0
 1559 0390 8A5C     	 ldrb r2,[r1,r2]
 892:D:/School/diseratie/SEMS/xmc4800_evaluation_kit/optiga-trust-m/externals/mbedtls/library\aes.c ****             ( (uint32_t) FSb[ ( Y2 >> 16 ) & 0xFF ] << 16 ) ^
 1560              	 .loc 1 892 0
 1561 0392 11F80AA0 	 ldrb r10,[r1,r10]
 893:D:/School/diseratie/SEMS/xmc4800_evaluation_kit/optiga-trust-m/externals/mbedtls/library\aes.c ****             ( (uint32_t) FSb[ ( Y3 >> 24 ) & 0xFF ] << 24 );
 1562              	 .loc 1 893 0
 1563 0396 1A49     	 ldr r1,.L74+8
 892:D:/School/diseratie/SEMS/xmc4800_evaluation_kit/optiga-trust-m/externals/mbedtls/library\aes.c ****             ( (uint32_t) FSb[ ( Y2 >> 16 ) & 0xFF ] << 16 ) ^
 1564              	 .loc 1 892 0
 1565 0398 CDF808A0 	 str r10,[sp,#8]
 893:D:/School/diseratie/SEMS/xmc4800_evaluation_kit/optiga-trust-m/externals/mbedtls/library\aes.c ****             ( (uint32_t) FSb[ ( Y3 >> 24 ) & 0xFF ] << 24 );
 1566              	 .loc 1 893 0
 1567 039c C7F30749 	 ubfx r9,r7,#16,#8
 897:D:/School/diseratie/SEMS/xmc4800_evaluation_kit/optiga-trust-m/externals/mbedtls/library\aes.c ****             ( (uint32_t) FSb[ ( Y2 >>  8 ) & 0xFF ] <<  8 ) ^
 1568              	 .loc 1 897 0
 1569 03a0 5FFA83F8 	 uxtb r8,r3
 893:D:/School/diseratie/SEMS/xmc4800_evaluation_kit/optiga-trust-m/externals/mbedtls/library\aes.c ****             ( (uint32_t) FSb[ ( Y3 >> 24 ) & 0xFF ] << 24 );
 1570              	 .loc 1 893 0
 1571 03a4 11F80990 	 ldrb r9,[r1,r9]
 897:D:/School/diseratie/SEMS/xmc4800_evaluation_kit/optiga-trust-m/externals/mbedtls/library\aes.c ****             ( (uint32_t) FSb[ ( Y2 >>  8 ) & 0xFF ] <<  8 ) ^
 1572              	 .loc 1 897 0
 1573 03a8 1549     	 ldr r1,.L74+8
 893:D:/School/diseratie/SEMS/xmc4800_evaluation_kit/optiga-trust-m/externals/mbedtls/library\aes.c ****             ( (uint32_t) FSb[ ( Y3 >> 24 ) & 0xFF ] << 24 );
 1574              	 .loc 1 893 0
 1575 03aa CDF80C90 	 str r9,[sp,#12]
 900:D:/School/diseratie/SEMS/xmc4800_evaluation_kit/optiga-trust-m/externals/mbedtls/library\aes.c **** 
 1576              	 .loc 1 900 0
 1577 03ae 4FEA106C 	 lsr ip,r0,#24
 897:D:/School/diseratie/SEMS/xmc4800_evaluation_kit/optiga-trust-m/externals/mbedtls/library\aes.c ****             ( (uint32_t) FSb[ ( Y2 >>  8 ) & 0xFF ] <<  8 ) ^
 1578              	 .loc 1 897 0
 1579 03b2 11F80880 	 ldrb r8,[r1,r8]
 900:D:/School/diseratie/SEMS/xmc4800_evaluation_kit/optiga-trust-m/externals/mbedtls/library\aes.c **** 
 1580              	 .loc 1 900 0
 1581 03b6 11F80CC0 	 ldrb ip,[r1,ip]
 898:D:/School/diseratie/SEMS/xmc4800_evaluation_kit/optiga-trust-m/externals/mbedtls/library\aes.c ****             ( (uint32_t) FSb[ ( Y3 >> 16 ) & 0xFF ] << 16 ) ^
 1582              	 .loc 1 898 0
 1583 03ba 1149     	 ldr r1,.L74+8
 900:D:/School/diseratie/SEMS/xmc4800_evaluation_kit/optiga-trust-m/externals/mbedtls/library\aes.c **** 
 1584              	 .loc 1 900 0
 1585 03bc CDF810C0 	 str ip,[sp,#16]
 898:D:/School/diseratie/SEMS/xmc4800_evaluation_kit/optiga-trust-m/externals/mbedtls/library\aes.c ****             ( (uint32_t) FSb[ ( Y3 >> 16 ) & 0xFF ] << 16 ) ^
 1586              	 .loc 1 898 0
 1587 03c0 C7F3072E 	 ubfx lr,r7,#8,#8
 899:D:/School/diseratie/SEMS/xmc4800_evaluation_kit/optiga-trust-m/externals/mbedtls/library\aes.c ****             ( (uint32_t) FSb[ ( Y0 >> 24 ) & 0xFF ] << 24 );
 1588              	 .loc 1 899 0
 1589 03c4 C5F30746 	 ubfx r6,r5,#16,#8
 898:D:/School/diseratie/SEMS/xmc4800_evaluation_kit/optiga-trust-m/externals/mbedtls/library\aes.c ****             ( (uint32_t) FSb[ ( Y3 >> 16 ) & 0xFF ] << 16 ) ^
 1590              	 .loc 1 898 0
 1591 03c8 11F80EE0 	 ldrb lr,[r1,lr]
 899:D:/School/diseratie/SEMS/xmc4800_evaluation_kit/optiga-trust-m/externals/mbedtls/library\aes.c ****             ( (uint32_t) FSb[ ( Y0 >> 24 ) & 0xFF ] << 24 );
 1592              	 .loc 1 899 0
 1593 03cc 0C49     	 ldr r1,.L74+8
 898:D:/School/diseratie/SEMS/xmc4800_evaluation_kit/optiga-trust-m/externals/mbedtls/library\aes.c ****             ( (uint32_t) FSb[ ( Y3 >> 16 ) & 0xFF ] << 16 ) ^
 1594              	 .loc 1 898 0
 1595 03ce CDF814E0 	 str lr,[sp,#20]
 899:D:/School/diseratie/SEMS/xmc4800_evaluation_kit/optiga-trust-m/externals/mbedtls/library\aes.c ****             ( (uint32_t) FSb[ ( Y0 >> 24 ) & 0xFF ] << 24 );
 1596              	 .loc 1 899 0
 1597 03d2 8E5D     	 ldrb r6,[r1,r6]
 1598 03d4 0696     	 str r6,[sp,#24]
 903:D:/School/diseratie/SEMS/xmc4800_evaluation_kit/optiga-trust-m/externals/mbedtls/library\aes.c ****             ( (uint32_t) FSb[ ( Y3 >>  8 ) & 0xFF ] <<  8 ) ^
 1599              	 .loc 1 903 0
 1600 03d6 079E     	 ldr r6,[sp,#28]
 906:D:/School/diseratie/SEMS/xmc4800_evaluation_kit/optiga-trust-m/externals/mbedtls/library\aes.c **** 
 1601              	 .loc 1 906 0
 1602 03d8 1F0E     	 lsrs r7,r3,#24
 1603              	.LVL139:
 903:D:/School/diseratie/SEMS/xmc4800_evaluation_kit/optiga-trust-m/externals/mbedtls/library\aes.c ****             ( (uint32_t) FSb[ ( Y3 >>  8 ) & 0xFF ] <<  8 ) ^
 1604              	 .loc 1 903 0
 1605 03da 11F806E0 	 ldrb lr,[r1,r6]
 1606 03de 099E     	 ldr r6,[sp,#36]
 906:D:/School/diseratie/SEMS/xmc4800_evaluation_kit/optiga-trust-m/externals/mbedtls/library\aes.c **** 
 1607              	 .loc 1 906 0
 1608 03e0 CF5D     	 ldrb r7,[r1,r7]
 1609 03e2 7169     	 ldr r1,[r6,#20]
 1610 03e4 019E     	 ldr r6,[sp,#4]
 1611 03e6 8BEA060B 	 eor fp,fp,r6
 1612 03ea 8BEA026B 	 eor fp,fp,r2,lsl#24
 1613 03ee 099A     	 ldr r2,[sp,#36]
 904:D:/School/diseratie/SEMS/xmc4800_evaluation_kit/optiga-trust-m/externals/mbedtls/library\aes.c ****             ( (uint32_t) FSb[ ( Y0 >> 16 ) & 0xFF ] << 16 ) ^
 1614              	 .loc 1 904 0
 1615 03f0 C5F3072C 	 ubfx ip,r5,#8,#8
 1616 03f4 9669     	 ldr r6,[r2,#24]
 1617 03f6 09E0     	 b .L75
 1618              	.L76:
 1619              	 .align 2
 1620              	.L74:
 1621 03f8 00000000 	 .word .LANCHOR7
 1622 03fc 00000000 	 .word .LANCHOR10
 1623 0400 00000000 	 .word .LANCHOR1
 1624 0404 00000000 	 .word .LANCHOR8
 1625 0408 00000000 	 .word .LANCHOR9
 1626              	.L75:
 909:D:/School/diseratie/SEMS/xmc4800_evaluation_kit/optiga-trust-m/externals/mbedtls/library\aes.c ****             ( (uint32_t) FSb[ ( Y0 >>  8 ) & 0xFF ] <<  8 ) ^
 1627              	 .loc 1 909 0
 1628 040c EDB2     	 uxtb r5,r5
 1629              	.LVL140:
 1630 040e 88EA0101 	 eor r1,r8,r1
 1631 0412 9046     	 mov r8,r2
 904:D:/School/diseratie/SEMS/xmc4800_evaluation_kit/optiga-trust-m/externals/mbedtls/library\aes.c ****             ( (uint32_t) FSb[ ( Y0 >> 16 ) & 0xFF ] << 16 ) ^
 1632              	 .loc 1 904 0
 1633 0414 384A     	 ldr r2,.L77
 1634 0416 12F80C90 	 ldrb r9,[r2,ip]
 909:D:/School/diseratie/SEMS/xmc4800_evaluation_kit/optiga-trust-m/externals/mbedtls/library\aes.c ****             ( (uint32_t) FSb[ ( Y0 >>  8 ) & 0xFF ] <<  8 ) ^
 1635              	 .loc 1 909 0
 1636 041a 525D     	 ldrb r2,[r2,r5]
 1637 041c D8F81C50 	 ldr r5,[r8,#28]
 1638              	 .loc 1 912 0
 1639 0420 A446     	 mov ip,r4
 911:D:/School/diseratie/SEMS/xmc4800_evaluation_kit/optiga-trust-m/externals/mbedtls/library\aes.c ****             ( (uint32_t) FSb[ ( Y2 >> 24 ) & 0xFF ] << 24 );
 1640              	 .loc 1 911 0
 1641 0422 C3F30743 	 ubfx r3,r3,#16,#8
 1642              	.LVL141:
 1643              	 .loc 1 912 0
 1644 0426 344C     	 ldr r4,.L77
 1645 0428 5540     	 eors r5,r5,r2
 1646 042a 049A     	 ldr r2,[sp,#16]
 1647 042c 14F80CA0 	 ldrb r10,[r4,ip]
 911:D:/School/diseratie/SEMS/xmc4800_evaluation_kit/optiga-trust-m/externals/mbedtls/library\aes.c ****             ( (uint32_t) FSb[ ( Y2 >> 24 ) & 0xFF ] << 24 );
 1648              	 .loc 1 911 0
 1649 0430 14F803C0 	 ldrb ip,[r4,r3]
 910:D:/School/diseratie/SEMS/xmc4800_evaluation_kit/optiga-trust-m/externals/mbedtls/library\aes.c ****             ( (uint32_t) FSb[ ( Y1 >> 16 ) & 0xFF ] << 16 ) ^
 1650              	 .loc 1 910 0
 1651 0434 C0F30723 	 ubfx r3,r0,#8,#8
 905:D:/School/diseratie/SEMS/xmc4800_evaluation_kit/optiga-trust-m/externals/mbedtls/library\aes.c ****             ( (uint32_t) FSb[ ( Y1 >> 24 ) & 0xFF ] << 24 );
 1652              	 .loc 1 905 0
 1653 0438 C0F30740 	 ubfx r0,r0,#16,#8
 1654              	.LVL142:
 1655 043c 81EA0261 	 eor r1,r1,r2,lsl#24
 1656 0440 029A     	 ldr r2,[sp,#8]
 1657 0442 205C     	 ldrb r0,[r4,r0]
 910:D:/School/diseratie/SEMS/xmc4800_evaluation_kit/optiga-trust-m/externals/mbedtls/library\aes.c ****             ( (uint32_t) FSb[ ( Y1 >> 16 ) & 0xFF ] << 16 ) ^
 1658              	 .loc 1 910 0
 1659 0444 E35C     	 ldrb r3,[r4,r3]
 890:D:/School/diseratie/SEMS/xmc4800_evaluation_kit/optiga-trust-m/externals/mbedtls/library\aes.c ****             ( (uint32_t) FSb[ ( Y0       ) & 0xFF ]       ) ^
 1660              	 .loc 1 890 0
 1661 0446 039C     	 ldr r4,[sp,#12]
 1662 0448 8EEA0606 	 eor r6,lr,r6
 1663 044c 85EA0A65 	 eor r5,r5,r10,lsl#24
 1664 0450 86EA0766 	 eor r6,r6,r7,lsl#24
 1665 0454 8BEA0222 	 eor r2,fp,r2,lsl#8
 1666 0458 059F     	 ldr r7,[sp,#20]
 1667 045a 82EA0442 	 eor r2,r2,r4,lsl#16
 1668              	.LVL143:
 1669 045e 85EA0323 	 eor r3,r5,r3,lsl#8
 896:D:/School/diseratie/SEMS/xmc4800_evaluation_kit/optiga-trust-m/externals/mbedtls/library\aes.c ****             ( (uint32_t) FSb[ ( Y1       ) & 0xFF ]       ) ^
 1670              	 .loc 1 896 0
 1671 0462 069C     	 ldr r4,[sp,#24]
 908:D:/School/diseratie/SEMS/xmc4800_evaluation_kit/optiga-trust-m/externals/mbedtls/library\aes.c ****             ( (uint32_t) FSb[ ( Y3       ) & 0xFF ]       ) ^
 1672              	 .loc 1 908 0
 1673 0464 83EA0C43 	 eor r3,r3,ip,lsl#16
 1674 0468 81EA0721 	 eor r1,r1,r7,lsl#8
 1675 046c 86EA0926 	 eor r6,r6,r9,lsl#8
 896:D:/School/diseratie/SEMS/xmc4800_evaluation_kit/optiga-trust-m/externals/mbedtls/library\aes.c ****             ( (uint32_t) FSb[ ( Y1       ) & 0xFF ]       ) ^
 1676              	 .loc 1 896 0
 1677 0470 81EA0444 	 eor r4,r1,r4,lsl#16
 1678              	.LVL144:
 902:D:/School/diseratie/SEMS/xmc4800_evaluation_kit/optiga-trust-m/externals/mbedtls/library\aes.c ****             ( (uint32_t) FSb[ ( Y2       ) & 0xFF ]       ) ^
 1679              	 .loc 1 902 0
 1680 0474 86EA0041 	 eor r1,r6,r0,lsl#16
 1681              	.LVL145:
 913:D:/School/diseratie/SEMS/xmc4800_evaluation_kit/optiga-trust-m/externals/mbedtls/library\aes.c **** 
 914:D:/School/diseratie/SEMS/xmc4800_evaluation_kit/optiga-trust-m/externals/mbedtls/library\aes.c ****     PUT_UINT32_LE( X0, output,  0 );
 915:D:/School/diseratie/SEMS/xmc4800_evaluation_kit/optiga-trust-m/externals/mbedtls/library\aes.c ****     PUT_UINT32_LE( X1, output,  4 );
 916:D:/School/diseratie/SEMS/xmc4800_evaluation_kit/optiga-trust-m/externals/mbedtls/library\aes.c ****     PUT_UINT32_LE( X2, output,  8 );
 917:D:/School/diseratie/SEMS/xmc4800_evaluation_kit/optiga-trust-m/externals/mbedtls/library\aes.c ****     PUT_UINT32_LE( X3, output, 12 );
 1682              	 .loc 1 917 0
 1683 0478 180A     	 lsrs r0,r3,#8
 1684 047a 0190     	 str r0,[sp,#4]
 1685 047c 180C     	 lsrs r0,r3,#16
 1686 047e 0290     	 str r0,[sp,#8]
 1687 0480 180E     	 lsrs r0,r3,#24
 1688 0482 0390     	 str r0,[sp,#12]
 914:D:/School/diseratie/SEMS/xmc4800_evaluation_kit/optiga-trust-m/externals/mbedtls/library\aes.c ****     PUT_UINT32_LE( X1, output,  4 );
 1689              	 .loc 1 914 0
 1690 0484 0A98     	 ldr r0,[sp,#40]
 1691 0486 4FEA122B 	 lsr fp,r2,#8
 1692 048a 4FEA124A 	 lsr r10,r2,#16
 1693 048e 4FEA1269 	 lsr r9,r2,#24
 916:D:/School/diseratie/SEMS/xmc4800_evaluation_kit/optiga-trust-m/externals/mbedtls/library\aes.c ****     PUT_UINT32_LE( X3, output, 12 );
 1694              	 .loc 1 916 0
 1695 0492 0F0A     	 lsrs r7,r1,#8
 1696 0494 0E0C     	 lsrs r6,r1,#16
 1697 0496 0D0E     	 lsrs r5,r1,#24
 914:D:/School/diseratie/SEMS/xmc4800_evaluation_kit/optiga-trust-m/externals/mbedtls/library\aes.c ****     PUT_UINT32_LE( X1, output,  4 );
 1698              	 .loc 1 914 0
 1699 0498 0270     	 strb r2,[r0]
 916:D:/School/diseratie/SEMS/xmc4800_evaluation_kit/optiga-trust-m/externals/mbedtls/library\aes.c ****     PUT_UINT32_LE( X3, output, 12 );
 1700              	 .loc 1 916 0
 1701 049a 0172     	 strb r1,[r0,#8]
 1702              	 .loc 1 917 0
 1703 049c 0373     	 strb r3,[r0,#12]
 915:D:/School/diseratie/SEMS/xmc4800_evaluation_kit/optiga-trust-m/externals/mbedtls/library\aes.c ****     PUT_UINT32_LE( X2, output,  8 );
 1704              	 .loc 1 915 0
 1705 049e 4FEA1428 	 lsr r8,r4,#8
 1706 04a2 4FEA144C 	 lsr ip,r4,#16
 1707 04a6 4FEA146E 	 lsr lr,r4,#24
 1708              	 .loc 1 917 0
 1709 04aa 9DF80420 	 ldrb r2,[sp,#4]
 1710              	.LVL146:
 1711 04ae 9DF80830 	 ldrb r3,[sp,#8]
 1712              	.LVL147:
 1713 04b2 9DF80C10 	 ldrb r1,[sp,#12]
 1714              	.LVL148:
 915:D:/School/diseratie/SEMS/xmc4800_evaluation_kit/optiga-trust-m/externals/mbedtls/library\aes.c ****     PUT_UINT32_LE( X2, output,  8 );
 1715              	 .loc 1 915 0
 1716 04b6 0471     	 strb r4,[r0,#4]
 914:D:/School/diseratie/SEMS/xmc4800_evaluation_kit/optiga-trust-m/externals/mbedtls/library\aes.c ****     PUT_UINT32_LE( X1, output,  4 );
 1717              	 .loc 1 914 0
 1718 04b8 80F801B0 	 strb fp,[r0,#1]
 1719 04bc 80F802A0 	 strb r10,[r0,#2]
 1720 04c0 80F80390 	 strb r9,[r0,#3]
 915:D:/School/diseratie/SEMS/xmc4800_evaluation_kit/optiga-trust-m/externals/mbedtls/library\aes.c ****     PUT_UINT32_LE( X2, output,  8 );
 1721              	 .loc 1 915 0
 1722 04c4 80F80580 	 strb r8,[r0,#5]
 1723 04c8 80F806C0 	 strb ip,[r0,#6]
 1724 04cc 80F807E0 	 strb lr,[r0,#7]
 916:D:/School/diseratie/SEMS/xmc4800_evaluation_kit/optiga-trust-m/externals/mbedtls/library\aes.c ****     PUT_UINT32_LE( X3, output, 12 );
 1725              	 .loc 1 916 0
 1726 04d0 4772     	 strb r7,[r0,#9]
 1727 04d2 8672     	 strb r6,[r0,#10]
 1728 04d4 C572     	 strb r5,[r0,#11]
 1729              	 .loc 1 917 0
 1730 04d6 4273     	 strb r2,[r0,#13]
 1731 04d8 8373     	 strb r3,[r0,#14]
 1732 04da C173     	 strb r1,[r0,#15]
 918:D:/School/diseratie/SEMS/xmc4800_evaluation_kit/optiga-trust-m/externals/mbedtls/library\aes.c **** 
 919:D:/School/diseratie/SEMS/xmc4800_evaluation_kit/optiga-trust-m/externals/mbedtls/library\aes.c ****     return( 0 );
 920:D:/School/diseratie/SEMS/xmc4800_evaluation_kit/optiga-trust-m/externals/mbedtls/library\aes.c **** }
 1733              	 .loc 1 920 0
 1734 04dc 0020     	 movs r0,#0
 1735 04de 0DB0     	 add sp,sp,#52
 1736              	.LCFI14:
 1737              	 .cfi_remember_state
 1738              	 .cfi_def_cfa_offset 36
 1739              	 
 1740 04e0 BDE8F08F 	 pop {r4,r5,r6,r7,r8,r9,r10,fp,pc}
 1741              	.LVL149:
 1742              	.L73:
 1743              	.LCFI15:
 1744              	 .cfi_restore_state
 1745 04e4 054B     	 ldr r3,.L77+4
 1746 04e6 0393     	 str r3,[sp,#12]
 1747 04e8 054B     	 ldr r3,.L77+8
 1748 04ea 0193     	 str r3,[sp,#4]
 1749 04ec DFF81480 	 ldr r8,.L77+12
 1750 04f0 DFF814E0 	 ldr lr,.L77+16
 1751 04f4 CDE6     	 b .L67
 1752              	.L78:
 1753 04f6 00BF     	 .align 2
 1754              	.L77:
 1755 04f8 00000000 	 .word .LANCHOR1
 1756 04fc 00000000 	 .word .LANCHOR7
 1757 0500 00000000 	 .word .LANCHOR10
 1758 0504 00000000 	 .word .LANCHOR8
 1759 0508 00000000 	 .word .LANCHOR9
 1760              	 .cfi_endproc
 1761              	.LFE5:
 1763              	 .section .text.mbedtls_aes_encrypt,"ax",%progbits
 1764              	 .align 2
 1765              	 .global mbedtls_aes_encrypt
 1766              	 .thumb
 1767              	 .thumb_func
 1769              	mbedtls_aes_encrypt:
 1770              	.LFB6:
 921:D:/School/diseratie/SEMS/xmc4800_evaluation_kit/optiga-trust-m/externals/mbedtls/library\aes.c **** #endif /* !MBEDTLS_AES_ENCRYPT_ALT */
 922:D:/School/diseratie/SEMS/xmc4800_evaluation_kit/optiga-trust-m/externals/mbedtls/library\aes.c **** 
 923:D:/School/diseratie/SEMS/xmc4800_evaluation_kit/optiga-trust-m/externals/mbedtls/library\aes.c **** #if !defined(MBEDTLS_DEPRECATED_REMOVED)
 924:D:/School/diseratie/SEMS/xmc4800_evaluation_kit/optiga-trust-m/externals/mbedtls/library\aes.c **** void mbedtls_aes_encrypt( mbedtls_aes_context *ctx,
 925:D:/School/diseratie/SEMS/xmc4800_evaluation_kit/optiga-trust-m/externals/mbedtls/library\aes.c ****                           const unsigned char input[16],
 926:D:/School/diseratie/SEMS/xmc4800_evaluation_kit/optiga-trust-m/externals/mbedtls/library\aes.c ****                           unsigned char output[16] )
 927:D:/School/diseratie/SEMS/xmc4800_evaluation_kit/optiga-trust-m/externals/mbedtls/library\aes.c **** {
 1771              	 .loc 1 927 0
 1772              	 .cfi_startproc
 1773              	 
 1774              	 
 1775              	 
 1776              	.LVL150:
 928:D:/School/diseratie/SEMS/xmc4800_evaluation_kit/optiga-trust-m/externals/mbedtls/library\aes.c ****     mbedtls_internal_aes_encrypt( ctx, input, output );
 1777              	 .loc 1 928 0
 1778 0000 FFF7FEBF 	 b mbedtls_internal_aes_encrypt
 1779              	.LVL151:
 1780              	 .cfi_endproc
 1781              	.LFE6:
 1783              	 .section .text.mbedtls_internal_aes_decrypt,"ax",%progbits
 1784              	 .align 2
 1785              	 .global mbedtls_internal_aes_decrypt
 1786              	 .thumb
 1787              	 .thumb_func
 1789              	mbedtls_internal_aes_decrypt:
 1790              	.LFB7:
 929:D:/School/diseratie/SEMS/xmc4800_evaluation_kit/optiga-trust-m/externals/mbedtls/library\aes.c **** }
 930:D:/School/diseratie/SEMS/xmc4800_evaluation_kit/optiga-trust-m/externals/mbedtls/library\aes.c **** #endif /* !MBEDTLS_DEPRECATED_REMOVED */
 931:D:/School/diseratie/SEMS/xmc4800_evaluation_kit/optiga-trust-m/externals/mbedtls/library\aes.c **** 
 932:D:/School/diseratie/SEMS/xmc4800_evaluation_kit/optiga-trust-m/externals/mbedtls/library\aes.c **** /*
 933:D:/School/diseratie/SEMS/xmc4800_evaluation_kit/optiga-trust-m/externals/mbedtls/library\aes.c ****  * AES-ECB block decryption
 934:D:/School/diseratie/SEMS/xmc4800_evaluation_kit/optiga-trust-m/externals/mbedtls/library\aes.c ****  */
 935:D:/School/diseratie/SEMS/xmc4800_evaluation_kit/optiga-trust-m/externals/mbedtls/library\aes.c **** #if !defined(MBEDTLS_AES_DECRYPT_ALT)
 936:D:/School/diseratie/SEMS/xmc4800_evaluation_kit/optiga-trust-m/externals/mbedtls/library\aes.c **** int mbedtls_internal_aes_decrypt( mbedtls_aes_context *ctx,
 937:D:/School/diseratie/SEMS/xmc4800_evaluation_kit/optiga-trust-m/externals/mbedtls/library\aes.c ****                                   const unsigned char input[16],
 938:D:/School/diseratie/SEMS/xmc4800_evaluation_kit/optiga-trust-m/externals/mbedtls/library\aes.c ****                                   unsigned char output[16] )
 939:D:/School/diseratie/SEMS/xmc4800_evaluation_kit/optiga-trust-m/externals/mbedtls/library\aes.c **** {
 1791              	 .loc 1 939 0
 1792              	 .cfi_startproc
 1793              	 
 1794              	 
 1795              	.LVL152:
 1796 0000 2DE9F04F 	 push {r4,r5,r6,r7,r8,r9,r10,fp,lr}
 1797              	.LCFI16:
 1798              	 .cfi_def_cfa_offset 36
 1799              	 .cfi_offset 4,-36
 1800              	 .cfi_offset 5,-32
 1801              	 .cfi_offset 6,-28
 1802              	 .cfi_offset 7,-24
 1803              	 .cfi_offset 8,-20
 1804              	 .cfi_offset 9,-16
 1805              	 .cfi_offset 10,-12
 1806              	 .cfi_offset 11,-8
 1807              	 .cfi_offset 14,-4
 940:D:/School/diseratie/SEMS/xmc4800_evaluation_kit/optiga-trust-m/externals/mbedtls/library\aes.c ****     int i;
 941:D:/School/diseratie/SEMS/xmc4800_evaluation_kit/optiga-trust-m/externals/mbedtls/library\aes.c ****     uint32_t *RK, X0, X1, X2, X3, Y0, Y1, Y2, Y3;
 942:D:/School/diseratie/SEMS/xmc4800_evaluation_kit/optiga-trust-m/externals/mbedtls/library\aes.c **** 
 943:D:/School/diseratie/SEMS/xmc4800_evaluation_kit/optiga-trust-m/externals/mbedtls/library\aes.c ****     RK = ctx->rk;
 944:D:/School/diseratie/SEMS/xmc4800_evaluation_kit/optiga-trust-m/externals/mbedtls/library\aes.c **** 
 945:D:/School/diseratie/SEMS/xmc4800_evaluation_kit/optiga-trust-m/externals/mbedtls/library\aes.c ****     GET_UINT32_LE( X0, input,  0 ); X0 ^= *RK++;
 946:D:/School/diseratie/SEMS/xmc4800_evaluation_kit/optiga-trust-m/externals/mbedtls/library\aes.c ****     GET_UINT32_LE( X1, input,  4 ); X1 ^= *RK++;
 947:D:/School/diseratie/SEMS/xmc4800_evaluation_kit/optiga-trust-m/externals/mbedtls/library\aes.c ****     GET_UINT32_LE( X2, input,  8 ); X2 ^= *RK++;
 948:D:/School/diseratie/SEMS/xmc4800_evaluation_kit/optiga-trust-m/externals/mbedtls/library\aes.c ****     GET_UINT32_LE( X3, input, 12 ); X3 ^= *RK++;
 949:D:/School/diseratie/SEMS/xmc4800_evaluation_kit/optiga-trust-m/externals/mbedtls/library\aes.c **** 
 950:D:/School/diseratie/SEMS/xmc4800_evaluation_kit/optiga-trust-m/externals/mbedtls/library\aes.c ****     for( i = ( ctx->nr >> 1 ) - 1; i > 0; i-- )
 1808              	 .loc 1 950 0
 1809 0004 41C8     	 ldmia r0,{r0,r6}
 1810              	.LVL153:
 939:D:/School/diseratie/SEMS/xmc4800_evaluation_kit/optiga-trust-m/externals/mbedtls/library\aes.c ****     int i;
 1811              	 .loc 1 939 0
 1812 0006 8DB0     	 sub sp,sp,#52
 1813              	.LCFI17:
 1814              	 .cfi_def_cfa_offset 88
 948:D:/School/diseratie/SEMS/xmc4800_evaluation_kit/optiga-trust-m/externals/mbedtls/library\aes.c **** 
 1815              	 .loc 1 948 0
 1816 0008 91F80EC0 	 ldrb ip,[r1,#14]
 945:D:/School/diseratie/SEMS/xmc4800_evaluation_kit/optiga-trust-m/externals/mbedtls/library\aes.c ****     GET_UINT32_LE( X1, input,  4 ); X1 ^= *RK++;
 1817              	 .loc 1 945 0
 1818 000c 8B78     	 ldrb r3,[r1,#2]
 946:D:/School/diseratie/SEMS/xmc4800_evaluation_kit/optiga-trust-m/externals/mbedtls/library\aes.c ****     GET_UINT32_LE( X2, input,  8 ); X2 ^= *RK++;
 1819              	 .loc 1 946 0
 1820 000e 8F79     	 ldrb r7,[r1,#6]
 947:D:/School/diseratie/SEMS/xmc4800_evaluation_kit/optiga-trust-m/externals/mbedtls/library\aes.c ****     GET_UINT32_LE( X3, input, 12 ); X3 ^= *RK++;
 1821              	 .loc 1 947 0
 1822 0010 8D7A     	 ldrb r5,[r1,#10]
 946:D:/School/diseratie/SEMS/xmc4800_evaluation_kit/optiga-trust-m/externals/mbedtls/library\aes.c ****     GET_UINT32_LE( X2, input,  8 ); X2 ^= *RK++;
 1823              	 .loc 1 946 0
 1824 0012 91F80590 	 ldrb r9,[r1,#5]
 947:D:/School/diseratie/SEMS/xmc4800_evaluation_kit/optiga-trust-m/externals/mbedtls/library\aes.c ****     GET_UINT32_LE( X3, input, 12 ); X3 ^= *RK++;
 1825              	 .loc 1 947 0
 1826 0016 91F80980 	 ldrb r8,[r1,#9]
 948:D:/School/diseratie/SEMS/xmc4800_evaluation_kit/optiga-trust-m/externals/mbedtls/library\aes.c **** 
 1827              	 .loc 1 948 0
 1828 001a 91F80DB0 	 ldrb fp,[r1,#13]
 945:D:/School/diseratie/SEMS/xmc4800_evaluation_kit/optiga-trust-m/externals/mbedtls/library\aes.c ****     GET_UINT32_LE( X1, input,  4 ); X1 ^= *RK++;
 1829              	 .loc 1 945 0
 1830 001e 91F801E0 	 ldrb lr,[r1,#1]
 1831              	 .loc 1 950 0
 1832 0022 0190     	 str r0,[sp,#4]
 946:D:/School/diseratie/SEMS/xmc4800_evaluation_kit/optiga-trust-m/externals/mbedtls/library\aes.c ****     GET_UINT32_LE( X2, input,  8 ); X2 ^= *RK++;
 1833              	 .loc 1 946 0
 1834 0024 0879     	 ldrb r0,[r1,#4]
 1835 0026 0090     	 str r0,[sp]
 945:D:/School/diseratie/SEMS/xmc4800_evaluation_kit/optiga-trust-m/externals/mbedtls/library\aes.c ****     GET_UINT32_LE( X1, input,  4 ); X1 ^= *RK++;
 1836              	 .loc 1 945 0
 1837 0028 1B04     	 lsls r3,r3,#16
 946:D:/School/diseratie/SEMS/xmc4800_evaluation_kit/optiga-trust-m/externals/mbedtls/library\aes.c ****     GET_UINT32_LE( X2, input,  8 ); X2 ^= *RK++;
 1838              	 .loc 1 946 0
 1839 002a 3F04     	 lsls r7,r7,#16
 948:D:/School/diseratie/SEMS/xmc4800_evaluation_kit/optiga-trust-m/externals/mbedtls/library\aes.c **** 
 1840              	 .loc 1 948 0
 1841 002c 4FEA0C40 	 lsl r0,ip,#16
 947:D:/School/diseratie/SEMS/xmc4800_evaluation_kit/optiga-trust-m/externals/mbedtls/library\aes.c ****     GET_UINT32_LE( X3, input, 12 ); X3 ^= *RK++;
 1842              	 .loc 1 947 0
 1843 0030 2D04     	 lsls r5,r5,#16
 1844 0032 91F808A0 	 ldrb r10,[r1,#8]
 945:D:/School/diseratie/SEMS/xmc4800_evaluation_kit/optiga-trust-m/externals/mbedtls/library\aes.c ****     GET_UINT32_LE( X1, input,  4 ); X1 ^= *RK++;
 1845              	 .loc 1 945 0
 1846 0036 0C78     	 ldrb r4,[r1]
 939:D:/School/diseratie/SEMS/xmc4800_evaluation_kit/optiga-trust-m/externals/mbedtls/library\aes.c ****     int i;
 1847              	 .loc 1 939 0
 1848 0038 0A92     	 str r2,[sp,#40]
 1849 003a 47EA092C 	 orr ip,r7,r9,lsl#8
 1850 003e 43EA0E2E 	 orr lr,r3,lr,lsl#8
 945:D:/School/diseratie/SEMS/xmc4800_evaluation_kit/optiga-trust-m/externals/mbedtls/library\aes.c ****     GET_UINT32_LE( X1, input,  4 ); X1 ^= *RK++;
 1851              	 .loc 1 945 0
 1852 0042 91F80390 	 ldrb r9,[r1,#3]
 948:D:/School/diseratie/SEMS/xmc4800_evaluation_kit/optiga-trust-m/externals/mbedtls/library\aes.c **** 
 1853              	 .loc 1 948 0
 1854 0046 0B7B     	 ldrb r3,[r1,#12]
 947:D:/School/diseratie/SEMS/xmc4800_evaluation_kit/optiga-trust-m/externals/mbedtls/library\aes.c ****     GET_UINT32_LE( X3, input, 12 ); X3 ^= *RK++;
 1855              	 .loc 1 947 0
 1856 0048 CF7A     	 ldrb r7,[r1,#11]
 1857 004a 45EA0825 	 orr r5,r5,r8,lsl#8
 1858 004e 40EA0B20 	 orr r0,r0,fp,lsl#8
 946:D:/School/diseratie/SEMS/xmc4800_evaluation_kit/optiga-trust-m/externals/mbedtls/library\aes.c ****     GET_UINT32_LE( X2, input,  8 ); X2 ^= *RK++;
 1859              	 .loc 1 946 0
 1860 0052 91F80780 	 ldrb r8,[r1,#7]
 948:D:/School/diseratie/SEMS/xmc4800_evaluation_kit/optiga-trust-m/externals/mbedtls/library\aes.c **** 
 1861              	 .loc 1 948 0
 1862 0056 91F80FB0 	 ldrb fp,[r1,#15]
 1863              	 .loc 1 950 0
 1864 005a 0199     	 ldr r1,[sp,#4]
 1865              	.LVL154:
 1866 005c 4910     	 asrs r1,r1,#1
 1867 005e 0B91     	 str r1,[sp,#44]
 948:D:/School/diseratie/SEMS/xmc4800_evaluation_kit/optiga-trust-m/externals/mbedtls/library\aes.c **** 
 1868              	 .loc 1 948 0
 1869 0060 1843     	 orrs r0,r0,r3
 1870              	 .loc 1 950 0
 1871 0062 0B9B     	 ldr r3,[sp,#44]
 946:D:/School/diseratie/SEMS/xmc4800_evaluation_kit/optiga-trust-m/externals/mbedtls/library\aes.c ****     GET_UINT32_LE( X2, input,  8 ); X2 ^= *RK++;
 1872              	 .loc 1 946 0
 1873 0064 0099     	 ldr r1,[sp]
 1874              	 .loc 1 950 0
 1875 0066 013B     	 subs r3,r3,#1
 948:D:/School/diseratie/SEMS/xmc4800_evaluation_kit/optiga-trust-m/externals/mbedtls/library\aes.c **** 
 1876              	 .loc 1 948 0
 1877 0068 40EA0B6B 	 orr fp,r0,fp,lsl#24
 1878              	 .loc 1 950 0
 1879 006c 0593     	 str r3,[sp,#20]
 1880 006e 1846     	 mov r0,r3
 945:D:/School/diseratie/SEMS/xmc4800_evaluation_kit/optiga-trust-m/externals/mbedtls/library\aes.c ****     GET_UINT32_LE( X1, input,  4 ); X1 ^= *RK++;
 1881              	 .loc 1 945 0
 1882 0070 4EEA0404 	 orr r4,lr,r4
 1883 0074 3368     	 ldr r3,[r6]
 1884 0076 44EA0964 	 orr r4,r4,r9,lsl#24
 1885              	.LVL155:
 946:D:/School/diseratie/SEMS/xmc4800_evaluation_kit/optiga-trust-m/externals/mbedtls/library\aes.c ****     GET_UINT32_LE( X2, input,  8 ); X2 ^= *RK++;
 1886              	 .loc 1 946 0
 1887 007a 4CEA010C 	 orr ip,ip,r1
 945:D:/School/diseratie/SEMS/xmc4800_evaluation_kit/optiga-trust-m/externals/mbedtls/library\aes.c ****     GET_UINT32_LE( X1, input,  4 ); X1 ^= *RK++;
 1888              	 .loc 1 945 0
 1889 007e 5C40     	 eors r4,r4,r3
 1890              	.LVL156:
 946:D:/School/diseratie/SEMS/xmc4800_evaluation_kit/optiga-trust-m/externals/mbedtls/library\aes.c ****     GET_UINT32_LE( X2, input,  8 ); X2 ^= *RK++;
 1891              	 .loc 1 946 0
 1892 0080 7368     	 ldr r3,[r6,#4]
 948:D:/School/diseratie/SEMS/xmc4800_evaluation_kit/optiga-trust-m/externals/mbedtls/library\aes.c **** 
 1893              	 .loc 1 948 0
 1894 0082 F168     	 ldr r1,[r6,#12]
 1895 0084 DFF86493 	 ldr r9,.L87+12
 947:D:/School/diseratie/SEMS/xmc4800_evaluation_kit/optiga-trust-m/externals/mbedtls/library\aes.c ****     GET_UINT32_LE( X3, input, 12 ); X3 ^= *RK++;
 1896              	 .loc 1 947 0
 1897 0088 45EA0A05 	 orr r5,r5,r10
 948:D:/School/diseratie/SEMS/xmc4800_evaluation_kit/optiga-trust-m/externals/mbedtls/library\aes.c **** 
 1898              	 .loc 1 948 0
 1899 008c 06F11002 	 add r2,r6,#16
 1900              	.LVL157:
 946:D:/School/diseratie/SEMS/xmc4800_evaluation_kit/optiga-trust-m/externals/mbedtls/library\aes.c ****     GET_UINT32_LE( X2, input,  8 ); X2 ^= *RK++;
 1901              	 .loc 1 946 0
 1902 0090 4CEA086A 	 orr r10,ip,r8,lsl#24
 1903              	.LVL158:
 948:D:/School/diseratie/SEMS/xmc4800_evaluation_kit/optiga-trust-m/externals/mbedtls/library\aes.c **** 
 1904              	 .loc 1 948 0
 1905 0094 0992     	 str r2,[sp,#36]
 946:D:/School/diseratie/SEMS/xmc4800_evaluation_kit/optiga-trust-m/externals/mbedtls/library\aes.c ****     GET_UINT32_LE( X2, input,  8 ); X2 ^= *RK++;
 1906              	 .loc 1 946 0
 1907 0096 8AEA030A 	 eor r10,r10,r3
 1908              	.LVL159:
 1909 009a D14A     	 ldr r2,.L87
