   1              	 .syntax unified
   2              	 .cpu cortex-m4
   3              	 .eabi_attribute 27,3
   4              	 .fpu fpv4-sp-d16
   5              	 .eabi_attribute 20,1
   6              	 .eabi_attribute 21,1
   7              	 .eabi_attribute 23,3
   8              	 .eabi_attribute 24,1
   9              	 .eabi_attribute 25,1
  10              	 .eabi_attribute 26,1
  11              	 .eabi_attribute 30,2
  12              	 .eabi_attribute 34,1
  13              	 .eabi_attribute 18,4
  14              	 .thumb
  15              	 .file "sha256.c"
  16              	 .text
  17              	.Ltext0:
  18              	 .cfi_sections .debug_frame
  19              	 .section .text.mbedtls_sha256_init,"ax",%progbits
  20              	 .align 2
  21              	 .global mbedtls_sha256_init
  22              	 .thumb
  23              	 .thumb_func
  25              	mbedtls_sha256_init:
  26              	.LFB0:
  27              	 .file 1 "D:/School/diseratie/SEMS/xmc4800_evaluation_kit/optiga-trust-m/externals/mbedtls/library/sha256.c"
   1:D:/School/diseratie/SEMS/xmc4800_evaluation_kit/optiga-trust-m/externals/mbedtls/library\sha256.c **** /*
   2:D:/School/diseratie/SEMS/xmc4800_evaluation_kit/optiga-trust-m/externals/mbedtls/library\sha256.c ****  *  FIPS-180-2 compliant SHA-256 implementation
   3:D:/School/diseratie/SEMS/xmc4800_evaluation_kit/optiga-trust-m/externals/mbedtls/library\sha256.c ****  *
   4:D:/School/diseratie/SEMS/xmc4800_evaluation_kit/optiga-trust-m/externals/mbedtls/library\sha256.c ****  *  Copyright (C) 2006-2015, ARM Limited, All Rights Reserved
   5:D:/School/diseratie/SEMS/xmc4800_evaluation_kit/optiga-trust-m/externals/mbedtls/library\sha256.c ****  *  SPDX-License-Identifier: Apache-2.0
   6:D:/School/diseratie/SEMS/xmc4800_evaluation_kit/optiga-trust-m/externals/mbedtls/library\sha256.c ****  *
   7:D:/School/diseratie/SEMS/xmc4800_evaluation_kit/optiga-trust-m/externals/mbedtls/library\sha256.c ****  *  Licensed under the Apache License, Version 2.0 (the "License"); you may
   8:D:/School/diseratie/SEMS/xmc4800_evaluation_kit/optiga-trust-m/externals/mbedtls/library\sha256.c ****  *  not use this file except in compliance with the License.
   9:D:/School/diseratie/SEMS/xmc4800_evaluation_kit/optiga-trust-m/externals/mbedtls/library\sha256.c ****  *  You may obtain a copy of the License at
  10:D:/School/diseratie/SEMS/xmc4800_evaluation_kit/optiga-trust-m/externals/mbedtls/library\sha256.c ****  *
  11:D:/School/diseratie/SEMS/xmc4800_evaluation_kit/optiga-trust-m/externals/mbedtls/library\sha256.c ****  *  http://www.apache.org/licenses/LICENSE-2.0
  12:D:/School/diseratie/SEMS/xmc4800_evaluation_kit/optiga-trust-m/externals/mbedtls/library\sha256.c ****  *
  13:D:/School/diseratie/SEMS/xmc4800_evaluation_kit/optiga-trust-m/externals/mbedtls/library\sha256.c ****  *  Unless required by applicable law or agreed to in writing, software
  14:D:/School/diseratie/SEMS/xmc4800_evaluation_kit/optiga-trust-m/externals/mbedtls/library\sha256.c ****  *  distributed under the License is distributed on an "AS IS" BASIS, WITHOUT
  15:D:/School/diseratie/SEMS/xmc4800_evaluation_kit/optiga-trust-m/externals/mbedtls/library\sha256.c ****  *  WARRANTIES OR CONDITIONS OF ANY KIND, either express or implied.
  16:D:/School/diseratie/SEMS/xmc4800_evaluation_kit/optiga-trust-m/externals/mbedtls/library\sha256.c ****  *  See the License for the specific language governing permissions and
  17:D:/School/diseratie/SEMS/xmc4800_evaluation_kit/optiga-trust-m/externals/mbedtls/library\sha256.c ****  *  limitations under the License.
  18:D:/School/diseratie/SEMS/xmc4800_evaluation_kit/optiga-trust-m/externals/mbedtls/library\sha256.c ****  *
  19:D:/School/diseratie/SEMS/xmc4800_evaluation_kit/optiga-trust-m/externals/mbedtls/library\sha256.c ****  *  This file is part of mbed TLS (https://tls.mbed.org)
  20:D:/School/diseratie/SEMS/xmc4800_evaluation_kit/optiga-trust-m/externals/mbedtls/library\sha256.c ****  */
  21:D:/School/diseratie/SEMS/xmc4800_evaluation_kit/optiga-trust-m/externals/mbedtls/library\sha256.c **** /*
  22:D:/School/diseratie/SEMS/xmc4800_evaluation_kit/optiga-trust-m/externals/mbedtls/library\sha256.c ****  *  The SHA-256 Secure Hash Standard was published by NIST in 2002.
  23:D:/School/diseratie/SEMS/xmc4800_evaluation_kit/optiga-trust-m/externals/mbedtls/library\sha256.c ****  *
  24:D:/School/diseratie/SEMS/xmc4800_evaluation_kit/optiga-trust-m/externals/mbedtls/library\sha256.c ****  *  http://csrc.nist.gov/publications/fips/fips180-2/fips180-2.pdf
  25:D:/School/diseratie/SEMS/xmc4800_evaluation_kit/optiga-trust-m/externals/mbedtls/library\sha256.c ****  */
  26:D:/School/diseratie/SEMS/xmc4800_evaluation_kit/optiga-trust-m/externals/mbedtls/library\sha256.c **** 
  27:D:/School/diseratie/SEMS/xmc4800_evaluation_kit/optiga-trust-m/externals/mbedtls/library\sha256.c **** #if !defined(MBEDTLS_CONFIG_FILE)
  28:D:/School/diseratie/SEMS/xmc4800_evaluation_kit/optiga-trust-m/externals/mbedtls/library\sha256.c **** #include "mbedtls/config.h"
  29:D:/School/diseratie/SEMS/xmc4800_evaluation_kit/optiga-trust-m/externals/mbedtls/library\sha256.c **** #else
  30:D:/School/diseratie/SEMS/xmc4800_evaluation_kit/optiga-trust-m/externals/mbedtls/library\sha256.c **** #include MBEDTLS_CONFIG_FILE
  31:D:/School/diseratie/SEMS/xmc4800_evaluation_kit/optiga-trust-m/externals/mbedtls/library\sha256.c **** #endif
  32:D:/School/diseratie/SEMS/xmc4800_evaluation_kit/optiga-trust-m/externals/mbedtls/library\sha256.c **** 
  33:D:/School/diseratie/SEMS/xmc4800_evaluation_kit/optiga-trust-m/externals/mbedtls/library\sha256.c **** #if defined(MBEDTLS_SHA256_C)
  34:D:/School/diseratie/SEMS/xmc4800_evaluation_kit/optiga-trust-m/externals/mbedtls/library\sha256.c **** 
  35:D:/School/diseratie/SEMS/xmc4800_evaluation_kit/optiga-trust-m/externals/mbedtls/library\sha256.c **** #include "mbedtls/sha256.h"
  36:D:/School/diseratie/SEMS/xmc4800_evaluation_kit/optiga-trust-m/externals/mbedtls/library\sha256.c **** #include "mbedtls/platform_util.h"
  37:D:/School/diseratie/SEMS/xmc4800_evaluation_kit/optiga-trust-m/externals/mbedtls/library\sha256.c **** 
  38:D:/School/diseratie/SEMS/xmc4800_evaluation_kit/optiga-trust-m/externals/mbedtls/library\sha256.c **** #include <string.h>
  39:D:/School/diseratie/SEMS/xmc4800_evaluation_kit/optiga-trust-m/externals/mbedtls/library\sha256.c **** 
  40:D:/School/diseratie/SEMS/xmc4800_evaluation_kit/optiga-trust-m/externals/mbedtls/library\sha256.c **** #if defined(MBEDTLS_SELF_TEST)
  41:D:/School/diseratie/SEMS/xmc4800_evaluation_kit/optiga-trust-m/externals/mbedtls/library\sha256.c **** #if defined(MBEDTLS_PLATFORM_C)
  42:D:/School/diseratie/SEMS/xmc4800_evaluation_kit/optiga-trust-m/externals/mbedtls/library\sha256.c **** #include "mbedtls/platform.h"
  43:D:/School/diseratie/SEMS/xmc4800_evaluation_kit/optiga-trust-m/externals/mbedtls/library\sha256.c **** #else
  44:D:/School/diseratie/SEMS/xmc4800_evaluation_kit/optiga-trust-m/externals/mbedtls/library\sha256.c **** #include <stdio.h>
  45:D:/School/diseratie/SEMS/xmc4800_evaluation_kit/optiga-trust-m/externals/mbedtls/library\sha256.c **** #include <stdlib.h>
  46:D:/School/diseratie/SEMS/xmc4800_evaluation_kit/optiga-trust-m/externals/mbedtls/library\sha256.c **** #define mbedtls_printf printf
  47:D:/School/diseratie/SEMS/xmc4800_evaluation_kit/optiga-trust-m/externals/mbedtls/library\sha256.c **** #define mbedtls_calloc    calloc
  48:D:/School/diseratie/SEMS/xmc4800_evaluation_kit/optiga-trust-m/externals/mbedtls/library\sha256.c **** #define mbedtls_free       free
  49:D:/School/diseratie/SEMS/xmc4800_evaluation_kit/optiga-trust-m/externals/mbedtls/library\sha256.c **** #endif /* MBEDTLS_PLATFORM_C */
  50:D:/School/diseratie/SEMS/xmc4800_evaluation_kit/optiga-trust-m/externals/mbedtls/library\sha256.c **** #endif /* MBEDTLS_SELF_TEST */
  51:D:/School/diseratie/SEMS/xmc4800_evaluation_kit/optiga-trust-m/externals/mbedtls/library\sha256.c **** 
  52:D:/School/diseratie/SEMS/xmc4800_evaluation_kit/optiga-trust-m/externals/mbedtls/library\sha256.c **** #define SHA256_VALIDATE_RET(cond)                           \
  53:D:/School/diseratie/SEMS/xmc4800_evaluation_kit/optiga-trust-m/externals/mbedtls/library\sha256.c ****     MBEDTLS_INTERNAL_VALIDATE_RET( cond, MBEDTLS_ERR_SHA256_BAD_INPUT_DATA )
  54:D:/School/diseratie/SEMS/xmc4800_evaluation_kit/optiga-trust-m/externals/mbedtls/library\sha256.c **** #define SHA256_VALIDATE(cond)  MBEDTLS_INTERNAL_VALIDATE( cond )
  55:D:/School/diseratie/SEMS/xmc4800_evaluation_kit/optiga-trust-m/externals/mbedtls/library\sha256.c **** 
  56:D:/School/diseratie/SEMS/xmc4800_evaluation_kit/optiga-trust-m/externals/mbedtls/library\sha256.c **** #if !defined(MBEDTLS_SHA256_ALT)
  57:D:/School/diseratie/SEMS/xmc4800_evaluation_kit/optiga-trust-m/externals/mbedtls/library\sha256.c **** 
  58:D:/School/diseratie/SEMS/xmc4800_evaluation_kit/optiga-trust-m/externals/mbedtls/library\sha256.c **** /*
  59:D:/School/diseratie/SEMS/xmc4800_evaluation_kit/optiga-trust-m/externals/mbedtls/library\sha256.c ****  * 32-bit integer manipulation macros (big endian)
  60:D:/School/diseratie/SEMS/xmc4800_evaluation_kit/optiga-trust-m/externals/mbedtls/library\sha256.c ****  */
  61:D:/School/diseratie/SEMS/xmc4800_evaluation_kit/optiga-trust-m/externals/mbedtls/library\sha256.c **** #ifndef GET_UINT32_BE
  62:D:/School/diseratie/SEMS/xmc4800_evaluation_kit/optiga-trust-m/externals/mbedtls/library\sha256.c **** #define GET_UINT32_BE(n,b,i)                            \
  63:D:/School/diseratie/SEMS/xmc4800_evaluation_kit/optiga-trust-m/externals/mbedtls/library\sha256.c **** do {                                                    \
  64:D:/School/diseratie/SEMS/xmc4800_evaluation_kit/optiga-trust-m/externals/mbedtls/library\sha256.c ****     (n) = ( (uint32_t) (b)[(i)    ] << 24 )             \
  65:D:/School/diseratie/SEMS/xmc4800_evaluation_kit/optiga-trust-m/externals/mbedtls/library\sha256.c ****         | ( (uint32_t) (b)[(i) + 1] << 16 )             \
  66:D:/School/diseratie/SEMS/xmc4800_evaluation_kit/optiga-trust-m/externals/mbedtls/library\sha256.c ****         | ( (uint32_t) (b)[(i) + 2] <<  8 )             \
  67:D:/School/diseratie/SEMS/xmc4800_evaluation_kit/optiga-trust-m/externals/mbedtls/library\sha256.c ****         | ( (uint32_t) (b)[(i) + 3]       );            \
  68:D:/School/diseratie/SEMS/xmc4800_evaluation_kit/optiga-trust-m/externals/mbedtls/library\sha256.c **** } while( 0 )
  69:D:/School/diseratie/SEMS/xmc4800_evaluation_kit/optiga-trust-m/externals/mbedtls/library\sha256.c **** #endif
  70:D:/School/diseratie/SEMS/xmc4800_evaluation_kit/optiga-trust-m/externals/mbedtls/library\sha256.c **** 
  71:D:/School/diseratie/SEMS/xmc4800_evaluation_kit/optiga-trust-m/externals/mbedtls/library\sha256.c **** #ifndef PUT_UINT32_BE
  72:D:/School/diseratie/SEMS/xmc4800_evaluation_kit/optiga-trust-m/externals/mbedtls/library\sha256.c **** #define PUT_UINT32_BE(n,b,i)                            \
  73:D:/School/diseratie/SEMS/xmc4800_evaluation_kit/optiga-trust-m/externals/mbedtls/library\sha256.c **** do {                                                    \
  74:D:/School/diseratie/SEMS/xmc4800_evaluation_kit/optiga-trust-m/externals/mbedtls/library\sha256.c ****     (b)[(i)    ] = (unsigned char) ( (n) >> 24 );       \
  75:D:/School/diseratie/SEMS/xmc4800_evaluation_kit/optiga-trust-m/externals/mbedtls/library\sha256.c ****     (b)[(i) + 1] = (unsigned char) ( (n) >> 16 );       \
  76:D:/School/diseratie/SEMS/xmc4800_evaluation_kit/optiga-trust-m/externals/mbedtls/library\sha256.c ****     (b)[(i) + 2] = (unsigned char) ( (n) >>  8 );       \
  77:D:/School/diseratie/SEMS/xmc4800_evaluation_kit/optiga-trust-m/externals/mbedtls/library\sha256.c ****     (b)[(i) + 3] = (unsigned char) ( (n)       );       \
  78:D:/School/diseratie/SEMS/xmc4800_evaluation_kit/optiga-trust-m/externals/mbedtls/library\sha256.c **** } while( 0 )
  79:D:/School/diseratie/SEMS/xmc4800_evaluation_kit/optiga-trust-m/externals/mbedtls/library\sha256.c **** #endif
  80:D:/School/diseratie/SEMS/xmc4800_evaluation_kit/optiga-trust-m/externals/mbedtls/library\sha256.c **** 
  81:D:/School/diseratie/SEMS/xmc4800_evaluation_kit/optiga-trust-m/externals/mbedtls/library\sha256.c **** void mbedtls_sha256_init( mbedtls_sha256_context *ctx )
  82:D:/School/diseratie/SEMS/xmc4800_evaluation_kit/optiga-trust-m/externals/mbedtls/library\sha256.c **** {
  28              	 .loc 1 82 0
  29              	 .cfi_startproc
  30              	 
  31              	 
  32              	 
  33              	.LVL0:
  83:D:/School/diseratie/SEMS/xmc4800_evaluation_kit/optiga-trust-m/externals/mbedtls/library\sha256.c ****     SHA256_VALIDATE( ctx != NULL );
  84:D:/School/diseratie/SEMS/xmc4800_evaluation_kit/optiga-trust-m/externals/mbedtls/library\sha256.c **** 
  85:D:/School/diseratie/SEMS/xmc4800_evaluation_kit/optiga-trust-m/externals/mbedtls/library\sha256.c ****     memset( ctx, 0, sizeof( mbedtls_sha256_context ) );
  34              	 .loc 1 85 0
  35 0000 0021     	 movs r1,#0
  36 0002 6C22     	 movs r2,#108
  37 0004 FFF7FEBF 	 b memset
  38              	.LVL1:
  39              	 .cfi_endproc
  40              	.LFE0:
  42              	 .section .text.mbedtls_sha256_free,"ax",%progbits
  43              	 .align 2
  44              	 .global mbedtls_sha256_free
  45              	 .thumb
  46              	 .thumb_func
  48              	mbedtls_sha256_free:
  49              	.LFB1:
  86:D:/School/diseratie/SEMS/xmc4800_evaluation_kit/optiga-trust-m/externals/mbedtls/library\sha256.c **** }
  87:D:/School/diseratie/SEMS/xmc4800_evaluation_kit/optiga-trust-m/externals/mbedtls/library\sha256.c **** 
  88:D:/School/diseratie/SEMS/xmc4800_evaluation_kit/optiga-trust-m/externals/mbedtls/library\sha256.c **** void mbedtls_sha256_free( mbedtls_sha256_context *ctx )
  89:D:/School/diseratie/SEMS/xmc4800_evaluation_kit/optiga-trust-m/externals/mbedtls/library\sha256.c **** {
  50              	 .loc 1 89 0
  51              	 .cfi_startproc
  52              	 
  53              	 
  54              	 
  55              	.LVL2:
  90:D:/School/diseratie/SEMS/xmc4800_evaluation_kit/optiga-trust-m/externals/mbedtls/library\sha256.c ****     if( ctx == NULL )
  56              	 .loc 1 90 0
  57 0000 10B1     	 cbz r0,.L2
  91:D:/School/diseratie/SEMS/xmc4800_evaluation_kit/optiga-trust-m/externals/mbedtls/library\sha256.c ****         return;
  92:D:/School/diseratie/SEMS/xmc4800_evaluation_kit/optiga-trust-m/externals/mbedtls/library\sha256.c **** 
  93:D:/School/diseratie/SEMS/xmc4800_evaluation_kit/optiga-trust-m/externals/mbedtls/library\sha256.c ****     mbedtls_platform_zeroize( ctx, sizeof( mbedtls_sha256_context ) );
  58              	 .loc 1 93 0
  59 0002 6C21     	 movs r1,#108
  60 0004 FFF7FEBF 	 b mbedtls_platform_zeroize
  61              	.LVL3:
  62              	.L2:
  63 0008 7047     	 bx lr
  64              	 .cfi_endproc
  65              	.LFE1:
  67 000a 00BF     	 .section .text.mbedtls_sha256_clone,"ax",%progbits
  68              	 .align 2
  69              	 .global mbedtls_sha256_clone
  70              	 .thumb
  71              	 .thumb_func
  73              	mbedtls_sha256_clone:
  74              	.LFB2:
  94:D:/School/diseratie/SEMS/xmc4800_evaluation_kit/optiga-trust-m/externals/mbedtls/library\sha256.c **** }
  95:D:/School/diseratie/SEMS/xmc4800_evaluation_kit/optiga-trust-m/externals/mbedtls/library\sha256.c **** 
  96:D:/School/diseratie/SEMS/xmc4800_evaluation_kit/optiga-trust-m/externals/mbedtls/library\sha256.c **** void mbedtls_sha256_clone( mbedtls_sha256_context *dst,
  97:D:/School/diseratie/SEMS/xmc4800_evaluation_kit/optiga-trust-m/externals/mbedtls/library\sha256.c ****                            const mbedtls_sha256_context *src )
  98:D:/School/diseratie/SEMS/xmc4800_evaluation_kit/optiga-trust-m/externals/mbedtls/library\sha256.c **** {
  75              	 .loc 1 98 0
  76              	 .cfi_startproc
  77              	 
  78              	 
  79              	.LVL4:
  80 0000 08B5     	 push {r3,lr}
  81              	.LCFI0:
  82              	 .cfi_def_cfa_offset 8
  83              	 .cfi_offset 3,-8
  84              	 .cfi_offset 14,-4
  99:D:/School/diseratie/SEMS/xmc4800_evaluation_kit/optiga-trust-m/externals/mbedtls/library\sha256.c ****     SHA256_VALIDATE( dst != NULL );
 100:D:/School/diseratie/SEMS/xmc4800_evaluation_kit/optiga-trust-m/externals/mbedtls/library\sha256.c ****     SHA256_VALIDATE( src != NULL );
 101:D:/School/diseratie/SEMS/xmc4800_evaluation_kit/optiga-trust-m/externals/mbedtls/library\sha256.c **** 
 102:D:/School/diseratie/SEMS/xmc4800_evaluation_kit/optiga-trust-m/externals/mbedtls/library\sha256.c ****     *dst = *src;
  85              	 .loc 1 102 0
  86 0002 6C22     	 movs r2,#108
  87 0004 FFF7FEFF 	 bl memcpy
  88              	.LVL5:
  89 0008 08BD     	 pop {r3,pc}
  90              	 .cfi_endproc
  91              	.LFE2:
  93 000a 00BF     	 .section .text.mbedtls_sha256_starts_ret,"ax",%progbits
  94              	 .align 2
  95              	 .global mbedtls_sha256_starts_ret
  96              	 .thumb
  97              	 .thumb_func
  99              	mbedtls_sha256_starts_ret:
 100              	.LFB3:
 103:D:/School/diseratie/SEMS/xmc4800_evaluation_kit/optiga-trust-m/externals/mbedtls/library\sha256.c **** }
 104:D:/School/diseratie/SEMS/xmc4800_evaluation_kit/optiga-trust-m/externals/mbedtls/library\sha256.c **** 
 105:D:/School/diseratie/SEMS/xmc4800_evaluation_kit/optiga-trust-m/externals/mbedtls/library\sha256.c **** /*
 106:D:/School/diseratie/SEMS/xmc4800_evaluation_kit/optiga-trust-m/externals/mbedtls/library\sha256.c ****  * SHA-256 context setup
 107:D:/School/diseratie/SEMS/xmc4800_evaluation_kit/optiga-trust-m/externals/mbedtls/library\sha256.c ****  */
 108:D:/School/diseratie/SEMS/xmc4800_evaluation_kit/optiga-trust-m/externals/mbedtls/library\sha256.c **** int mbedtls_sha256_starts_ret( mbedtls_sha256_context *ctx, int is224 )
 109:D:/School/diseratie/SEMS/xmc4800_evaluation_kit/optiga-trust-m/externals/mbedtls/library\sha256.c **** {
 101              	 .loc 1 109 0
 102              	 .cfi_startproc
 103              	 
 104              	 
 105              	.LVL6:
 110:D:/School/diseratie/SEMS/xmc4800_evaluation_kit/optiga-trust-m/externals/mbedtls/library\sha256.c ****     SHA256_VALIDATE_RET( ctx != NULL );
 111:D:/School/diseratie/SEMS/xmc4800_evaluation_kit/optiga-trust-m/externals/mbedtls/library\sha256.c ****     SHA256_VALIDATE_RET( is224 == 0 || is224 == 1 );
 112:D:/School/diseratie/SEMS/xmc4800_evaluation_kit/optiga-trust-m/externals/mbedtls/library\sha256.c **** 
 113:D:/School/diseratie/SEMS/xmc4800_evaluation_kit/optiga-trust-m/externals/mbedtls/library\sha256.c ****     ctx->total[0] = 0;
 106              	 .loc 1 113 0
 107 0000 0023     	 movs r3,#0
 109:D:/School/diseratie/SEMS/xmc4800_evaluation_kit/optiga-trust-m/externals/mbedtls/library\sha256.c ****     SHA256_VALIDATE_RET( ctx != NULL );
 108              	 .loc 1 109 0
 109 0002 F0B5     	 push {r4,r5,r6,r7,lr}
 110              	.LCFI1:
 111              	 .cfi_def_cfa_offset 20
 112              	 .cfi_offset 4,-20
 113              	 .cfi_offset 5,-16
 114              	 .cfi_offset 6,-12
 115              	 .cfi_offset 7,-8
 116              	 .cfi_offset 14,-4
 117              	 .loc 1 113 0
 118 0004 0360     	 str r3,[r0]
 114:D:/School/diseratie/SEMS/xmc4800_evaluation_kit/optiga-trust-m/externals/mbedtls/library\sha256.c ****     ctx->total[1] = 0;
 119              	 .loc 1 114 0
 120 0006 4360     	 str r3,[r0,#4]
 115:D:/School/diseratie/SEMS/xmc4800_evaluation_kit/optiga-trust-m/externals/mbedtls/library\sha256.c **** 
 116:D:/School/diseratie/SEMS/xmc4800_evaluation_kit/optiga-trust-m/externals/mbedtls/library\sha256.c ****     if( is224 == 0 )
 121              	 .loc 1 116 0
 122 0008 B1B1     	 cbz r1,.L12
 117:D:/School/diseratie/SEMS/xmc4800_evaluation_kit/optiga-trust-m/externals/mbedtls/library\sha256.c ****     {
 118:D:/School/diseratie/SEMS/xmc4800_evaluation_kit/optiga-trust-m/externals/mbedtls/library\sha256.c ****         /* SHA-256 */
 119:D:/School/diseratie/SEMS/xmc4800_evaluation_kit/optiga-trust-m/externals/mbedtls/library\sha256.c ****         ctx->state[0] = 0x6A09E667;
 120:D:/School/diseratie/SEMS/xmc4800_evaluation_kit/optiga-trust-m/externals/mbedtls/library\sha256.c ****         ctx->state[1] = 0xBB67AE85;
 121:D:/School/diseratie/SEMS/xmc4800_evaluation_kit/optiga-trust-m/externals/mbedtls/library\sha256.c ****         ctx->state[2] = 0x3C6EF372;
 122:D:/School/diseratie/SEMS/xmc4800_evaluation_kit/optiga-trust-m/externals/mbedtls/library\sha256.c ****         ctx->state[3] = 0xA54FF53A;
 123:D:/School/diseratie/SEMS/xmc4800_evaluation_kit/optiga-trust-m/externals/mbedtls/library\sha256.c ****         ctx->state[4] = 0x510E527F;
 124:D:/School/diseratie/SEMS/xmc4800_evaluation_kit/optiga-trust-m/externals/mbedtls/library\sha256.c ****         ctx->state[5] = 0x9B05688C;
 125:D:/School/diseratie/SEMS/xmc4800_evaluation_kit/optiga-trust-m/externals/mbedtls/library\sha256.c ****         ctx->state[6] = 0x1F83D9AB;
 126:D:/School/diseratie/SEMS/xmc4800_evaluation_kit/optiga-trust-m/externals/mbedtls/library\sha256.c ****         ctx->state[7] = 0x5BE0CD19;
 127:D:/School/diseratie/SEMS/xmc4800_evaluation_kit/optiga-trust-m/externals/mbedtls/library\sha256.c ****     }
 128:D:/School/diseratie/SEMS/xmc4800_evaluation_kit/optiga-trust-m/externals/mbedtls/library\sha256.c ****     else
 129:D:/School/diseratie/SEMS/xmc4800_evaluation_kit/optiga-trust-m/externals/mbedtls/library\sha256.c ****     {
 130:D:/School/diseratie/SEMS/xmc4800_evaluation_kit/optiga-trust-m/externals/mbedtls/library\sha256.c ****         /* SHA-224 */
 131:D:/School/diseratie/SEMS/xmc4800_evaluation_kit/optiga-trust-m/externals/mbedtls/library\sha256.c ****         ctx->state[0] = 0xC1059ED8;
 123              	 .loc 1 131 0
 124 000a DFF874C0 	 ldr ip,.L13+48
 132:D:/School/diseratie/SEMS/xmc4800_evaluation_kit/optiga-trust-m/externals/mbedtls/library\sha256.c ****         ctx->state[1] = 0x367CD507;
 125              	 .loc 1 132 0
 126 000e DFF874E0 	 ldr lr,.L13+52
 133:D:/School/diseratie/SEMS/xmc4800_evaluation_kit/optiga-trust-m/externals/mbedtls/library\sha256.c ****         ctx->state[2] = 0x3070DD17;
 127              	 .loc 1 133 0
 128 0012 0F4F     	 ldr r7,.L13
 134:D:/School/diseratie/SEMS/xmc4800_evaluation_kit/optiga-trust-m/externals/mbedtls/library\sha256.c ****         ctx->state[3] = 0xF70E5939;
 129              	 .loc 1 134 0
 130 0014 0F4E     	 ldr r6,.L13+4
 135:D:/School/diseratie/SEMS/xmc4800_evaluation_kit/optiga-trust-m/externals/mbedtls/library\sha256.c ****         ctx->state[4] = 0xFFC00B31;
 131              	 .loc 1 135 0
 132 0016 104D     	 ldr r5,.L13+8
 136:D:/School/diseratie/SEMS/xmc4800_evaluation_kit/optiga-trust-m/externals/mbedtls/library\sha256.c ****         ctx->state[5] = 0x68581511;
 133              	 .loc 1 136 0
 134 0018 104C     	 ldr r4,.L13+12
 137:D:/School/diseratie/SEMS/xmc4800_evaluation_kit/optiga-trust-m/externals/mbedtls/library\sha256.c ****         ctx->state[6] = 0x64F98FA7;
 135              	 .loc 1 137 0
 136 001a 114A     	 ldr r2,.L13+16
 138:D:/School/diseratie/SEMS/xmc4800_evaluation_kit/optiga-trust-m/externals/mbedtls/library\sha256.c ****         ctx->state[7] = 0xBEFA4FA4;
 137              	 .loc 1 138 0
 138 001c 114B     	 ldr r3,.L13+20
 139              	.L11:
 131:D:/School/diseratie/SEMS/xmc4800_evaluation_kit/optiga-trust-m/externals/mbedtls/library\sha256.c ****         ctx->state[1] = 0x367CD507;
 140              	 .loc 1 131 0
 141 001e C0F808C0 	 str ip,[r0,#8]
 132:D:/School/diseratie/SEMS/xmc4800_evaluation_kit/optiga-trust-m/externals/mbedtls/library\sha256.c ****         ctx->state[2] = 0x3070DD17;
 142              	 .loc 1 132 0
 143 0022 C0F80CE0 	 str lr,[r0,#12]
 133:D:/School/diseratie/SEMS/xmc4800_evaluation_kit/optiga-trust-m/externals/mbedtls/library\sha256.c ****         ctx->state[3] = 0xF70E5939;
 144              	 .loc 1 133 0
 145 0026 0761     	 str r7,[r0,#16]
 134:D:/School/diseratie/SEMS/xmc4800_evaluation_kit/optiga-trust-m/externals/mbedtls/library\sha256.c ****         ctx->state[4] = 0xFFC00B31;
 146              	 .loc 1 134 0
 147 0028 4661     	 str r6,[r0,#20]
 135:D:/School/diseratie/SEMS/xmc4800_evaluation_kit/optiga-trust-m/externals/mbedtls/library\sha256.c ****         ctx->state[5] = 0x68581511;
 148              	 .loc 1 135 0
 149 002a 8561     	 str r5,[r0,#24]
 136:D:/School/diseratie/SEMS/xmc4800_evaluation_kit/optiga-trust-m/externals/mbedtls/library\sha256.c ****         ctx->state[6] = 0x64F98FA7;
 150              	 .loc 1 136 0
 151 002c C461     	 str r4,[r0,#28]
 137:D:/School/diseratie/SEMS/xmc4800_evaluation_kit/optiga-trust-m/externals/mbedtls/library\sha256.c ****         ctx->state[7] = 0xBEFA4FA4;
 152              	 .loc 1 137 0
 153 002e 0262     	 str r2,[r0,#32]
 154              	 .loc 1 138 0
 155 0030 4362     	 str r3,[r0,#36]
 139:D:/School/diseratie/SEMS/xmc4800_evaluation_kit/optiga-trust-m/externals/mbedtls/library\sha256.c ****     }
 140:D:/School/diseratie/SEMS/xmc4800_evaluation_kit/optiga-trust-m/externals/mbedtls/library\sha256.c **** 
 141:D:/School/diseratie/SEMS/xmc4800_evaluation_kit/optiga-trust-m/externals/mbedtls/library\sha256.c ****     ctx->is224 = is224;
 156              	 .loc 1 141 0
 157 0032 8166     	 str r1,[r0,#104]
 142:D:/School/diseratie/SEMS/xmc4800_evaluation_kit/optiga-trust-m/externals/mbedtls/library\sha256.c **** 
 143:D:/School/diseratie/SEMS/xmc4800_evaluation_kit/optiga-trust-m/externals/mbedtls/library\sha256.c ****     return( 0 );
 144:D:/School/diseratie/SEMS/xmc4800_evaluation_kit/optiga-trust-m/externals/mbedtls/library\sha256.c **** }
 158              	 .loc 1 144 0
 159 0034 0020     	 movs r0,#0
 160              	.LVL7:
 161 0036 F0BD     	 pop {r4,r5,r6,r7,pc}
 162              	.LVL8:
 163              	.L12:
 119:D:/School/diseratie/SEMS/xmc4800_evaluation_kit/optiga-trust-m/externals/mbedtls/library\sha256.c ****         ctx->state[1] = 0xBB67AE85;
 164              	 .loc 1 119 0
 165 0038 DFF84CC0 	 ldr ip,.L13+56
 120:D:/School/diseratie/SEMS/xmc4800_evaluation_kit/optiga-trust-m/externals/mbedtls/library\sha256.c ****         ctx->state[2] = 0x3C6EF372;
 166              	 .loc 1 120 0
 167 003c DFF84CE0 	 ldr lr,.L13+60
 121:D:/School/diseratie/SEMS/xmc4800_evaluation_kit/optiga-trust-m/externals/mbedtls/library\sha256.c ****         ctx->state[3] = 0xA54FF53A;
 168              	 .loc 1 121 0
 169 0040 094F     	 ldr r7,.L13+24
 122:D:/School/diseratie/SEMS/xmc4800_evaluation_kit/optiga-trust-m/externals/mbedtls/library\sha256.c ****         ctx->state[4] = 0x510E527F;
 170              	 .loc 1 122 0
 171 0042 0A4E     	 ldr r6,.L13+28
 123:D:/School/diseratie/SEMS/xmc4800_evaluation_kit/optiga-trust-m/externals/mbedtls/library\sha256.c ****         ctx->state[5] = 0x9B05688C;
 172              	 .loc 1 123 0
 173 0044 0A4D     	 ldr r5,.L13+32
 124:D:/School/diseratie/SEMS/xmc4800_evaluation_kit/optiga-trust-m/externals/mbedtls/library\sha256.c ****         ctx->state[6] = 0x1F83D9AB;
 174              	 .loc 1 124 0
 175 0046 0B4C     	 ldr r4,.L13+36
 125:D:/School/diseratie/SEMS/xmc4800_evaluation_kit/optiga-trust-m/externals/mbedtls/library\sha256.c ****         ctx->state[7] = 0x5BE0CD19;
 176              	 .loc 1 125 0
 177 0048 0B4A     	 ldr r2,.L13+40
 126:D:/School/diseratie/SEMS/xmc4800_evaluation_kit/optiga-trust-m/externals/mbedtls/library\sha256.c ****     }
 178              	 .loc 1 126 0
 179 004a 0C4B     	 ldr r3,.L13+44
 180 004c E7E7     	 b .L11
 181              	.L14:
 182 004e 00BF     	 .align 2
 183              	.L13:
 184 0050 17DD7030 	 .word 812702999
 185 0054 39590EF7 	 .word -150054599
 186 0058 310BC0FF 	 .word -4191439
 187 005c 11155868 	 .word 1750603025
 188 0060 A78FF964 	 .word 1694076839
 189 0064 A44FFABE 	 .word -1090891868
 190 0068 72F36E3C 	 .word 1013904242
 191 006c 3AF54FA5 	 .word -1521486534
 192 0070 7F520E51 	 .word 1359893119
 193 0074 8C68059B 	 .word -1694144372
 194 0078 ABD9831F 	 .word 528734635
 195 007c 19CDE05B 	 .word 1541459225
 196 0080 D89E05C1 	 .word -1056596264
 197 0084 07D57C36 	 .word 914150663
 198 0088 67E6096A 	 .word 1779033703
 199 008c 85AE67BB 	 .word -1150833019
 200              	 .cfi_endproc
 201              	.LFE3:
 203              	 .section .text.mbedtls_sha256_starts,"ax",%progbits
 204              	 .align 2
 205              	 .global mbedtls_sha256_starts
 206              	 .thumb
 207              	 .thumb_func
 209              	mbedtls_sha256_starts:
 210              	.LFB4:
 145:D:/School/diseratie/SEMS/xmc4800_evaluation_kit/optiga-trust-m/externals/mbedtls/library\sha256.c **** 
 146:D:/School/diseratie/SEMS/xmc4800_evaluation_kit/optiga-trust-m/externals/mbedtls/library\sha256.c **** #if !defined(MBEDTLS_DEPRECATED_REMOVED)
 147:D:/School/diseratie/SEMS/xmc4800_evaluation_kit/optiga-trust-m/externals/mbedtls/library\sha256.c **** void mbedtls_sha256_starts( mbedtls_sha256_context *ctx,
 148:D:/School/diseratie/SEMS/xmc4800_evaluation_kit/optiga-trust-m/externals/mbedtls/library\sha256.c ****                             int is224 )
 149:D:/School/diseratie/SEMS/xmc4800_evaluation_kit/optiga-trust-m/externals/mbedtls/library\sha256.c **** {
 211              	 .loc 1 149 0
 212              	 .cfi_startproc
 213              	 
 214              	 
 215              	.LVL9:
 216              	.LBB14:
 217              	.LBB15:
 113:D:/School/diseratie/SEMS/xmc4800_evaluation_kit/optiga-trust-m/externals/mbedtls/library\sha256.c ****     ctx->total[1] = 0;
 218              	 .loc 1 113 0
 219 0000 0023     	 movs r3,#0
 220              	.LBE15:
 221              	.LBE14:
 222              	 .loc 1 149 0
 223 0002 F0B5     	 push {r4,r5,r6,r7,lr}
 224              	.LCFI2:
 225              	 .cfi_def_cfa_offset 20
 226              	 .cfi_offset 4,-20
 227              	 .cfi_offset 5,-16
 228              	 .cfi_offset 6,-12
 229              	 .cfi_offset 7,-8
 230              	 .cfi_offset 14,-4
 231              	.LBB17:
 232              	.LBB16:
 113:D:/School/diseratie/SEMS/xmc4800_evaluation_kit/optiga-trust-m/externals/mbedtls/library\sha256.c ****     ctx->total[1] = 0;
 233              	 .loc 1 113 0
 234 0004 0360     	 str r3,[r0]
 114:D:/School/diseratie/SEMS/xmc4800_evaluation_kit/optiga-trust-m/externals/mbedtls/library\sha256.c **** 
 235              	 .loc 1 114 0
 236 0006 4360     	 str r3,[r0,#4]
 116:D:/School/diseratie/SEMS/xmc4800_evaluation_kit/optiga-trust-m/externals/mbedtls/library\sha256.c ****     {
 237              	 .loc 1 116 0
 238 0008 A9B1     	 cbz r1,.L20
 131:D:/School/diseratie/SEMS/xmc4800_evaluation_kit/optiga-trust-m/externals/mbedtls/library\sha256.c ****         ctx->state[1] = 0x367CD507;
 239              	 .loc 1 131 0
 240 000a DFF870C0 	 ldr ip,.L21+48
 132:D:/School/diseratie/SEMS/xmc4800_evaluation_kit/optiga-trust-m/externals/mbedtls/library\sha256.c ****         ctx->state[2] = 0x3070DD17;
 241              	 .loc 1 132 0
 242 000e DFF870E0 	 ldr lr,.L21+52
 133:D:/School/diseratie/SEMS/xmc4800_evaluation_kit/optiga-trust-m/externals/mbedtls/library\sha256.c ****         ctx->state[3] = 0xF70E5939;
 243              	 .loc 1 133 0
 244 0012 0E4F     	 ldr r7,.L21
 134:D:/School/diseratie/SEMS/xmc4800_evaluation_kit/optiga-trust-m/externals/mbedtls/library\sha256.c ****         ctx->state[4] = 0xFFC00B31;
 245              	 .loc 1 134 0
 246 0014 0E4E     	 ldr r6,.L21+4
 135:D:/School/diseratie/SEMS/xmc4800_evaluation_kit/optiga-trust-m/externals/mbedtls/library\sha256.c ****         ctx->state[5] = 0x68581511;
 247              	 .loc 1 135 0
 248 0016 0F4D     	 ldr r5,.L21+8
 136:D:/School/diseratie/SEMS/xmc4800_evaluation_kit/optiga-trust-m/externals/mbedtls/library\sha256.c ****         ctx->state[6] = 0x64F98FA7;
 249              	 .loc 1 136 0
 250 0018 0F4C     	 ldr r4,.L21+12
 137:D:/School/diseratie/SEMS/xmc4800_evaluation_kit/optiga-trust-m/externals/mbedtls/library\sha256.c ****         ctx->state[7] = 0xBEFA4FA4;
 251              	 .loc 1 137 0
 252 001a 104A     	 ldr r2,.L21+16
 138:D:/School/diseratie/SEMS/xmc4800_evaluation_kit/optiga-trust-m/externals/mbedtls/library\sha256.c ****     }
 253              	 .loc 1 138 0
 254 001c 104B     	 ldr r3,.L21+20
 255              	.L19:
 131:D:/School/diseratie/SEMS/xmc4800_evaluation_kit/optiga-trust-m/externals/mbedtls/library\sha256.c ****         ctx->state[1] = 0x367CD507;
 256              	 .loc 1 131 0
 257 001e C0F808C0 	 str ip,[r0,#8]
 132:D:/School/diseratie/SEMS/xmc4800_evaluation_kit/optiga-trust-m/externals/mbedtls/library\sha256.c ****         ctx->state[2] = 0x3070DD17;
 258              	 .loc 1 132 0
 259 0022 C0F80CE0 	 str lr,[r0,#12]
 133:D:/School/diseratie/SEMS/xmc4800_evaluation_kit/optiga-trust-m/externals/mbedtls/library\sha256.c ****         ctx->state[3] = 0xF70E5939;
 260              	 .loc 1 133 0
 261 0026 0761     	 str r7,[r0,#16]
 134:D:/School/diseratie/SEMS/xmc4800_evaluation_kit/optiga-trust-m/externals/mbedtls/library\sha256.c ****         ctx->state[4] = 0xFFC00B31;
 262              	 .loc 1 134 0
 263 0028 4661     	 str r6,[r0,#20]
 135:D:/School/diseratie/SEMS/xmc4800_evaluation_kit/optiga-trust-m/externals/mbedtls/library\sha256.c ****         ctx->state[5] = 0x68581511;
 264              	 .loc 1 135 0
 265 002a 8561     	 str r5,[r0,#24]
 136:D:/School/diseratie/SEMS/xmc4800_evaluation_kit/optiga-trust-m/externals/mbedtls/library\sha256.c ****         ctx->state[6] = 0x64F98FA7;
 266              	 .loc 1 136 0
 267 002c C461     	 str r4,[r0,#28]
 137:D:/School/diseratie/SEMS/xmc4800_evaluation_kit/optiga-trust-m/externals/mbedtls/library\sha256.c ****         ctx->state[7] = 0xBEFA4FA4;
 268              	 .loc 1 137 0
 269 002e 0262     	 str r2,[r0,#32]
 138:D:/School/diseratie/SEMS/xmc4800_evaluation_kit/optiga-trust-m/externals/mbedtls/library\sha256.c ****     }
 270              	 .loc 1 138 0
 271 0030 4362     	 str r3,[r0,#36]
 141:D:/School/diseratie/SEMS/xmc4800_evaluation_kit/optiga-trust-m/externals/mbedtls/library\sha256.c **** 
 272              	 .loc 1 141 0
 273 0032 8166     	 str r1,[r0,#104]
 274 0034 F0BD     	 pop {r4,r5,r6,r7,pc}
 275              	.L20:
 119:D:/School/diseratie/SEMS/xmc4800_evaluation_kit/optiga-trust-m/externals/mbedtls/library\sha256.c ****         ctx->state[1] = 0xBB67AE85;
 276              	 .loc 1 119 0
 277 0036 DFF84CC0 	 ldr ip,.L21+56
 120:D:/School/diseratie/SEMS/xmc4800_evaluation_kit/optiga-trust-m/externals/mbedtls/library\sha256.c ****         ctx->state[2] = 0x3C6EF372;
 278              	 .loc 1 120 0
 279 003a DFF84CE0 	 ldr lr,.L21+60
 121:D:/School/diseratie/SEMS/xmc4800_evaluation_kit/optiga-trust-m/externals/mbedtls/library\sha256.c ****         ctx->state[3] = 0xA54FF53A;
 280              	 .loc 1 121 0
 281 003e 094F     	 ldr r7,.L21+24
 122:D:/School/diseratie/SEMS/xmc4800_evaluation_kit/optiga-trust-m/externals/mbedtls/library\sha256.c ****         ctx->state[4] = 0x510E527F;
 282              	 .loc 1 122 0
 283 0040 094E     	 ldr r6,.L21+28
 123:D:/School/diseratie/SEMS/xmc4800_evaluation_kit/optiga-trust-m/externals/mbedtls/library\sha256.c ****         ctx->state[5] = 0x9B05688C;
 284              	 .loc 1 123 0
 285 0042 0A4D     	 ldr r5,.L21+32
 124:D:/School/diseratie/SEMS/xmc4800_evaluation_kit/optiga-trust-m/externals/mbedtls/library\sha256.c ****         ctx->state[6] = 0x1F83D9AB;
 286              	 .loc 1 124 0
 287 0044 0A4C     	 ldr r4,.L21+36
 125:D:/School/diseratie/SEMS/xmc4800_evaluation_kit/optiga-trust-m/externals/mbedtls/library\sha256.c ****         ctx->state[7] = 0x5BE0CD19;
 288              	 .loc 1 125 0
 289 0046 0B4A     	 ldr r2,.L21+40
 126:D:/School/diseratie/SEMS/xmc4800_evaluation_kit/optiga-trust-m/externals/mbedtls/library\sha256.c ****     }
 290              	 .loc 1 126 0
 291 0048 0B4B     	 ldr r3,.L21+44
 292 004a E8E7     	 b .L19
 293              	.L22:
 294              	 .align 2
 295              	.L21:
 296 004c 17DD7030 	 .word 812702999
 297 0050 39590EF7 	 .word -150054599
 298 0054 310BC0FF 	 .word -4191439
 299 0058 11155868 	 .word 1750603025
 300 005c A78FF964 	 .word 1694076839
 301 0060 A44FFABE 	 .word -1090891868
 302 0064 72F36E3C 	 .word 1013904242
 303 0068 3AF54FA5 	 .word -1521486534
 304 006c 7F520E51 	 .word 1359893119
 305 0070 8C68059B 	 .word -1694144372
 306 0074 ABD9831F 	 .word 528734635
 307 0078 19CDE05B 	 .word 1541459225
 308 007c D89E05C1 	 .word -1056596264
 309 0080 07D57C36 	 .word 914150663
 310 0084 67E6096A 	 .word 1779033703
 311 0088 85AE67BB 	 .word -1150833019
 312              	.LBE16:
 313              	.LBE17:
 314              	 .cfi_endproc
 315              	.LFE4:
 317              	 .section .text.mbedtls_internal_sha256_process,"ax",%progbits
 318              	 .align 2
 319              	 .global mbedtls_internal_sha256_process
 320              	 .thumb
 321              	 .thumb_func
 323              	mbedtls_internal_sha256_process:
 324              	.LFB5:
 150:D:/School/diseratie/SEMS/xmc4800_evaluation_kit/optiga-trust-m/externals/mbedtls/library\sha256.c ****     mbedtls_sha256_starts_ret( ctx, is224 );
 151:D:/School/diseratie/SEMS/xmc4800_evaluation_kit/optiga-trust-m/externals/mbedtls/library\sha256.c **** }
 152:D:/School/diseratie/SEMS/xmc4800_evaluation_kit/optiga-trust-m/externals/mbedtls/library\sha256.c **** #endif
 153:D:/School/diseratie/SEMS/xmc4800_evaluation_kit/optiga-trust-m/externals/mbedtls/library\sha256.c **** 
 154:D:/School/diseratie/SEMS/xmc4800_evaluation_kit/optiga-trust-m/externals/mbedtls/library\sha256.c **** #if !defined(MBEDTLS_SHA256_PROCESS_ALT)
 155:D:/School/diseratie/SEMS/xmc4800_evaluation_kit/optiga-trust-m/externals/mbedtls/library\sha256.c **** static const uint32_t K[] =
 156:D:/School/diseratie/SEMS/xmc4800_evaluation_kit/optiga-trust-m/externals/mbedtls/library\sha256.c **** {
 157:D:/School/diseratie/SEMS/xmc4800_evaluation_kit/optiga-trust-m/externals/mbedtls/library\sha256.c ****     0x428A2F98, 0x71374491, 0xB5C0FBCF, 0xE9B5DBA5,
 158:D:/School/diseratie/SEMS/xmc4800_evaluation_kit/optiga-trust-m/externals/mbedtls/library\sha256.c ****     0x3956C25B, 0x59F111F1, 0x923F82A4, 0xAB1C5ED5,
 159:D:/School/diseratie/SEMS/xmc4800_evaluation_kit/optiga-trust-m/externals/mbedtls/library\sha256.c ****     0xD807AA98, 0x12835B01, 0x243185BE, 0x550C7DC3,
 160:D:/School/diseratie/SEMS/xmc4800_evaluation_kit/optiga-trust-m/externals/mbedtls/library\sha256.c ****     0x72BE5D74, 0x80DEB1FE, 0x9BDC06A7, 0xC19BF174,
 161:D:/School/diseratie/SEMS/xmc4800_evaluation_kit/optiga-trust-m/externals/mbedtls/library\sha256.c ****     0xE49B69C1, 0xEFBE4786, 0x0FC19DC6, 0x240CA1CC,
 162:D:/School/diseratie/SEMS/xmc4800_evaluation_kit/optiga-trust-m/externals/mbedtls/library\sha256.c ****     0x2DE92C6F, 0x4A7484AA, 0x5CB0A9DC, 0x76F988DA,
 163:D:/School/diseratie/SEMS/xmc4800_evaluation_kit/optiga-trust-m/externals/mbedtls/library\sha256.c ****     0x983E5152, 0xA831C66D, 0xB00327C8, 0xBF597FC7,
 164:D:/School/diseratie/SEMS/xmc4800_evaluation_kit/optiga-trust-m/externals/mbedtls/library\sha256.c ****     0xC6E00BF3, 0xD5A79147, 0x06CA6351, 0x14292967,
 165:D:/School/diseratie/SEMS/xmc4800_evaluation_kit/optiga-trust-m/externals/mbedtls/library\sha256.c ****     0x27B70A85, 0x2E1B2138, 0x4D2C6DFC, 0x53380D13,
 166:D:/School/diseratie/SEMS/xmc4800_evaluation_kit/optiga-trust-m/externals/mbedtls/library\sha256.c ****     0x650A7354, 0x766A0ABB, 0x81C2C92E, 0x92722C85,
 167:D:/School/diseratie/SEMS/xmc4800_evaluation_kit/optiga-trust-m/externals/mbedtls/library\sha256.c ****     0xA2BFE8A1, 0xA81A664B, 0xC24B8B70, 0xC76C51A3,
 168:D:/School/diseratie/SEMS/xmc4800_evaluation_kit/optiga-trust-m/externals/mbedtls/library\sha256.c ****     0xD192E819, 0xD6990624, 0xF40E3585, 0x106AA070,
 169:D:/School/diseratie/SEMS/xmc4800_evaluation_kit/optiga-trust-m/externals/mbedtls/library\sha256.c ****     0x19A4C116, 0x1E376C08, 0x2748774C, 0x34B0BCB5,
 170:D:/School/diseratie/SEMS/xmc4800_evaluation_kit/optiga-trust-m/externals/mbedtls/library\sha256.c ****     0x391C0CB3, 0x4ED8AA4A, 0x5B9CCA4F, 0x682E6FF3,
 171:D:/School/diseratie/SEMS/xmc4800_evaluation_kit/optiga-trust-m/externals/mbedtls/library\sha256.c ****     0x748F82EE, 0x78A5636F, 0x84C87814, 0x8CC70208,
 172:D:/School/diseratie/SEMS/xmc4800_evaluation_kit/optiga-trust-m/externals/mbedtls/library\sha256.c ****     0x90BEFFFA, 0xA4506CEB, 0xBEF9A3F7, 0xC67178F2,
 173:D:/School/diseratie/SEMS/xmc4800_evaluation_kit/optiga-trust-m/externals/mbedtls/library\sha256.c **** };
 174:D:/School/diseratie/SEMS/xmc4800_evaluation_kit/optiga-trust-m/externals/mbedtls/library\sha256.c **** 
 175:D:/School/diseratie/SEMS/xmc4800_evaluation_kit/optiga-trust-m/externals/mbedtls/library\sha256.c **** #define  SHR(x,n) ((x & 0xFFFFFFFF) >> n)
 176:D:/School/diseratie/SEMS/xmc4800_evaluation_kit/optiga-trust-m/externals/mbedtls/library\sha256.c **** #define ROTR(x,n) (SHR(x,n) | (x << (32 - n)))
 177:D:/School/diseratie/SEMS/xmc4800_evaluation_kit/optiga-trust-m/externals/mbedtls/library\sha256.c **** 
 178:D:/School/diseratie/SEMS/xmc4800_evaluation_kit/optiga-trust-m/externals/mbedtls/library\sha256.c **** #define S0(x) (ROTR(x, 7) ^ ROTR(x,18) ^  SHR(x, 3))
 179:D:/School/diseratie/SEMS/xmc4800_evaluation_kit/optiga-trust-m/externals/mbedtls/library\sha256.c **** #define S1(x) (ROTR(x,17) ^ ROTR(x,19) ^  SHR(x,10))
 180:D:/School/diseratie/SEMS/xmc4800_evaluation_kit/optiga-trust-m/externals/mbedtls/library\sha256.c **** 
 181:D:/School/diseratie/SEMS/xmc4800_evaluation_kit/optiga-trust-m/externals/mbedtls/library\sha256.c **** #define S2(x) (ROTR(x, 2) ^ ROTR(x,13) ^ ROTR(x,22))
 182:D:/School/diseratie/SEMS/xmc4800_evaluation_kit/optiga-trust-m/externals/mbedtls/library\sha256.c **** #define S3(x) (ROTR(x, 6) ^ ROTR(x,11) ^ ROTR(x,25))
 183:D:/School/diseratie/SEMS/xmc4800_evaluation_kit/optiga-trust-m/externals/mbedtls/library\sha256.c **** 
 184:D:/School/diseratie/SEMS/xmc4800_evaluation_kit/optiga-trust-m/externals/mbedtls/library\sha256.c **** #define F0(x,y,z) ((x & y) | (z & (x | y)))
 185:D:/School/diseratie/SEMS/xmc4800_evaluation_kit/optiga-trust-m/externals/mbedtls/library\sha256.c **** #define F1(x,y,z) (z ^ (x & (y ^ z)))
 186:D:/School/diseratie/SEMS/xmc4800_evaluation_kit/optiga-trust-m/externals/mbedtls/library\sha256.c **** 
 187:D:/School/diseratie/SEMS/xmc4800_evaluation_kit/optiga-trust-m/externals/mbedtls/library\sha256.c **** #define R(t)                                    \
 188:D:/School/diseratie/SEMS/xmc4800_evaluation_kit/optiga-trust-m/externals/mbedtls/library\sha256.c **** (                                               \
 189:D:/School/diseratie/SEMS/xmc4800_evaluation_kit/optiga-trust-m/externals/mbedtls/library\sha256.c ****     W[t] = S1(W[t -  2]) + W[t -  7] +          \
 190:D:/School/diseratie/SEMS/xmc4800_evaluation_kit/optiga-trust-m/externals/mbedtls/library\sha256.c ****            S0(W[t - 15]) + W[t - 16]            \
 191:D:/School/diseratie/SEMS/xmc4800_evaluation_kit/optiga-trust-m/externals/mbedtls/library\sha256.c **** )
 192:D:/School/diseratie/SEMS/xmc4800_evaluation_kit/optiga-trust-m/externals/mbedtls/library\sha256.c **** 
 193:D:/School/diseratie/SEMS/xmc4800_evaluation_kit/optiga-trust-m/externals/mbedtls/library\sha256.c **** #define P(a,b,c,d,e,f,g,h,x,K)                  \
 194:D:/School/diseratie/SEMS/xmc4800_evaluation_kit/optiga-trust-m/externals/mbedtls/library\sha256.c **** {                                               \
 195:D:/School/diseratie/SEMS/xmc4800_evaluation_kit/optiga-trust-m/externals/mbedtls/library\sha256.c ****     temp1 = h + S3(e) + F1(e,f,g) + K + x;      \
 196:D:/School/diseratie/SEMS/xmc4800_evaluation_kit/optiga-trust-m/externals/mbedtls/library\sha256.c ****     temp2 = S2(a) + F0(a,b,c);                  \
 197:D:/School/diseratie/SEMS/xmc4800_evaluation_kit/optiga-trust-m/externals/mbedtls/library\sha256.c ****     d += temp1; h = temp1 + temp2;              \
 198:D:/School/diseratie/SEMS/xmc4800_evaluation_kit/optiga-trust-m/externals/mbedtls/library\sha256.c **** }
 199:D:/School/diseratie/SEMS/xmc4800_evaluation_kit/optiga-trust-m/externals/mbedtls/library\sha256.c **** 
 200:D:/School/diseratie/SEMS/xmc4800_evaluation_kit/optiga-trust-m/externals/mbedtls/library\sha256.c **** int mbedtls_internal_sha256_process( mbedtls_sha256_context *ctx,
 201:D:/School/diseratie/SEMS/xmc4800_evaluation_kit/optiga-trust-m/externals/mbedtls/library\sha256.c ****                                 const unsigned char data[64] )
 202:D:/School/diseratie/SEMS/xmc4800_evaluation_kit/optiga-trust-m/externals/mbedtls/library\sha256.c **** {
 325              	 .loc 1 202 0
 326              	 .cfi_startproc
 327              	 
 328              	 
 329              	.LVL10:
 330 0000 2DE9F04F 	 push {r4,r5,r6,r7,r8,r9,r10,fp,lr}
 331              	.LCFI3:
 332              	 .cfi_def_cfa_offset 36
 333              	 .cfi_offset 4,-36
 334              	 .cfi_offset 5,-32
 335              	 .cfi_offset 6,-28
 336              	 .cfi_offset 7,-24
 337              	 .cfi_offset 8,-20
 338              	 .cfi_offset 9,-16
 339              	 .cfi_offset 10,-12
 340              	 .cfi_offset 11,-8
 341              	 .cfi_offset 14,-4
 203:D:/School/diseratie/SEMS/xmc4800_evaluation_kit/optiga-trust-m/externals/mbedtls/library\sha256.c ****     uint32_t temp1, temp2, W[64];
 204:D:/School/diseratie/SEMS/xmc4800_evaluation_kit/optiga-trust-m/externals/mbedtls/library\sha256.c ****     uint32_t A[8];
 205:D:/School/diseratie/SEMS/xmc4800_evaluation_kit/optiga-trust-m/externals/mbedtls/library\sha256.c ****     unsigned int i;
 206:D:/School/diseratie/SEMS/xmc4800_evaluation_kit/optiga-trust-m/externals/mbedtls/library\sha256.c **** 
 207:D:/School/diseratie/SEMS/xmc4800_evaluation_kit/optiga-trust-m/externals/mbedtls/library\sha256.c ****     SHA256_VALIDATE_RET( ctx != NULL );
 208:D:/School/diseratie/SEMS/xmc4800_evaluation_kit/optiga-trust-m/externals/mbedtls/library\sha256.c ****     SHA256_VALIDATE_RET( (const unsigned char *)data != NULL );
 209:D:/School/diseratie/SEMS/xmc4800_evaluation_kit/optiga-trust-m/externals/mbedtls/library\sha256.c **** 
 210:D:/School/diseratie/SEMS/xmc4800_evaluation_kit/optiga-trust-m/externals/mbedtls/library\sha256.c ****     for( i = 0; i < 8; i++ )
 211:D:/School/diseratie/SEMS/xmc4800_evaluation_kit/optiga-trust-m/externals/mbedtls/library\sha256.c ****         A[i] = ctx->state[i];
 342              	 .loc 1 211 0
 343 0004 0646     	 mov r6,r0
 202:D:/School/diseratie/SEMS/xmc4800_evaluation_kit/optiga-trust-m/externals/mbedtls/library\sha256.c ****     uint32_t temp1, temp2, W[64];
 344              	 .loc 1 202 0
 345 0006 E5B0     	 sub sp,sp,#404
 346              	.LCFI4:
 347              	 .cfi_def_cfa_offset 440
 202:D:/School/diseratie/SEMS/xmc4800_evaluation_kit/optiga-trust-m/externals/mbedtls/library\sha256.c ****     uint32_t temp1, temp2, W[64];
 348              	 .loc 1 202 0
 349 0008 0C46     	 mov r4,r1
 350 000a 1B90     	 str r0,[sp,#108]
 351 000c 56F8080F 	 ldr r0,[r6,#8]!
 352              	.LVL11:
 353 0010 7168     	 ldr r1,[r6,#4]
 354              	.LVL12:
 355 0012 B268     	 ldr r2,[r6,#8]
 356 0014 F368     	 ldr r3,[r6,#12]
 357 0016 1CAD     	 add r5,sp,#112
 358 0018 0FC5     	 stmia r5!,{r0,r1,r2,r3}
 359 001a 7169     	 ldr r1,[r6,#20]
 360 001c 3069     	 ldr r0,[r6,#16]
 361 001e B269     	 ldr r2,[r6,#24]
 362 0020 F369     	 ldr r3,[r6,#28]
 363 0022 33AE     	 add r6,sp,#204
 364 0024 0FC5     	 stmia r5!,{r0,r1,r2,r3}
 365 0026 611C     	 adds r1,r4,#1
 366 0028 23AD     	 add r5,sp,#140
 367              	.LVL13:
 368              	.L24:
 212:D:/School/diseratie/SEMS/xmc4800_evaluation_kit/optiga-trust-m/externals/mbedtls/library\sha256.c **** 
 213:D:/School/diseratie/SEMS/xmc4800_evaluation_kit/optiga-trust-m/externals/mbedtls/library\sha256.c **** #if defined(MBEDTLS_SHA256_SMALLER)
 214:D:/School/diseratie/SEMS/xmc4800_evaluation_kit/optiga-trust-m/externals/mbedtls/library\sha256.c ****     for( i = 0; i < 64; i++ )
 215:D:/School/diseratie/SEMS/xmc4800_evaluation_kit/optiga-trust-m/externals/mbedtls/library\sha256.c ****     {
 216:D:/School/diseratie/SEMS/xmc4800_evaluation_kit/optiga-trust-m/externals/mbedtls/library\sha256.c ****         if( i < 16 )
 217:D:/School/diseratie/SEMS/xmc4800_evaluation_kit/optiga-trust-m/externals/mbedtls/library\sha256.c ****             GET_UINT32_BE( W[i], data, 4 * i );
 218:D:/School/diseratie/SEMS/xmc4800_evaluation_kit/optiga-trust-m/externals/mbedtls/library\sha256.c ****         else
 219:D:/School/diseratie/SEMS/xmc4800_evaluation_kit/optiga-trust-m/externals/mbedtls/library\sha256.c ****             R( i );
 220:D:/School/diseratie/SEMS/xmc4800_evaluation_kit/optiga-trust-m/externals/mbedtls/library\sha256.c **** 
 221:D:/School/diseratie/SEMS/xmc4800_evaluation_kit/optiga-trust-m/externals/mbedtls/library\sha256.c ****         P( A[0], A[1], A[2], A[3], A[4], A[5], A[6], A[7], W[i], K[i] );
 222:D:/School/diseratie/SEMS/xmc4800_evaluation_kit/optiga-trust-m/externals/mbedtls/library\sha256.c **** 
 223:D:/School/diseratie/SEMS/xmc4800_evaluation_kit/optiga-trust-m/externals/mbedtls/library\sha256.c ****         temp1 = A[7]; A[7] = A[6]; A[6] = A[5]; A[5] = A[4]; A[4] = A[3];
 224:D:/School/diseratie/SEMS/xmc4800_evaluation_kit/optiga-trust-m/externals/mbedtls/library\sha256.c ****         A[3] = A[2]; A[2] = A[1]; A[1] = A[0]; A[0] = temp1;
 225:D:/School/diseratie/SEMS/xmc4800_evaluation_kit/optiga-trust-m/externals/mbedtls/library\sha256.c ****     }
 226:D:/School/diseratie/SEMS/xmc4800_evaluation_kit/optiga-trust-m/externals/mbedtls/library\sha256.c **** #else /* MBEDTLS_SHA256_SMALLER */
 227:D:/School/diseratie/SEMS/xmc4800_evaluation_kit/optiga-trust-m/externals/mbedtls/library\sha256.c ****     for( i = 0; i < 16; i++ )
 228:D:/School/diseratie/SEMS/xmc4800_evaluation_kit/optiga-trust-m/externals/mbedtls/library\sha256.c ****         GET_UINT32_BE( W[i], data, 4 * i );
 369              	 .loc 1 228 0 discriminator 3
 370 002a 0878     	 ldrb r0,[r1]
 371 002c 11F8013C 	 ldrb r3,[r1,#-1]
 372 0030 8A78     	 ldrb r2,[r1,#2]
 373 0032 4C78     	 ldrb r4,[r1,#1]
 374 0034 0004     	 lsls r0,r0,#16
 375 0036 40EA0363 	 orr r3,r0,r3,lsl#24
 376 003a 1343     	 orrs r3,r3,r2
 377 003c 43EA0423 	 orr r3,r3,r4,lsl#8
 378 0040 45F8043F 	 str r3,[r5,#4]!
 227:D:/School/diseratie/SEMS/xmc4800_evaluation_kit/optiga-trust-m/externals/mbedtls/library\sha256.c ****         GET_UINT32_BE( W[i], data, 4 * i );
 379              	 .loc 1 227 0 discriminator 3
 380 0044 B542     	 cmp r5,r6
 381 0046 01F10401 	 add r1,r1,#4
 382 004a EED1     	 bne .L24
 383 004c 1D9C     	 ldr r4,[sp,#116]
 384 004e 219A     	 ldr r2,[sp,#132]
 385 0050 DFF8F0E2 	 ldr lr,.L31
 386 0054 DDF88CB0 	 ldr fp,[sp,#140]
 387 0058 209B     	 ldr r3,[sp,#128]
 388 005a 2298     	 ldr r0,[sp,#136]
 389 005c 1C99     	 ldr r1,[sp,#112]
 390 005e DDF87CA0 	 ldr r10,[sp,#124]
 227:D:/School/diseratie/SEMS/xmc4800_evaluation_kit/optiga-trust-m/externals/mbedtls/library\sha256.c ****         GET_UINT32_BE( W[i], data, 4 * i );
 391              	 .loc 1 227 0 is_stmt 0
 392 0062 CDF808E0 	 str lr,[sp,#8]
 393 0066 2646     	 mov r6,r4
 394 0068 1E9C     	 ldr r4,[sp,#120]
 395 006a 2546     	 mov r5,r4
 396 006c 24AC     	 add r4,sp,#144
 397 006e 2746     	 mov r7,r4
 398 0070 0494     	 str r4,[sp,#16]
 399 0072 0024     	 movs r4,#0
 400 0074 0194     	 str r4,[sp,#4]
 401 0076 1446     	 mov r4,r2
 402 0078 019A     	 ldr r2,[sp,#4]
 403 007a F446     	 mov ip,lr
 404 007c B846     	 mov r8,r7
 405 007e AE46     	 mov lr,r5
 406              	.L25:
 407              	.LVL14:
 408 0080 0DF19009 	 add r9,sp,#144
 409 0084 AF4D     	 ldr r5,.L31
 229:D:/School/diseratie/SEMS/xmc4800_evaluation_kit/optiga-trust-m/externals/mbedtls/library\sha256.c **** 
 230:D:/School/diseratie/SEMS/xmc4800_evaluation_kit/optiga-trust-m/externals/mbedtls/library\sha256.c ****     for( i = 0; i < 16; i += 8 )
 231:D:/School/diseratie/SEMS/xmc4800_evaluation_kit/optiga-trust-m/externals/mbedtls/library\sha256.c ****     {
 232:D:/School/diseratie/SEMS/xmc4800_evaluation_kit/optiga-trust-m/externals/mbedtls/library\sha256.c ****         P( A[0], A[1], A[2], A[3], A[4], A[5], A[6], A[7], W[i+0], K[i+0] );
 410              	 .loc 1 232 0 is_stmt 1 discriminator 3
 411 0086 4FEAB317 	 ror r7,r3,#6
 412 008a 55F82250 	 ldr r5,[r5,r2,lsl#2]
 413 008e 59F82220 	 ldr r2,[r9,r2,lsl#2]
 414 0092 87EAF327 	 eor r7,r7,r3,ror#11
 415 0096 80EA0409 	 eor r9,r0,r4
 416 009a 2A44     	 add r2,r2,r5
 417 009c 87EA7367 	 eor r7,r7,r3,ror#25
 418 00a0 09EA0309 	 and r9,r9,r3
 419 00a4 89EA0009 	 eor r9,r9,r0
 420 00a8 1744     	 add r7,r7,r2
 421 00aa 46EA0105 	 orr r5,r6,r1
 422 00ae 4F44     	 add r7,r7,r9
 423 00b0 4FEAB102 	 ror r2,r1,#2
 424 00b4 BB44     	 add fp,fp,r7
 425              	.LVL15:
 426 00b6 05EA0E05 	 and r5,r5,lr
 427 00ba 06EA0107 	 and r7,r6,r1
 428 00be 82EA7132 	 eor r2,r2,r1,ror#13
 429 00c2 3D43     	 orrs r5,r5,r7
 430 00c4 82EAB152 	 eor r2,r2,r1,ror#22
 431 00c8 DCF80470 	 ldr r7,[ip,#4]
 432 00cc 2A44     	 add r2,r2,r5
 433              	.LVL16:
 434 00ce D8F80450 	 ldr r5,[r8,#4]
 435 00d2 5A44     	 add r2,r2,fp
 436              	.LVL17:
 437 00d4 DA44     	 add r10,r10,fp
 233:D:/School/diseratie/SEMS/xmc4800_evaluation_kit/optiga-trust-m/externals/mbedtls/library\sha256.c ****         P( A[7], A[0], A[1], A[2], A[3], A[4], A[5], A[6], W[i+1], K[i+1] );
 438              	 .loc 1 233 0 discriminator 3
 439 00d6 84EA030B 	 eor fp,r4,r3
 440              	.LVL18:
 441 00da 3D44     	 add r5,r5,r7
 442 00dc 0AEA0B0B 	 and fp,r10,fp
 443 00e0 4FEABA17 	 ror r7,r10,#6
 444 00e4 8BEA040B 	 eor fp,fp,r4
 445 00e8 2844     	 add r0,r0,r5
 446 00ea 87EAFA27 	 eor r7,r7,r10,ror#11
 447 00ee 42EA0109 	 orr r9,r2,r1
 448 00f2 5844     	 add r0,r0,fp
 449 00f4 4FEAB205 	 ror r5,r2,#2
 450 00f8 87EA7A67 	 eor r7,r7,r10,ror#25
 451 00fc 0744     	 add r7,r7,r0
 452              	.LVL19:
 453 00fe 09EA0609 	 and r9,r9,r6
 454 0102 02EA0100 	 and r0,r2,r1
 455 0106 85EA7235 	 eor r5,r5,r2,ror#13
 456 010a 85EAB255 	 eor r5,r5,r2,ror#22
 457 010e 49EA0000 	 orr r0,r9,r0
 458 0112 2844     	 add r0,r0,r5
 459              	.LVL20:
 460 0114 3844     	 add r0,r0,r7
 461              	.LVL21:
 462 0116 BE44     	 add lr,lr,r7
 463 0118 D8F80850 	 ldr r5,[r8,#8]
 464 011c DCF80870 	 ldr r7,[ip,#8]
 465              	.LVL22:
 234:D:/School/diseratie/SEMS/xmc4800_evaluation_kit/optiga-trust-m/externals/mbedtls/library\sha256.c ****         P( A[6], A[7], A[0], A[1], A[2], A[3], A[4], A[5], W[i+2], K[i+2] );
 466              	 .loc 1 234 0 discriminator 3
 467 0120 8AEA030B 	 eor fp,r10,r3
 468 0124 3D44     	 add r5,r5,r7
 469 0126 0EEA0B0B 	 and fp,lr,fp
 470 012a 4FEABE17 	 ror r7,lr,#6
 471 012e 8BEA030B 	 eor fp,fp,r3
 472 0132 2C44     	 add r4,r4,r5
 473 0134 87EAFE27 	 eor r7,r7,lr,ror#11
 474 0138 40EA0209 	 orr r9,r0,r2
 475 013c 5C44     	 add r4,r4,fp
 476 013e 4FEAB005 	 ror r5,r0,#2
 477 0142 87EA7E67 	 eor r7,r7,lr,ror#25
 478 0146 2744     	 add r7,r7,r4
 479              	.LVL23:
 480 0148 09EA0109 	 and r9,r9,r1
 481 014c 00EA0204 	 and r4,r0,r2
 482 0150 85EA7035 	 eor r5,r5,r0,ror#13
 483 0154 85EAB055 	 eor r5,r5,r0,ror#22
 484 0158 49EA0404 	 orr r4,r9,r4
 485 015c 2C44     	 add r4,r4,r5
 486              	.LVL24:
 487 015e 3C44     	 add r4,r4,r7
 488              	.LVL25:
 489 0160 3E44     	 add r6,r6,r7
 490 0162 D8F80C50 	 ldr r5,[r8,#12]
 491 0166 DCF80C70 	 ldr r7,[ip,#12]
 492              	.LVL26:
 235:D:/School/diseratie/SEMS/xmc4800_evaluation_kit/optiga-trust-m/externals/mbedtls/library\sha256.c ****         P( A[5], A[6], A[7], A[0], A[1], A[2], A[3], A[4], W[i+3], K[i+3] );
 493              	 .loc 1 235 0 discriminator 3
 494 016a 8EEA0A0B 	 eor fp,lr,r10
 495 016e 3D44     	 add r5,r5,r7
 496 0170 06EA0B0B 	 and fp,r6,fp
 497 0174 4FEAB617 	 ror r7,r6,#6
 498 0178 8BEA0A0B 	 eor fp,fp,r10
 499 017c 2B44     	 add r3,r3,r5
 500 017e 87EAF627 	 eor r7,r7,r6,ror#11
 501 0182 44EA0009 	 orr r9,r4,r0
 502 0186 5B44     	 add r3,r3,fp
 503 0188 87EA7667 	 eor r7,r7,r6,ror#25
 504 018c 4FEAB40B 	 ror fp,r4,#2
 505 0190 DD19     	 adds r5,r3,r7
 506              	.LVL27:
 507 0192 09EA0209 	 and r9,r9,r2
 508 0196 04EA0003 	 and r3,r4,r0
 509 019a 8BEA743B 	 eor fp,fp,r4,ror#13
 510 019e 8BEAB45B 	 eor fp,fp,r4,ror#22
 511 01a2 49EA0303 	 orr r3,r9,r3
 512 01a6 5B44     	 add r3,r3,fp
 513              	.LVL28:
 514 01a8 2B44     	 add r3,r3,r5
 515              	.LVL29:
 516 01aa 2944     	 add r1,r1,r5
 517 01ac DCF81070 	 ldr r7,[ip,#16]
 518 01b0 D8F81050 	 ldr r5,[r8,#16]
 519              	.LVL30:
 236:D:/School/diseratie/SEMS/xmc4800_evaluation_kit/optiga-trust-m/externals/mbedtls/library\sha256.c ****         P( A[4], A[5], A[6], A[7], A[0], A[1], A[2], A[3], W[i+4], K[i+4] );
 520              	 .loc 1 236 0 discriminator 3
 521 01b4 86EA0E0B 	 eor fp,r6,lr
 522 01b8 2F44     	 add r7,r7,r5
 523 01ba 01EA0B0B 	 and fp,r1,fp
 524 01be 4FEAB115 	 ror r5,r1,#6
 525 01c2 8BEA0E0B 	 eor fp,fp,lr
 526 01c6 BA44     	 add r10,r10,r7
 527 01c8 85EAF125 	 eor r5,r5,r1,ror#11
 528 01cc 43EA0409 	 orr r9,r3,r4
 529 01d0 DA44     	 add r10,r10,fp
 530 01d2 85EA7165 	 eor r5,r5,r1,ror#25
 531 01d6 4FEAB30B 	 ror fp,r3,#2
 532 01da 0AEB0507 	 add r7,r10,r5
 533              	.LVL31:
 534 01de 09EA0009 	 and r9,r9,r0
 535 01e2 03EA040A 	 and r10,r3,r4
 536 01e6 8BEA733B 	 eor fp,fp,r3,ror#13
 537 01ea 8BEAB35B 	 eor fp,fp,r3,ror#22
 538 01ee 49EA0A0A 	 orr r10,r9,r10
 539 01f2 DA44     	 add r10,r10,fp
 540              	.LVL32:
 541 01f4 BA44     	 add r10,r10,r7
 542              	.LVL33:
 543 01f6 07EB020B 	 add fp,r7,r2
 544 01fa DCF81450 	 ldr r5,[ip,#20]
 545 01fe D8F81470 	 ldr r7,[r8,#20]
 546              	.LVL34:
 237:D:/School/diseratie/SEMS/xmc4800_evaluation_kit/optiga-trust-m/externals/mbedtls/library\sha256.c ****         P( A[3], A[4], A[5], A[6], A[7], A[0], A[1], A[2], W[i+5], K[i+5] );
 547              	 .loc 1 237 0 discriminator 3
 548 0202 81EA0609 	 eor r9,r1,r6
 549 0206 3D44     	 add r5,r5,r7
 550 0208 0BEA0909 	 and r9,fp,r9
 551 020c 4FEABB12 	 ror r2,fp,#6
 552 0210 89EA0609 	 eor r9,r9,r6
 553 0214 AE44     	 add lr,lr,r5
 554 0216 82EAFB22 	 eor r2,r2,fp,ror#11
 555 021a CE44     	 add lr,lr,r9
 556 021c 4AEA0307 	 orr r7,r10,r3
 557 0220 82EA7B62 	 eor r2,r2,fp,ror#25
 558 0224 4FEABA09 	 ror r9,r10,#2
 559 0228 0EEB0205 	 add r5,lr,r2
 560              	.LVL35:
 561 022c 2740     	 ands r7,r7,r4
 562 022e 0AEA030E 	 and lr,r10,r3
 563 0232 89EA7A39 	 eor r9,r9,r10,ror#13
 564 0236 89EABA59 	 eor r9,r9,r10,ror#22
 565 023a 47EA0E0E 	 orr lr,r7,lr
 566 023e CE44     	 add lr,lr,r9
 567              	.LVL36:
 568 0240 AE44     	 add lr,lr,r5
 569              	.LVL37:
 570 0242 2844     	 add r0,r0,r5
 571 0244 DCF81820 	 ldr r2,[ip,#24]
 572 0248 D8F81850 	 ldr r5,[r8,#24]
 573              	.LVL38:
 238:D:/School/diseratie/SEMS/xmc4800_evaluation_kit/optiga-trust-m/externals/mbedtls/library\sha256.c ****         P( A[2], A[3], A[4], A[5], A[6], A[7], A[0], A[1], W[i+6], K[i+6] );
 574              	 .loc 1 238 0 discriminator 3
 575 024c 8BEA0109 	 eor r9,fp,r1
 576 0250 2A44     	 add r2,r2,r5
 577 0252 00EA0909 	 and r9,r0,r9
 578 0256 4FEAB015 	 ror r5,r0,#6
 579 025a 89EA0109 	 eor r9,r9,r1
 580 025e 1644     	 add r6,r6,r2
 581 0260 85EAF025 	 eor r5,r5,r0,ror#11
 582 0264 4E44     	 add r6,r6,r9
 583 0266 4EEA0A07 	 orr r7,lr,r10
 584 026a 4FEABE02 	 ror r2,lr,#2
 585 026e 85EA7065 	 eor r5,r5,r0,ror#25
 586 0272 3544     	 add r5,r5,r6
 587              	.LVL39:
 588 0274 1F40     	 ands r7,r7,r3
 589 0276 82EA7E32 	 eor r2,r2,lr,ror#13
 590 027a 0EEA0A06 	 and r6,lr,r10
 591 027e 82EABE52 	 eor r2,r2,lr,ror#22
 592 0282 3E43     	 orrs r6,r6,r7
 593 0284 1644     	 add r6,r6,r2
 594              	.LVL40:
 595 0286 2E44     	 add r6,r6,r5
 596              	.LVL41:
 597 0288 2C44     	 add r4,r4,r5
 598 028a DCF81C20 	 ldr r2,[ip,#28]
 599 028e D8F81C50 	 ldr r5,[r8,#28]
 600              	.LVL42:
 239:D:/School/diseratie/SEMS/xmc4800_evaluation_kit/optiga-trust-m/externals/mbedtls/library\sha256.c ****         P( A[1], A[2], A[3], A[4], A[5], A[6], A[7], A[0], W[i+7], K[i+7] );
 601              	 .loc 1 239 0 discriminator 3
 602 0292 80EA0B09 	 eor r9,r0,fp
 603 0296 AF18     	 adds r7,r5,r2
 604 0298 04EA0909 	 and r9,r4,r9
 605 029c 3944     	 add r1,r1,r7
 606 029e 89EA0B09 	 eor r9,r9,fp
 607 02a2 46EA0E02 	 orr r2,r6,lr
 608 02a6 02EA0A02 	 and r2,r2,r10
 609 02aa 4944     	 add r1,r1,r9
 610 02ac 06EA0E09 	 and r9,r6,lr
 611 02b0 42EA0909 	 orr r9,r2,r9
 612 02b4 4FEAB415 	 ror r5,r4,#6
 230:D:/School/diseratie/SEMS/xmc4800_evaluation_kit/optiga-trust-m/externals/mbedtls/library\sha256.c ****     {
 613              	 .loc 1 230 0 discriminator 3
 614 02b8 019A     	 ldr r2,[sp,#4]
 615              	 .loc 1 239 0 discriminator 3
 616 02ba 4FEAB607 	 ror r7,r6,#2
 617 02be 85EAF425 	 eor r5,r5,r4,ror#11
 618 02c2 87EA7637 	 eor r7,r7,r6,ror#13
 230:D:/School/diseratie/SEMS/xmc4800_evaluation_kit/optiga-trust-m/externals/mbedtls/library\sha256.c ****     {
 619              	 .loc 1 230 0 discriminator 3
 620 02c6 0832     	 adds r2,r2,#8
 621              	 .loc 1 239 0 discriminator 3
 622 02c8 85EA7465 	 eor r5,r5,r4,ror#25
 623 02cc 87EAB657 	 eor r7,r7,r6,ror#22
 230:D:/School/diseratie/SEMS/xmc4800_evaluation_kit/optiga-trust-m/externals/mbedtls/library\sha256.c ****     {
 624              	 .loc 1 230 0 discriminator 3
 625 02d0 0192     	 str r2,[sp,#4]
 626              	.LVL43:
 627              	 .loc 1 239 0 discriminator 3
 628 02d2 2944     	 add r1,r1,r5
 629              	.LVL44:
 630 02d4 09EB0702 	 add r2,r9,r7
 631              	.LVL45:
 632 02d8 0B44     	 add r3,r3,r1
 633 02da 1144     	 add r1,r1,r2
 634              	.LVL46:
 230:D:/School/diseratie/SEMS/xmc4800_evaluation_kit/optiga-trust-m/externals/mbedtls/library\sha256.c ****     {
 635              	 .loc 1 230 0 discriminator 3
 636 02dc 019A     	 ldr r2,[sp,#4]
 637              	.LVL47:
 638 02de 102A     	 cmp r2,#16
 639 02e0 08F12008 	 add r8,r8,#32
 640 02e4 0CF1200C 	 add ip,ip,#32
 641 02e8 7FF4CAAE 	 bne .L25
 642 02ec 299A     	 ldr r2,[sp,#164]
 643 02ee 0E92     	 str r2,[sp,#56]
 644 02f0 319A     	 ldr r2,[sp,#196]
 645 02f2 1492     	 str r2,[sp,#80]
 646 02f4 289A     	 ldr r2,[sp,#160]
 647 02f6 0F92     	 str r2,[sp,#60]
 648 02f8 309A     	 ldr r2,[sp,#192]
 649 02fa 1592     	 str r2,[sp,#84]
 650 02fc 279A     	 ldr r2,[sp,#156]
 651 02fe 1092     	 str r2,[sp,#64]
 652 0300 2F9A     	 ldr r2,[sp,#188]
 653 0302 1692     	 str r2,[sp,#88]
 654 0304 2E9A     	 ldr r2,[sp,#184]
 655 0306 1892     	 str r2,[sp,#96]
 656 0308 2746     	 mov r7,r4
 657 030a 2B9A     	 ldr r2,[sp,#172]
 658 030c 2D9C     	 ldr r4,[sp,#180]
 659 030e CDF814E0 	 str lr,[sp,#20]
 660 0312 0D92     	 str r2,[sp,#52]
 661 0314 DDF808E0 	 ldr lr,[sp,#8]
 662              	.LVL48:
 663 0318 339A     	 ldr r2,[sp,#204]
 664 031a 1794     	 str r4,[sp,#92]
 665 031c 2A9C     	 ldr r4,[sp,#168]
 666 031e 0B92     	 str r2,[sp,#44]
 667 0320 0D46     	 mov r5,r1
 668 0322 2C9A     	 ldr r2,[sp,#176]
 669 0324 1294     	 str r4,[sp,#72]
 670 0326 329C     	 ldr r4,[sp,#200]
 671 0328 0A96     	 str r6,[sp,#40]
 672 032a 1192     	 str r2,[sp,#68]
 673 032c CDF818B0 	 str fp,[sp,#24]
 674 0330 2699     	 ldr r1,[sp,#152]
 675 0332 249E     	 ldr r6,[sp,#144]
 676              	.LVL49:
 677 0334 259A     	 ldr r2,[sp,#148]
 678 0336 0C94     	 str r4,[sp,#48]
 679 0338 F346     	 mov fp,lr
 680 033a 0297     	 str r7,[sp,#8]
 681 033c 0393     	 str r3,[sp,#12]
 682 033e 0195     	 str r5,[sp,#4]
 683 0340 02E0     	 b .L32
 684              	.L33:
 685 0342 00BF     	 .align 2
 686              	.L31:
 687 0344 00000000 	 .word .LANCHOR0
 688              	.L32:
 689              	.LVL50:
 690              	.L26:
 240:D:/School/diseratie/SEMS/xmc4800_evaluation_kit/optiga-trust-m/externals/mbedtls/library\sha256.c ****     }
 241:D:/School/diseratie/SEMS/xmc4800_evaluation_kit/optiga-trust-m/externals/mbedtls/library\sha256.c **** 
 242:D:/School/diseratie/SEMS/xmc4800_evaluation_kit/optiga-trust-m/externals/mbedtls/library\sha256.c ****     for( i = 16; i < 64; i += 8 )
 243:D:/School/diseratie/SEMS/xmc4800_evaluation_kit/optiga-trust-m/externals/mbedtls/library\sha256.c ****     {
 244:D:/School/diseratie/SEMS/xmc4800_evaluation_kit/optiga-trust-m/externals/mbedtls/library\sha256.c ****         P( A[0], A[1], A[2], A[3], A[4], A[5], A[6], A[7], R(i+0), K[i+0] );
 691              	 .loc 1 244 0 discriminator 3
 692 0348 039B     	 ldr r3,[sp,#12]
 693 034a 0C9D     	 ldr r5,[sp,#48]
 694 034c 039F     	 ldr r7,[sp,#12]
 695 034e DBF84040 	 ldr r4,[fp,#64]
 696 0352 4FEAB318 	 ror r8,r3,#6
 697 0356 4FEA754C 	 ror ip,r5,#17
 698 035a 88EAF328 	 eor r8,r8,r3,ror#11
 699 035e 029B     	 ldr r3,[sp,#8]
 700 0360 8CEAF54C 	 eor ip,ip,r5,ror#19
 701 0364 80EA030E 	 eor lr,r0,r3
 702 0368 8CEA952C 	 eor ip,ip,r5,lsr#10
 703 036c 039D     	 ldr r5,[sp,#12]
 704 036e 0EEA070E 	 and lr,lr,r7
 705 0372 8EEA000E 	 eor lr,lr,r0
 706 0376 88EA7568 	 eor r8,r8,r5,ror#25
 707 037a F044     	 add r8,r8,lr
 708 037c 179F     	 ldr r7,[sp,#92]
 709 037e A044     	 add r8,r8,r4
 710 0380 0A9C     	 ldr r4,[sp,#40]
 711 0382 4FEAF219 	 ror r9,r2,#7
 712 0386 A646     	 mov lr,r4
 713 0388 3E44     	 add r6,r6,r7
 714 038a 019C     	 ldr r4,[sp,#4]
 245:D:/School/diseratie/SEMS/xmc4800_evaluation_kit/optiga-trust-m/externals/mbedtls/library\sha256.c ****         P( A[7], A[0], A[1], A[2], A[3], A[4], A[5], A[6], R(i+1), K[i+1] );
 715              	 .loc 1 245 0 discriminator 3
 716 038c 0B9F     	 ldr r7,[sp,#44]
 244:D:/School/diseratie/SEMS/xmc4800_evaluation_kit/optiga-trust-m/externals/mbedtls/library\sha256.c ****         P( A[7], A[0], A[1], A[2], A[3], A[4], A[5], A[6], R(i+1), K[i+1] );
 717              	 .loc 1 244 0 discriminator 3
 718 038e 89EAB249 	 eor r9,r9,r2,ror#18
 719 0392 89EAD209 	 eor r9,r9,r2,lsr#3
 720 0396 6644     	 add r6,r6,ip
 721 0398 4E44     	 add r6,r6,r9
 722 039a 4EEA0409 	 orr r9,lr,r4
 723 039e 059C     	 ldr r4,[sp,#20]
 724 03a0 09EA0409 	 and r9,r9,r4
 725 03a4 019C     	 ldr r4,[sp,#4]
 726 03a6 4FEAB40C 	 ror ip,r4,#2
 727 03aa 8CEA743C 	 eor ip,ip,r4,ror#13
 728 03ae 019C     	 ldr r4,[sp,#4]
 729 03b0 8CEAB45C 	 eor ip,ip,r4,ror#22
 730 03b4 189C     	 ldr r4,[sp,#96]
 731 03b6 3546     	 mov r5,r6
 732 03b8 2244     	 add r2,r2,r4
 733              	 .loc 1 245 0 discriminator 3
 734 03ba 4FEA7746 	 ror r6,r7,#17
 244:D:/School/diseratie/SEMS/xmc4800_evaluation_kit/optiga-trust-m/externals/mbedtls/library\sha256.c ****         P( A[7], A[0], A[1], A[2], A[3], A[4], A[5], A[6], R(i+1), K[i+1] );
 735              	 .loc 1 244 0 discriminator 3
 736 03be 069C     	 ldr r4,[sp,#24]
 246:D:/School/diseratie/SEMS/xmc4800_evaluation_kit/optiga-trust-m/externals/mbedtls/library\sha256.c ****         P( A[6], A[7], A[0], A[1], A[2], A[3], A[4], A[5], R(i+2), K[i+2] );
 737              	 .loc 1 246 0 discriminator 3
 738 03c0 1995     	 str r5,[sp,#100]
 245:D:/School/diseratie/SEMS/xmc4800_evaluation_kit/optiga-trust-m/externals/mbedtls/library\sha256.c ****         P( A[7], A[0], A[1], A[2], A[3], A[4], A[5], A[6], R(i+1), K[i+1] );
 739              	 .loc 1 245 0 discriminator 3
 740 03c2 86EAF746 	 eor r6,r6,r7,ror#19
 741 03c6 A844     	 add r8,r8,r5
 244:D:/School/diseratie/SEMS/xmc4800_evaluation_kit/optiga-trust-m/externals/mbedtls/library\sha256.c ****         P( A[7], A[0], A[1], A[2], A[3], A[4], A[5], A[6], R(i+1), K[i+1] );
 742              	 .loc 1 244 0 discriminator 3
 743 03c8 A044     	 add r8,r8,r4
 744              	.LVL51:
 245:D:/School/diseratie/SEMS/xmc4800_evaluation_kit/optiga-trust-m/externals/mbedtls/library\sha256.c ****         P( A[7], A[0], A[1], A[2], A[3], A[4], A[5], A[6], R(i+1), K[i+1] );
 745              	 .loc 1 245 0 discriminator 3
 746 03ca 86EA9726 	 eor r6,r6,r7,lsr#10
 244:D:/School/diseratie/SEMS/xmc4800_evaluation_kit/optiga-trust-m/externals/mbedtls/library\sha256.c ****         P( A[7], A[0], A[1], A[2], A[3], A[4], A[5], A[6], R(i+1), K[i+1] );
 747              	 .loc 1 244 0 discriminator 3
 748 03ce 019C     	 ldr r4,[sp,#4]
 749 03d0 0A9F     	 ldr r7,[sp,#40]
 245:D:/School/diseratie/SEMS/xmc4800_evaluation_kit/optiga-trust-m/externals/mbedtls/library\sha256.c ****         P( A[7], A[0], A[1], A[2], A[3], A[4], A[5], A[6], R(i+1), K[i+1] );
 750              	 .loc 1 245 0 discriminator 3
 751 03d2 4FEAF11E 	 ror lr,r1,#7
 752              	.LVL52:
 244:D:/School/diseratie/SEMS/xmc4800_evaluation_kit/optiga-trust-m/externals/mbedtls/library\sha256.c ****         P( A[7], A[0], A[1], A[2], A[3], A[4], A[5], A[6], R(i+1), K[i+1] );
 753              	 .loc 1 244 0 discriminator 3
 754 03d6 3C40     	 ands r4,r4,r7
 755 03d8 49EA0404 	 orr r4,r9,r4
 245:D:/School/diseratie/SEMS/xmc4800_evaluation_kit/optiga-trust-m/externals/mbedtls/library\sha256.c ****         P( A[7], A[0], A[1], A[2], A[3], A[4], A[5], A[6], R(i+1), K[i+1] );
 756              	 .loc 1 245 0 discriminator 3
 757 03dc 8EEAB14E 	 eor lr,lr,r1,ror#18
 758 03e0 1644     	 add r6,r6,r2
 244:D:/School/diseratie/SEMS/xmc4800_evaluation_kit/optiga-trust-m/externals/mbedtls/library\sha256.c ****         P( A[7], A[0], A[1], A[2], A[3], A[4], A[5], A[6], R(i+1), K[i+1] );
 759              	 .loc 1 244 0 discriminator 3
 760 03e2 A444     	 add ip,ip,r4
 761              	.LVL53:
 245:D:/School/diseratie/SEMS/xmc4800_evaluation_kit/optiga-trust-m/externals/mbedtls/library\sha256.c ****         P( A[7], A[0], A[1], A[2], A[3], A[4], A[5], A[6], R(i+1), K[i+1] );
 762              	 .loc 1 245 0 discriminator 3
 763 03e4 8EEAD10E 	 eor lr,lr,r1,lsr#3
 244:D:/School/diseratie/SEMS/xmc4800_evaluation_kit/optiga-trust-m/externals/mbedtls/library\sha256.c ****         P( A[7], A[0], A[1], A[2], A[3], A[4], A[5], A[6], R(i+1), K[i+1] );
 764              	 .loc 1 244 0 discriminator 3
 765 03e8 C444     	 add ip,ip,r8
 766              	.LVL54:
 245:D:/School/diseratie/SEMS/xmc4800_evaluation_kit/optiga-trust-m/externals/mbedtls/library\sha256.c ****         P( A[7], A[0], A[1], A[2], A[3], A[4], A[5], A[6], R(i+1), K[i+1] );
 767              	 .loc 1 245 0 discriminator 3
 768 03ea 039A     	 ldr r2,[sp,#12]
 769 03ec B644     	 add lr,r6,lr
 770 03ee DBF84460 	 ldr r6,[fp,#68]
 244:D:/School/diseratie/SEMS/xmc4800_evaluation_kit/optiga-trust-m/externals/mbedtls/library\sha256.c ****         P( A[7], A[0], A[1], A[2], A[3], A[4], A[5], A[6], R(i+1), K[i+1] );
 771              	 .loc 1 244 0 discriminator 3
 772 03f2 6446     	 mov r4,ip
 245:D:/School/diseratie/SEMS/xmc4800_evaluation_kit/optiga-trust-m/externals/mbedtls/library\sha256.c ****         P( A[7], A[0], A[1], A[2], A[3], A[4], A[5], A[6], R(i+1), K[i+1] );
 773              	 .loc 1 245 0 discriminator 3
 774 03f4 0694     	 str r4,[sp,#24]
 775 03f6 83EA020C 	 eor ip,r3,r2
 776 03fa 7246     	 mov r2,lr
 777 03fc 00EB060E 	 add lr,r0,r6
 778 0400 2646     	 mov r6,r4
 779 0402 019C     	 ldr r4,[sp,#4]
 780 0404 1392     	 str r2,[sp,#76]
 244:D:/School/diseratie/SEMS/xmc4800_evaluation_kit/optiga-trust-m/externals/mbedtls/library\sha256.c ****         P( A[7], A[0], A[1], A[2], A[3], A[4], A[5], A[6], R(i+1), K[i+1] );
 781              	 .loc 1 244 0 discriminator 3
 782 0406 C244     	 add r10,r10,r8
 245:D:/School/diseratie/SEMS/xmc4800_evaluation_kit/optiga-trust-m/externals/mbedtls/library\sha256.c ****         P( A[7], A[0], A[1], A[2], A[3], A[4], A[5], A[6], R(i+1), K[i+1] );
 783              	 .loc 1 245 0 discriminator 3
 784 0408 46EA0408 	 orr r8,r6,r4
 785              	.LVL55:
 786 040c 08EA0708 	 and r8,r8,r7
 787 0410 069F     	 ldr r7,[sp,#24]
 788              	.LVL56:
 789              	 .loc 1 246 0 discriminator 3
 790 0412 109C     	 ldr r4,[sp,#64]
 245:D:/School/diseratie/SEMS/xmc4800_evaluation_kit/optiga-trust-m/externals/mbedtls/library\sha256.c ****         P( A[7], A[0], A[1], A[2], A[3], A[4], A[5], A[6], R(i+1), K[i+1] );
 791              	 .loc 1 245 0 discriminator 3
 792 0414 0AEA0C0C 	 and ip,r10,ip
 793 0418 9644     	 add lr,lr,r2
 794 041a 4FEAB702 	 ror r2,r7,#2
 795 041e 8CEA030C 	 eor ip,ip,r3
 796 0422 82EA7732 	 eor r2,r2,r7,ror#13
 797 0426 E644     	 add lr,lr,ip
 798 0428 82EAB75C 	 eor ip,r2,r7,ror#22
 799 042c 169A     	 ldr r2,[sp,#88]
 244:D:/School/diseratie/SEMS/xmc4800_evaluation_kit/optiga-trust-m/externals/mbedtls/library\sha256.c ****         P( A[7], A[0], A[1], A[2], A[3], A[4], A[5], A[6], R(i+1), K[i+1] );
 800              	 .loc 1 244 0 discriminator 3
 801 042e 049B     	 ldr r3,[sp,#16]
 802              	 .loc 1 246 0 discriminator 3
 803 0430 4FEAF416 	 ror r6,r4,#7
 804 0434 1144     	 add r1,r1,r2
 245:D:/School/diseratie/SEMS/xmc4800_evaluation_kit/optiga-trust-m/externals/mbedtls/library\sha256.c ****         P( A[7], A[0], A[1], A[2], A[3], A[4], A[5], A[6], R(i+1), K[i+1] );
 805              	 .loc 1 245 0 discriminator 3
 806 0436 019A     	 ldr r2,[sp,#4]
 807 0438 4FEABA10 	 ror r0,r10,#6
 808              	 .loc 1 246 0 discriminator 3
 809 043c 86EAB446 	 eor r6,r6,r4,ror#18
 810 0440 86EAD406 	 eor r6,r6,r4,lsr#3
 245:D:/School/diseratie/SEMS/xmc4800_evaluation_kit/optiga-trust-m/externals/mbedtls/library\sha256.c ****         P( A[7], A[0], A[1], A[2], A[3], A[4], A[5], A[6], R(i+1), K[i+1] );
 811              	 .loc 1 245 0 discriminator 3
 812 0444 80EAFA20 	 eor r0,r0,r10,ror#11
 813 0448 3A40     	 ands r2,r2,r7
 814 044a 3144     	 add r1,r1,r6
 815 044c 80EA7A60 	 eor r0,r0,r10,ror#25
 816 0450 48EA0202 	 orr r2,r8,r2
 817 0454 059E     	 ldr r6,[sp,#20]
 818 0456 7044     	 add r0,r0,lr
 819              	.LVL57:
 820 0458 6244     	 add r2,r2,ip
 821              	.LVL58:
 822              	 .loc 1 246 0 discriminator 3
 823 045a 4FEA754E 	 ror lr,r5,#17
 245:D:/School/diseratie/SEMS/xmc4800_evaluation_kit/optiga-trust-m/externals/mbedtls/library\sha256.c ****         P( A[7], A[0], A[1], A[2], A[3], A[4], A[5], A[6], R(i+1), K[i+1] );
 824              	 .loc 1 245 0 discriminator 3
 825 045e 0244     	 add r2,r2,r0
 826              	.LVL59:
 827 0460 8619     	 adds r6,r0,r6
 828              	 .loc 1 246 0 discriminator 3
 829 0462 8EEAF54E 	 eor lr,lr,r5,ror#19
 830 0466 0398     	 ldr r0,[sp,#12]
 831              	.LVL60:
 244:D:/School/diseratie/SEMS/xmc4800_evaluation_kit/optiga-trust-m/externals/mbedtls/library\sha256.c ****         P( A[7], A[0], A[1], A[2], A[3], A[4], A[5], A[6], R(i+1), K[i+1] );
 832              	 .loc 1 244 0 discriminator 3
 833 0468 9C46     	 mov ip,r3
 834              	 .loc 1 246 0 discriminator 3
 835 046a 8EEA952E 	 eor lr,lr,r5,lsr#10
 836 046e 8AEA0009 	 eor r9,r10,r0
 837 0472 01EB0E00 	 add r0,r1,lr
 838 0476 0146     	 mov r1,r0
 244:D:/School/diseratie/SEMS/xmc4800_evaluation_kit/optiga-trust-m/externals/mbedtls/library\sha256.c ****         P( A[7], A[0], A[1], A[2], A[3], A[4], A[5], A[6], R(i+1), K[i+1] );
 839              	 .loc 1 244 0 discriminator 3
 840 0478 CCF84050 	 str r5,[ip,#64]
 841 047c DBF84800 	 ldr r0,[fp,#72]
 842 0480 029D     	 ldr r5,[sp,#8]
 843 0482 0544     	 add r5,r5,r0
 844 0484 2846     	 mov r0,r5
 845 0486 0844     	 add r0,r0,r1
 846              	 .loc 1 246 0 discriminator 3
 847 0488 069D     	 ldr r5,[sp,#24]
 848 048a 039C     	 ldr r4,[sp,#12]
 849 048c 0791     	 str r1,[sp,#28]
 850 048e 4FEAB201 	 ror r1,r2,#2
 851 0492 81EA7231 	 eor r1,r1,r2,ror#13
 852 0496 06EA0909 	 and r9,r6,r9
 853 049a 81EAB25E 	 eor lr,r1,r2,ror#22
 854 049e 42EA0508 	 orr r8,r2,r5
 855 04a2 89EA0409 	 eor r9,r9,r4
 247:D:/School/diseratie/SEMS/xmc4800_evaluation_kit/optiga-trust-m/externals/mbedtls/library\sha256.c ****         P( A[5], A[6], A[7], A[0], A[1], A[2], A[3], A[4], R(i+3), K[i+3] );
 856              	 .loc 1 247 0 discriminator 3
 857 04a6 0F9D     	 ldr r5,[sp,#60]
 246:D:/School/diseratie/SEMS/xmc4800_evaluation_kit/optiga-trust-m/externals/mbedtls/library\sha256.c ****         P( A[6], A[7], A[0], A[1], A[2], A[3], A[4], A[5], R(i+2), K[i+2] );
 858              	 .loc 1 246 0 discriminator 3
 859 04a8 019C     	 ldr r4,[sp,#4]
 860 04aa 1599     	 ldr r1,[sp,#84]
 861 04ac 4FEAB617 	 ror r7,r6,#6
 862              	.LVL61:
 863 04b0 87EAF627 	 eor r7,r7,r6,ror#11
 864 04b4 08EA0408 	 and r8,r8,r4
 865 04b8 4844     	 add r0,r0,r9
 866 04ba 7446     	 mov r4,lr
 867              	 .loc 1 247 0 discriminator 3
 868 04bc 4FEAF51C 	 ror ip,r5,#7
 869 04c0 8E46     	 mov lr,r1
 246:D:/School/diseratie/SEMS/xmc4800_evaluation_kit/optiga-trust-m/externals/mbedtls/library\sha256.c ****         P( A[6], A[7], A[0], A[1], A[2], A[3], A[4], A[5], R(i+2), K[i+2] );
 870              	 .loc 1 246 0 discriminator 3
 871 04c2 87EA7667 	 eor r7,r7,r6,ror#25
 872 04c6 1099     	 ldr r1,[sp,#64]
 873 04c8 0744     	 add r7,r7,r0
 874              	.LVL62:
 875              	 .loc 1 247 0 discriminator 3
 876 04ca 8CEAB54C 	 eor ip,ip,r5,ror#18
 246:D:/School/diseratie/SEMS/xmc4800_evaluation_kit/optiga-trust-m/externals/mbedtls/library\sha256.c ****         P( A[6], A[7], A[0], A[1], A[2], A[3], A[4], A[5], R(i+2), K[i+2] );
 877              	 .loc 1 246 0 discriminator 3
 878 04ce 0698     	 ldr r0,[sp,#24]
 879 04d0 0EEB0109 	 add r9,lr,r1
 880              	 .loc 1 247 0 discriminator 3
 881 04d4 8CEAD50E 	 eor lr,ip,r5,lsr#3
 882 04d8 139D     	 ldr r5,[sp,#76]
 246:D:/School/diseratie/SEMS/xmc4800_evaluation_kit/optiga-trust-m/externals/mbedtls/library\sha256.c ****         P( A[6], A[7], A[0], A[1], A[2], A[3], A[4], A[5], R(i+2), K[i+2] );
 883              	 .loc 1 246 0 discriminator 3
 884 04da 02EA0001 	 and r1,r2,r0
 245:D:/School/diseratie/SEMS/xmc4800_evaluation_kit/optiga-trust-m/externals/mbedtls/library\sha256.c ****         P( A[6], A[7], A[0], A[1], A[2], A[3], A[4], A[5], R(i+2), K[i+2] );
 885              	 .loc 1 245 0 discriminator 3
 886 04de 9C46     	 mov ip,r3
 887 04e0 DBF84C00 	 ldr r0,[fp,#76]
 888 04e4 039B     	 ldr r3,[sp,#12]
 889 04e6 CCF84450 	 str r5,[ip,#68]
 246:D:/School/diseratie/SEMS/xmc4800_evaluation_kit/optiga-trust-m/externals/mbedtls/library\sha256.c ****         P( A[6], A[7], A[0], A[1], A[2], A[3], A[4], A[5], R(i+2), K[i+2] );
 890              	 .loc 1 246 0 discriminator 3
 891 04ea 48EA0101 	 orr r1,r8,r1
 892              	 .loc 1 247 0 discriminator 3
 893 04ee 4FEA7548 	 ror r8,r5,#17
 894 04f2 88EAF548 	 eor r8,r8,r5,ror#19
 246:D:/School/diseratie/SEMS/xmc4800_evaluation_kit/optiga-trust-m/externals/mbedtls/library\sha256.c ****         P( A[6], A[7], A[0], A[1], A[2], A[3], A[4], A[5], R(i+2), K[i+2] );
 895              	 .loc 1 246 0 discriminator 3
 896 04f6 2144     	 add r1,r1,r4
 897              	.LVL63:
 898 04f8 0A9C     	 ldr r4,[sp,#40]
 899 04fa 3944     	 add r1,r1,r7
 900              	.LVL64:
 901 04fc 09EB0E0C 	 add ip,r9,lr
 902              	 .loc 1 247 0 discriminator 3
 903 0500 88EA9528 	 eor r8,r8,r5,lsr#10
 904 0504 1844     	 add r0,r0,r3
 905 0506 069B     	 ldr r3,[sp,#24]
 248:D:/School/diseratie/SEMS/xmc4800_evaluation_kit/optiga-trust-m/externals/mbedtls/library\sha256.c ****         P( A[4], A[5], A[6], A[7], A[0], A[1], A[2], A[3], R(i+4), K[i+4] );
 906              	 .loc 1 248 0 discriminator 3
 907 0508 0E9D     	 ldr r5,[sp,#56]
 246:D:/School/diseratie/SEMS/xmc4800_evaluation_kit/optiga-trust-m/externals/mbedtls/library\sha256.c ****         P( A[5], A[6], A[7], A[0], A[1], A[2], A[3], A[4], R(i+3), K[i+3] );
 908              	 .loc 1 246 0 discriminator 3
 909 050a 07EB040E 	 add lr,r7,r4
 247:D:/School/diseratie/SEMS/xmc4800_evaluation_kit/optiga-trust-m/externals/mbedtls/library\sha256.c ****         P( A[4], A[5], A[6], A[7], A[0], A[1], A[2], A[3], R(i+4), K[i+4] );
 910              	 .loc 1 247 0 discriminator 3
 911 050e 86EA0A09 	 eor r9,r6,r10
 912 0512 C444     	 add ip,ip,r8
 913 0514 41EA0208 	 orr r8,r1,r2
 914 0518 6446     	 mov r4,ip
 915 051a 08EA0308 	 and r8,r8,r3
 916 051e 0EEA0909 	 and r9,lr,r9
 917 0522 4FEAB103 	 ror r3,r1,#2
 918 0526 89EA0A09 	 eor r9,r9,r10
 919 052a 83EA7133 	 eor r3,r3,r1,ror#13
 920 052e 2044     	 add r0,r0,r4
 921 0530 4844     	 add r0,r0,r9
 922 0532 83EAB159 	 eor r9,r3,r1,ror#22
 923 0536 149B     	 ldr r3,[sp,#80]
 924 0538 0394     	 str r4,[sp,#12]
 925              	 .loc 1 248 0 discriminator 3
 926 053a 4FEAF51C 	 ror ip,r5,#7
 927 053e 2C46     	 mov r4,r5
 928 0540 8CEAB54C 	 eor ip,ip,r5,ror#18
 247:D:/School/diseratie/SEMS/xmc4800_evaluation_kit/optiga-trust-m/externals/mbedtls/library\sha256.c ****         P( A[4], A[5], A[6], A[7], A[0], A[1], A[2], A[3], R(i+4), K[i+4] );
 929              	 .loc 1 247 0 discriminator 3
 930 0544 4D46     	 mov r5,r9
 931 0546 9946     	 mov r9,r3
 932 0548 0F9B     	 ldr r3,[sp,#60]
 933              	 .loc 1 248 0 discriminator 3
 934 054a 8CEAD40C 	 eor ip,ip,r4,lsr#3
 935 054e 079C     	 ldr r4,[sp,#28]
 936 0550 9944     	 add r9,r9,r3
 247:D:/School/diseratie/SEMS/xmc4800_evaluation_kit/optiga-trust-m/externals/mbedtls/library\sha256.c ****         P( A[4], A[5], A[6], A[7], A[0], A[1], A[2], A[3], R(i+4), K[i+4] );
 937              	 .loc 1 247 0 discriminator 3
 938 0552 01EA0203 	 and r3,r1,r2
 939 0556 48EA0303 	 orr r3,r8,r3
 940              	 .loc 1 248 0 discriminator 3
 941 055a 4FEA7448 	 ror r8,r4,#17
 942 055e 88EAF448 	 eor r8,r8,r4,ror#19
 246:D:/School/diseratie/SEMS/xmc4800_evaluation_kit/optiga-trust-m/externals/mbedtls/library\sha256.c ****         P( A[5], A[6], A[7], A[0], A[1], A[2], A[3], A[4], R(i+3), K[i+3] );
 943              	 .loc 1 246 0 discriminator 3
 944 0562 049C     	 ldr r4,[sp,#16]
 247:D:/School/diseratie/SEMS/xmc4800_evaluation_kit/optiga-trust-m/externals/mbedtls/library\sha256.c ****         P( A[4], A[5], A[6], A[7], A[0], A[1], A[2], A[3], R(i+4), K[i+4] );
 945              	 .loc 1 247 0 discriminator 3
 946 0564 2B44     	 add r3,r3,r5
 947 0566 4FEABE17 	 ror r7,lr,#6
 948              	.LVL65:
 246:D:/School/diseratie/SEMS/xmc4800_evaluation_kit/optiga-trust-m/externals/mbedtls/library\sha256.c ****         P( A[5], A[6], A[7], A[0], A[1], A[2], A[3], A[4], R(i+3), K[i+3] );
 949              	 .loc 1 246 0 discriminator 3
 950 056a 2546     	 mov r5,r4
 247:D:/School/diseratie/SEMS/xmc4800_evaluation_kit/optiga-trust-m/externals/mbedtls/library\sha256.c ****         P( A[4], A[5], A[6], A[7], A[0], A[1], A[2], A[3], R(i+4), K[i+4] );
 951              	 .loc 1 247 0 discriminator 3
 952 056c 87EAFE27 	 eor r7,r7,lr,ror#11
 246:D:/School/diseratie/SEMS/xmc4800_evaluation_kit/optiga-trust-m/externals/mbedtls/library\sha256.c ****         P( A[5], A[6], A[7], A[0], A[1], A[2], A[3], A[4], R(i+3), K[i+3] );
 953              	 .loc 1 246 0 discriminator 3
 954 0570 079C     	 ldr r4,[sp,#28]
 955 0572 AC64     	 str r4,[r5,#72]
 247:D:/School/diseratie/SEMS/xmc4800_evaluation_kit/optiga-trust-m/externals/mbedtls/library\sha256.c ****         P( A[4], A[5], A[6], A[7], A[0], A[1], A[2], A[3], R(i+4), K[i+4] );
 956              	 .loc 1 247 0 discriminator 3
 957 0574 87EA7E67 	 eor r7,r7,lr,ror#25
 958 0578 019D     	 ldr r5,[sp,#4]
 959 057a 0744     	 add r7,r7,r0
 960              	.LVL66:
 961 057c 3D44     	 add r5,r5,r7
 962 057e DBF85000 	 ldr r0,[fp,#80]
 963 0582 0195     	 str r5,[sp,#4]
 964              	 .loc 1 248 0 discriminator 3
 965 0584 88EA9428 	 eor r8,r8,r4,lsr#10
 966 0588 CC44     	 add ip,ip,r9
 967 058a 8244     	 add r10,r10,r0
 968 058c 0198     	 ldr r0,[sp,#4]
 247:D:/School/diseratie/SEMS/xmc4800_evaluation_kit/optiga-trust-m/externals/mbedtls/library\sha256.c ****         P( A[4], A[5], A[6], A[7], A[0], A[1], A[2], A[3], R(i+4), K[i+4] );
 969              	 .loc 1 247 0 discriminator 3
 970 058e DC19     	 adds r4,r3,r7
 971              	 .loc 1 248 0 discriminator 3
 972 0590 C444     	 add ip,ip,r8
 973 0592 8EEA0607 	 eor r7,lr,r6
 974              	.LVL67:
 975 0596 6546     	 mov r5,ip
 976 0598 0740     	 ands r7,r7,r0
 977 059a 2346     	 mov r3,r4
 978              	.LVL68:
 979 059c AA44     	 add r10,r10,r5
 980 059e 7740     	 eors r7,r7,r6
 981 05a0 5744     	 add r7,r7,r10
 982 05a2 0995     	 str r5,[sp,#36]
 983 05a4 4FEAB30A 	 ror r10,r3,#2
 984 05a8 019D     	 ldr r5,[sp,#4]
 985 05aa 0893     	 str r3,[sp,#32]
 986 05ac 8AEA733A 	 eor r10,r10,r3,ror#13
 987 05b0 4FEAB019 	 ror r9,r0,#6
 988 05b4 89EAF529 	 eor r9,r9,r5,ror#11
 989 05b8 8AEAB355 	 eor r5,r10,r3,ror#22
 990 05bc 0198     	 ldr r0,[sp,#4]
 991 05be 0295     	 str r5,[sp,#8]
 992 05c0 0E9D     	 ldr r5,[sp,#56]
 993 05c2 44EA010C 	 orr ip,r4,r1
 249:D:/School/diseratie/SEMS/xmc4800_evaluation_kit/optiga-trust-m/externals/mbedtls/library\sha256.c ****         P( A[3], A[4], A[5], A[6], A[7], A[0], A[1], A[2], R(i+5), K[i+5] );
 994              	 .loc 1 249 0 discriminator 3
 995 05c6 129C     	 ldr r4,[sp,#72]
 996 05c8 0C9B     	 ldr r3,[sp,#48]
 248:D:/School/diseratie/SEMS/xmc4800_evaluation_kit/optiga-trust-m/externals/mbedtls/library\sha256.c ****         P( A[3], A[4], A[5], A[6], A[7], A[0], A[1], A[2], R(i+5), K[i+5] );
 997              	 .loc 1 248 0 discriminator 3
 998 05ca 89EA7060 	 eor r0,r9,r0,ror#25
 999 05ce A946     	 mov r9,r5
 1000 05d0 9944     	 add r9,r9,r3
 1001 05d2 089B     	 ldr r3,[sp,#32]
 1002 05d4 029D     	 ldr r5,[sp,#8]
 1003 05d6 03EA010A 	 and r10,r3,r1
 1004              	 .loc 1 249 0 discriminator 3
 1005 05da 039B     	 ldr r3,[sp,#12]
 248:D:/School/diseratie/SEMS/xmc4800_evaluation_kit/optiga-trust-m/externals/mbedtls/library\sha256.c ****         P( A[3], A[4], A[5], A[6], A[7], A[0], A[1], A[2], R(i+5), K[i+5] );
 1006              	 .loc 1 248 0 discriminator 3
 1007 05dc 0CEA020C 	 and ip,ip,r2
 1008              	 .loc 1 249 0 discriminator 3
 1009 05e0 4FEAF418 	 ror r8,r4,#7
 1010 05e4 88EAB448 	 eor r8,r8,r4,ror#18
 248:D:/School/diseratie/SEMS/xmc4800_evaluation_kit/optiga-trust-m/externals/mbedtls/library\sha256.c ****         P( A[3], A[4], A[5], A[6], A[7], A[0], A[1], A[2], R(i+5), K[i+5] );
 1011              	 .loc 1 248 0 discriminator 3
 1012 05e8 4CEA0A0A 	 orr r10,ip,r10
 1013              	 .loc 1 249 0 discriminator 3
 1014 05ec 4FEA734C 	 ror ip,r3,#17
 1015 05f0 88EAD408 	 eor r8,r8,r4,lsr#3
 1016 05f4 8CEAF34C 	 eor ip,ip,r3,ror#19
 247:D:/School/diseratie/SEMS/xmc4800_evaluation_kit/optiga-trust-m/externals/mbedtls/library\sha256.c ****         P( A[4], A[5], A[6], A[7], A[0], A[1], A[2], A[3], R(i+4), K[i+4] );
 1017              	 .loc 1 247 0 discriminator 3
 1018 05f8 039C     	 ldr r4,[sp,#12]
 1019 05fa 049B     	 ldr r3,[sp,#16]
 1020              	 .loc 1 249 0 discriminator 3
 1021 05fc 8CEA942C 	 eor ip,ip,r4,lsr#10
 247:D:/School/diseratie/SEMS/xmc4800_evaluation_kit/optiga-trust-m/externals/mbedtls/library\sha256.c ****         P( A[4], A[5], A[6], A[7], A[0], A[1], A[2], A[3], R(i+4), K[i+4] );
 1022              	 .loc 1 247 0 discriminator 3
 1023 0600 DC64     	 str r4,[r3,#76]
 248:D:/School/diseratie/SEMS/xmc4800_evaluation_kit/optiga-trust-m/externals/mbedtls/library\sha256.c ****         P( A[3], A[4], A[5], A[6], A[7], A[0], A[1], A[2], R(i+5), K[i+5] );
 1024              	 .loc 1 248 0 discriminator 3
 1025 0602 069C     	 ldr r4,[sp,#24]
 1026 0604 3844     	 add r0,r0,r7
 1027              	.LVL69:
 1028 0606 0444     	 add r4,r4,r0
 1029 0608 AA44     	 add r10,r10,r5
 1030              	.LVL70:
 1031 060a 2546     	 mov r5,r4
 1032              	 .loc 1 249 0 discriminator 3
 1033 060c 019C     	 ldr r4,[sp,#4]
 1034 060e DBF85470 	 ldr r7,[fp,#84]
 1035 0612 0695     	 str r5,[sp,#24]
 1036 0614 C844     	 add r8,r8,r9
 1037 0616 84EA0E04 	 eor r4,r4,lr
 248:D:/School/diseratie/SEMS/xmc4800_evaluation_kit/optiga-trust-m/externals/mbedtls/library\sha256.c ****         P( A[3], A[4], A[5], A[6], A[7], A[0], A[1], A[2], R(i+5), K[i+5] );
 1038              	 .loc 1 248 0 discriminator 3
 1039 061a 8244     	 add r10,r10,r0
 1040              	.LVL71:
 1041              	 .loc 1 249 0 discriminator 3
 1042 061c C444     	 add ip,ip,r8
 1043 061e 0898     	 ldr r0,[sp,#32]
 1044              	.LVL72:
 1045 0620 3E44     	 add r6,r6,r7
 1046 0622 2C40     	 ands r4,r4,r5
 1047 0624 2F46     	 mov r7,r5
 1048 0626 4FEAB518 	 ror r8,r5,#6
 250:D:/School/diseratie/SEMS/xmc4800_evaluation_kit/optiga-trust-m/externals/mbedtls/library\sha256.c ****         P( A[2], A[3], A[4], A[5], A[6], A[7], A[0], A[1], R(i+6), K[i+6] );
 1049              	 .loc 1 250 0 discriminator 3
 1050 062a 0D9D     	 ldr r5,[sp,#52]
 249:D:/School/diseratie/SEMS/xmc4800_evaluation_kit/optiga-trust-m/externals/mbedtls/library\sha256.c ****         P( A[3], A[4], A[5], A[6], A[7], A[0], A[1], A[2], R(i+5), K[i+5] );
 1051              	 .loc 1 249 0 discriminator 3
 1052 062c 4AEA0009 	 orr r9,r10,r0
 1053 0630 6644     	 add r6,r6,ip
 1054              	 .loc 1 250 0 discriminator 3
 1055 0632 4FEAF510 	 ror r0,r5,#7
 249:D:/School/diseratie/SEMS/xmc4800_evaluation_kit/optiga-trust-m/externals/mbedtls/library\sha256.c ****         P( A[3], A[4], A[5], A[6], A[7], A[0], A[1], A[2], R(i+5), K[i+5] );
 1056              	 .loc 1 249 0 discriminator 3
 1057 0636 84EA0E04 	 eor r4,r4,lr
 1058 063a 88EAF728 	 eor r8,r8,r7,ror#11
 1059 063e 3444     	 add r4,r4,r6
 1060              	 .loc 1 250 0 discriminator 3
 1061 0640 80EAB540 	 eor r0,r0,r5,ror#18
 249:D:/School/diseratie/SEMS/xmc4800_evaluation_kit/optiga-trust-m/externals/mbedtls/library\sha256.c ****         P( A[3], A[4], A[5], A[6], A[7], A[0], A[1], A[2], R(i+5), K[i+5] );
 1062              	 .loc 1 249 0 discriminator 3
 1063 0644 88EA7767 	 eor r7,r8,r7,ror#25
 1064 0648 129D     	 ldr r5,[sp,#72]
 1065 064a 2744     	 add r7,r7,r4
 1066              	.LVL73:
 1067 064c 089C     	 ldr r4,[sp,#32]
 1068 064e A846     	 mov r8,r5
 1069 0650 4FEABA06 	 ror r6,r10,#2
 1070 0654 0B9D     	 ldr r5,[sp,#44]
 1071 0656 09EA0109 	 and r9,r9,r1
 1072 065a 86EA7A36 	 eor r6,r6,r10,ror#13
 1073 065e 0AEA0404 	 and r4,r10,r4
 1074 0662 49EA0404 	 orr r4,r9,r4
 1075 0666 A844     	 add r8,r8,r5
 1076 0668 86EABA56 	 eor r6,r6,r10,ror#22
 1077              	 .loc 1 250 0 discriminator 3
 1078 066c 0D9D     	 ldr r5,[sp,#52]
 249:D:/School/diseratie/SEMS/xmc4800_evaluation_kit/optiga-trust-m/externals/mbedtls/library\sha256.c ****         P( A[3], A[4], A[5], A[6], A[7], A[0], A[1], A[2], R(i+5), K[i+5] );
 1079              	 .loc 1 249 0 discriminator 3
 1080 066e 2644     	 add r6,r6,r4
 1081              	.LVL74:
 1082              	 .loc 1 250 0 discriminator 3
 1083 0670 80EAD500 	 eor r0,r0,r5,lsr#3
 249:D:/School/diseratie/SEMS/xmc4800_evaluation_kit/optiga-trust-m/externals/mbedtls/library\sha256.c ****         P( A[3], A[4], A[5], A[6], A[7], A[0], A[1], A[2], R(i+5), K[i+5] );
 1084              	 .loc 1 249 0 discriminator 3
 1085 0674 3E44     	 add r6,r6,r7
 1086              	.LVL75:
 1087              	 .loc 1 250 0 discriminator 3
 1088 0676 099D     	 ldr r5,[sp,#36]
 248:D:/School/diseratie/SEMS/xmc4800_evaluation_kit/optiga-trust-m/externals/mbedtls/library\sha256.c ****         P( A[3], A[4], A[5], A[6], A[7], A[0], A[1], A[2], R(i+5), K[i+5] );
 1089              	 .loc 1 248 0 discriminator 3
 1090 0678 1D65     	 str r5,[r3,#80]
 249:D:/School/diseratie/SEMS/xmc4800_evaluation_kit/optiga-trust-m/externals/mbedtls/library\sha256.c ****         P( A[3], A[4], A[5], A[6], A[7], A[0], A[1], A[2], R(i+5), K[i+5] );
 1091              	 .loc 1 249 0 discriminator 3
 1092 067a 3346     	 mov r3,r6
 1093              	 .loc 1 250 0 discriminator 3
 1094 067c 069E     	 ldr r6,[sp,#24]
 1095 067e 0593     	 str r3,[sp,#20]
 1096 0680 4FEA7549 	 ror r9,r5,#17
 1097 0684 89EAF549 	 eor r9,r9,r5,ror#19
 1098 0688 8044     	 add r8,r8,r0
 249:D:/School/diseratie/SEMS/xmc4800_evaluation_kit/optiga-trust-m/externals/mbedtls/library\sha256.c ****         P( A[3], A[4], A[5], A[6], A[7], A[0], A[1], A[2], R(i+5), K[i+5] );
 1099              	 .loc 1 249 0 discriminator 3
 1100 068a B818     	 adds r0,r7,r2
 1101              	 .loc 1 250 0 discriminator 3
 1102 068c 3246     	 mov r2,r6
 1103 068e 019E     	 ldr r6,[sp,#4]
 1104 0690 DBF85840 	 ldr r4,[fp,#88]
 1105 0694 89EA9529 	 eor r9,r9,r5,lsr#10
 1106 0698 C844     	 add r8,r8,r9
 1107 069a 019D     	 ldr r5,[sp,#4]
 1108 069c CDF86880 	 str r8,[sp,#104]
 1109 06a0 5640     	 eors r6,r6,r2
 1110 06a2 43EA0A07 	 orr r7,r3,r10
 1111              	.LVL76:
 1112 06a6 4FEAB309 	 ror r9,r3,#2
 1113 06aa 089B     	 ldr r3,[sp,#32]
 1114 06ac 0640     	 ands r6,r6,r0
 1115 06ae 6E40     	 eors r6,r6,r5
 1116 06b0 1F40     	 ands r7,r7,r3
 251:D:/School/diseratie/SEMS/xmc4800_evaluation_kit/optiga-trust-m/externals/mbedtls/library\sha256.c ****         P( A[1], A[2], A[3], A[4], A[5], A[6], A[7], A[0], R(i+7), K[i+7] );
 1117              	 .loc 1 251 0 discriminator 3
 1118 06b2 119D     	 ldr r5,[sp,#68]
 250:D:/School/diseratie/SEMS/xmc4800_evaluation_kit/optiga-trust-m/externals/mbedtls/library\sha256.c ****         P( A[2], A[3], A[4], A[5], A[6], A[7], A[0], A[1], R(i+6), K[i+6] );
 1119              	 .loc 1 250 0 discriminator 3
 1120 06b4 059B     	 ldr r3,[sp,#20]
 1121 06b6 7444     	 add r4,r4,lr
 1122 06b8 4FEAB012 	 ror r2,r0,#6
 1123 06bc 4444     	 add r4,r4,r8
 1124 06be 89EA7339 	 eor r9,r9,r3,ror#13
 1125              	 .loc 1 251 0 discriminator 3
 1126 06c2 4FEAF518 	 ror r8,r5,#7
 250:D:/School/diseratie/SEMS/xmc4800_evaluation_kit/optiga-trust-m/externals/mbedtls/library\sha256.c ****         P( A[2], A[3], A[4], A[5], A[6], A[7], A[0], A[1], R(i+6), K[i+6] );
 1127              	 .loc 1 250 0 discriminator 3
 1128 06c6 03EA0A0E 	 and lr,r3,r10
 1129 06ca 82EAF022 	 eor r2,r2,r0,ror#11
 1130 06ce 89EAB359 	 eor r9,r9,r3,ror#22
 1131 06d2 3444     	 add r4,r4,r6
 1132              	 .loc 1 251 0 discriminator 3
 1133 06d4 88EAB548 	 eor r8,r8,r5,ror#18
 250:D:/School/diseratie/SEMS/xmc4800_evaluation_kit/optiga-trust-m/externals/mbedtls/library\sha256.c ****         P( A[2], A[3], A[4], A[5], A[6], A[7], A[0], A[1], R(i+6), K[i+6] );
 1134              	 .loc 1 250 0 discriminator 3
 1135 06d8 82EA7062 	 eor r2,r2,r0,ror#25
 1136 06dc 47EA0E0E 	 orr lr,r7,lr
 249:D:/School/diseratie/SEMS/xmc4800_evaluation_kit/optiga-trust-m/externals/mbedtls/library\sha256.c ****         P( A[2], A[3], A[4], A[5], A[6], A[7], A[0], A[1], R(i+6), K[i+6] );
 1137              	 .loc 1 249 0 discriminator 3
 1138 06e0 049B     	 ldr r3,[sp,#16]
 250:D:/School/diseratie/SEMS/xmc4800_evaluation_kit/optiga-trust-m/externals/mbedtls/library\sha256.c ****         P( A[2], A[3], A[4], A[5], A[6], A[7], A[0], A[1], R(i+6), K[i+6] );
 1139              	 .loc 1 250 0 discriminator 3
 1140 06e2 1444     	 add r4,r4,r2
 1141              	.LVL77:
 1142              	 .loc 1 251 0 discriminator 3
 1143 06e4 88EAD508 	 eor r8,r8,r5,lsr#3
 250:D:/School/diseratie/SEMS/xmc4800_evaluation_kit/optiga-trust-m/externals/mbedtls/library\sha256.c ****         P( A[2], A[3], A[4], A[5], A[6], A[7], A[0], A[1], R(i+6), K[i+6] );
 1144              	 .loc 1 250 0 discriminator 3
 1145 06e8 CE44     	 add lr,lr,r9
 1146 06ea 0D9D     	 ldr r5,[sp,#52]
 1147 06ec DBF85C20 	 ldr r2,[fp,#92]
 249:D:/School/diseratie/SEMS/xmc4800_evaluation_kit/optiga-trust-m/externals/mbedtls/library\sha256.c ****         P( A[2], A[3], A[4], A[5], A[6], A[7], A[0], A[1], R(i+6), K[i+6] );
 1148              	 .loc 1 249 0 discriminator 3
 1149 06f0 C3F854C0 	 str ip,[r3,#84]
 250:D:/School/diseratie/SEMS/xmc4800_evaluation_kit/optiga-trust-m/externals/mbedtls/library\sha256.c ****         P( A[2], A[3], A[4], A[5], A[6], A[7], A[0], A[1], R(i+6), K[i+6] );
 1150              	 .loc 1 250 0 discriminator 3
 1151 06f4 6718     	 adds r7,r4,r1
 1152 06f6 A644     	 add lr,lr,r4
 1153 06f8 A844     	 add r8,r8,r5
 1154 06fa 0297     	 str r7,[sp,#8]
 1155 06fc CDF828E0 	 str lr,[sp,#40]
 1156 0700 019D     	 ldr r5,[sp,#4]
 1157 0702 1999     	 ldr r1,[sp,#100]
 1158              	 .loc 1 251 0 discriminator 3
 1159 0704 069C     	 ldr r4,[sp,#24]
 1160              	.LVL78:
 1161 0706 4FEA7C46 	 ror r6,ip,#17
 1162 070a 1544     	 add r5,r5,r2
 1163 070c 86EAFC46 	 eor r6,r6,ip,ror#19
 1164 0710 029A     	 ldr r2,[sp,#8]
 1165 0712 86EA9C26 	 eor r6,r6,ip,lsr#10
 1166 0716 8844     	 add r8,r8,r1
 1167 0718 4440     	 eors r4,r4,r0
 1168 071a B044     	 add r8,r8,r6
 1169 071c 1440     	 ands r4,r4,r2
 1170 071e 4FEAB216 	 ror r6,r2,#6
 1171 0722 069A     	 ldr r2,[sp,#24]
 1172 0724 0599     	 ldr r1,[sp,#20]
 1173 0726 5440     	 eors r4,r4,r2
 1174 0728 4544     	 add r5,r5,r8
 1175 072a 2C44     	 add r4,r4,r5
 1176 072c 059D     	 ldr r5,[sp,#20]
 1177 072e 029A     	 ldr r2,[sp,#8]
 250:D:/School/diseratie/SEMS/xmc4800_evaluation_kit/optiga-trust-m/externals/mbedtls/library\sha256.c ****         P( A[2], A[3], A[4], A[5], A[6], A[7], A[0], A[1], R(i+6), K[i+6] );
 1178              	 .loc 1 250 0 discriminator 3
 1179 0730 7746     	 mov r7,lr
 1180              	 .loc 1 251 0 discriminator 3
 1181 0732 07EA0509 	 and r9,r7,r5
 1182 0736 029D     	 ldr r5,[sp,#8]
 1183 0738 86EAF226 	 eor r6,r6,r2,ror#11
 1184 073c 47EA010E 	 orr lr,r7,r1
 1185 0740 86EA7566 	 eor r6,r6,r5,ror#25
 1186 0744 4FEAB701 	 ror r1,r7,#2
 1187 0748 3444     	 add r4,r4,r6
 1188              	.LVL79:
 1189 074a 81EA7731 	 eor r1,r1,r7,ror#13
 1190 074e 169E     	 ldr r6,[sp,#88]
 1191 0750 1096     	 str r6,[sp,#64]
 1192 0752 0EEA0A0E 	 and lr,lr,r10
 1193 0756 159E     	 ldr r6,[sp,#84]
 1194 0758 0F96     	 str r6,[sp,#60]
 1195 075a 4EEA090E 	 orr lr,lr,r9
 1196 075e 81EAB755 	 eor r5,r1,r7,ror#22
 1197 0762 B946     	 mov r9,r7
 1198 0764 0C9F     	 ldr r7,[sp,#48]
 1199              	.LVL80:
 1200 0766 149E     	 ldr r6,[sp,#80]
 1201 0768 1297     	 str r7,[sp,#72]
 250:D:/School/diseratie/SEMS/xmc4800_evaluation_kit/optiga-trust-m/externals/mbedtls/library\sha256.c ****         P( A[2], A[3], A[4], A[5], A[6], A[7], A[0], A[1], R(i+6), K[i+6] );
 1202              	 .loc 1 250 0 discriminator 3
 1203 076a 1A9F     	 ldr r7,[sp,#104]
 1204 076c 9F65     	 str r7,[r3,#88]
 1205              	 .loc 1 251 0 discriminator 3
 1206 076e 7544     	 add r5,r5,lr
 1207              	.LVL81:
 1208 0770 0E96     	 str r6,[sp,#56]
 250:D:/School/diseratie/SEMS/xmc4800_evaluation_kit/optiga-trust-m/externals/mbedtls/library\sha256.c ****         P( A[2], A[3], A[4], A[5], A[6], A[7], A[0], A[1], R(i+6), K[i+6] );
 1209              	 .loc 1 250 0 discriminator 3
 1210 0772 9E46     	 mov lr,r3
 1211 0774 1E46     	 mov r6,r3
 1212 0776 139B     	 ldr r3,[sp,#76]
 1213 0778 179A     	 ldr r2,[sp,#92]
 1214 077a 1793     	 str r3,[sp,#92]
 1215 077c 079B     	 ldr r3,[sp,#28]
 1216 077e 1899     	 ldr r1,[sp,#96]
 1217 0780 1893     	 str r3,[sp,#96]
 1218 0782 039B     	 ldr r3,[sp,#12]
 1219 0784 1693     	 str r3,[sp,#88]
 1220 0786 0C97     	 str r7,[sp,#48]
 1221 0788 099B     	 ldr r3,[sp,#36]
 1222 078a 0B9F     	 ldr r7,[sp,#44]
 1223 078c 1593     	 str r3,[sp,#84]
 1224              	 .loc 1 251 0 discriminator 3
 1225 078e C6F85C80 	 str r8,[r6,#92]
 1226 0792 CDF850C0 	 str ip,[sp,#80]
 1227 0796 0D97     	 str r7,[sp,#52]
 1228 0798 199B     	 ldr r3,[sp,#100]
 1229 079a 119E     	 ldr r6,[sp,#68]
 1230 079c 1193     	 str r3,[sp,#68]
 1231 079e 7346     	 mov r3,lr
 1232 07a0 2033     	 adds r3,r3,#32
 1233 07a2 0493     	 str r3,[sp,#16]
 1234 07a4 089B     	 ldr r3,[sp,#32]
 1235 07a6 CDF82C80 	 str r8,[sp,#44]
 1236 07aa 2344     	 add r3,r3,r4
 1237 07ac 0393     	 str r3,[sp,#12]
 1238 07ae 2B19     	 adds r3,r5,r4
 242:D:/School/diseratie/SEMS/xmc4800_evaluation_kit/optiga-trust-m/externals/mbedtls/library\sha256.c ****     {
 1239              	 .loc 1 242 0 discriminator 3
 1240 07b0 1A4C     	 ldr r4,.L34
 1241              	.LVL82:
 1242              	 .loc 1 251 0 discriminator 3
 1243 07b2 0193     	 str r3,[sp,#4]
 1244              	.LVL83:
 1245 07b4 0BF1200B 	 add fp,fp,#32
 242:D:/School/diseratie/SEMS/xmc4800_evaluation_kit/optiga-trust-m/externals/mbedtls/library\sha256.c ****     {
 1246              	 .loc 1 242 0 discriminator 3
 1247 07b8 A345     	 cmp fp,r4
 1248 07ba 7FF4C5AD 	 bne .L26
 1249              	.LVL84:
 252:D:/School/diseratie/SEMS/xmc4800_evaluation_kit/optiga-trust-m/externals/mbedtls/library\sha256.c ****     }
 253:D:/School/diseratie/SEMS/xmc4800_evaluation_kit/optiga-trust-m/externals/mbedtls/library\sha256.c **** #endif /* MBEDTLS_SHA256_SMALLER */
 254:D:/School/diseratie/SEMS/xmc4800_evaluation_kit/optiga-trust-m/externals/mbedtls/library\sha256.c **** 
 255:D:/School/diseratie/SEMS/xmc4800_evaluation_kit/optiga-trust-m/externals/mbedtls/library\sha256.c ****     for( i = 0; i < 8; i++ )
 256:D:/School/diseratie/SEMS/xmc4800_evaluation_kit/optiga-trust-m/externals/mbedtls/library\sha256.c ****         ctx->state[i] += A[i];
 1250              	 .loc 1 256 0
 1251 07be 1B9E     	 ldr r6,[sp,#108]
 1252 07c0 DDF808C0 	 ldr ip,[sp,#8]
 1253 07c4 B568     	 ldr r5,[r6,#8]
 1254              	.LVL85:
 1255 07c6 F168     	 ldr r1,[r6,#12]
 1256 07c8 3269     	 ldr r2,[r6,#16]
 1257 07ca DDF818B0 	 ldr fp,[sp,#24]
 1258 07ce 3446     	 mov r4,r6
 1259 07d0 7669     	 ldr r6,[r6,#20]
 1260 07d2 0196     	 str r6,[sp,#4]
 1261 07d4 2646     	 mov r6,r4
 1262 07d6 A469     	 ldr r4,[r4,#24]
 1263 07d8 0294     	 str r4,[sp,#8]
 1264 07da 346A     	 ldr r4,[r6,#32]
 1265 07dc F769     	 ldr r7,[r6,#28]
 1266 07de 9E46     	 mov lr,r3
 1267 07e0 039B     	 ldr r3,[sp,#12]
 1268 07e2 0394     	 str r4,[sp,#12]
 1269 07e4 059C     	 ldr r4,[sp,#20]
 1270 07e6 7544     	 add r5,r5,lr
 1271 07e8 2244     	 add r2,r2,r4
 1272 07ea B560     	 str r5,[r6,#8]
 1273              	.LVL86:
 1274 07ec 746A     	 ldr r4,[r6,#36]
 1275 07ee 029E     	 ldr r6,[sp,#8]
 1276 07f0 019D     	 ldr r5,[sp,#4]
 1277 07f2 3344     	 add r3,r3,r6
 1278 07f4 039E     	 ldr r6,[sp,#12]
 1279 07f6 3044     	 add r0,r0,r6
 1280 07f8 B646     	 mov lr,r6
 1281 07fa 1B9E     	 ldr r6,[sp,#108]
 1282 07fc 4944     	 add r1,r1,r9
 1283 07fe 5544     	 add r5,r5,r10
 1284 0800 6744     	 add r7,r7,ip
 1285 0802 5C44     	 add r4,r4,fp
 1286 0804 3062     	 str r0,[r6,#32]
 257:D:/School/diseratie/SEMS/xmc4800_evaluation_kit/optiga-trust-m/externals/mbedtls/library\sha256.c **** 
 258:D:/School/diseratie/SEMS/xmc4800_evaluation_kit/optiga-trust-m/externals/mbedtls/library\sha256.c ****     return( 0 );
 259:D:/School/diseratie/SEMS/xmc4800_evaluation_kit/optiga-trust-m/externals/mbedtls/library\sha256.c **** }
 1287              	 .loc 1 259 0
 1288 0806 0020     	 movs r0,#0
 256:D:/School/diseratie/SEMS/xmc4800_evaluation_kit/optiga-trust-m/externals/mbedtls/library\sha256.c **** 
 1289              	 .loc 1 256 0
 1290 0808 F160     	 str r1,[r6,#12]
 1291              	.LVL87:
 1292 080a 3261     	 str r2,[r6,#16]
 1293              	.LVL88:
 1294 080c 7561     	 str r5,[r6,#20]
 1295              	.LVL89:
 1296 080e B361     	 str r3,[r6,#24]
 1297              	.LVL90:
 1298 0810 F761     	 str r7,[r6,#28]
 1299              	.LVL91:
 1300 0812 7462     	 str r4,[r6,#36]
 1301              	.LVL92:
 1302              	 .loc 1 259 0
 1303 0814 65B0     	 add sp,sp,#404
 1304              	.LCFI5:
 1305              	 .cfi_def_cfa_offset 36
 1306              	 
 1307 0816 BDE8F08F 	 pop {r4,r5,r6,r7,r8,r9,r10,fp,pc}
 1308              	.LVL93:
 1309              	.L35:
 1310 081a 00BF     	 .align 2
 1311              	.L34:
 1312 081c C0000000 	 .word .LANCHOR0+192
 1313              	 .cfi_endproc
 1314              	.LFE5:
 1316              	 .section .text.mbedtls_sha256_process,"ax",%progbits
 1317              	 .align 2
 1318              	 .global mbedtls_sha256_process
 1319              	 .thumb
 1320              	 .thumb_func
 1322              	mbedtls_sha256_process:
 1323              	.LFB6:
 260:D:/School/diseratie/SEMS/xmc4800_evaluation_kit/optiga-trust-m/externals/mbedtls/library\sha256.c **** 
 261:D:/School/diseratie/SEMS/xmc4800_evaluation_kit/optiga-trust-m/externals/mbedtls/library\sha256.c **** #if !defined(MBEDTLS_DEPRECATED_REMOVED)
 262:D:/School/diseratie/SEMS/xmc4800_evaluation_kit/optiga-trust-m/externals/mbedtls/library\sha256.c **** void mbedtls_sha256_process( mbedtls_sha256_context *ctx,
 263:D:/School/diseratie/SEMS/xmc4800_evaluation_kit/optiga-trust-m/externals/mbedtls/library\sha256.c ****                              const unsigned char data[64] )
 264:D:/School/diseratie/SEMS/xmc4800_evaluation_kit/optiga-trust-m/externals/mbedtls/library\sha256.c **** {
 1324              	 .loc 1 264 0
 1325              	 .cfi_startproc
 1326              	 
 1327              	 
 1328              	 
 1329              	.LVL94:
 265:D:/School/diseratie/SEMS/xmc4800_evaluation_kit/optiga-trust-m/externals/mbedtls/library\sha256.c ****     mbedtls_internal_sha256_process( ctx, data );
 1330              	 .loc 1 265 0
 1331 0000 FFF7FEBF 	 b mbedtls_internal_sha256_process
 1332              	.LVL95:
 1333              	 .cfi_endproc
 1334              	.LFE6:
 1336              	 .section .text.mbedtls_sha256_update_ret,"ax",%progbits
 1337              	 .align 2
 1338              	 .global mbedtls_sha256_update_ret
 1339              	 .thumb
 1340              	 .thumb_func
 1342              	mbedtls_sha256_update_ret:
 1343              	.LFB7:
 266:D:/School/diseratie/SEMS/xmc4800_evaluation_kit/optiga-trust-m/externals/mbedtls/library\sha256.c **** }
 267:D:/School/diseratie/SEMS/xmc4800_evaluation_kit/optiga-trust-m/externals/mbedtls/library\sha256.c **** #endif
 268:D:/School/diseratie/SEMS/xmc4800_evaluation_kit/optiga-trust-m/externals/mbedtls/library\sha256.c **** #endif /* !MBEDTLS_SHA256_PROCESS_ALT */
 269:D:/School/diseratie/SEMS/xmc4800_evaluation_kit/optiga-trust-m/externals/mbedtls/library\sha256.c **** 
 270:D:/School/diseratie/SEMS/xmc4800_evaluation_kit/optiga-trust-m/externals/mbedtls/library\sha256.c **** /*
 271:D:/School/diseratie/SEMS/xmc4800_evaluation_kit/optiga-trust-m/externals/mbedtls/library\sha256.c ****  * SHA-256 process buffer
 272:D:/School/diseratie/SEMS/xmc4800_evaluation_kit/optiga-trust-m/externals/mbedtls/library\sha256.c ****  */
 273:D:/School/diseratie/SEMS/xmc4800_evaluation_kit/optiga-trust-m/externals/mbedtls/library\sha256.c **** int mbedtls_sha256_update_ret( mbedtls_sha256_context *ctx,
 274:D:/School/diseratie/SEMS/xmc4800_evaluation_kit/optiga-trust-m/externals/mbedtls/library\sha256.c ****                                const unsigned char *input,
 275:D:/School/diseratie/SEMS/xmc4800_evaluation_kit/optiga-trust-m/externals/mbedtls/library\sha256.c ****                                size_t ilen )
 276:D:/School/diseratie/SEMS/xmc4800_evaluation_kit/optiga-trust-m/externals/mbedtls/library\sha256.c **** {
 1344              	 .loc 1 276 0
 1345              	 .cfi_startproc
 1346              	 
 1347              	 
 1348              	.LVL96:
 1349 0000 2DE9F041 	 push {r4,r5,r6,r7,r8,lr}
 1350              	.LCFI6:
 1351              	 .cfi_def_cfa_offset 24
 1352              	 .cfi_offset 4,-24
 1353              	 .cfi_offset 5,-20
 1354              	 .cfi_offset 6,-16
 1355              	 .cfi_offset 7,-12
 1356              	 .cfi_offset 8,-8
 1357              	 .cfi_offset 14,-4
 277:D:/School/diseratie/SEMS/xmc4800_evaluation_kit/optiga-trust-m/externals/mbedtls/library\sha256.c ****     int ret;
 278:D:/School/diseratie/SEMS/xmc4800_evaluation_kit/optiga-trust-m/externals/mbedtls/library\sha256.c ****     size_t fill;
 279:D:/School/diseratie/SEMS/xmc4800_evaluation_kit/optiga-trust-m/externals/mbedtls/library\sha256.c ****     uint32_t left;
 280:D:/School/diseratie/SEMS/xmc4800_evaluation_kit/optiga-trust-m/externals/mbedtls/library\sha256.c **** 
 281:D:/School/diseratie/SEMS/xmc4800_evaluation_kit/optiga-trust-m/externals/mbedtls/library\sha256.c ****     SHA256_VALIDATE_RET( ctx != NULL );
 282:D:/School/diseratie/SEMS/xmc4800_evaluation_kit/optiga-trust-m/externals/mbedtls/library\sha256.c ****     SHA256_VALIDATE_RET( ilen == 0 || input != NULL );
 283:D:/School/diseratie/SEMS/xmc4800_evaluation_kit/optiga-trust-m/externals/mbedtls/library\sha256.c **** 
 284:D:/School/diseratie/SEMS/xmc4800_evaluation_kit/optiga-trust-m/externals/mbedtls/library\sha256.c ****     if( ilen == 0 )
 1358              	 .loc 1 284 0
 1359 0004 1446     	 mov r4,r2
 1360 0006 32B3     	 cbz r2,.L57
 1361 0008 0646     	 mov r6,r0
 1362              	.LBB20:
 1363              	.LBB21:
 285:D:/School/diseratie/SEMS/xmc4800_evaluation_kit/optiga-trust-m/externals/mbedtls/library\sha256.c ****         return( 0 );
 286:D:/School/diseratie/SEMS/xmc4800_evaluation_kit/optiga-trust-m/externals/mbedtls/library\sha256.c **** 
 287:D:/School/diseratie/SEMS/xmc4800_evaluation_kit/optiga-trust-m/externals/mbedtls/library\sha256.c ****     left = ctx->total[0] & 0x3F;
 1364              	 .loc 1 287 0
 1365 000a 0068     	 ldr r0,[r0]
 1366              	.LVL97:
 288:D:/School/diseratie/SEMS/xmc4800_evaluation_kit/optiga-trust-m/externals/mbedtls/library\sha256.c ****     fill = 64 - left;
 289:D:/School/diseratie/SEMS/xmc4800_evaluation_kit/optiga-trust-m/externals/mbedtls/library\sha256.c **** 
 290:D:/School/diseratie/SEMS/xmc4800_evaluation_kit/optiga-trust-m/externals/mbedtls/library\sha256.c ****     ctx->total[0] += (uint32_t) ilen;
 1367              	 .loc 1 290 0
 1368 000c 1318     	 adds r3,r2,r0
 291:D:/School/diseratie/SEMS/xmc4800_evaluation_kit/optiga-trust-m/externals/mbedtls/library\sha256.c ****     ctx->total[0] &= 0xFFFFFFFF;
 292:D:/School/diseratie/SEMS/xmc4800_evaluation_kit/optiga-trust-m/externals/mbedtls/library\sha256.c **** 
 293:D:/School/diseratie/SEMS/xmc4800_evaluation_kit/optiga-trust-m/externals/mbedtls/library\sha256.c ****     if( ctx->total[0] < (uint32_t) ilen )
 1369              	 .loc 1 293 0
 1370 000e 9A42     	 cmp r2,r3
 1371 0010 0D46     	 mov r5,r1
 1372              	.LVL98:
 290:D:/School/diseratie/SEMS/xmc4800_evaluation_kit/optiga-trust-m/externals/mbedtls/library\sha256.c ****     ctx->total[0] &= 0xFFFFFFFF;
 1373              	 .loc 1 290 0
 1374 0012 3360     	 str r3,[r6]
 287:D:/School/diseratie/SEMS/xmc4800_evaluation_kit/optiga-trust-m/externals/mbedtls/library\sha256.c ****     fill = 64 - left;
 1375              	 .loc 1 287 0
 1376 0014 00F03F07 	 and r7,r0,#63
 1377              	.LVL99:
 1378              	 .loc 1 293 0
 1379 0018 02D9     	 bls .L40
 294:D:/School/diseratie/SEMS/xmc4800_evaluation_kit/optiga-trust-m/externals/mbedtls/library\sha256.c ****         ctx->total[1]++;
 1380              	 .loc 1 294 0
 1381 001a 7368     	 ldr r3,[r6,#4]
 1382 001c 0133     	 adds r3,r3,#1
 1383 001e 7360     	 str r3,[r6,#4]
 1384              	.L40:
 295:D:/School/diseratie/SEMS/xmc4800_evaluation_kit/optiga-trust-m/externals/mbedtls/library\sha256.c **** 
 296:D:/School/diseratie/SEMS/xmc4800_evaluation_kit/optiga-trust-m/externals/mbedtls/library\sha256.c ****     if( left && ilen >= fill )
 1385              	 .loc 1 296 0
 1386 0020 77B9     	 cbnz r7,.L60
 297:D:/School/diseratie/SEMS/xmc4800_evaluation_kit/optiga-trust-m/externals/mbedtls/library\sha256.c ****     {
 298:D:/School/diseratie/SEMS/xmc4800_evaluation_kit/optiga-trust-m/externals/mbedtls/library\sha256.c ****         memcpy( (void *) (ctx->buffer + left), input, fill );
 299:D:/School/diseratie/SEMS/xmc4800_evaluation_kit/optiga-trust-m/externals/mbedtls/library\sha256.c **** 
 300:D:/School/diseratie/SEMS/xmc4800_evaluation_kit/optiga-trust-m/externals/mbedtls/library\sha256.c ****         if( ( ret = mbedtls_internal_sha256_process( ctx, ctx->buffer ) ) != 0 )
 301:D:/School/diseratie/SEMS/xmc4800_evaluation_kit/optiga-trust-m/externals/mbedtls/library\sha256.c ****             return( ret );
 302:D:/School/diseratie/SEMS/xmc4800_evaluation_kit/optiga-trust-m/externals/mbedtls/library\sha256.c **** 
 303:D:/School/diseratie/SEMS/xmc4800_evaluation_kit/optiga-trust-m/externals/mbedtls/library\sha256.c ****         input += fill;
 304:D:/School/diseratie/SEMS/xmc4800_evaluation_kit/optiga-trust-m/externals/mbedtls/library\sha256.c ****         ilen  -= fill;
 305:D:/School/diseratie/SEMS/xmc4800_evaluation_kit/optiga-trust-m/externals/mbedtls/library\sha256.c ****         left = 0;
 306:D:/School/diseratie/SEMS/xmc4800_evaluation_kit/optiga-trust-m/externals/mbedtls/library\sha256.c ****     }
 307:D:/School/diseratie/SEMS/xmc4800_evaluation_kit/optiga-trust-m/externals/mbedtls/library\sha256.c **** 
 308:D:/School/diseratie/SEMS/xmc4800_evaluation_kit/optiga-trust-m/externals/mbedtls/library\sha256.c ****     while( ilen >= 64 )
 1387              	 .loc 1 308 0
 1388 0022 3F2C     	 cmp r4,#63
 1389 0024 02D8     	 bhi .L44
 1390 0026 0FE0     	 b .L47
 1391              	.LVL100:
 1392              	.L58:
 1393 0028 3F2C     	 cmp r4,#63
 1394 002a 17D9     	 bls .L43
 1395              	.LVL101:
 1396              	.L44:
 309:D:/School/diseratie/SEMS/xmc4800_evaluation_kit/optiga-trust-m/externals/mbedtls/library\sha256.c ****     {
 310:D:/School/diseratie/SEMS/xmc4800_evaluation_kit/optiga-trust-m/externals/mbedtls/library\sha256.c ****         if( ( ret = mbedtls_internal_sha256_process( ctx, input ) ) != 0 )
 1397              	 .loc 1 310 0
 1398 002c 2946     	 mov r1,r5
 1399 002e 3046     	 mov r0,r6
 1400 0030 FFF7FEFF 	 bl mbedtls_internal_sha256_process
 1401              	.LVL102:
 311:D:/School/diseratie/SEMS/xmc4800_evaluation_kit/optiga-trust-m/externals/mbedtls/library\sha256.c ****             return( ret );
 312:D:/School/diseratie/SEMS/xmc4800_evaluation_kit/optiga-trust-m/externals/mbedtls/library\sha256.c **** 
 313:D:/School/diseratie/SEMS/xmc4800_evaluation_kit/optiga-trust-m/externals/mbedtls/library\sha256.c ****         input += 64;
 314:D:/School/diseratie/SEMS/xmc4800_evaluation_kit/optiga-trust-m/externals/mbedtls/library\sha256.c ****         ilen  -= 64;
 1402              	 .loc 1 314 0
 1403 0034 403C     	 subs r4,r4,#64
 1404              	.LVL103:
 313:D:/School/diseratie/SEMS/xmc4800_evaluation_kit/optiga-trust-m/externals/mbedtls/library\sha256.c ****         ilen  -= 64;
 1405              	 .loc 1 313 0
 1406 0036 4035     	 adds r5,r5,#64
 1407              	.LVL104:
 310:D:/School/diseratie/SEMS/xmc4800_evaluation_kit/optiga-trust-m/externals/mbedtls/library\sha256.c ****             return( ret );
 1408              	 .loc 1 310 0
 1409 0038 0028     	 cmp r0,#0
 1410 003a F5D0     	 beq .L58
 1411              	.L55:
 1412              	.LBE21:
 1413              	.LBE20:
 315:D:/School/diseratie/SEMS/xmc4800_evaluation_kit/optiga-trust-m/externals/mbedtls/library\sha256.c ****     }
 316:D:/School/diseratie/SEMS/xmc4800_evaluation_kit/optiga-trust-m/externals/mbedtls/library\sha256.c **** 
 317:D:/School/diseratie/SEMS/xmc4800_evaluation_kit/optiga-trust-m/externals/mbedtls/library\sha256.c ****     if( ilen > 0 )
 318:D:/School/diseratie/SEMS/xmc4800_evaluation_kit/optiga-trust-m/externals/mbedtls/library\sha256.c ****         memcpy( (void *) (ctx->buffer + left), input, ilen );
 319:D:/School/diseratie/SEMS/xmc4800_evaluation_kit/optiga-trust-m/externals/mbedtls/library\sha256.c **** 
 320:D:/School/diseratie/SEMS/xmc4800_evaluation_kit/optiga-trust-m/externals/mbedtls/library\sha256.c ****     return( 0 );
 321:D:/School/diseratie/SEMS/xmc4800_evaluation_kit/optiga-trust-m/externals/mbedtls/library\sha256.c **** }
 1414              	 .loc 1 321 0
 1415 003c BDE8F081 	 pop {r4,r5,r6,r7,r8,pc}
 1416              	.LVL105:
 1417              	.L60:
 1418              	.LBB23:
 1419              	.LBB22:
 288:D:/School/diseratie/SEMS/xmc4800_evaluation_kit/optiga-trust-m/externals/mbedtls/library\sha256.c **** 
 1420              	 .loc 1 288 0
 1421 0040 C7F14008 	 rsb r8,r7,#64
 296:D:/School/diseratie/SEMS/xmc4800_evaluation_kit/optiga-trust-m/externals/mbedtls/library\sha256.c ****     {
 1422              	 .loc 1 296 0
 1423 0044 4445     	 cmp r4,r8
 1424 0046 0ED2     	 bcs .L61
 1425              	.LVL106:
 1426              	.L47:
 318:D:/School/diseratie/SEMS/xmc4800_evaluation_kit/optiga-trust-m/externals/mbedtls/library\sha256.c **** 
 1427              	 .loc 1 318 0
 1428 0048 07F12800 	 add r0,r7,#40
 1429 004c 3044     	 add r0,r0,r6
 1430 004e 2946     	 mov r1,r5
 1431 0050 2246     	 mov r2,r4
 1432 0052 FFF7FEFF 	 bl memcpy
 1433              	.LVL107:
 1434              	.L57:
 320:D:/School/diseratie/SEMS/xmc4800_evaluation_kit/optiga-trust-m/externals/mbedtls/library\sha256.c **** }
 1435              	 .loc 1 320 0
 1436 0056 0020     	 movs r0,#0
 1437 0058 BDE8F081 	 pop {r4,r5,r6,r7,r8,pc}
 1438              	.LVL108:
 1439              	.L43:
 317:D:/School/diseratie/SEMS/xmc4800_evaluation_kit/optiga-trust-m/externals/mbedtls/library\sha256.c ****         memcpy( (void *) (ctx->buffer + left), input, ilen );
 1440              	 .loc 1 317 0
 1441 005c 002C     	 cmp r4,#0
 1442 005e F3D1     	 bne .L47
 320:D:/School/diseratie/SEMS/xmc4800_evaluation_kit/optiga-trust-m/externals/mbedtls/library\sha256.c **** }
 1443              	 .loc 1 320 0
 1444 0060 0020     	 movs r0,#0
 1445              	.LVL109:
 1446 0062 BDE8F081 	 pop {r4,r5,r6,r7,r8,pc}
 1447              	.LVL110:
 1448              	.L61:
 298:D:/School/diseratie/SEMS/xmc4800_evaluation_kit/optiga-trust-m/externals/mbedtls/library\sha256.c **** 
 1449              	 .loc 1 298 0
 1450 0066 07F12800 	 add r0,r7,#40
 1451 006a 2946     	 mov r1,r5
 1452              	.LVL111:
 1453 006c 3044     	 add r0,r0,r6
 1454 006e 4246     	 mov r2,r8
 1455              	.LVL112:
 1456 0070 FFF7FEFF 	 bl memcpy
 1457              	.LVL113:
 300:D:/School/diseratie/SEMS/xmc4800_evaluation_kit/optiga-trust-m/externals/mbedtls/library\sha256.c ****             return( ret );
 1458              	 .loc 1 300 0
 1459 0074 3046     	 mov r0,r6
 1460 0076 06F12801 	 add r1,r6,#40
 1461 007a FFF7FEFF 	 bl mbedtls_internal_sha256_process
 1462              	.LVL114:
 1463 007e 0028     	 cmp r0,#0
 1464 0080 DCD1     	 bne .L55
 304:D:/School/diseratie/SEMS/xmc4800_evaluation_kit/optiga-trust-m/externals/mbedtls/library\sha256.c ****         left = 0;
 1465              	 .loc 1 304 0
 1466 0082 C8EB0404 	 rsb r4,r8,r4
 1467              	.LVL115:
 303:D:/School/diseratie/SEMS/xmc4800_evaluation_kit/optiga-trust-m/externals/mbedtls/library\sha256.c ****         ilen  -= fill;
 1468              	 .loc 1 303 0
 1469 0086 4544     	 add r5,r5,r8
 1470              	.LVL116:
 305:D:/School/diseratie/SEMS/xmc4800_evaluation_kit/optiga-trust-m/externals/mbedtls/library\sha256.c ****     }
 1471              	 .loc 1 305 0
 1472 0088 0746     	 mov r7,r0
 1473              	.LVL117:
 1474 008a CDE7     	 b .L58
 1475              	.LBE22:
 1476              	.LBE23:
 1477              	 .cfi_endproc
 1478              	.LFE7:
 1480              	 .section .text.mbedtls_sha256_update,"ax",%progbits
 1481              	 .align 2
 1482              	 .global mbedtls_sha256_update
 1483              	 .thumb
 1484              	 .thumb_func
 1486              	mbedtls_sha256_update:
 1487              	.LFB8:
 322:D:/School/diseratie/SEMS/xmc4800_evaluation_kit/optiga-trust-m/externals/mbedtls/library\sha256.c **** 
 323:D:/School/diseratie/SEMS/xmc4800_evaluation_kit/optiga-trust-m/externals/mbedtls/library\sha256.c **** #if !defined(MBEDTLS_DEPRECATED_REMOVED)
 324:D:/School/diseratie/SEMS/xmc4800_evaluation_kit/optiga-trust-m/externals/mbedtls/library\sha256.c **** void mbedtls_sha256_update( mbedtls_sha256_context *ctx,
 325:D:/School/diseratie/SEMS/xmc4800_evaluation_kit/optiga-trust-m/externals/mbedtls/library\sha256.c ****                             const unsigned char *input,
 326:D:/School/diseratie/SEMS/xmc4800_evaluation_kit/optiga-trust-m/externals/mbedtls/library\sha256.c ****                             size_t ilen )
 327:D:/School/diseratie/SEMS/xmc4800_evaluation_kit/optiga-trust-m/externals/mbedtls/library\sha256.c **** {
 1488              	 .loc 1 327 0
 1489              	 .cfi_startproc
 1490              	 
 1491              	 
 1492              	.LVL118:
 1493 0000 2DE9F041 	 push {r4,r5,r6,r7,r8,lr}
 1494              	.LCFI7:
 1495              	 .cfi_def_cfa_offset 24
 1496              	 .cfi_offset 4,-24
 1497              	 .cfi_offset 5,-20
 1498              	 .cfi_offset 6,-16
 1499              	 .cfi_offset 7,-12
 1500              	 .cfi_offset 8,-8
 1501              	 .cfi_offset 14,-4
 1502              	.LBB28:
 1503              	.LBB29:
 284:D:/School/diseratie/SEMS/xmc4800_evaluation_kit/optiga-trust-m/externals/mbedtls/library\sha256.c ****         return( 0 );
 1504              	 .loc 1 284 0
 1505 0004 1446     	 mov r4,r2
 1506 0006 0AB9     	 cbnz r2,.L81
 1507              	.LVL119:
 1508              	.L62:
 1509 0008 BDE8F081 	 pop {r4,r5,r6,r7,r8,pc}
 1510              	.LVL120:
 1511              	.L81:
 1512 000c 0646     	 mov r6,r0
 1513              	.LVL121:
 1514              	.LBB30:
 1515              	.LBB31:
 287:D:/School/diseratie/SEMS/xmc4800_evaluation_kit/optiga-trust-m/externals/mbedtls/library\sha256.c ****     fill = 64 - left;
 1516              	 .loc 1 287 0
 1517 000e 0068     	 ldr r0,[r0]
 1518              	.LVL122:
 290:D:/School/diseratie/SEMS/xmc4800_evaluation_kit/optiga-trust-m/externals/mbedtls/library\sha256.c ****     ctx->total[0] &= 0xFFFFFFFF;
 1519              	 .loc 1 290 0
 1520 0010 1318     	 adds r3,r2,r0
 293:D:/School/diseratie/SEMS/xmc4800_evaluation_kit/optiga-trust-m/externals/mbedtls/library\sha256.c ****         ctx->total[1]++;
 1521              	 .loc 1 293 0
 1522 0012 9A42     	 cmp r2,r3
 1523 0014 0D46     	 mov r5,r1
 1524              	.LVL123:
 290:D:/School/diseratie/SEMS/xmc4800_evaluation_kit/optiga-trust-m/externals/mbedtls/library\sha256.c ****     ctx->total[0] &= 0xFFFFFFFF;
 1525              	 .loc 1 290 0
 1526 0016 3360     	 str r3,[r6]
 287:D:/School/diseratie/SEMS/xmc4800_evaluation_kit/optiga-trust-m/externals/mbedtls/library\sha256.c ****     fill = 64 - left;
 1527              	 .loc 1 287 0
 1528 0018 00F03F07 	 and r7,r0,#63
 1529              	.LVL124:
 293:D:/School/diseratie/SEMS/xmc4800_evaluation_kit/optiga-trust-m/externals/mbedtls/library\sha256.c ****         ctx->total[1]++;
 1530              	 .loc 1 293 0
 1531 001c 02D9     	 bls .L65
 1532              	.LVL125:
 294:D:/School/diseratie/SEMS/xmc4800_evaluation_kit/optiga-trust-m/externals/mbedtls/library\sha256.c **** 
 1533              	 .loc 1 294 0
 1534 001e 7368     	 ldr r3,[r6,#4]
 1535 0020 0133     	 adds r3,r3,#1
 1536 0022 7360     	 str r3,[r6,#4]
 1537              	.L65:
 296:D:/School/diseratie/SEMS/xmc4800_evaluation_kit/optiga-trust-m/externals/mbedtls/library\sha256.c ****     {
 1538              	 .loc 1 296 0
 1539 0024 77B9     	 cbnz r7,.L82
 308:D:/School/diseratie/SEMS/xmc4800_evaluation_kit/optiga-trust-m/externals/mbedtls/library\sha256.c ****     {
 1540              	 .loc 1 308 0
 1541 0026 3F2C     	 cmp r4,#63
 1542 0028 10D9     	 bls .L72
 1543              	.LVL126:
 1544              	.L70:
 310:D:/School/diseratie/SEMS/xmc4800_evaluation_kit/optiga-trust-m/externals/mbedtls/library\sha256.c ****             return( ret );
 1545              	 .loc 1 310 0
 1546 002a 2946     	 mov r1,r5
 1547 002c 3046     	 mov r0,r6
 1548 002e FFF7FEFF 	 bl mbedtls_internal_sha256_process
 1549              	.LVL127:
 314:D:/School/diseratie/SEMS/xmc4800_evaluation_kit/optiga-trust-m/externals/mbedtls/library\sha256.c ****     }
 1550              	 .loc 1 314 0
 1551 0032 403C     	 subs r4,r4,#64
 1552              	.LVL128:
 313:D:/School/diseratie/SEMS/xmc4800_evaluation_kit/optiga-trust-m/externals/mbedtls/library\sha256.c ****         ilen  -= 64;
 1553              	 .loc 1 313 0
 1554 0034 4035     	 adds r5,r5,#64
 1555              	.LVL129:
 310:D:/School/diseratie/SEMS/xmc4800_evaluation_kit/optiga-trust-m/externals/mbedtls/library\sha256.c ****             return( ret );
 1556              	 .loc 1 310 0
 1557 0036 0028     	 cmp r0,#0
 1558 0038 E6D1     	 bne .L62
 1559              	.L79:
 308:D:/School/diseratie/SEMS/xmc4800_evaluation_kit/optiga-trust-m/externals/mbedtls/library\sha256.c ****     {
 1560              	 .loc 1 308 0
 1561 003a 3F2C     	 cmp r4,#63
 1562 003c F5D8     	 bhi .L70
 317:D:/School/diseratie/SEMS/xmc4800_evaluation_kit/optiga-trust-m/externals/mbedtls/library\sha256.c ****         memcpy( (void *) (ctx->buffer + left), input, ilen );
 1563              	 .loc 1 317 0
 1564 003e 2CB9     	 cbnz r4,.L72
 1565 0040 BDE8F081 	 pop {r4,r5,r6,r7,r8,pc}
 1566              	.LVL130:
 1567              	.L82:
 288:D:/School/diseratie/SEMS/xmc4800_evaluation_kit/optiga-trust-m/externals/mbedtls/library\sha256.c **** 
 1568              	 .loc 1 288 0
 1569 0044 C7F14008 	 rsb r8,r7,#64
 296:D:/School/diseratie/SEMS/xmc4800_evaluation_kit/optiga-trust-m/externals/mbedtls/library\sha256.c ****     {
 1570              	 .loc 1 296 0
 1571 0048 4445     	 cmp r4,r8
 1572 004a 08D2     	 bcs .L83
 1573              	.LVL131:
 1574              	.L72:
 318:D:/School/diseratie/SEMS/xmc4800_evaluation_kit/optiga-trust-m/externals/mbedtls/library\sha256.c **** 
 1575              	 .loc 1 318 0
 1576 004c 07F12800 	 add r0,r7,#40
 1577 0050 3044     	 add r0,r0,r6
 1578 0052 2946     	 mov r1,r5
 1579 0054 2246     	 mov r2,r4
 1580              	.LBE31:
 1581              	.LBE30:
 1582              	.LBE29:
 1583              	.LBE28:
 328:D:/School/diseratie/SEMS/xmc4800_evaluation_kit/optiga-trust-m/externals/mbedtls/library\sha256.c ****     mbedtls_sha256_update_ret( ctx, input, ilen );
 329:D:/School/diseratie/SEMS/xmc4800_evaluation_kit/optiga-trust-m/externals/mbedtls/library\sha256.c **** }
 1584              	 .loc 1 329 0
 1585 0056 BDE8F041 	 pop {r4,r5,r6,r7,r8,lr}
 1586              	.LCFI8:
 1587              	 .cfi_remember_state
 1588              	 .cfi_restore 14
 1589              	 .cfi_restore 8
 1590              	 .cfi_restore 7
 1591              	 .cfi_restore 6
 1592              	 .cfi_restore 5
 1593              	 .cfi_restore 4
 1594              	 .cfi_def_cfa_offset 0
 1595              	.LVL132:
 1596              	.LBB35:
 1597              	.LBB34:
 1598              	.LBB33:
 1599              	.LBB32:
 318:D:/School/diseratie/SEMS/xmc4800_evaluation_kit/optiga-trust-m/externals/mbedtls/library\sha256.c **** 
 1600              	 .loc 1 318 0
 1601 005a FFF7FEBF 	 b memcpy
 1602              	.LVL133:
 1603              	.L83:
 1604              	.LCFI9:
 1605              	 .cfi_restore_state
 298:D:/School/diseratie/SEMS/xmc4800_evaluation_kit/optiga-trust-m/externals/mbedtls/library\sha256.c **** 
 1606              	 .loc 1 298 0
 1607 005e 07F12800 	 add r0,r7,#40
 1608 0062 2946     	 mov r1,r5
 1609              	.LVL134:
 1610 0064 3044     	 add r0,r0,r6
 1611 0066 4246     	 mov r2,r8
 1612              	.LVL135:
 1613 0068 FFF7FEFF 	 bl memcpy
 1614              	.LVL136:
 300:D:/School/diseratie/SEMS/xmc4800_evaluation_kit/optiga-trust-m/externals/mbedtls/library\sha256.c ****             return( ret );
 1615              	 .loc 1 300 0
 1616 006c 3046     	 mov r0,r6
 1617 006e 06F12801 	 add r1,r6,#40
 1618 0072 FFF7FEFF 	 bl mbedtls_internal_sha256_process
 1619              	.LVL137:
 1620 0076 0028     	 cmp r0,#0
 1621 0078 C6D1     	 bne .L62
 304:D:/School/diseratie/SEMS/xmc4800_evaluation_kit/optiga-trust-m/externals/mbedtls/library\sha256.c ****         left = 0;
 1622              	 .loc 1 304 0
 1623 007a C8EB0404 	 rsb r4,r8,r4
 1624              	.LVL138:
 303:D:/School/diseratie/SEMS/xmc4800_evaluation_kit/optiga-trust-m/externals/mbedtls/library\sha256.c ****         ilen  -= fill;
 1625              	 .loc 1 303 0
 1626 007e 4544     	 add r5,r5,r8
 1627              	.LVL139:
 305:D:/School/diseratie/SEMS/xmc4800_evaluation_kit/optiga-trust-m/externals/mbedtls/library\sha256.c ****     }
 1628              	 .loc 1 305 0
 1629 0080 0746     	 mov r7,r0
 1630              	.LVL140:
 1631 0082 DAE7     	 b .L79
 1632              	.LBE32:
 1633              	.LBE33:
 1634              	.LBE34:
 1635              	.LBE35:
 1636              	 .cfi_endproc
 1637              	.LFE8:
 1639              	 .section .text.mbedtls_sha256_finish_ret,"ax",%progbits
 1640              	 .align 2
 1641              	 .global mbedtls_sha256_finish_ret
 1642              	 .thumb
 1643              	 .thumb_func
 1645              	mbedtls_sha256_finish_ret:
 1646              	.LFB9:
 330:D:/School/diseratie/SEMS/xmc4800_evaluation_kit/optiga-trust-m/externals/mbedtls/library\sha256.c **** #endif
 331:D:/School/diseratie/SEMS/xmc4800_evaluation_kit/optiga-trust-m/externals/mbedtls/library\sha256.c **** 
 332:D:/School/diseratie/SEMS/xmc4800_evaluation_kit/optiga-trust-m/externals/mbedtls/library\sha256.c **** /*
 333:D:/School/diseratie/SEMS/xmc4800_evaluation_kit/optiga-trust-m/externals/mbedtls/library\sha256.c ****  * SHA-256 final digest
 334:D:/School/diseratie/SEMS/xmc4800_evaluation_kit/optiga-trust-m/externals/mbedtls/library\sha256.c ****  */
 335:D:/School/diseratie/SEMS/xmc4800_evaluation_kit/optiga-trust-m/externals/mbedtls/library\sha256.c **** int mbedtls_sha256_finish_ret( mbedtls_sha256_context *ctx,
 336:D:/School/diseratie/SEMS/xmc4800_evaluation_kit/optiga-trust-m/externals/mbedtls/library\sha256.c ****                                unsigned char output[32] )
 337:D:/School/diseratie/SEMS/xmc4800_evaluation_kit/optiga-trust-m/externals/mbedtls/library\sha256.c **** {
 1647              	 .loc 1 337 0
 1648              	 .cfi_startproc
 1649              	 
 1650              	 
 1651              	.LVL141:
 338:D:/School/diseratie/SEMS/xmc4800_evaluation_kit/optiga-trust-m/externals/mbedtls/library\sha256.c ****     int ret;
 339:D:/School/diseratie/SEMS/xmc4800_evaluation_kit/optiga-trust-m/externals/mbedtls/library\sha256.c ****     uint32_t used;
 340:D:/School/diseratie/SEMS/xmc4800_evaluation_kit/optiga-trust-m/externals/mbedtls/library\sha256.c ****     uint32_t high, low;
 341:D:/School/diseratie/SEMS/xmc4800_evaluation_kit/optiga-trust-m/externals/mbedtls/library\sha256.c **** 
 342:D:/School/diseratie/SEMS/xmc4800_evaluation_kit/optiga-trust-m/externals/mbedtls/library\sha256.c ****     SHA256_VALIDATE_RET( ctx != NULL );
 343:D:/School/diseratie/SEMS/xmc4800_evaluation_kit/optiga-trust-m/externals/mbedtls/library\sha256.c ****     SHA256_VALIDATE_RET( (unsigned char *)output != NULL );
 344:D:/School/diseratie/SEMS/xmc4800_evaluation_kit/optiga-trust-m/externals/mbedtls/library\sha256.c **** 
 345:D:/School/diseratie/SEMS/xmc4800_evaluation_kit/optiga-trust-m/externals/mbedtls/library\sha256.c ****     /*
 346:D:/School/diseratie/SEMS/xmc4800_evaluation_kit/optiga-trust-m/externals/mbedtls/library\sha256.c ****      * Add padding: 0x80 then 0x00 until 8 bytes remain for the length
 347:D:/School/diseratie/SEMS/xmc4800_evaluation_kit/optiga-trust-m/externals/mbedtls/library\sha256.c ****      */
 348:D:/School/diseratie/SEMS/xmc4800_evaluation_kit/optiga-trust-m/externals/mbedtls/library\sha256.c ****     used = ctx->total[0] & 0x3F;
 1652              	 .loc 1 348 0
 1653 0000 0268     	 ldr r2,[r0]
 1654 0002 02F03F02 	 and r2,r2,#63
 1655              	.LVL142:
 337:D:/School/diseratie/SEMS/xmc4800_evaluation_kit/optiga-trust-m/externals/mbedtls/library\sha256.c ****     int ret;
 1656              	 .loc 1 337 0
 1657 0006 2DE9F843 	 push {r3,r4,r5,r6,r7,r8,r9,lr}
 1658              	.LCFI10:
 1659              	 .cfi_def_cfa_offset 32
 1660              	 .cfi_offset 3,-32
 1661              	 .cfi_offset 4,-28
 1662              	 .cfi_offset 5,-24
 1663              	 .cfi_offset 6,-20
 1664              	 .cfi_offset 7,-16
 1665              	 .cfi_offset 8,-12
 1666              	 .cfi_offset 9,-8
 1667              	 .cfi_offset 14,-4
 337:D:/School/diseratie/SEMS/xmc4800_evaluation_kit/optiga-trust-m/externals/mbedtls/library\sha256.c ****     int ret;
 1668              	 .loc 1 337 0
 1669 000a 0446     	 mov r4,r0
 349:D:/School/diseratie/SEMS/xmc4800_evaluation_kit/optiga-trust-m/externals/mbedtls/library\sha256.c **** 
 350:D:/School/diseratie/SEMS/xmc4800_evaluation_kit/optiga-trust-m/externals/mbedtls/library\sha256.c ****     ctx->buffer[used++] = 0x80;
 1670              	 .loc 1 350 0
 1671 000c 1044     	 add r0,r0,r2
 1672              	.LVL143:
 1673 000e 8026     	 movs r6,#128
 1674 0010 531C     	 adds r3,r2,#1
 1675              	.LVL144:
 1676 0012 80F82860 	 strb r6,[r0,#40]
 351:D:/School/diseratie/SEMS/xmc4800_evaluation_kit/optiga-trust-m/externals/mbedtls/library\sha256.c **** 
 352:D:/School/diseratie/SEMS/xmc4800_evaluation_kit/optiga-trust-m/externals/mbedtls/library\sha256.c ****     if( used <= 56 )
 1677              	 .loc 1 352 0
 1678 0016 382B     	 cmp r3,#56
 353:D:/School/diseratie/SEMS/xmc4800_evaluation_kit/optiga-trust-m/externals/mbedtls/library\sha256.c ****     {
 354:D:/School/diseratie/SEMS/xmc4800_evaluation_kit/optiga-trust-m/externals/mbedtls/library\sha256.c ****         /* Enough room for padding + length in current block */
 355:D:/School/diseratie/SEMS/xmc4800_evaluation_kit/optiga-trust-m/externals/mbedtls/library\sha256.c ****         memset( ctx->buffer + used, 0, 56 - used );
 1679              	 .loc 1 355 0
 1680 0018 02F12900 	 add r0,r2,#41
 337:D:/School/diseratie/SEMS/xmc4800_evaluation_kit/optiga-trust-m/externals/mbedtls/library\sha256.c ****     int ret;
 1681              	 .loc 1 337 0
 1682 001c 0D46     	 mov r5,r1
 1683              	 .loc 1 355 0
 1684 001e 2044     	 add r0,r0,r4
 352:D:/School/diseratie/SEMS/xmc4800_evaluation_kit/optiga-trust-m/externals/mbedtls/library\sha256.c ****     {
 1685              	 .loc 1 352 0
 1686 0020 7BD8     	 bhi .L85
 1687              	 .loc 1 355 0
 1688 0022 C2F13702 	 rsb r2,r2,#55
 1689 0026 0021     	 movs r1,#0
 1690              	.LVL145:
 1691 0028 FFF7FEFF 	 bl memset
 1692              	.LVL146:
 1693 002c 04F12806 	 add r6,r4,#40
 1694              	.L86:
 1695              	.LVL147:
 1696              	.LBB38:
 1697              	.LBB39:
 356:D:/School/diseratie/SEMS/xmc4800_evaluation_kit/optiga-trust-m/externals/mbedtls/library\sha256.c ****     }
 357:D:/School/diseratie/SEMS/xmc4800_evaluation_kit/optiga-trust-m/externals/mbedtls/library\sha256.c ****     else
 358:D:/School/diseratie/SEMS/xmc4800_evaluation_kit/optiga-trust-m/externals/mbedtls/library\sha256.c ****     {
 359:D:/School/diseratie/SEMS/xmc4800_evaluation_kit/optiga-trust-m/externals/mbedtls/library\sha256.c ****         /* We'll need an extra block */
 360:D:/School/diseratie/SEMS/xmc4800_evaluation_kit/optiga-trust-m/externals/mbedtls/library\sha256.c ****         memset( ctx->buffer + used, 0, 64 - used );
 361:D:/School/diseratie/SEMS/xmc4800_evaluation_kit/optiga-trust-m/externals/mbedtls/library\sha256.c **** 
 362:D:/School/diseratie/SEMS/xmc4800_evaluation_kit/optiga-trust-m/externals/mbedtls/library\sha256.c ****         if( ( ret = mbedtls_internal_sha256_process( ctx, ctx->buffer ) ) != 0 )
 363:D:/School/diseratie/SEMS/xmc4800_evaluation_kit/optiga-trust-m/externals/mbedtls/library\sha256.c ****             return( ret );
 364:D:/School/diseratie/SEMS/xmc4800_evaluation_kit/optiga-trust-m/externals/mbedtls/library\sha256.c **** 
 365:D:/School/diseratie/SEMS/xmc4800_evaluation_kit/optiga-trust-m/externals/mbedtls/library\sha256.c ****         memset( ctx->buffer, 0, 56 );
 366:D:/School/diseratie/SEMS/xmc4800_evaluation_kit/optiga-trust-m/externals/mbedtls/library\sha256.c ****     }
 367:D:/School/diseratie/SEMS/xmc4800_evaluation_kit/optiga-trust-m/externals/mbedtls/library\sha256.c **** 
 368:D:/School/diseratie/SEMS/xmc4800_evaluation_kit/optiga-trust-m/externals/mbedtls/library\sha256.c ****     /*
 369:D:/School/diseratie/SEMS/xmc4800_evaluation_kit/optiga-trust-m/externals/mbedtls/library\sha256.c ****      * Add message length
 370:D:/School/diseratie/SEMS/xmc4800_evaluation_kit/optiga-trust-m/externals/mbedtls/library\sha256.c ****      */
 371:D:/School/diseratie/SEMS/xmc4800_evaluation_kit/optiga-trust-m/externals/mbedtls/library\sha256.c ****     high = ( ctx->total[0] >> 29 )
 1698              	 .loc 1 371 0
 1699 0030 2368     	 ldr r3,[r4]
 372:D:/School/diseratie/SEMS/xmc4800_evaluation_kit/optiga-trust-m/externals/mbedtls/library\sha256.c ****          | ( ctx->total[1] <<  3 );
 1700              	 .loc 1 372 0
 1701 0032 6168     	 ldr r1,[r4,#4]
 371:D:/School/diseratie/SEMS/xmc4800_evaluation_kit/optiga-trust-m/externals/mbedtls/library\sha256.c ****          | ( ctx->total[1] <<  3 );
 1702              	 .loc 1 371 0
 1703 0034 5A0F     	 lsrs r2,r3,#29
 1704 0036 42EAC102 	 orr r2,r2,r1,lsl#3
 1705              	.LVL148:
 373:D:/School/diseratie/SEMS/xmc4800_evaluation_kit/optiga-trust-m/externals/mbedtls/library\sha256.c ****     low  = ( ctx->total[0] <<  3 );
 1706              	 .loc 1 373 0
 1707 003a DB00     	 lsls r3,r3,#3
 1708              	.LVL149:
 374:D:/School/diseratie/SEMS/xmc4800_evaluation_kit/optiga-trust-m/externals/mbedtls/library\sha256.c **** 
 375:D:/School/diseratie/SEMS/xmc4800_evaluation_kit/optiga-trust-m/externals/mbedtls/library\sha256.c ****     PUT_UINT32_BE( high, ctx->buffer, 56 );
 376:D:/School/diseratie/SEMS/xmc4800_evaluation_kit/optiga-trust-m/externals/mbedtls/library\sha256.c ****     PUT_UINT32_BE( low,  ctx->buffer, 60 );
 1709              	 .loc 1 376 0
 1710 003c 180A     	 lsrs r0,r3,#8
 1711 003e 4FEA136E 	 lsr lr,r3,#24
 1712 0042 1F0C     	 lsrs r7,r3,#16
 375:D:/School/diseratie/SEMS/xmc4800_evaluation_kit/optiga-trust-m/externals/mbedtls/library\sha256.c ****     PUT_UINT32_BE( low,  ctx->buffer, 60 );
 1713              	 .loc 1 375 0
 1714 0044 4FEA1269 	 lsr r9,r2,#24
 1715 0048 4FEA1248 	 lsr r8,r2,#16
 1716 004c 4FEA122C 	 lsr ip,r2,#8
 1717              	 .loc 1 376 0
 1718 0050 84F86730 	 strb r3,[r4,#103]
 1719 0054 84F86600 	 strb r0,[r4,#102]
 377:D:/School/diseratie/SEMS/xmc4800_evaluation_kit/optiga-trust-m/externals/mbedtls/library\sha256.c **** 
 378:D:/School/diseratie/SEMS/xmc4800_evaluation_kit/optiga-trust-m/externals/mbedtls/library\sha256.c ****     if( ( ret = mbedtls_internal_sha256_process( ctx, ctx->buffer ) ) != 0 )
 1720              	 .loc 1 378 0
 1721 0058 3146     	 mov r1,r6
 375:D:/School/diseratie/SEMS/xmc4800_evaluation_kit/optiga-trust-m/externals/mbedtls/library\sha256.c ****     PUT_UINT32_BE( low,  ctx->buffer, 60 );
 1722              	 .loc 1 375 0
 1723 005a 84F86320 	 strb r2,[r4,#99]
 1724 005e 84F86090 	 strb r9,[r4,#96]
 1725 0062 84F86180 	 strb r8,[r4,#97]
 1726 0066 84F862C0 	 strb ip,[r4,#98]
 376:D:/School/diseratie/SEMS/xmc4800_evaluation_kit/optiga-trust-m/externals/mbedtls/library\sha256.c **** 
 1727              	 .loc 1 376 0
 1728 006a 84F864E0 	 strb lr,[r4,#100]
 1729 006e 84F86570 	 strb r7,[r4,#101]
 1730              	 .loc 1 378 0
 1731 0072 2046     	 mov r0,r4
 1732 0074 FFF7FEFF 	 bl mbedtls_internal_sha256_process
 1733              	.LVL150:
 1734 0078 0346     	 mov r3,r0
 1735 007a 0028     	 cmp r0,#0
 1736 007c 5BD1     	 bne .L90
 379:D:/School/diseratie/SEMS/xmc4800_evaluation_kit/optiga-trust-m/externals/mbedtls/library\sha256.c ****         return( ret );
 380:D:/School/diseratie/SEMS/xmc4800_evaluation_kit/optiga-trust-m/externals/mbedtls/library\sha256.c **** 
 381:D:/School/diseratie/SEMS/xmc4800_evaluation_kit/optiga-trust-m/externals/mbedtls/library\sha256.c ****     /*
 382:D:/School/diseratie/SEMS/xmc4800_evaluation_kit/optiga-trust-m/externals/mbedtls/library\sha256.c ****      * Output final state
 383:D:/School/diseratie/SEMS/xmc4800_evaluation_kit/optiga-trust-m/externals/mbedtls/library\sha256.c ****      */
 384:D:/School/diseratie/SEMS/xmc4800_evaluation_kit/optiga-trust-m/externals/mbedtls/library\sha256.c ****     PUT_UINT32_BE( ctx->state[0], output,  0 );
 1737              	 .loc 1 384 0
 1738 007e E27A     	 ldrb r2,[r4,#11]
 1739 0080 2A70     	 strb r2,[r5]
 1740 0082 6289     	 ldrh r2,[r4,#10]
 1741 0084 6A70     	 strb r2,[r5,#1]
 1742 0086 A268     	 ldr r2,[r4,#8]
 1743 0088 120A     	 lsrs r2,r2,#8
 1744 008a AA70     	 strb r2,[r5,#2]
 1745 008c A268     	 ldr r2,[r4,#8]
 1746 008e EA70     	 strb r2,[r5,#3]
 385:D:/School/diseratie/SEMS/xmc4800_evaluation_kit/optiga-trust-m/externals/mbedtls/library\sha256.c ****     PUT_UINT32_BE( ctx->state[1], output,  4 );
 1747              	 .loc 1 385 0
 1748 0090 E27B     	 ldrb r2,[r4,#15]
 1749 0092 2A71     	 strb r2,[r5,#4]
 1750 0094 E289     	 ldrh r2,[r4,#14]
 1751 0096 6A71     	 strb r2,[r5,#5]
 1752 0098 E268     	 ldr r2,[r4,#12]
 1753 009a 120A     	 lsrs r2,r2,#8
 1754 009c AA71     	 strb r2,[r5,#6]
 1755 009e E268     	 ldr r2,[r4,#12]
 1756 00a0 EA71     	 strb r2,[r5,#7]
 386:D:/School/diseratie/SEMS/xmc4800_evaluation_kit/optiga-trust-m/externals/mbedtls/library\sha256.c ****     PUT_UINT32_BE( ctx->state[2], output,  8 );
 1757              	 .loc 1 386 0
 1758 00a2 E27C     	 ldrb r2,[r4,#19]
 1759 00a4 2A72     	 strb r2,[r5,#8]
 1760 00a6 628A     	 ldrh r2,[r4,#18]
 1761 00a8 6A72     	 strb r2,[r5,#9]
 1762 00aa 2269     	 ldr r2,[r4,#16]
 1763 00ac 120A     	 lsrs r2,r2,#8
 1764 00ae AA72     	 strb r2,[r5,#10]
 1765 00b0 2269     	 ldr r2,[r4,#16]
 1766 00b2 EA72     	 strb r2,[r5,#11]
 387:D:/School/diseratie/SEMS/xmc4800_evaluation_kit/optiga-trust-m/externals/mbedtls/library\sha256.c ****     PUT_UINT32_BE( ctx->state[3], output, 12 );
 1767              	 .loc 1 387 0
 1768 00b4 E27D     	 ldrb r2,[r4,#23]
 1769 00b6 2A73     	 strb r2,[r5,#12]
 1770 00b8 E28A     	 ldrh r2,[r4,#22]
 1771 00ba 6A73     	 strb r2,[r5,#13]
 1772 00bc 6269     	 ldr r2,[r4,#20]
 1773 00be 120A     	 lsrs r2,r2,#8
 1774 00c0 AA73     	 strb r2,[r5,#14]
 1775 00c2 6269     	 ldr r2,[r4,#20]
 1776 00c4 EA73     	 strb r2,[r5,#15]
 388:D:/School/diseratie/SEMS/xmc4800_evaluation_kit/optiga-trust-m/externals/mbedtls/library\sha256.c ****     PUT_UINT32_BE( ctx->state[4], output, 16 );
 1777              	 .loc 1 388 0
 1778 00c6 E27E     	 ldrb r2,[r4,#27]
 1779 00c8 2A74     	 strb r2,[r5,#16]
 1780 00ca 628B     	 ldrh r2,[r4,#26]
 1781 00cc 6A74     	 strb r2,[r5,#17]
 1782 00ce A269     	 ldr r2,[r4,#24]
 1783 00d0 120A     	 lsrs r2,r2,#8
 1784 00d2 AA74     	 strb r2,[r5,#18]
 1785 00d4 A269     	 ldr r2,[r4,#24]
 1786 00d6 EA74     	 strb r2,[r5,#19]
 389:D:/School/diseratie/SEMS/xmc4800_evaluation_kit/optiga-trust-m/externals/mbedtls/library\sha256.c ****     PUT_UINT32_BE( ctx->state[5], output, 20 );
 1787              	 .loc 1 389 0
 1788 00d8 E27F     	 ldrb r2,[r4,#31]
 1789 00da 2A75     	 strb r2,[r5,#20]
 1790 00dc E28B     	 ldrh r2,[r4,#30]
 1791 00de 6A75     	 strb r2,[r5,#21]
 1792 00e0 E269     	 ldr r2,[r4,#28]
 1793 00e2 120A     	 lsrs r2,r2,#8
 1794 00e4 AA75     	 strb r2,[r5,#22]
 1795 00e6 E269     	 ldr r2,[r4,#28]
 1796 00e8 EA75     	 strb r2,[r5,#23]
 390:D:/School/diseratie/SEMS/xmc4800_evaluation_kit/optiga-trust-m/externals/mbedtls/library\sha256.c ****     PUT_UINT32_BE( ctx->state[6], output, 24 );
 1797              	 .loc 1 390 0
 1798 00ea 94F82320 	 ldrb r2,[r4,#35]
 1799 00ee 2A76     	 strb r2,[r5,#24]
 1800 00f0 628C     	 ldrh r2,[r4,#34]
 1801 00f2 6A76     	 strb r2,[r5,#25]
 1802 00f4 226A     	 ldr r2,[r4,#32]
 1803 00f6 120A     	 lsrs r2,r2,#8
 1804 00f8 AA76     	 strb r2,[r5,#26]
 1805 00fa 226A     	 ldr r2,[r4,#32]
 1806 00fc EA76     	 strb r2,[r5,#27]
 391:D:/School/diseratie/SEMS/xmc4800_evaluation_kit/optiga-trust-m/externals/mbedtls/library\sha256.c **** 
 392:D:/School/diseratie/SEMS/xmc4800_evaluation_kit/optiga-trust-m/externals/mbedtls/library\sha256.c ****     if( ctx->is224 == 0 )
 1807              	 .loc 1 392 0
 1808 00fe A06E     	 ldr r0,[r4,#104]
 1809              	.LVL151:
 1810 0100 C8B9     	 cbnz r0,.L90
 393:D:/School/diseratie/SEMS/xmc4800_evaluation_kit/optiga-trust-m/externals/mbedtls/library\sha256.c ****         PUT_UINT32_BE( ctx->state[7], output, 28 );
 1811              	 .loc 1 393 0
 1812 0102 94F82730 	 ldrb r3,[r4,#39]
 1813              	.LVL152:
 1814 0106 2B77     	 strb r3,[r5,#28]
 1815 0108 E38C     	 ldrh r3,[r4,#38]
 1816 010a 6B77     	 strb r3,[r5,#29]
 1817 010c 636A     	 ldr r3,[r4,#36]
 1818 010e 1B0A     	 lsrs r3,r3,#8
 1819 0110 AB77     	 strb r3,[r5,#30]
 1820 0112 636A     	 ldr r3,[r4,#36]
 1821 0114 EB77     	 strb r3,[r5,#31]
 1822 0116 BDE8F883 	 pop {r3,r4,r5,r6,r7,r8,r9,pc}
 1823              	.LVL153:
 1824              	.L85:
 1825              	.LBE39:
 1826              	.LBE38:
 360:D:/School/diseratie/SEMS/xmc4800_evaluation_kit/optiga-trust-m/externals/mbedtls/library\sha256.c **** 
 1827              	 .loc 1 360 0
 1828 011a 0021     	 movs r1,#0
 1829              	.LVL154:
 1830 011c C2F13F02 	 rsb r2,r2,#63
 362:D:/School/diseratie/SEMS/xmc4800_evaluation_kit/optiga-trust-m/externals/mbedtls/library\sha256.c ****             return( ret );
 1831              	 .loc 1 362 0
 1832 0120 04F12806 	 add r6,r4,#40
 360:D:/School/diseratie/SEMS/xmc4800_evaluation_kit/optiga-trust-m/externals/mbedtls/library\sha256.c **** 
 1833              	 .loc 1 360 0
 1834 0124 FFF7FEFF 	 bl memset
 1835              	.LVL155:
 362:D:/School/diseratie/SEMS/xmc4800_evaluation_kit/optiga-trust-m/externals/mbedtls/library\sha256.c ****             return( ret );
 1836              	 .loc 1 362 0
 1837 0128 3146     	 mov r1,r6
 1838 012a 2046     	 mov r0,r4
 1839 012c FFF7FEFF 	 bl mbedtls_internal_sha256_process
 1840              	.LVL156:
 1841 0130 20B1     	 cbz r0,.L92
 394:D:/School/diseratie/SEMS/xmc4800_evaluation_kit/optiga-trust-m/externals/mbedtls/library\sha256.c **** 
 395:D:/School/diseratie/SEMS/xmc4800_evaluation_kit/optiga-trust-m/externals/mbedtls/library\sha256.c ****     return( 0 );
 396:D:/School/diseratie/SEMS/xmc4800_evaluation_kit/optiga-trust-m/externals/mbedtls/library\sha256.c **** }
 1842              	 .loc 1 396 0
 1843 0132 BDE8F883 	 pop {r3,r4,r5,r6,r7,r8,r9,pc}
 1844              	.LVL157:
 1845              	.L90:
 1846              	.LBB41:
 1847              	.LBB40:
 395:D:/School/diseratie/SEMS/xmc4800_evaluation_kit/optiga-trust-m/externals/mbedtls/library\sha256.c **** }
 1848              	 .loc 1 395 0
 1849 0136 1846     	 mov r0,r3
 1850              	.LBE40:
 1851              	.LBE41:
 1852              	 .loc 1 396 0
 1853 0138 BDE8F883 	 pop {r3,r4,r5,r6,r7,r8,r9,pc}
 1854              	.LVL158:
 1855              	.L92:
 365:D:/School/diseratie/SEMS/xmc4800_evaluation_kit/optiga-trust-m/externals/mbedtls/library\sha256.c ****     }
 1856              	 .loc 1 365 0
 1857 013c 0146     	 mov r1,r0
 1858 013e 3822     	 movs r2,#56
 1859 0140 3046     	 mov r0,r6
 1860              	.LVL159:
 1861 0142 FFF7FEFF 	 bl memset
 1862              	.LVL160:
 1863 0146 73E7     	 b .L86
 1864              	 .cfi_endproc
 1865              	.LFE9:
 1867              	 .section .text.mbedtls_sha256_finish,"ax",%progbits
 1868              	 .align 2
 1869              	 .global mbedtls_sha256_finish
 1870              	 .thumb
 1871              	 .thumb_func
 1873              	mbedtls_sha256_finish:
 1874              	.LFB10:
 397:D:/School/diseratie/SEMS/xmc4800_evaluation_kit/optiga-trust-m/externals/mbedtls/library\sha256.c **** 
 398:D:/School/diseratie/SEMS/xmc4800_evaluation_kit/optiga-trust-m/externals/mbedtls/library\sha256.c **** #if !defined(MBEDTLS_DEPRECATED_REMOVED)
 399:D:/School/diseratie/SEMS/xmc4800_evaluation_kit/optiga-trust-m/externals/mbedtls/library\sha256.c **** void mbedtls_sha256_finish( mbedtls_sha256_context *ctx,
 400:D:/School/diseratie/SEMS/xmc4800_evaluation_kit/optiga-trust-m/externals/mbedtls/library\sha256.c ****                             unsigned char output[32] )
 401:D:/School/diseratie/SEMS/xmc4800_evaluation_kit/optiga-trust-m/externals/mbedtls/library\sha256.c **** {
 1875              	 .loc 1 401 0
 1876              	 .cfi_startproc
 1877              	 
 1878              	 
 1879              	.LVL161:
 1880              	.LBB46:
 1881              	.LBB47:
 348:D:/School/diseratie/SEMS/xmc4800_evaluation_kit/optiga-trust-m/externals/mbedtls/library\sha256.c **** 
 1882              	 .loc 1 348 0
 1883 0000 0268     	 ldr r2,[r0]
 1884 0002 02F03F02 	 and r2,r2,#63
 1885              	.LBE47:
 1886              	.LBE46:
 1887              	 .loc 1 401 0
 1888 0006 2DE9F843 	 push {r3,r4,r5,r6,r7,r8,r9,lr}
 1889              	.LCFI11:
 1890              	 .cfi_def_cfa_offset 32
 1891              	 .cfi_offset 3,-32
 1892              	 .cfi_offset 4,-28
 1893              	 .cfi_offset 5,-24
 1894              	 .cfi_offset 6,-20
 1895              	 .cfi_offset 7,-16
 1896              	 .cfi_offset 8,-12
 1897              	 .cfi_offset 9,-8
 1898              	 .cfi_offset 14,-4
 1899              	 .loc 1 401 0
 1900 000a 0446     	 mov r4,r0
 1901              	.LVL162:
 1902              	.LBB52:
 1903              	.LBB50:
 350:D:/School/diseratie/SEMS/xmc4800_evaluation_kit/optiga-trust-m/externals/mbedtls/library\sha256.c **** 
 1904              	 .loc 1 350 0
 1905 000c 1044     	 add r0,r0,r2
 1906              	.LVL163:
 1907 000e 8026     	 movs r6,#128
 1908 0010 531C     	 adds r3,r2,#1
 1909 0012 80F82860 	 strb r6,[r0,#40]
 352:D:/School/diseratie/SEMS/xmc4800_evaluation_kit/optiga-trust-m/externals/mbedtls/library\sha256.c ****     {
 1910              	 .loc 1 352 0
 1911 0016 382B     	 cmp r3,#56
 355:D:/School/diseratie/SEMS/xmc4800_evaluation_kit/optiga-trust-m/externals/mbedtls/library\sha256.c ****     }
 1912              	 .loc 1 355 0
 1913 0018 02F12900 	 add r0,r2,#41
 1914              	.LBE50:
 1915              	.LBE52:
 1916              	 .loc 1 401 0
 1917 001c 0D46     	 mov r5,r1
 1918              	.LVL164:
 1919              	.LBB53:
 1920              	.LBB51:
 355:D:/School/diseratie/SEMS/xmc4800_evaluation_kit/optiga-trust-m/externals/mbedtls/library\sha256.c ****     }
 1921              	 .loc 1 355 0
 1922 001e 2044     	 add r0,r0,r4
 352:D:/School/diseratie/SEMS/xmc4800_evaluation_kit/optiga-trust-m/externals/mbedtls/library\sha256.c ****     {
 1923              	 .loc 1 352 0
 1924 0020 7AD8     	 bhi .L94
 355:D:/School/diseratie/SEMS/xmc4800_evaluation_kit/optiga-trust-m/externals/mbedtls/library\sha256.c ****     }
 1925              	 .loc 1 355 0
 1926 0022 C2F13702 	 rsb r2,r2,#55
 1927 0026 0021     	 movs r1,#0
 1928              	.LVL165:
 1929 0028 FFF7FEFF 	 bl memset
 1930              	.LVL166:
 1931 002c 04F12806 	 add r6,r4,#40
 1932              	.L95:
 1933              	.LVL167:
 1934              	.LBB48:
 1935              	.LBB49:
 371:D:/School/diseratie/SEMS/xmc4800_evaluation_kit/optiga-trust-m/externals/mbedtls/library\sha256.c ****          | ( ctx->total[1] <<  3 );
 1936              	 .loc 1 371 0
 1937 0030 2368     	 ldr r3,[r4]
 372:D:/School/diseratie/SEMS/xmc4800_evaluation_kit/optiga-trust-m/externals/mbedtls/library\sha256.c ****     low  = ( ctx->total[0] <<  3 );
 1938              	 .loc 1 372 0
 1939 0032 6168     	 ldr r1,[r4,#4]
 371:D:/School/diseratie/SEMS/xmc4800_evaluation_kit/optiga-trust-m/externals/mbedtls/library\sha256.c ****          | ( ctx->total[1] <<  3 );
 1940              	 .loc 1 371 0
 1941 0034 5A0F     	 lsrs r2,r3,#29
 1942 0036 42EAC102 	 orr r2,r2,r1,lsl#3
 1943              	.LVL168:
 373:D:/School/diseratie/SEMS/xmc4800_evaluation_kit/optiga-trust-m/externals/mbedtls/library\sha256.c **** 
 1944              	 .loc 1 373 0
 1945 003a DB00     	 lsls r3,r3,#3
 1946              	.LVL169:
 376:D:/School/diseratie/SEMS/xmc4800_evaluation_kit/optiga-trust-m/externals/mbedtls/library\sha256.c **** 
 1947              	 .loc 1 376 0
 1948 003c 180A     	 lsrs r0,r3,#8
 375:D:/School/diseratie/SEMS/xmc4800_evaluation_kit/optiga-trust-m/externals/mbedtls/library\sha256.c ****     PUT_UINT32_BE( low,  ctx->buffer, 60 );
 1949              	 .loc 1 375 0
 1950 003e 4FEA1269 	 lsr r9,r2,#24
 1951 0042 4FEA1248 	 lsr r8,r2,#16
 1952 0046 4FEA122C 	 lsr ip,r2,#8
 376:D:/School/diseratie/SEMS/xmc4800_evaluation_kit/optiga-trust-m/externals/mbedtls/library\sha256.c **** 
 1953              	 .loc 1 376 0
 1954 004a 4FEA136E 	 lsr lr,r3,#24
 1955 004e 1F0C     	 lsrs r7,r3,#16
 1956 0050 84F86600 	 strb r0,[r4,#102]
 378:D:/School/diseratie/SEMS/xmc4800_evaluation_kit/optiga-trust-m/externals/mbedtls/library\sha256.c ****         return( ret );
 1957              	 .loc 1 378 0
 1958 0054 3146     	 mov r1,r6
 376:D:/School/diseratie/SEMS/xmc4800_evaluation_kit/optiga-trust-m/externals/mbedtls/library\sha256.c **** 
 1959              	 .loc 1 376 0
 1960 0056 84F86730 	 strb r3,[r4,#103]
 375:D:/School/diseratie/SEMS/xmc4800_evaluation_kit/optiga-trust-m/externals/mbedtls/library\sha256.c ****     PUT_UINT32_BE( low,  ctx->buffer, 60 );
 1961              	 .loc 1 375 0
 1962 005a 84F86320 	 strb r2,[r4,#99]
 1963 005e 84F86090 	 strb r9,[r4,#96]
 1964 0062 84F86180 	 strb r8,[r4,#97]
 1965 0066 84F862C0 	 strb ip,[r4,#98]
 376:D:/School/diseratie/SEMS/xmc4800_evaluation_kit/optiga-trust-m/externals/mbedtls/library\sha256.c **** 
 1966              	 .loc 1 376 0
 1967 006a 84F864E0 	 strb lr,[r4,#100]
 1968 006e 84F86570 	 strb r7,[r4,#101]
 378:D:/School/diseratie/SEMS/xmc4800_evaluation_kit/optiga-trust-m/externals/mbedtls/library\sha256.c ****         return( ret );
 1969              	 .loc 1 378 0
 1970 0072 2046     	 mov r0,r4
 1971 0074 FFF7FEFF 	 bl mbedtls_internal_sha256_process
 1972              	.LVL170:
 1973 0078 0028     	 cmp r0,#0
 1974 007a 4BD1     	 bne .L93
 384:D:/School/diseratie/SEMS/xmc4800_evaluation_kit/optiga-trust-m/externals/mbedtls/library\sha256.c ****     PUT_UINT32_BE( ctx->state[1], output,  4 );
 1975              	 .loc 1 384 0
 1976 007c E37A     	 ldrb r3,[r4,#11]
 1977 007e 2B70     	 strb r3,[r5]
 1978 0080 6389     	 ldrh r3,[r4,#10]
 1979 0082 6B70     	 strb r3,[r5,#1]
 1980 0084 A368     	 ldr r3,[r4,#8]
 1981 0086 1B0A     	 lsrs r3,r3,#8
 1982 0088 AB70     	 strb r3,[r5,#2]
 1983 008a A368     	 ldr r3,[r4,#8]
 1984 008c EB70     	 strb r3,[r5,#3]
 385:D:/School/diseratie/SEMS/xmc4800_evaluation_kit/optiga-trust-m/externals/mbedtls/library\sha256.c ****     PUT_UINT32_BE( ctx->state[2], output,  8 );
 1985              	 .loc 1 385 0
 1986 008e E37B     	 ldrb r3,[r4,#15]
 1987 0090 2B71     	 strb r3,[r5,#4]
 1988 0092 E389     	 ldrh r3,[r4,#14]
 1989 0094 6B71     	 strb r3,[r5,#5]
 1990 0096 E368     	 ldr r3,[r4,#12]
 1991 0098 1B0A     	 lsrs r3,r3,#8
 1992 009a AB71     	 strb r3,[r5,#6]
 1993 009c E368     	 ldr r3,[r4,#12]
 1994 009e EB71     	 strb r3,[r5,#7]
 386:D:/School/diseratie/SEMS/xmc4800_evaluation_kit/optiga-trust-m/externals/mbedtls/library\sha256.c ****     PUT_UINT32_BE( ctx->state[3], output, 12 );
 1995              	 .loc 1 386 0
 1996 00a0 E37C     	 ldrb r3,[r4,#19]
 1997 00a2 2B72     	 strb r3,[r5,#8]
 1998 00a4 638A     	 ldrh r3,[r4,#18]
 1999 00a6 6B72     	 strb r3,[r5,#9]
 2000 00a8 2369     	 ldr r3,[r4,#16]
 2001 00aa 1B0A     	 lsrs r3,r3,#8
 2002 00ac AB72     	 strb r3,[r5,#10]
 2003 00ae 2369     	 ldr r3,[r4,#16]
 2004 00b0 EB72     	 strb r3,[r5,#11]
 387:D:/School/diseratie/SEMS/xmc4800_evaluation_kit/optiga-trust-m/externals/mbedtls/library\sha256.c ****     PUT_UINT32_BE( ctx->state[4], output, 16 );
 2005              	 .loc 1 387 0
 2006 00b2 E37D     	 ldrb r3,[r4,#23]
 2007 00b4 2B73     	 strb r3,[r5,#12]
 2008 00b6 E38A     	 ldrh r3,[r4,#22]
 2009 00b8 6B73     	 strb r3,[r5,#13]
 2010 00ba 6369     	 ldr r3,[r4,#20]
 2011 00bc 1B0A     	 lsrs r3,r3,#8
 2012 00be AB73     	 strb r3,[r5,#14]
 2013 00c0 6369     	 ldr r3,[r4,#20]
 2014 00c2 EB73     	 strb r3,[r5,#15]
 388:D:/School/diseratie/SEMS/xmc4800_evaluation_kit/optiga-trust-m/externals/mbedtls/library\sha256.c ****     PUT_UINT32_BE( ctx->state[5], output, 20 );
 2015              	 .loc 1 388 0
 2016 00c4 E37E     	 ldrb r3,[r4,#27]
 2017 00c6 2B74     	 strb r3,[r5,#16]
 2018 00c8 638B     	 ldrh r3,[r4,#26]
 2019 00ca 6B74     	 strb r3,[r5,#17]
 2020 00cc A369     	 ldr r3,[r4,#24]
 2021 00ce 1B0A     	 lsrs r3,r3,#8
 2022 00d0 AB74     	 strb r3,[r5,#18]
 2023 00d2 A369     	 ldr r3,[r4,#24]
 2024 00d4 EB74     	 strb r3,[r5,#19]
 389:D:/School/diseratie/SEMS/xmc4800_evaluation_kit/optiga-trust-m/externals/mbedtls/library\sha256.c ****     PUT_UINT32_BE( ctx->state[6], output, 24 );
 2025              	 .loc 1 389 0
 2026 00d6 E37F     	 ldrb r3,[r4,#31]
 2027 00d8 2B75     	 strb r3,[r5,#20]
 2028 00da E38B     	 ldrh r3,[r4,#30]
 2029 00dc 6B75     	 strb r3,[r5,#21]
 2030 00de E369     	 ldr r3,[r4,#28]
 2031 00e0 1B0A     	 lsrs r3,r3,#8
 2032 00e2 AB75     	 strb r3,[r5,#22]
 2033 00e4 E369     	 ldr r3,[r4,#28]
 2034 00e6 EB75     	 strb r3,[r5,#23]
 390:D:/School/diseratie/SEMS/xmc4800_evaluation_kit/optiga-trust-m/externals/mbedtls/library\sha256.c **** 
 2035              	 .loc 1 390 0
 2036 00e8 94F82330 	 ldrb r3,[r4,#35]
 2037 00ec 2B76     	 strb r3,[r5,#24]
 2038 00ee 638C     	 ldrh r3,[r4,#34]
 2039 00f0 6B76     	 strb r3,[r5,#25]
 2040 00f2 236A     	 ldr r3,[r4,#32]
 2041 00f4 1B0A     	 lsrs r3,r3,#8
 2042 00f6 AB76     	 strb r3,[r5,#26]
 2043 00f8 236A     	 ldr r3,[r4,#32]
 2044 00fa EB76     	 strb r3,[r5,#27]
 392:D:/School/diseratie/SEMS/xmc4800_evaluation_kit/optiga-trust-m/externals/mbedtls/library\sha256.c ****         PUT_UINT32_BE( ctx->state[7], output, 28 );
 2045              	 .loc 1 392 0
 2046 00fc A36E     	 ldr r3,[r4,#104]
 2047 00fe 4BB9     	 cbnz r3,.L93
 393:D:/School/diseratie/SEMS/xmc4800_evaluation_kit/optiga-trust-m/externals/mbedtls/library\sha256.c **** 
 2048              	 .loc 1 393 0
 2049 0100 94F82730 	 ldrb r3,[r4,#39]
 2050 0104 2B77     	 strb r3,[r5,#28]
 2051 0106 E38C     	 ldrh r3,[r4,#38]
 2052 0108 6B77     	 strb r3,[r5,#29]
 2053 010a 636A     	 ldr r3,[r4,#36]
 2054 010c 1B0A     	 lsrs r3,r3,#8
 2055 010e AB77     	 strb r3,[r5,#30]
 2056 0110 636A     	 ldr r3,[r4,#36]
 2057 0112 EB77     	 strb r3,[r5,#31]
 2058              	.LVL171:
 2059              	.L93:
 2060 0114 BDE8F883 	 pop {r3,r4,r5,r6,r7,r8,r9,pc}
 2061              	.LVL172:
 2062              	.L94:
 2063              	.LBE49:
 2064              	.LBE48:
 360:D:/School/diseratie/SEMS/xmc4800_evaluation_kit/optiga-trust-m/externals/mbedtls/library\sha256.c **** 
 2065              	 .loc 1 360 0
 2066 0118 0021     	 movs r1,#0
 2067              	.LVL173:
 2068 011a C2F13F02 	 rsb r2,r2,#63
 362:D:/School/diseratie/SEMS/xmc4800_evaluation_kit/optiga-trust-m/externals/mbedtls/library\sha256.c ****             return( ret );
 2069              	 .loc 1 362 0
 2070 011e 04F12806 	 add r6,r4,#40
 360:D:/School/diseratie/SEMS/xmc4800_evaluation_kit/optiga-trust-m/externals/mbedtls/library\sha256.c **** 
 2071              	 .loc 1 360 0
 2072 0122 FFF7FEFF 	 bl memset
 2073              	.LVL174:
 362:D:/School/diseratie/SEMS/xmc4800_evaluation_kit/optiga-trust-m/externals/mbedtls/library\sha256.c ****             return( ret );
 2074              	 .loc 1 362 0
 2075 0126 3146     	 mov r1,r6
 2076 0128 2046     	 mov r0,r4
 2077 012a FFF7FEFF 	 bl mbedtls_internal_sha256_process
 2078              	.LVL175:
 2079 012e 0028     	 cmp r0,#0
 2080 0130 F0D1     	 bne .L93
 365:D:/School/diseratie/SEMS/xmc4800_evaluation_kit/optiga-trust-m/externals/mbedtls/library\sha256.c ****     }
 2081              	 .loc 1 365 0
 2082 0132 0146     	 mov r1,r0
 2083 0134 3822     	 movs r2,#56
 2084 0136 3046     	 mov r0,r6
 2085              	.LVL176:
 2086 0138 FFF7FEFF 	 bl memset
 2087              	.LVL177:
 2088 013c 78E7     	 b .L95
 2089              	.LBE51:
 2090              	.LBE53:
 2091              	 .cfi_endproc
 2092              	.LFE10:
 2094 013e 00BF     	 .section .text.mbedtls_sha256_ret,"ax",%progbits
 2095              	 .align 2
 2096              	 .global mbedtls_sha256_ret
 2097              	 .thumb
 2098              	 .thumb_func
 2100              	mbedtls_sha256_ret:
 2101              	.LFB11:
 402:D:/School/diseratie/SEMS/xmc4800_evaluation_kit/optiga-trust-m/externals/mbedtls/library\sha256.c ****     mbedtls_sha256_finish_ret( ctx, output );
 403:D:/School/diseratie/SEMS/xmc4800_evaluation_kit/optiga-trust-m/externals/mbedtls/library\sha256.c **** }
 404:D:/School/diseratie/SEMS/xmc4800_evaluation_kit/optiga-trust-m/externals/mbedtls/library\sha256.c **** #endif
 405:D:/School/diseratie/SEMS/xmc4800_evaluation_kit/optiga-trust-m/externals/mbedtls/library\sha256.c **** 
 406:D:/School/diseratie/SEMS/xmc4800_evaluation_kit/optiga-trust-m/externals/mbedtls/library\sha256.c **** #endif /* !MBEDTLS_SHA256_ALT */
 407:D:/School/diseratie/SEMS/xmc4800_evaluation_kit/optiga-trust-m/externals/mbedtls/library\sha256.c **** 
 408:D:/School/diseratie/SEMS/xmc4800_evaluation_kit/optiga-trust-m/externals/mbedtls/library\sha256.c **** /*
 409:D:/School/diseratie/SEMS/xmc4800_evaluation_kit/optiga-trust-m/externals/mbedtls/library\sha256.c ****  * output = SHA-256( input buffer )
 410:D:/School/diseratie/SEMS/xmc4800_evaluation_kit/optiga-trust-m/externals/mbedtls/library\sha256.c ****  */
 411:D:/School/diseratie/SEMS/xmc4800_evaluation_kit/optiga-trust-m/externals/mbedtls/library\sha256.c **** int mbedtls_sha256_ret( const unsigned char *input,
 412:D:/School/diseratie/SEMS/xmc4800_evaluation_kit/optiga-trust-m/externals/mbedtls/library\sha256.c ****                         size_t ilen,
 413:D:/School/diseratie/SEMS/xmc4800_evaluation_kit/optiga-trust-m/externals/mbedtls/library\sha256.c ****                         unsigned char output[32],
 414:D:/School/diseratie/SEMS/xmc4800_evaluation_kit/optiga-trust-m/externals/mbedtls/library\sha256.c ****                         int is224 )
 415:D:/School/diseratie/SEMS/xmc4800_evaluation_kit/optiga-trust-m/externals/mbedtls/library\sha256.c **** {
 2102              	 .loc 1 415 0
 2103              	 .cfi_startproc
 2104              	 
 2105              	 
 2106              	.LVL178:
 2107 0000 2DE9F043 	 push {r4,r5,r6,r7,r8,r9,lr}
 2108              	.LCFI12:
 2109              	 .cfi_def_cfa_offset 28
 2110              	 .cfi_offset 4,-28
 2111              	 .cfi_offset 5,-24
 2112              	 .cfi_offset 6,-20
 2113              	 .cfi_offset 7,-16
 2114              	 .cfi_offset 8,-12
 2115              	 .cfi_offset 9,-8
 2116              	 .cfi_offset 14,-4
 2117 0004 9DB0     	 sub sp,sp,#116
 2118              	.LCFI13:
 2119              	 .cfi_def_cfa_offset 144
 2120              	.LVL179:
 2121              	 .loc 1 415 0
 2122 0006 0546     	 mov r5,r0
 2123 0008 0C46     	 mov r4,r1
 2124 000a 1746     	 mov r7,r2
 2125 000c 1E46     	 mov r6,r3
 2126              	.LBB72:
 2127              	.LBB73:
  85:D:/School/diseratie/SEMS/xmc4800_evaluation_kit/optiga-trust-m/externals/mbedtls/library\sha256.c **** }
 2128              	 .loc 1 85 0
 2129 000e 01A8     	 add r0,sp,#4
 2130              	.LVL180:
 2131 0010 0021     	 movs r1,#0
 2132              	.LVL181:
 2133 0012 6C22     	 movs r2,#108
 2134              	.LVL182:
 2135 0014 FFF7FEFF 	 bl memset
 2136              	.LVL183:
 2137              	.LBE73:
 2138              	.LBE72:
 2139              	.LBB74:
 2140              	.LBB75:
 116:D:/School/diseratie/SEMS/xmc4800_evaluation_kit/optiga-trust-m/externals/mbedtls/library\sha256.c ****     {
 2141              	 .loc 1 116 0
 2142 0018 36BB     	 cbnz r6,.L101
 119:D:/School/diseratie/SEMS/xmc4800_evaluation_kit/optiga-trust-m/externals/mbedtls/library\sha256.c ****         ctx->state[1] = 0xBB67AE85;
 2143              	 .loc 1 119 0
 2144 001a DFF8B490 	 ldr r9,.L120+32
 120:D:/School/diseratie/SEMS/xmc4800_evaluation_kit/optiga-trust-m/externals/mbedtls/library\sha256.c ****         ctx->state[2] = 0x3C6EF372;
 2145              	 .loc 1 120 0
 2146 001e DFF8B480 	 ldr r8,.L120+36
 121:D:/School/diseratie/SEMS/xmc4800_evaluation_kit/optiga-trust-m/externals/mbedtls/library\sha256.c ****         ctx->state[3] = 0xA54FF53A;
 2147              	 .loc 1 121 0
 2148 0022 DFF8B4C0 	 ldr ip,.L120+40
 122:D:/School/diseratie/SEMS/xmc4800_evaluation_kit/optiga-trust-m/externals/mbedtls/library\sha256.c ****         ctx->state[4] = 0x510E527F;
 2149              	 .loc 1 122 0
 2150 0026 DFF8B4E0 	 ldr lr,.L120+44
 123:D:/School/diseratie/SEMS/xmc4800_evaluation_kit/optiga-trust-m/externals/mbedtls/library\sha256.c ****         ctx->state[5] = 0x9B05688C;
 2151              	 .loc 1 123 0
 2152 002a 2148     	 ldr r0,.L120
 124:D:/School/diseratie/SEMS/xmc4800_evaluation_kit/optiga-trust-m/externals/mbedtls/library\sha256.c ****         ctx->state[6] = 0x1F83D9AB;
 2153              	 .loc 1 124 0
 2154 002c 2149     	 ldr r1,.L120+4
 125:D:/School/diseratie/SEMS/xmc4800_evaluation_kit/optiga-trust-m/externals/mbedtls/library\sha256.c ****         ctx->state[7] = 0x5BE0CD19;
 2155              	 .loc 1 125 0
 2156 002e 224A     	 ldr r2,.L120+8
 126:D:/School/diseratie/SEMS/xmc4800_evaluation_kit/optiga-trust-m/externals/mbedtls/library\sha256.c ****     }
 2157              	 .loc 1 126 0
 2158 0030 224B     	 ldr r3,.L120+12
 2159              	.L118:
 131:D:/School/diseratie/SEMS/xmc4800_evaluation_kit/optiga-trust-m/externals/mbedtls/library\sha256.c ****         ctx->state[1] = 0x367CD507;
 2160              	 .loc 1 131 0
 2161 0032 CDF80C90 	 str r9,[sp,#12]
 132:D:/School/diseratie/SEMS/xmc4800_evaluation_kit/optiga-trust-m/externals/mbedtls/library\sha256.c ****         ctx->state[2] = 0x3070DD17;
 2162              	 .loc 1 132 0
 2163 0036 CDF81080 	 str r8,[sp,#16]
 133:D:/School/diseratie/SEMS/xmc4800_evaluation_kit/optiga-trust-m/externals/mbedtls/library\sha256.c ****         ctx->state[3] = 0xF70E5939;
 2164              	 .loc 1 133 0
 2165 003a CDF814C0 	 str ip,[sp,#20]
 134:D:/School/diseratie/SEMS/xmc4800_evaluation_kit/optiga-trust-m/externals/mbedtls/library\sha256.c ****         ctx->state[4] = 0xFFC00B31;
 2166              	 .loc 1 134 0
 2167 003e CDF818E0 	 str lr,[sp,#24]
 135:D:/School/diseratie/SEMS/xmc4800_evaluation_kit/optiga-trust-m/externals/mbedtls/library\sha256.c ****         ctx->state[5] = 0x68581511;
 2168              	 .loc 1 135 0
 2169 0042 0790     	 str r0,[sp,#28]
 136:D:/School/diseratie/SEMS/xmc4800_evaluation_kit/optiga-trust-m/externals/mbedtls/library\sha256.c ****         ctx->state[6] = 0x64F98FA7;
 2170              	 .loc 1 136 0
 2171 0044 0891     	 str r1,[sp,#32]
 137:D:/School/diseratie/SEMS/xmc4800_evaluation_kit/optiga-trust-m/externals/mbedtls/library\sha256.c ****         ctx->state[7] = 0xBEFA4FA4;
 2172              	 .loc 1 137 0
 2173 0046 0992     	 str r2,[sp,#36]
 138:D:/School/diseratie/SEMS/xmc4800_evaluation_kit/optiga-trust-m/externals/mbedtls/library\sha256.c ****     }
 2174              	 .loc 1 138 0
 2175 0048 0A93     	 str r3,[sp,#40]
 141:D:/School/diseratie/SEMS/xmc4800_evaluation_kit/optiga-trust-m/externals/mbedtls/library\sha256.c **** 
 2176              	 .loc 1 141 0
 2177 004a 1B96     	 str r6,[sp,#108]
 2178              	.LVL184:
 2179              	.LBE75:
 2180              	.LBE74:
 2181              	.LBB77:
 2182              	.LBB78:
 284:D:/School/diseratie/SEMS/xmc4800_evaluation_kit/optiga-trust-m/externals/mbedtls/library\sha256.c ****         return( 0 );
 2183              	 .loc 1 284 0
 2184 004c CCB9     	 cbnz r4,.L119
 2185              	.LVL185:
 2186              	.L107:
 2187              	.LBE78:
 2188              	.LBE77:
 416:D:/School/diseratie/SEMS/xmc4800_evaluation_kit/optiga-trust-m/externals/mbedtls/library\sha256.c ****     int ret;
 417:D:/School/diseratie/SEMS/xmc4800_evaluation_kit/optiga-trust-m/externals/mbedtls/library\sha256.c ****     mbedtls_sha256_context ctx;
 418:D:/School/diseratie/SEMS/xmc4800_evaluation_kit/optiga-trust-m/externals/mbedtls/library\sha256.c **** 
 419:D:/School/diseratie/SEMS/xmc4800_evaluation_kit/optiga-trust-m/externals/mbedtls/library\sha256.c ****     SHA256_VALIDATE_RET( is224 == 0 || is224 == 1 );
 420:D:/School/diseratie/SEMS/xmc4800_evaluation_kit/optiga-trust-m/externals/mbedtls/library\sha256.c ****     SHA256_VALIDATE_RET( ilen == 0 || input != NULL );
 421:D:/School/diseratie/SEMS/xmc4800_evaluation_kit/optiga-trust-m/externals/mbedtls/library\sha256.c ****     SHA256_VALIDATE_RET( (unsigned char *)output != NULL );
 422:D:/School/diseratie/SEMS/xmc4800_evaluation_kit/optiga-trust-m/externals/mbedtls/library\sha256.c **** 
 423:D:/School/diseratie/SEMS/xmc4800_evaluation_kit/optiga-trust-m/externals/mbedtls/library\sha256.c ****     mbedtls_sha256_init( &ctx );
 424:D:/School/diseratie/SEMS/xmc4800_evaluation_kit/optiga-trust-m/externals/mbedtls/library\sha256.c **** 
 425:D:/School/diseratie/SEMS/xmc4800_evaluation_kit/optiga-trust-m/externals/mbedtls/library\sha256.c ****     if( ( ret = mbedtls_sha256_starts_ret( &ctx, is224 ) ) != 0 )
 426:D:/School/diseratie/SEMS/xmc4800_evaluation_kit/optiga-trust-m/externals/mbedtls/library\sha256.c ****         goto exit;
 427:D:/School/diseratie/SEMS/xmc4800_evaluation_kit/optiga-trust-m/externals/mbedtls/library\sha256.c **** 
 428:D:/School/diseratie/SEMS/xmc4800_evaluation_kit/optiga-trust-m/externals/mbedtls/library\sha256.c ****     if( ( ret = mbedtls_sha256_update_ret( &ctx, input, ilen ) ) != 0 )
 429:D:/School/diseratie/SEMS/xmc4800_evaluation_kit/optiga-trust-m/externals/mbedtls/library\sha256.c ****         goto exit;
 430:D:/School/diseratie/SEMS/xmc4800_evaluation_kit/optiga-trust-m/externals/mbedtls/library\sha256.c **** 
 431:D:/School/diseratie/SEMS/xmc4800_evaluation_kit/optiga-trust-m/externals/mbedtls/library\sha256.c ****     if( ( ret = mbedtls_sha256_finish_ret( &ctx, output ) ) != 0 )
 2189              	 .loc 1 431 0
 2190 004e 3946     	 mov r1,r7
 2191 0050 01A8     	 add r0,sp,#4
 2192              	.LVL186:
 2193 0052 FFF7FEFF 	 bl mbedtls_sha256_finish_ret
 2194              	.LVL187:
 2195 0056 0646     	 mov r6,r0
 2196              	.LVL188:
 2197              	.L105:
 2198              	.LBB82:
 2199              	.LBB83:
  93:D:/School/diseratie/SEMS/xmc4800_evaluation_kit/optiga-trust-m/externals/mbedtls/library\sha256.c **** }
 2200              	 .loc 1 93 0
 2201 0058 01A8     	 add r0,sp,#4
 2202              	.LVL189:
 2203 005a 6C21     	 movs r1,#108
 2204 005c FFF7FEFF 	 bl mbedtls_platform_zeroize
 2205              	.LVL190:
 2206              	.LBE83:
 2207              	.LBE82:
 432:D:/School/diseratie/SEMS/xmc4800_evaluation_kit/optiga-trust-m/externals/mbedtls/library\sha256.c ****         goto exit;
 433:D:/School/diseratie/SEMS/xmc4800_evaluation_kit/optiga-trust-m/externals/mbedtls/library\sha256.c **** 
 434:D:/School/diseratie/SEMS/xmc4800_evaluation_kit/optiga-trust-m/externals/mbedtls/library\sha256.c **** exit:
 435:D:/School/diseratie/SEMS/xmc4800_evaluation_kit/optiga-trust-m/externals/mbedtls/library\sha256.c ****     mbedtls_sha256_free( &ctx );
 436:D:/School/diseratie/SEMS/xmc4800_evaluation_kit/optiga-trust-m/externals/mbedtls/library\sha256.c **** 
 437:D:/School/diseratie/SEMS/xmc4800_evaluation_kit/optiga-trust-m/externals/mbedtls/library\sha256.c ****     return( ret );
 438:D:/School/diseratie/SEMS/xmc4800_evaluation_kit/optiga-trust-m/externals/mbedtls/library\sha256.c **** }
 2208              	 .loc 1 438 0
 2209 0060 3046     	 mov r0,r6
 2210 0062 1DB0     	 add sp,sp,#116
 2211              	.LCFI14:
 2212              	 .cfi_remember_state
 2213              	 .cfi_def_cfa_offset 28
 2214              	 
 2215 0064 BDE8F083 	 pop {r4,r5,r6,r7,r8,r9,pc}
 2216              	.LVL191:
 2217              	.L101:
 2218              	.LCFI15:
 2219              	 .cfi_restore_state
 2220              	.LBB84:
 2221              	.LBB76:
 131:D:/School/diseratie/SEMS/xmc4800_evaluation_kit/optiga-trust-m/externals/mbedtls/library\sha256.c ****         ctx->state[1] = 0x367CD507;
 2222              	 .loc 1 131 0
 2223 0068 DFF87490 	 ldr r9,.L120+48
 132:D:/School/diseratie/SEMS/xmc4800_evaluation_kit/optiga-trust-m/externals/mbedtls/library\sha256.c ****         ctx->state[2] = 0x3070DD17;
 2224              	 .loc 1 132 0
 2225 006c DFF87480 	 ldr r8,.L120+52
 133:D:/School/diseratie/SEMS/xmc4800_evaluation_kit/optiga-trust-m/externals/mbedtls/library\sha256.c ****         ctx->state[3] = 0xF70E5939;
 2226              	 .loc 1 133 0
 2227 0070 DFF874C0 	 ldr ip,.L120+56
 134:D:/School/diseratie/SEMS/xmc4800_evaluation_kit/optiga-trust-m/externals/mbedtls/library\sha256.c ****         ctx->state[4] = 0xFFC00B31;
 2228              	 .loc 1 134 0
 2229 0074 DFF874E0 	 ldr lr,.L120+60
 135:D:/School/diseratie/SEMS/xmc4800_evaluation_kit/optiga-trust-m/externals/mbedtls/library\sha256.c ****         ctx->state[5] = 0x68581511;
 2230              	 .loc 1 135 0
 2231 0078 1148     	 ldr r0,.L120+16
 136:D:/School/diseratie/SEMS/xmc4800_evaluation_kit/optiga-trust-m/externals/mbedtls/library\sha256.c ****         ctx->state[6] = 0x64F98FA7;
 2232              	 .loc 1 136 0
 2233 007a 1249     	 ldr r1,.L120+20
 137:D:/School/diseratie/SEMS/xmc4800_evaluation_kit/optiga-trust-m/externals/mbedtls/library\sha256.c ****         ctx->state[7] = 0xBEFA4FA4;
 2234              	 .loc 1 137 0
 2235 007c 124A     	 ldr r2,.L120+24
 138:D:/School/diseratie/SEMS/xmc4800_evaluation_kit/optiga-trust-m/externals/mbedtls/library\sha256.c ****     }
 2236              	 .loc 1 138 0
 2237 007e 134B     	 ldr r3,.L120+28
 2238 0080 D7E7     	 b .L118
 2239              	.LVL192:
 2240              	.L119:
 2241              	.LBE76:
 2242              	.LBE84:
 2243              	.LBB85:
 2244              	.LBB81:
 2245              	.LBB79:
 2246              	.LBB80:
 308:D:/School/diseratie/SEMS/xmc4800_evaluation_kit/optiga-trust-m/externals/mbedtls/library\sha256.c ****     {
 2247              	 .loc 1 308 0
 2248 0082 3F2C     	 cmp r4,#63
 290:D:/School/diseratie/SEMS/xmc4800_evaluation_kit/optiga-trust-m/externals/mbedtls/library\sha256.c ****     ctx->total[0] &= 0xFFFFFFFF;
 2249              	 .loc 1 290 0
 2250 0084 0194     	 str r4,[sp,#4]
 308:D:/School/diseratie/SEMS/xmc4800_evaluation_kit/optiga-trust-m/externals/mbedtls/library\sha256.c ****     {
 2251              	 .loc 1 308 0
 2252 0086 0CD9     	 bls .L104
 2253              	.LVL193:
 2254              	.L106:
 310:D:/School/diseratie/SEMS/xmc4800_evaluation_kit/optiga-trust-m/externals/mbedtls/library\sha256.c ****             return( ret );
 2255              	 .loc 1 310 0
 2256 0088 2946     	 mov r1,r5
 2257 008a 01A8     	 add r0,sp,#4
 2258              	.LVL194:
 2259 008c FFF7FEFF 	 bl mbedtls_internal_sha256_process
 2260              	.LVL195:
 314:D:/School/diseratie/SEMS/xmc4800_evaluation_kit/optiga-trust-m/externals/mbedtls/library\sha256.c ****     }
 2261              	 .loc 1 314 0
 2262 0090 403C     	 subs r4,r4,#64
 2263              	.LVL196:
 310:D:/School/diseratie/SEMS/xmc4800_evaluation_kit/optiga-trust-m/externals/mbedtls/library\sha256.c ****             return( ret );
 2264              	 .loc 1 310 0
 2265 0092 0646     	 mov r6,r0
 313:D:/School/diseratie/SEMS/xmc4800_evaluation_kit/optiga-trust-m/externals/mbedtls/library\sha256.c ****         ilen  -= 64;
 2266              	 .loc 1 313 0
 2267 0094 4035     	 adds r5,r5,#64
 2268              	.LVL197:
 310:D:/School/diseratie/SEMS/xmc4800_evaluation_kit/optiga-trust-m/externals/mbedtls/library\sha256.c ****             return( ret );
 2269              	 .loc 1 310 0
 2270 0096 0028     	 cmp r0,#0
 2271 0098 DED1     	 bne .L105
 308:D:/School/diseratie/SEMS/xmc4800_evaluation_kit/optiga-trust-m/externals/mbedtls/library\sha256.c ****     {
 2272              	 .loc 1 308 0
 2273 009a 3F2C     	 cmp r4,#63
 2274 009c F4D8     	 bhi .L106
 317:D:/School/diseratie/SEMS/xmc4800_evaluation_kit/optiga-trust-m/externals/mbedtls/library\sha256.c ****         memcpy( (void *) (ctx->buffer + left), input, ilen );
 2275              	 .loc 1 317 0
 2276 009e 002C     	 cmp r4,#0
 2277 00a0 D5D0     	 beq .L107
 2278              	.LVL198:
 2279              	.L104:
 318:D:/School/diseratie/SEMS/xmc4800_evaluation_kit/optiga-trust-m/externals/mbedtls/library\sha256.c **** 
 2280              	 .loc 1 318 0
 2281 00a2 2946     	 mov r1,r5
 2282 00a4 2246     	 mov r2,r4
 2283 00a6 0BA8     	 add r0,sp,#44
 2284 00a8 FFF7FEFF 	 bl memcpy
 2285              	.LVL199:
 2286 00ac CFE7     	 b .L107
 2287              	.L121:
 2288 00ae 00BF     	 .align 2
 2289              	.L120:
 2290 00b0 7F520E51 	 .word 1359893119
 2291 00b4 8C68059B 	 .word -1694144372
 2292 00b8 ABD9831F 	 .word 528734635
 2293 00bc 19CDE05B 	 .word 1541459225
 2294 00c0 310BC0FF 	 .word -4191439
 2295 00c4 11155868 	 .word 1750603025
 2296 00c8 A78FF964 	 .word 1694076839
 2297 00cc A44FFABE 	 .word -1090891868
 2298 00d0 67E6096A 	 .word 1779033703
 2299 00d4 85AE67BB 	 .word -1150833019
 2300 00d8 72F36E3C 	 .word 1013904242
 2301 00dc 3AF54FA5 	 .word -1521486534
 2302 00e0 D89E05C1 	 .word -1056596264
 2303 00e4 07D57C36 	 .word 914150663
 2304 00e8 17DD7030 	 .word 812702999
 2305 00ec 39590EF7 	 .word -150054599
 2306              	.LBE80:
 2307              	.LBE79:
 2308              	.LBE81:
 2309              	.LBE85:
 2310              	 .cfi_endproc
 2311              	.LFE11:
 2313              	 .section .text.mbedtls_sha256,"ax",%progbits
 2314              	 .align 2
 2315              	 .global mbedtls_sha256
 2316              	 .thumb
 2317              	 .thumb_func
 2319              	mbedtls_sha256:
 2320              	.LFB12:
 439:D:/School/diseratie/SEMS/xmc4800_evaluation_kit/optiga-trust-m/externals/mbedtls/library\sha256.c **** 
 440:D:/School/diseratie/SEMS/xmc4800_evaluation_kit/optiga-trust-m/externals/mbedtls/library\sha256.c **** #if !defined(MBEDTLS_DEPRECATED_REMOVED)
 441:D:/School/diseratie/SEMS/xmc4800_evaluation_kit/optiga-trust-m/externals/mbedtls/library\sha256.c **** void mbedtls_sha256( const unsigned char *input,
 442:D:/School/diseratie/SEMS/xmc4800_evaluation_kit/optiga-trust-m/externals/mbedtls/library\sha256.c ****                      size_t ilen,
 443:D:/School/diseratie/SEMS/xmc4800_evaluation_kit/optiga-trust-m/externals/mbedtls/library\sha256.c ****                      unsigned char output[32],
 444:D:/School/diseratie/SEMS/xmc4800_evaluation_kit/optiga-trust-m/externals/mbedtls/library\sha256.c ****                      int is224 )
 445:D:/School/diseratie/SEMS/xmc4800_evaluation_kit/optiga-trust-m/externals/mbedtls/library\sha256.c **** {
 2321              	 .loc 1 445 0
 2322              	 .cfi_startproc
 2323              	 
 2324              	 
 2325              	.LVL200:
 2326 0000 2DE9F043 	 push {r4,r5,r6,r7,r8,r9,lr}
 2327              	.LCFI16:
 2328              	 .cfi_def_cfa_offset 28
 2329              	 .cfi_offset 4,-28
 2330              	 .cfi_offset 5,-24
 2331              	 .cfi_offset 6,-20
 2332              	 .cfi_offset 7,-16
 2333              	 .cfi_offset 8,-12
 2334              	 .cfi_offset 9,-8
 2335              	 .cfi_offset 14,-4
 2336 0004 9DB0     	 sub sp,sp,#116
 2337              	.LCFI17:
 2338              	 .cfi_def_cfa_offset 144
 2339              	 .loc 1 445 0
 2340 0006 0546     	 mov r5,r0
 2341              	.LVL201:
 2342 0008 0C46     	 mov r4,r1
 2343              	.LVL202:
 2344 000a 1746     	 mov r7,r2
 2345              	.LVL203:
 2346 000c 1E46     	 mov r6,r3
 2347              	.LVL204:
 2348              	.LBB98:
 2349              	.LBB99:
 2350              	.LBB100:
 2351              	.LBB101:
  85:D:/School/diseratie/SEMS/xmc4800_evaluation_kit/optiga-trust-m/externals/mbedtls/library\sha256.c **** }
 2352              	 .loc 1 85 0
 2353 000e 01A8     	 add r0,sp,#4
 2354              	.LVL205:
 2355 0010 0021     	 movs r1,#0
 2356              	.LVL206:
 2357 0012 6C22     	 movs r2,#108
 2358              	.LVL207:
 2359 0014 FFF7FEFF 	 bl memset
 2360              	.LVL208:
 2361              	.LBE101:
 2362              	.LBE100:
 2363              	.LBB102:
 2364              	.LBB103:
 116:D:/School/diseratie/SEMS/xmc4800_evaluation_kit/optiga-trust-m/externals/mbedtls/library\sha256.c ****     {
 2365              	 .loc 1 116 0
 2366 0018 26BB     	 cbnz r6,.L123
 119:D:/School/diseratie/SEMS/xmc4800_evaluation_kit/optiga-trust-m/externals/mbedtls/library\sha256.c ****         ctx->state[1] = 0xBB67AE85;
 2367              	 .loc 1 119 0
 2368 001a DFF8AC90 	 ldr r9,.L142+32
 120:D:/School/diseratie/SEMS/xmc4800_evaluation_kit/optiga-trust-m/externals/mbedtls/library\sha256.c ****         ctx->state[2] = 0x3C6EF372;
 2369              	 .loc 1 120 0
 2370 001e DFF8AC80 	 ldr r8,.L142+36
 121:D:/School/diseratie/SEMS/xmc4800_evaluation_kit/optiga-trust-m/externals/mbedtls/library\sha256.c ****         ctx->state[3] = 0xA54FF53A;
 2371              	 .loc 1 121 0
 2372 0022 DFF8ACC0 	 ldr ip,.L142+40
 122:D:/School/diseratie/SEMS/xmc4800_evaluation_kit/optiga-trust-m/externals/mbedtls/library\sha256.c ****         ctx->state[4] = 0x510E527F;
 2373              	 .loc 1 122 0
 2374 0026 DFF8ACE0 	 ldr lr,.L142+44
 123:D:/School/diseratie/SEMS/xmc4800_evaluation_kit/optiga-trust-m/externals/mbedtls/library\sha256.c ****         ctx->state[5] = 0x9B05688C;
 2375              	 .loc 1 123 0
 2376 002a 1F48     	 ldr r0,.L142
 124:D:/School/diseratie/SEMS/xmc4800_evaluation_kit/optiga-trust-m/externals/mbedtls/library\sha256.c ****         ctx->state[6] = 0x1F83D9AB;
 2377              	 .loc 1 124 0
 2378 002c 1F49     	 ldr r1,.L142+4
 125:D:/School/diseratie/SEMS/xmc4800_evaluation_kit/optiga-trust-m/externals/mbedtls/library\sha256.c ****         ctx->state[7] = 0x5BE0CD19;
 2379              	 .loc 1 125 0
 2380 002e 204A     	 ldr r2,.L142+8
 126:D:/School/diseratie/SEMS/xmc4800_evaluation_kit/optiga-trust-m/externals/mbedtls/library\sha256.c ****     }
 2381              	 .loc 1 126 0
 2382 0030 204B     	 ldr r3,.L142+12
 2383              	.L140:
 131:D:/School/diseratie/SEMS/xmc4800_evaluation_kit/optiga-trust-m/externals/mbedtls/library\sha256.c ****         ctx->state[1] = 0x367CD507;
 2384              	 .loc 1 131 0
 2385 0032 CDF80C90 	 str r9,[sp,#12]
 132:D:/School/diseratie/SEMS/xmc4800_evaluation_kit/optiga-trust-m/externals/mbedtls/library\sha256.c ****         ctx->state[2] = 0x3070DD17;
 2386              	 .loc 1 132 0
 2387 0036 CDF81080 	 str r8,[sp,#16]
 133:D:/School/diseratie/SEMS/xmc4800_evaluation_kit/optiga-trust-m/externals/mbedtls/library\sha256.c ****         ctx->state[3] = 0xF70E5939;
 2388              	 .loc 1 133 0
 2389 003a CDF814C0 	 str ip,[sp,#20]
 134:D:/School/diseratie/SEMS/xmc4800_evaluation_kit/optiga-trust-m/externals/mbedtls/library\sha256.c ****         ctx->state[4] = 0xFFC00B31;
 2390              	 .loc 1 134 0
 2391 003e CDF818E0 	 str lr,[sp,#24]
 135:D:/School/diseratie/SEMS/xmc4800_evaluation_kit/optiga-trust-m/externals/mbedtls/library\sha256.c ****         ctx->state[5] = 0x68581511;
 2392              	 .loc 1 135 0
 2393 0042 0790     	 str r0,[sp,#28]
 136:D:/School/diseratie/SEMS/xmc4800_evaluation_kit/optiga-trust-m/externals/mbedtls/library\sha256.c ****         ctx->state[6] = 0x64F98FA7;
 2394              	 .loc 1 136 0
 2395 0044 0891     	 str r1,[sp,#32]
 137:D:/School/diseratie/SEMS/xmc4800_evaluation_kit/optiga-trust-m/externals/mbedtls/library\sha256.c ****         ctx->state[7] = 0xBEFA4FA4;
 2396              	 .loc 1 137 0
 2397 0046 0992     	 str r2,[sp,#36]
 138:D:/School/diseratie/SEMS/xmc4800_evaluation_kit/optiga-trust-m/externals/mbedtls/library\sha256.c ****     }
 2398              	 .loc 1 138 0
 2399 0048 0A93     	 str r3,[sp,#40]
 141:D:/School/diseratie/SEMS/xmc4800_evaluation_kit/optiga-trust-m/externals/mbedtls/library\sha256.c **** 
 2400              	 .loc 1 141 0
 2401 004a 1B96     	 str r6,[sp,#108]
 2402              	.LVL209:
 2403              	.LBE103:
 2404              	.LBE102:
 2405              	.LBB105:
 2406              	.LBB106:
 284:D:/School/diseratie/SEMS/xmc4800_evaluation_kit/optiga-trust-m/externals/mbedtls/library\sha256.c ****         return( 0 );
 2407              	 .loc 1 284 0
 2408 004c BCB9     	 cbnz r4,.L141
 2409              	.LVL210:
 2410              	.L129:
 2411              	.LBE106:
 2412              	.LBE105:
 431:D:/School/diseratie/SEMS/xmc4800_evaluation_kit/optiga-trust-m/externals/mbedtls/library\sha256.c ****         goto exit;
 2413              	 .loc 1 431 0
 2414 004e 3946     	 mov r1,r7
 2415 0050 01A8     	 add r0,sp,#4
 2416              	.LVL211:
 2417 0052 FFF7FEFF 	 bl mbedtls_sha256_finish_ret
 2418              	.LVL212:
 2419              	.L127:
 2420              	.LBB110:
 2421              	.LBB111:
  93:D:/School/diseratie/SEMS/xmc4800_evaluation_kit/optiga-trust-m/externals/mbedtls/library\sha256.c **** }
 2422              	 .loc 1 93 0
 2423 0056 01A8     	 add r0,sp,#4
 2424              	.LVL213:
 2425 0058 6C21     	 movs r1,#108
 2426 005a FFF7FEFF 	 bl mbedtls_platform_zeroize
 2427              	.LVL214:
 2428              	.LBE111:
 2429              	.LBE110:
 2430              	.LBE99:
 2431              	.LBE98:
 446:D:/School/diseratie/SEMS/xmc4800_evaluation_kit/optiga-trust-m/externals/mbedtls/library\sha256.c ****     mbedtls_sha256_ret( input, ilen, output, is224 );
 447:D:/School/diseratie/SEMS/xmc4800_evaluation_kit/optiga-trust-m/externals/mbedtls/library\sha256.c **** }
 2432              	 .loc 1 447 0
 2433 005e 1DB0     	 add sp,sp,#116
 2434              	.LCFI18:
 2435              	 .cfi_remember_state
 2436              	 .cfi_def_cfa_offset 28
 2437              	 
 2438 0060 BDE8F083 	 pop {r4,r5,r6,r7,r8,r9,pc}
 2439              	.LVL215:
 2440              	.L123:
 2441              	.LCFI19:
 2442              	 .cfi_restore_state
 2443              	.LBB115:
 2444              	.LBB114:
 2445              	.LBB112:
 2446              	.LBB104:
 131:D:/School/diseratie/SEMS/xmc4800_evaluation_kit/optiga-trust-m/externals/mbedtls/library\sha256.c ****         ctx->state[1] = 0x367CD507;
 2447              	 .loc 1 131 0
 2448 0064 DFF87090 	 ldr r9,.L142+48
 132:D:/School/diseratie/SEMS/xmc4800_evaluation_kit/optiga-trust-m/externals/mbedtls/library\sha256.c ****         ctx->state[2] = 0x3070DD17;
 2449              	 .loc 1 132 0
 2450 0068 DFF87080 	 ldr r8,.L142+52
 133:D:/School/diseratie/SEMS/xmc4800_evaluation_kit/optiga-trust-m/externals/mbedtls/library\sha256.c ****         ctx->state[3] = 0xF70E5939;
 2451              	 .loc 1 133 0
 2452 006c DFF870C0 	 ldr ip,.L142+56
 134:D:/School/diseratie/SEMS/xmc4800_evaluation_kit/optiga-trust-m/externals/mbedtls/library\sha256.c ****         ctx->state[4] = 0xFFC00B31;
 2453              	 .loc 1 134 0
 2454 0070 DFF870E0 	 ldr lr,.L142+60
 135:D:/School/diseratie/SEMS/xmc4800_evaluation_kit/optiga-trust-m/externals/mbedtls/library\sha256.c ****         ctx->state[5] = 0x68581511;
 2455              	 .loc 1 135 0
 2456 0074 1048     	 ldr r0,.L142+16
 136:D:/School/diseratie/SEMS/xmc4800_evaluation_kit/optiga-trust-m/externals/mbedtls/library\sha256.c ****         ctx->state[6] = 0x64F98FA7;
 2457              	 .loc 1 136 0
 2458 0076 1149     	 ldr r1,.L142+20
 137:D:/School/diseratie/SEMS/xmc4800_evaluation_kit/optiga-trust-m/externals/mbedtls/library\sha256.c ****         ctx->state[7] = 0xBEFA4FA4;
 2459              	 .loc 1 137 0
 2460 0078 114A     	 ldr r2,.L142+24
 138:D:/School/diseratie/SEMS/xmc4800_evaluation_kit/optiga-trust-m/externals/mbedtls/library\sha256.c ****     }
 2461              	 .loc 1 138 0
 2462 007a 124B     	 ldr r3,.L142+28
 2463 007c D9E7     	 b .L140
 2464              	.LVL216:
 2465              	.L141:
 2466              	.LBE104:
 2467              	.LBE112:
 2468              	.LBB113:
 2469              	.LBB109:
 2470              	.LBB107:
 2471              	.LBB108:
 308:D:/School/diseratie/SEMS/xmc4800_evaluation_kit/optiga-trust-m/externals/mbedtls/library\sha256.c ****     {
 2472              	 .loc 1 308 0
 2473 007e 3F2C     	 cmp r4,#63
 290:D:/School/diseratie/SEMS/xmc4800_evaluation_kit/optiga-trust-m/externals/mbedtls/library\sha256.c ****     ctx->total[0] &= 0xFFFFFFFF;
 2474              	 .loc 1 290 0
 2475 0080 0194     	 str r4,[sp,#4]
 308:D:/School/diseratie/SEMS/xmc4800_evaluation_kit/optiga-trust-m/externals/mbedtls/library\sha256.c ****     {
 2476              	 .loc 1 308 0
 2477 0082 0BD9     	 bls .L126
 2478              	.LVL217:
 2479              	.L128:
 310:D:/School/diseratie/SEMS/xmc4800_evaluation_kit/optiga-trust-m/externals/mbedtls/library\sha256.c ****             return( ret );
 2480              	 .loc 1 310 0
 2481 0084 2946     	 mov r1,r5
 2482 0086 01A8     	 add r0,sp,#4
 2483              	.LVL218:
 2484 0088 FFF7FEFF 	 bl mbedtls_internal_sha256_process
 2485              	.LVL219:
 314:D:/School/diseratie/SEMS/xmc4800_evaluation_kit/optiga-trust-m/externals/mbedtls/library\sha256.c ****     }
 2486              	 .loc 1 314 0
 2487 008c 403C     	 subs r4,r4,#64
 2488              	.LVL220:
 313:D:/School/diseratie/SEMS/xmc4800_evaluation_kit/optiga-trust-m/externals/mbedtls/library\sha256.c ****         ilen  -= 64;
 2489              	 .loc 1 313 0
 2490 008e 4035     	 adds r5,r5,#64
 2491              	.LVL221:
 310:D:/School/diseratie/SEMS/xmc4800_evaluation_kit/optiga-trust-m/externals/mbedtls/library\sha256.c ****             return( ret );
 2492              	 .loc 1 310 0
 2493 0090 0028     	 cmp r0,#0
 2494 0092 E0D1     	 bne .L127
 308:D:/School/diseratie/SEMS/xmc4800_evaluation_kit/optiga-trust-m/externals/mbedtls/library\sha256.c ****     {
 2495              	 .loc 1 308 0
 2496 0094 3F2C     	 cmp r4,#63
 2497 0096 F5D8     	 bhi .L128
 317:D:/School/diseratie/SEMS/xmc4800_evaluation_kit/optiga-trust-m/externals/mbedtls/library\sha256.c ****         memcpy( (void *) (ctx->buffer + left), input, ilen );
 2498              	 .loc 1 317 0
 2499 0098 002C     	 cmp r4,#0
 2500 009a D8D0     	 beq .L129
 2501              	.LVL222:
 2502              	.L126:
 318:D:/School/diseratie/SEMS/xmc4800_evaluation_kit/optiga-trust-m/externals/mbedtls/library\sha256.c **** 
 2503              	 .loc 1 318 0
 2504 009c 2946     	 mov r1,r5
 2505 009e 2246     	 mov r2,r4
 2506 00a0 0BA8     	 add r0,sp,#44
 2507 00a2 FFF7FEFF 	 bl memcpy
 2508              	.LVL223:
 2509 00a6 D2E7     	 b .L129
 2510              	.L143:
 2511              	 .align 2
 2512              	.L142:
 2513 00a8 7F520E51 	 .word 1359893119
 2514 00ac 8C68059B 	 .word -1694144372
 2515 00b0 ABD9831F 	 .word 528734635
 2516 00b4 19CDE05B 	 .word 1541459225
 2517 00b8 310BC0FF 	 .word -4191439
 2518 00bc 11155868 	 .word 1750603025
 2519 00c0 A78FF964 	 .word 1694076839
 2520 00c4 A44FFABE 	 .word -1090891868
 2521 00c8 67E6096A 	 .word 1779033703
 2522 00cc 85AE67BB 	 .word -1150833019
 2523 00d0 72F36E3C 	 .word 1013904242
 2524 00d4 3AF54FA5 	 .word -1521486534
 2525 00d8 D89E05C1 	 .word -1056596264
 2526 00dc 07D57C36 	 .word 914150663
 2527 00e0 17DD7030 	 .word 812702999
 2528 00e4 39590EF7 	 .word -150054599
 2529              	.LBE108:
 2530              	.LBE107:
 2531              	.LBE109:
 2532              	.LBE113:
 2533              	.LBE114:
 2534              	.LBE115:
 2535              	 .cfi_endproc
 2536              	.LFE12:
 2538              	 .section .rodata.K,"a",%progbits
 2539              	 .align 2
 2540              	 .set .LANCHOR0,.+0
 2543              	K:
 2544 0000 982F8A42 	 .word 1116352408
 2545 0004 91443771 	 .word 1899447441
 2546 0008 CFFBC0B5 	 .word -1245643825
 2547 000c A5DBB5E9 	 .word -373957723
 2548 0010 5BC25639 	 .word 961987163
 2549 0014 F111F159 	 .word 1508970993
 2550 0018 A4823F92 	 .word -1841331548
 2551 001c D55E1CAB 	 .word -1424204075
 2552 0020 98AA07D8 	 .word -670586216
 2553 0024 015B8312 	 .word 310598401
 2554 0028 BE853124 	 .word 607225278
 2555 002c C37D0C55 	 .word 1426881987
 2556 0030 745DBE72 	 .word 1925078388
 2557 0034 FEB1DE80 	 .word -2132889090
 2558 0038 A706DC9B 	 .word -1680079193
 2559 003c 74F19BC1 	 .word -1046744716
 2560 0040 C1699BE4 	 .word -459576895
 2561 0044 8647BEEF 	 .word -272742522
 2562 0048 C69DC10F 	 .word 264347078
 2563 004c CCA10C24 	 .word 604807628
 2564 0050 6F2CE92D 	 .word 770255983
 2565 0054 AA84744A 	 .word 1249150122
 2566 0058 DCA9B05C 	 .word 1555081692
 2567 005c DA88F976 	 .word 1996064986
 2568 0060 52513E98 	 .word -1740746414
 2569 0064 6DC631A8 	 .word -1473132947
 2570 0068 C82703B0 	 .word -1341970488
 2571 006c C77F59BF 	 .word -1084653625
 2572 0070 F30BE0C6 	 .word -958395405
 2573 0074 4791A7D5 	 .word -710438585
 2574 0078 5163CA06 	 .word 113926993
 2575 007c 67292914 	 .word 338241895
 2576 0080 850AB727 	 .word 666307205
 2577 0084 38211B2E 	 .word 773529912
 2578 0088 FC6D2C4D 	 .word 1294757372
 2579 008c 130D3853 	 .word 1396182291
 2580 0090 54730A65 	 .word 1695183700
 2581 0094 BB0A6A76 	 .word 1986661051
 2582 0098 2EC9C281 	 .word -2117940946
 2583 009c 852C7292 	 .word -1838011259
 2584 00a0 A1E8BFA2 	 .word -1564481375
 2585 00a4 4B661AA8 	 .word -1474664885
 2586 00a8 708B4BC2 	 .word -1035236496
 2587 00ac A3516CC7 	 .word -949202525
 2588 00b0 19E892D1 	 .word -778901479
 2589 00b4 240699D6 	 .word -694614492
 2590 00b8 85350EF4 	 .word -200395387
 2591 00bc 70A06A10 	 .word 275423344
 2592 00c0 16C1A419 	 .word 430227734
 2593 00c4 086C371E 	 .word 506948616
 2594 00c8 4C774827 	 .word 659060556
 2595 00cc B5BCB034 	 .word 883997877
 2596 00d0 B30C1C39 	 .word 958139571
 2597 00d4 4AAAD84E 	 .word 1322822218
 2598 00d8 4FCA9C5B 	 .word 1537002063
 2599 00dc F36F2E68 	 .word 1747873779
 2600 00e0 EE828F74 	 .word 1955562222
 2601 00e4 6F63A578 	 .word 2024104815
 2602 00e8 1478C884 	 .word -2067236844
 2603 00ec 0802C78C 	 .word -1933114872
 2604 00f0 FAFFBE90 	 .word -1866530822
 2605 00f4 EB6C50A4 	 .word -1538233109
 2606 00f8 F7A3F9BE 	 .word -1090935817
 2607 00fc F27871C6 	 .word -965641998
 2608              	 .text
 2609              	.Letext0:
 2610              	 .file 2 "c:\\infineon\\tools\\dave ide\\4.5.0.202105191637\\eclipse\\arm-gcc-49\\lib\\gcc\\arm-none-eabi\\4.9.3\\include\\stddef.h"
 2611              	 .file 3 "c:\\infineon\\tools\\dave ide\\4.5.0.202105191637\\eclipse\\arm-gcc-49\\arm-none-eabi\\include\\machine\\_default_types.h"
 2612              	 .file 4 "c:\\infineon\\tools\\dave ide\\4.5.0.202105191637\\eclipse\\arm-gcc-49\\arm-none-eabi\\include\\stdint.h"
 2613              	 .file 5 "D:/School/diseratie/SEMS/xmc4800_evaluation_kit/optiga-trust-m/externals/mbedtls/include/mbedtls/sha256.h"
 2614              	 .file 6 "D:/School/diseratie/SEMS/xmc4800_evaluation_kit/optiga-trust-m/externals/mbedtls/include/mbedtls/platform_util.h"