   1              	 .syntax unified
   2              	 .cpu cortex-m4
   3              	 .eabi_attribute 27,3
   4              	 .fpu fpv4-sp-d16
   5              	 .eabi_attribute 20,1
   6              	 .eabi_attribute 21,1
   7              	 .eabi_attribute 23,3
   8              	 .eabi_attribute 24,1
   9              	 .eabi_attribute 25,1
  10              	 .eabi_attribute 26,1
  11              	 .eabi_attribute 30,2
  12              	 .eabi_attribute 34,1
  13              	 .eabi_attribute 18,4
  14              	 .thumb
  15              	 .file "xmc_ccu8.c"
  16              	 .text
  17              	.Ltext0:
  18              	 .cfi_sections .debug_frame
  19              	 .section .text.XMC_CCU8_EnableModule,"ax",%progbits
  20              	 .align 2
  21              	 .global XMC_CCU8_EnableModule
  22              	 .thumb
  23              	 .thumb_func
  25              	XMC_CCU8_EnableModule:
  26              	.LFB232:
  27              	 .file 1 "D:/School/diseratie/SEMS/xmc4800_evaluation_kit/xmc4800_iot_kit/common/Libraries/XMCLib/src/xmc_ccu8.c"
   1:D:/School/diseratie/SEMS/xmc4800_evaluation_kit/xmc4800_iot_kit/common/Libraries/XMCLib/src\xmc_ccu8.c **** /**
   2:D:/School/diseratie/SEMS/xmc4800_evaluation_kit/xmc4800_iot_kit/common/Libraries/XMCLib/src\xmc_ccu8.c ****  * @file xmc_ccu8.c
   3:D:/School/diseratie/SEMS/xmc4800_evaluation_kit/xmc4800_iot_kit/common/Libraries/XMCLib/src\xmc_ccu8.c ****  * @date 2017-04-27
   4:D:/School/diseratie/SEMS/xmc4800_evaluation_kit/xmc4800_iot_kit/common/Libraries/XMCLib/src\xmc_ccu8.c ****  *
   5:D:/School/diseratie/SEMS/xmc4800_evaluation_kit/xmc4800_iot_kit/common/Libraries/XMCLib/src\xmc_ccu8.c ****  * @cond
   6:D:/School/diseratie/SEMS/xmc4800_evaluation_kit/xmc4800_iot_kit/common/Libraries/XMCLib/src\xmc_ccu8.c ****  **************************************************************************************************
   7:D:/School/diseratie/SEMS/xmc4800_evaluation_kit/xmc4800_iot_kit/common/Libraries/XMCLib/src\xmc_ccu8.c ****  * XMClib v2.1.20 - XMC Peripheral Driver Library 
   8:D:/School/diseratie/SEMS/xmc4800_evaluation_kit/xmc4800_iot_kit/common/Libraries/XMCLib/src\xmc_ccu8.c ****  *
   9:D:/School/diseratie/SEMS/xmc4800_evaluation_kit/xmc4800_iot_kit/common/Libraries/XMCLib/src\xmc_ccu8.c ****  * Copyright (c) 2015-2018, Infineon Technologies AG
  10:D:/School/diseratie/SEMS/xmc4800_evaluation_kit/xmc4800_iot_kit/common/Libraries/XMCLib/src\xmc_ccu8.c ****  * All rights reserved.                        
  11:D:/School/diseratie/SEMS/xmc4800_evaluation_kit/xmc4800_iot_kit/common/Libraries/XMCLib/src\xmc_ccu8.c ****  *                                             
  12:D:/School/diseratie/SEMS/xmc4800_evaluation_kit/xmc4800_iot_kit/common/Libraries/XMCLib/src\xmc_ccu8.c ****  * Redistribution and use in source and binary forms, with or without modification,are permitted pr
  13:D:/School/diseratie/SEMS/xmc4800_evaluation_kit/xmc4800_iot_kit/common/Libraries/XMCLib/src\xmc_ccu8.c ****  * following conditions are met:   
  14:D:/School/diseratie/SEMS/xmc4800_evaluation_kit/xmc4800_iot_kit/common/Libraries/XMCLib/src\xmc_ccu8.c ****  *                                                                              
  15:D:/School/diseratie/SEMS/xmc4800_evaluation_kit/xmc4800_iot_kit/common/Libraries/XMCLib/src\xmc_ccu8.c ****  * Redistributions of source code must retain the above copyright notice, this list of conditions a
  16:D:/School/diseratie/SEMS/xmc4800_evaluation_kit/xmc4800_iot_kit/common/Libraries/XMCLib/src\xmc_ccu8.c ****  * disclaimer.                        
  17:D:/School/diseratie/SEMS/xmc4800_evaluation_kit/xmc4800_iot_kit/common/Libraries/XMCLib/src\xmc_ccu8.c ****  * 
  18:D:/School/diseratie/SEMS/xmc4800_evaluation_kit/xmc4800_iot_kit/common/Libraries/XMCLib/src\xmc_ccu8.c ****  * Redistributions in binary form must reproduce the above copyright notice, this list of condition
  19:D:/School/diseratie/SEMS/xmc4800_evaluation_kit/xmc4800_iot_kit/common/Libraries/XMCLib/src\xmc_ccu8.c ****  * disclaimer in the documentation and/or other materials provided with the distribution.          
  20:D:/School/diseratie/SEMS/xmc4800_evaluation_kit/xmc4800_iot_kit/common/Libraries/XMCLib/src\xmc_ccu8.c ****  * 
  21:D:/School/diseratie/SEMS/xmc4800_evaluation_kit/xmc4800_iot_kit/common/Libraries/XMCLib/src\xmc_ccu8.c ****  * Neither the name of the copyright holders nor the names of its contributors may be used to endor
  22:D:/School/diseratie/SEMS/xmc4800_evaluation_kit/xmc4800_iot_kit/common/Libraries/XMCLib/src\xmc_ccu8.c ****  * products derived from this software without specific prior written permission.                  
  23:D:/School/diseratie/SEMS/xmc4800_evaluation_kit/xmc4800_iot_kit/common/Libraries/XMCLib/src\xmc_ccu8.c ****  *                                                                              
  24:D:/School/diseratie/SEMS/xmc4800_evaluation_kit/xmc4800_iot_kit/common/Libraries/XMCLib/src\xmc_ccu8.c ****  * THIS SOFTWARE IS PROVIDED BY THE COPYRIGHT HOLDERS AND CONTRIBUTORS "AS IS" AND ANY EXPRESS OR I
  25:D:/School/diseratie/SEMS/xmc4800_evaluation_kit/xmc4800_iot_kit/common/Libraries/XMCLib/src\xmc_ccu8.c ****  * INCLUDING, BUT NOT LIMITED TO, THE IMPLIED WARRANTIES OF MERCHANTABILITY AND FITNESS FOR A PARTI
  26:D:/School/diseratie/SEMS/xmc4800_evaluation_kit/xmc4800_iot_kit/common/Libraries/XMCLib/src\xmc_ccu8.c ****  * DISCLAIMED. IN NO EVENT SHALL THE COPYRIGHT HOLDER OR CONTRIBUTORS BE LIABLE  FOR ANY DIRECT, IN
  27:D:/School/diseratie/SEMS/xmc4800_evaluation_kit/xmc4800_iot_kit/common/Libraries/XMCLib/src\xmc_ccu8.c ****  * SPECIAL, EXEMPLARY, OR CONSEQUENTIAL DAMAGES (INCLUDING, BUT NOT LIMITED TO, PROCUREMENT OF SUBS
  28:D:/School/diseratie/SEMS/xmc4800_evaluation_kit/xmc4800_iot_kit/common/Libraries/XMCLib/src\xmc_ccu8.c ****  * SERVICES; LOSS OF USE, DATA, OR PROFITS; OR BUSINESS INTERRUPTION) HOWEVER CAUSED AND ON ANY THE
  29:D:/School/diseratie/SEMS/xmc4800_evaluation_kit/xmc4800_iot_kit/common/Libraries/XMCLib/src\xmc_ccu8.c ****  * WHETHER IN CONTRACT, STRICT LIABILITY,OR TORT (INCLUDING NEGLIGENCE OR OTHERWISE) ARISING IN ANY
  30:D:/School/diseratie/SEMS/xmc4800_evaluation_kit/xmc4800_iot_kit/common/Libraries/XMCLib/src\xmc_ccu8.c ****  * OF THIS SOFTWARE, EVEN IF ADVISED OF THE POSSIBILITY OF SUCH DAMAGE.                            
  31:D:/School/diseratie/SEMS/xmc4800_evaluation_kit/xmc4800_iot_kit/common/Libraries/XMCLib/src\xmc_ccu8.c ****  *                                                                              
  32:D:/School/diseratie/SEMS/xmc4800_evaluation_kit/xmc4800_iot_kit/common/Libraries/XMCLib/src\xmc_ccu8.c ****  * To improve the quality of the software, users are encouraged to share modifications, enhancement
  33:D:/School/diseratie/SEMS/xmc4800_evaluation_kit/xmc4800_iot_kit/common/Libraries/XMCLib/src\xmc_ccu8.c ****  * Infineon Technologies AG dave@infineon.com).                                                    
  34:D:/School/diseratie/SEMS/xmc4800_evaluation_kit/xmc4800_iot_kit/common/Libraries/XMCLib/src\xmc_ccu8.c ****  **************************************************************************************************
  35:D:/School/diseratie/SEMS/xmc4800_evaluation_kit/xmc4800_iot_kit/common/Libraries/XMCLib/src\xmc_ccu8.c ****  *
  36:D:/School/diseratie/SEMS/xmc4800_evaluation_kit/xmc4800_iot_kit/common/Libraries/XMCLib/src\xmc_ccu8.c ****  * Change History
  37:D:/School/diseratie/SEMS/xmc4800_evaluation_kit/xmc4800_iot_kit/common/Libraries/XMCLib/src\xmc_ccu8.c ****  * --------------
  38:D:/School/diseratie/SEMS/xmc4800_evaluation_kit/xmc4800_iot_kit/common/Libraries/XMCLib/src\xmc_ccu8.c ****  *
  39:D:/School/diseratie/SEMS/xmc4800_evaluation_kit/xmc4800_iot_kit/common/Libraries/XMCLib/src\xmc_ccu8.c ****  * 2015-02-20:
  40:D:/School/diseratie/SEMS/xmc4800_evaluation_kit/xmc4800_iot_kit/common/Libraries/XMCLib/src\xmc_ccu8.c ****  *     - Initial <br>
  41:D:/School/diseratie/SEMS/xmc4800_evaluation_kit/xmc4800_iot_kit/common/Libraries/XMCLib/src\xmc_ccu8.c ****  *
  42:D:/School/diseratie/SEMS/xmc4800_evaluation_kit/xmc4800_iot_kit/common/Libraries/XMCLib/src\xmc_ccu8.c ****  * 2015-06-20:
  43:D:/School/diseratie/SEMS/xmc4800_evaluation_kit/xmc4800_iot_kit/common/Libraries/XMCLib/src\xmc_ccu8.c ****  *     - Removed definition of GetDriverVersion API <br>
  44:D:/School/diseratie/SEMS/xmc4800_evaluation_kit/xmc4800_iot_kit/common/Libraries/XMCLib/src\xmc_ccu8.c ****  *     - Added XMC_CCU8_SLICE_LoadSelector() API, to select which compare register value has to be 
  45:D:/School/diseratie/SEMS/xmc4800_evaluation_kit/xmc4800_iot_kit/common/Libraries/XMCLib/src\xmc_ccu8.c ****  *       during external load event. 
  46:D:/School/diseratie/SEMS/xmc4800_evaluation_kit/xmc4800_iot_kit/common/Libraries/XMCLib/src\xmc_ccu8.c ****  *
  47:D:/School/diseratie/SEMS/xmc4800_evaluation_kit/xmc4800_iot_kit/common/Libraries/XMCLib/src\xmc_ccu8.c ****  * 2015-07-24:
  48:D:/School/diseratie/SEMS/xmc4800_evaluation_kit/xmc4800_iot_kit/common/Libraries/XMCLib/src\xmc_ccu8.c ****  *     - XMC_CCU8_SLICE_ConfigureStatusBitOverrideEvent() is updated to support XMC14 device. <br>
  49:D:/School/diseratie/SEMS/xmc4800_evaluation_kit/xmc4800_iot_kit/common/Libraries/XMCLib/src\xmc_ccu8.c ****  *
  50:D:/School/diseratie/SEMS/xmc4800_evaluation_kit/xmc4800_iot_kit/common/Libraries/XMCLib/src\xmc_ccu8.c ****  * 2015-08-17:
  51:D:/School/diseratie/SEMS/xmc4800_evaluation_kit/xmc4800_iot_kit/common/Libraries/XMCLib/src\xmc_ccu8.c ****  *     - XMC_CCU8_SLICE_CHC_CONFIG_MASK is not applicable to XMC14 devices. <br>
  52:D:/School/diseratie/SEMS/xmc4800_evaluation_kit/xmc4800_iot_kit/common/Libraries/XMCLib/src\xmc_ccu8.c ****  *     - Start of prescaler XMC_CCU8_StartPrescaler() is invoked in XMC_CCU8_Init() API. <br>
  53:D:/School/diseratie/SEMS/xmc4800_evaluation_kit/xmc4800_iot_kit/common/Libraries/XMCLib/src\xmc_ccu8.c ****  *     - In XMC_CCU8_SLICE_CompareInit(), CHC register is updated according to the device. <br>
  54:D:/School/diseratie/SEMS/xmc4800_evaluation_kit/xmc4800_iot_kit/common/Libraries/XMCLib/src\xmc_ccu8.c ****  *     - Bug fix XMC_CCU8_SLICE_ConfigureEvent() during the level setting for XMC14 devices. <br>
  55:D:/School/diseratie/SEMS/xmc4800_evaluation_kit/xmc4800_iot_kit/common/Libraries/XMCLib/src\xmc_ccu8.c ****  *     - XMC_CCU8_EnableShadowTransfer() definition is removed, since the API is made as inline. <b
  56:D:/School/diseratie/SEMS/xmc4800_evaluation_kit/xmc4800_iot_kit/common/Libraries/XMCLib/src\xmc_ccu8.c ****  * 
  57:D:/School/diseratie/SEMS/xmc4800_evaluation_kit/xmc4800_iot_kit/common/Libraries/XMCLib/src\xmc_ccu8.c ****  * 2015-10-07:
  58:D:/School/diseratie/SEMS/xmc4800_evaluation_kit/xmc4800_iot_kit/common/Libraries/XMCLib/src\xmc_ccu8.c ****  *     - XMC_CCU8_SLICE_GetEvent() is made as inline.
  59:D:/School/diseratie/SEMS/xmc4800_evaluation_kit/xmc4800_iot_kit/common/Libraries/XMCLib/src\xmc_ccu8.c ****  *     - DOC updates for the newly added APIs.
  60:D:/School/diseratie/SEMS/xmc4800_evaluation_kit/xmc4800_iot_kit/common/Libraries/XMCLib/src\xmc_ccu8.c ****  *
  61:D:/School/diseratie/SEMS/xmc4800_evaluation_kit/xmc4800_iot_kit/common/Libraries/XMCLib/src\xmc_ccu8.c ****  * 2017-02-25:
  62:D:/School/diseratie/SEMS/xmc4800_evaluation_kit/xmc4800_iot_kit/common/Libraries/XMCLib/src\xmc_ccu8.c ****  *     - XMC_CCU8_lAssertReset(), XMC_CCU8_lDeassertReset(), XMC_CCU8_lGateClock() and XMC_CCU8_lUn
  63:D:/School/diseratie/SEMS/xmc4800_evaluation_kit/xmc4800_iot_kit/common/Libraries/XMCLib/src\xmc_ccu8.c ****  *
  64:D:/School/diseratie/SEMS/xmc4800_evaluation_kit/xmc4800_iot_kit/common/Libraries/XMCLib/src\xmc_ccu8.c ****  * 2017-04-27:
  65:D:/School/diseratie/SEMS/xmc4800_evaluation_kit/xmc4800_iot_kit/common/Libraries/XMCLib/src\xmc_ccu8.c ****  *     - XMC_CCU8_SLICE_SetPrescaler() changed div_val parameter to type XMC_CCU8_SLICE_PRESCALER_t
  66:D:/School/diseratie/SEMS/xmc4800_evaluation_kit/xmc4800_iot_kit/common/Libraries/XMCLib/src\xmc_ccu8.c ****  *
  67:D:/School/diseratie/SEMS/xmc4800_evaluation_kit/xmc4800_iot_kit/common/Libraries/XMCLib/src\xmc_ccu8.c ****  * @endcond
  68:D:/School/diseratie/SEMS/xmc4800_evaluation_kit/xmc4800_iot_kit/common/Libraries/XMCLib/src\xmc_ccu8.c ****  */
  69:D:/School/diseratie/SEMS/xmc4800_evaluation_kit/xmc4800_iot_kit/common/Libraries/XMCLib/src\xmc_ccu8.c **** /**************************************************************************************************
  70:D:/School/diseratie/SEMS/xmc4800_evaluation_kit/xmc4800_iot_kit/common/Libraries/XMCLib/src\xmc_ccu8.c ****  * HEADER FILES
  71:D:/School/diseratie/SEMS/xmc4800_evaluation_kit/xmc4800_iot_kit/common/Libraries/XMCLib/src\xmc_ccu8.c ****  **************************************************************************************************
  72:D:/School/diseratie/SEMS/xmc4800_evaluation_kit/xmc4800_iot_kit/common/Libraries/XMCLib/src\xmc_ccu8.c **** #include "xmc_ccu8.h"
  73:D:/School/diseratie/SEMS/xmc4800_evaluation_kit/xmc4800_iot_kit/common/Libraries/XMCLib/src\xmc_ccu8.c **** 
  74:D:/School/diseratie/SEMS/xmc4800_evaluation_kit/xmc4800_iot_kit/common/Libraries/XMCLib/src\xmc_ccu8.c **** #if defined(CCU80)
  75:D:/School/diseratie/SEMS/xmc4800_evaluation_kit/xmc4800_iot_kit/common/Libraries/XMCLib/src\xmc_ccu8.c **** #include "xmc_scu.h"
  76:D:/School/diseratie/SEMS/xmc4800_evaluation_kit/xmc4800_iot_kit/common/Libraries/XMCLib/src\xmc_ccu8.c **** 
  77:D:/School/diseratie/SEMS/xmc4800_evaluation_kit/xmc4800_iot_kit/common/Libraries/XMCLib/src\xmc_ccu8.c **** /**************************************************************************************************
  78:D:/School/diseratie/SEMS/xmc4800_evaluation_kit/xmc4800_iot_kit/common/Libraries/XMCLib/src\xmc_ccu8.c ****  * MACROS
  79:D:/School/diseratie/SEMS/xmc4800_evaluation_kit/xmc4800_iot_kit/common/Libraries/XMCLib/src\xmc_ccu8.c ****  **************************************************************************************************
  80:D:/School/diseratie/SEMS/xmc4800_evaluation_kit/xmc4800_iot_kit/common/Libraries/XMCLib/src\xmc_ccu8.c **** #define XMC_CCU8_NUM_SLICES_PER_MODULE          (4U)
  81:D:/School/diseratie/SEMS/xmc4800_evaluation_kit/xmc4800_iot_kit/common/Libraries/XMCLib/src\xmc_ccu8.c **** #define XMC_CCU8_SLICE_DITHER_PERIOD_MASK       (1U)
  82:D:/School/diseratie/SEMS/xmc4800_evaluation_kit/xmc4800_iot_kit/common/Libraries/XMCLib/src\xmc_ccu8.c **** #define XMC_CCU8_SLICE_DITHER_DUTYCYCLE_MASK    (2U)
  83:D:/School/diseratie/SEMS/xmc4800_evaluation_kit/xmc4800_iot_kit/common/Libraries/XMCLib/src\xmc_ccu8.c **** #define XMC_CCU8_SLICE_EVENT_EDGE_CONFIG_MASK   (3U)
  84:D:/School/diseratie/SEMS/xmc4800_evaluation_kit/xmc4800_iot_kit/common/Libraries/XMCLib/src\xmc_ccu8.c **** #define XMC_CCU8_SLICE_EVENT_LEVEL_CONFIG_MASK  (1U)
  85:D:/School/diseratie/SEMS/xmc4800_evaluation_kit/xmc4800_iot_kit/common/Libraries/XMCLib/src\xmc_ccu8.c **** #define XMC_CCU8_SLICE_EVENT_FILTER_CONFIG_MASK (3U)
  86:D:/School/diseratie/SEMS/xmc4800_evaluation_kit/xmc4800_iot_kit/common/Libraries/XMCLib/src\xmc_ccu8.c **** #if defined(CCU8V3) /* Defined for XMC1400 devices */
  87:D:/School/diseratie/SEMS/xmc4800_evaluation_kit/xmc4800_iot_kit/common/Libraries/XMCLib/src\xmc_ccu8.c **** #define XMC_CCU8_SLICE_EVENT_INPUT_CONFIG_MASK  CCU8_CC8_INS1_EV0IS_Msk
  88:D:/School/diseratie/SEMS/xmc4800_evaluation_kit/xmc4800_iot_kit/common/Libraries/XMCLib/src\xmc_ccu8.c **** #else
  89:D:/School/diseratie/SEMS/xmc4800_evaluation_kit/xmc4800_iot_kit/common/Libraries/XMCLib/src\xmc_ccu8.c **** #define XMC_CCU8_SLICE_EVENT_INPUT_CONFIG_MASK  CCU8_CC8_INS_EV0IS_Msk
  90:D:/School/diseratie/SEMS/xmc4800_evaluation_kit/xmc4800_iot_kit/common/Libraries/XMCLib/src\xmc_ccu8.c **** #endif
  91:D:/School/diseratie/SEMS/xmc4800_evaluation_kit/xmc4800_iot_kit/common/Libraries/XMCLib/src\xmc_ccu8.c **** #define XMC_CCU8_GIDLC_CLOCK_MASK               (15U)
  92:D:/School/diseratie/SEMS/xmc4800_evaluation_kit/xmc4800_iot_kit/common/Libraries/XMCLib/src\xmc_ccu8.c **** #define XMC_CCU8_GCSS_SLICE0_MASK               (1U)
  93:D:/School/diseratie/SEMS/xmc4800_evaluation_kit/xmc4800_iot_kit/common/Libraries/XMCLib/src\xmc_ccu8.c **** #define XMC_CCU8_GCSS_SLICE1_MASK               (16U)
  94:D:/School/diseratie/SEMS/xmc4800_evaluation_kit/xmc4800_iot_kit/common/Libraries/XMCLib/src\xmc_ccu8.c **** #define XMC_CCU8_GCSS_SLICE2_MASK               (256U)
  95:D:/School/diseratie/SEMS/xmc4800_evaluation_kit/xmc4800_iot_kit/common/Libraries/XMCLib/src\xmc_ccu8.c **** #define XMC_CCU8_GCSS_SLICE3_MASK               (4096U)
  96:D:/School/diseratie/SEMS/xmc4800_evaluation_kit/xmc4800_iot_kit/common/Libraries/XMCLib/src\xmc_ccu8.c **** #define XMC_CCU8_SLICE_DEAD_TIME_CONFIG_MASK    (63U)
  97:D:/School/diseratie/SEMS/xmc4800_evaluation_kit/xmc4800_iot_kit/common/Libraries/XMCLib/src\xmc_ccu8.c **** #if !defined(CCU8V3) /* Defined for all devices except XMC1400 */
  98:D:/School/diseratie/SEMS/xmc4800_evaluation_kit/xmc4800_iot_kit/common/Libraries/XMCLib/src\xmc_ccu8.c **** #define XMC_CCU8_SLICE_CHC_CONFIG_MASK          (20U)
  99:D:/School/diseratie/SEMS/xmc4800_evaluation_kit/xmc4800_iot_kit/common/Libraries/XMCLib/src\xmc_ccu8.c **** #endif
 100:D:/School/diseratie/SEMS/xmc4800_evaluation_kit/xmc4800_iot_kit/common/Libraries/XMCLib/src\xmc_ccu8.c **** 
 101:D:/School/diseratie/SEMS/xmc4800_evaluation_kit/xmc4800_iot_kit/common/Libraries/XMCLib/src\xmc_ccu8.c **** #define XMC_CCU8_SLICE_CHECK_DTC_DIV(div) \
 102:D:/School/diseratie/SEMS/xmc4800_evaluation_kit/xmc4800_iot_kit/common/Libraries/XMCLib/src\xmc_ccu8.c ****     ((div == XMC_CCU8_SLICE_DTC_DIV_1) || \
 103:D:/School/diseratie/SEMS/xmc4800_evaluation_kit/xmc4800_iot_kit/common/Libraries/XMCLib/src\xmc_ccu8.c ****      (div == XMC_CCU8_SLICE_DTC_DIV_2) || \
 104:D:/School/diseratie/SEMS/xmc4800_evaluation_kit/xmc4800_iot_kit/common/Libraries/XMCLib/src\xmc_ccu8.c ****      (div == XMC_CCU8_SLICE_DTC_DIV_4) || \
 105:D:/School/diseratie/SEMS/xmc4800_evaluation_kit/xmc4800_iot_kit/common/Libraries/XMCLib/src\xmc_ccu8.c ****      (div == XMC_CCU8_SLICE_DTC_DIV_8))
 106:D:/School/diseratie/SEMS/xmc4800_evaluation_kit/xmc4800_iot_kit/common/Libraries/XMCLib/src\xmc_ccu8.c **** 
 107:D:/School/diseratie/SEMS/xmc4800_evaluation_kit/xmc4800_iot_kit/common/Libraries/XMCLib/src\xmc_ccu8.c **** #define XMC_CCU8_SLICE_CHECK_CLOCK(clock) \
 108:D:/School/diseratie/SEMS/xmc4800_evaluation_kit/xmc4800_iot_kit/common/Libraries/XMCLib/src\xmc_ccu8.c ****     ((clock == XMC_CCU8_CLOCK_SCU)        || \
 109:D:/School/diseratie/SEMS/xmc4800_evaluation_kit/xmc4800_iot_kit/common/Libraries/XMCLib/src\xmc_ccu8.c ****      (clock == XMC_CCU8_CLOCK_EXTERNAL_A) || \
 110:D:/School/diseratie/SEMS/xmc4800_evaluation_kit/xmc4800_iot_kit/common/Libraries/XMCLib/src\xmc_ccu8.c ****      (clock == XMC_CCU8_CLOCK_EXTERNAL_B) || \
 111:D:/School/diseratie/SEMS/xmc4800_evaluation_kit/xmc4800_iot_kit/common/Libraries/XMCLib/src\xmc_ccu8.c ****      (clock == XMC_CCU8_CLOCK_EXTERNAL_C))
 112:D:/School/diseratie/SEMS/xmc4800_evaluation_kit/xmc4800_iot_kit/common/Libraries/XMCLib/src\xmc_ccu8.c **** 
 113:D:/School/diseratie/SEMS/xmc4800_evaluation_kit/xmc4800_iot_kit/common/Libraries/XMCLib/src\xmc_ccu8.c **** #define XMC_CCU8_SLICE_CHECK_OUTPUT(out) \
 114:D:/School/diseratie/SEMS/xmc4800_evaluation_kit/xmc4800_iot_kit/common/Libraries/XMCLib/src\xmc_ccu8.c ****     ((out == XMC_CCU8_SLICE_OUTPUT_0) || \
 115:D:/School/diseratie/SEMS/xmc4800_evaluation_kit/xmc4800_iot_kit/common/Libraries/XMCLib/src\xmc_ccu8.c ****      (out == XMC_CCU8_SLICE_OUTPUT_1) || \
 116:D:/School/diseratie/SEMS/xmc4800_evaluation_kit/xmc4800_iot_kit/common/Libraries/XMCLib/src\xmc_ccu8.c ****      (out == XMC_CCU8_SLICE_OUTPUT_2) || \
 117:D:/School/diseratie/SEMS/xmc4800_evaluation_kit/xmc4800_iot_kit/common/Libraries/XMCLib/src\xmc_ccu8.c ****      (out == XMC_CCU8_SLICE_OUTPUT_3))
 118:D:/School/diseratie/SEMS/xmc4800_evaluation_kit/xmc4800_iot_kit/common/Libraries/XMCLib/src\xmc_ccu8.c **** 
 119:D:/School/diseratie/SEMS/xmc4800_evaluation_kit/xmc4800_iot_kit/common/Libraries/XMCLib/src\xmc_ccu8.c **** #define XMC_CCU8_SLICE_CHECK_END_MODE(end_mode) \
 120:D:/School/diseratie/SEMS/xmc4800_evaluation_kit/xmc4800_iot_kit/common/Libraries/XMCLib/src\xmc_ccu8.c ****     ((end_mode == XMC_CCU8_SLICE_END_MODE_TIMER_STOP) || \
 121:D:/School/diseratie/SEMS/xmc4800_evaluation_kit/xmc4800_iot_kit/common/Libraries/XMCLib/src\xmc_ccu8.c ****      (end_mode == XMC_CCU8_SLICE_END_MODE_TIMER_CLEAR) || \
 122:D:/School/diseratie/SEMS/xmc4800_evaluation_kit/xmc4800_iot_kit/common/Libraries/XMCLib/src\xmc_ccu8.c ****      (end_mode == XMC_CCU8_SLICE_END_MODE_TIMER_STOP_CLEAR))
 123:D:/School/diseratie/SEMS/xmc4800_evaluation_kit/xmc4800_iot_kit/common/Libraries/XMCLib/src\xmc_ccu8.c **** 
 124:D:/School/diseratie/SEMS/xmc4800_evaluation_kit/xmc4800_iot_kit/common/Libraries/XMCLib/src\xmc_ccu8.c **** #define XMC_CCU8_SLICE_CHECK_EVENT_ID(event_id) \
 125:D:/School/diseratie/SEMS/xmc4800_evaluation_kit/xmc4800_iot_kit/common/Libraries/XMCLib/src\xmc_ccu8.c ****     ((event_id == XMC_CCU8_SLICE_EVENT_NONE)|| \
 126:D:/School/diseratie/SEMS/xmc4800_evaluation_kit/xmc4800_iot_kit/common/Libraries/XMCLib/src\xmc_ccu8.c ****      (event_id == XMC_CCU8_SLICE_EVENT_0)   || \
 127:D:/School/diseratie/SEMS/xmc4800_evaluation_kit/xmc4800_iot_kit/common/Libraries/XMCLib/src\xmc_ccu8.c ****      (event_id == XMC_CCU8_SLICE_EVENT_1)   || \
 128:D:/School/diseratie/SEMS/xmc4800_evaluation_kit/xmc4800_iot_kit/common/Libraries/XMCLib/src\xmc_ccu8.c ****      (event_id == XMC_CCU8_SLICE_EVENT_2))
 129:D:/School/diseratie/SEMS/xmc4800_evaluation_kit/xmc4800_iot_kit/common/Libraries/XMCLib/src\xmc_ccu8.c **** 
 130:D:/School/diseratie/SEMS/xmc4800_evaluation_kit/xmc4800_iot_kit/common/Libraries/XMCLib/src\xmc_ccu8.c **** #define XMC_CCU8_SLICE_CHECK_EDGE_SENSITIVITY(edge) \
 131:D:/School/diseratie/SEMS/xmc4800_evaluation_kit/xmc4800_iot_kit/common/Libraries/XMCLib/src\xmc_ccu8.c ****     ((edge == XMC_CCU8_SLICE_EVENT_EDGE_SENSITIVITY_NONE)        || \
 132:D:/School/diseratie/SEMS/xmc4800_evaluation_kit/xmc4800_iot_kit/common/Libraries/XMCLib/src\xmc_ccu8.c ****      (edge == XMC_CCU8_SLICE_EVENT_EDGE_SENSITIVITY_RISING_EDGE) || \
 133:D:/School/diseratie/SEMS/xmc4800_evaluation_kit/xmc4800_iot_kit/common/Libraries/XMCLib/src\xmc_ccu8.c ****      (edge == XMC_CCU8_SLICE_EVENT_EDGE_SENSITIVITY_FALLING_EDGE)|| \
 134:D:/School/diseratie/SEMS/xmc4800_evaluation_kit/xmc4800_iot_kit/common/Libraries/XMCLib/src\xmc_ccu8.c ****      (edge == XMC_CCU8_SLICE_EVENT_EDGE_SENSITIVITY_DUAL_EDGE))
 135:D:/School/diseratie/SEMS/xmc4800_evaluation_kit/xmc4800_iot_kit/common/Libraries/XMCLib/src\xmc_ccu8.c **** 
 136:D:/School/diseratie/SEMS/xmc4800_evaluation_kit/xmc4800_iot_kit/common/Libraries/XMCLib/src\xmc_ccu8.c **** #define XMC_CCU8_SLICE_CHECK_EVENT_FILTER(cycles) \
 137:D:/School/diseratie/SEMS/xmc4800_evaluation_kit/xmc4800_iot_kit/common/Libraries/XMCLib/src\xmc_ccu8.c ****     ((cycles == XMC_CCU8_SLICE_EVENT_FILTER_DISABLED) || \
 138:D:/School/diseratie/SEMS/xmc4800_evaluation_kit/xmc4800_iot_kit/common/Libraries/XMCLib/src\xmc_ccu8.c ****      (cycles == XMC_CCU8_SLICE_EVENT_FILTER_3_CYCLES) || \
 139:D:/School/diseratie/SEMS/xmc4800_evaluation_kit/xmc4800_iot_kit/common/Libraries/XMCLib/src\xmc_ccu8.c ****      (cycles == XMC_CCU8_SLICE_EVENT_FILTER_5_CYCLES) || \
 140:D:/School/diseratie/SEMS/xmc4800_evaluation_kit/xmc4800_iot_kit/common/Libraries/XMCLib/src\xmc_ccu8.c ****      (cycles == XMC_CCU8_SLICE_EVENT_FILTER_7_CYCLES))
 141:D:/School/diseratie/SEMS/xmc4800_evaluation_kit/xmc4800_iot_kit/common/Libraries/XMCLib/src\xmc_ccu8.c **** 
 142:D:/School/diseratie/SEMS/xmc4800_evaluation_kit/xmc4800_iot_kit/common/Libraries/XMCLib/src\xmc_ccu8.c **** #define XMC_CCU8_SLICE_CHECK_CAP_TIMER_CLEAR_MODE(mode) \
 143:D:/School/diseratie/SEMS/xmc4800_evaluation_kit/xmc4800_iot_kit/common/Libraries/XMCLib/src\xmc_ccu8.c ****     ((mode == XMC_CCU8_SLICE_TIMER_CLEAR_MODE_NEVER)   || \
 144:D:/School/diseratie/SEMS/xmc4800_evaluation_kit/xmc4800_iot_kit/common/Libraries/XMCLib/src\xmc_ccu8.c ****      (mode == XMC_CCU8_SLICE_TIMER_CLEAR_MODE_CAP_HIGH)|| \
 145:D:/School/diseratie/SEMS/xmc4800_evaluation_kit/xmc4800_iot_kit/common/Libraries/XMCLib/src\xmc_ccu8.c ****      (mode == XMC_CCU8_SLICE_TIMER_CLEAR_MODE_CAP_LOW) || \
 146:D:/School/diseratie/SEMS/xmc4800_evaluation_kit/xmc4800_iot_kit/common/Libraries/XMCLib/src\xmc_ccu8.c ****      (mode == XMC_CCU8_SLICE_TIMER_CLEAR_MODE_ALWAYS))
 147:D:/School/diseratie/SEMS/xmc4800_evaluation_kit/xmc4800_iot_kit/common/Libraries/XMCLib/src\xmc_ccu8.c **** 
 148:D:/School/diseratie/SEMS/xmc4800_evaluation_kit/xmc4800_iot_kit/common/Libraries/XMCLib/src\xmc_ccu8.c **** #define XMC_CCU8_SLICE_CHECK_MCS_ACTION(mcs_action) \
 149:D:/School/diseratie/SEMS/xmc4800_evaluation_kit/xmc4800_iot_kit/common/Libraries/XMCLib/src\xmc_ccu8.c ****     ((mcs_action == XMC_CCU8_SLICE_MCMS_ACTION_TRANSFER_PR_CR)      || \
 150:D:/School/diseratie/SEMS/xmc4800_evaluation_kit/xmc4800_iot_kit/common/Libraries/XMCLib/src\xmc_ccu8.c ****      (mcs_action == XMC_CCU8_SLICE_MCMS_ACTION_TRANSFER_PR_CR_PCMP) || \
 151:D:/School/diseratie/SEMS/xmc4800_evaluation_kit/xmc4800_iot_kit/common/Libraries/XMCLib/src\xmc_ccu8.c ****      (mcs_action == XMC_CCU8_SLICE_MCMS_ACTION_TRANSFER_PR_CR_PCMP_DIT))
 152:D:/School/diseratie/SEMS/xmc4800_evaluation_kit/xmc4800_iot_kit/common/Libraries/XMCLib/src\xmc_ccu8.c **** 
 153:D:/School/diseratie/SEMS/xmc4800_evaluation_kit/xmc4800_iot_kit/common/Libraries/XMCLib/src\xmc_ccu8.c **** #define XMC_CCU8_SLICE_CHECK_SR_ID(id) \
 154:D:/School/diseratie/SEMS/xmc4800_evaluation_kit/xmc4800_iot_kit/common/Libraries/XMCLib/src\xmc_ccu8.c ****     ((id == XMC_CCU8_SLICE_SR_ID_0) || \
 155:D:/School/diseratie/SEMS/xmc4800_evaluation_kit/xmc4800_iot_kit/common/Libraries/XMCLib/src\xmc_ccu8.c ****      (id == XMC_CCU8_SLICE_SR_ID_1) || \
 156:D:/School/diseratie/SEMS/xmc4800_evaluation_kit/xmc4800_iot_kit/common/Libraries/XMCLib/src\xmc_ccu8.c ****      (id == XMC_CCU8_SLICE_SR_ID_2) || \
 157:D:/School/diseratie/SEMS/xmc4800_evaluation_kit/xmc4800_iot_kit/common/Libraries/XMCLib/src\xmc_ccu8.c ****      (id == XMC_CCU8_SLICE_SR_ID_3))
 158:D:/School/diseratie/SEMS/xmc4800_evaluation_kit/xmc4800_iot_kit/common/Libraries/XMCLib/src\xmc_ccu8.c **** 
 159:D:/School/diseratie/SEMS/xmc4800_evaluation_kit/xmc4800_iot_kit/common/Libraries/XMCLib/src\xmc_ccu8.c **** #define XMC_CCU8_SLICE_CHECK_MODULATION_CHANNEL(channel) \
 160:D:/School/diseratie/SEMS/xmc4800_evaluation_kit/xmc4800_iot_kit/common/Libraries/XMCLib/src\xmc_ccu8.c ****     ((channel == XMC_CCU8_SLICE_MODULATION_CHANNEL_NONE) || \
 161:D:/School/diseratie/SEMS/xmc4800_evaluation_kit/xmc4800_iot_kit/common/Libraries/XMCLib/src\xmc_ccu8.c ****      (channel == XMC_CCU8_SLICE_MODULATION_CHANNEL_1)    || \
 162:D:/School/diseratie/SEMS/xmc4800_evaluation_kit/xmc4800_iot_kit/common/Libraries/XMCLib/src\xmc_ccu8.c ****      (channel == XMC_CCU8_SLICE_MODULATION_CHANNEL_2)    || \
 163:D:/School/diseratie/SEMS/xmc4800_evaluation_kit/xmc4800_iot_kit/common/Libraries/XMCLib/src\xmc_ccu8.c ****      (channel == XMC_CCU8_SLICE_MODULATION_CHANNEL_1_AND_2))
 164:D:/School/diseratie/SEMS/xmc4800_evaluation_kit/xmc4800_iot_kit/common/Libraries/XMCLib/src\xmc_ccu8.c **** 
 165:D:/School/diseratie/SEMS/xmc4800_evaluation_kit/xmc4800_iot_kit/common/Libraries/XMCLib/src\xmc_ccu8.c **** #if((UC_SERIES == XMC13) || (UC_SERIES == XMC14))
 166:D:/School/diseratie/SEMS/xmc4800_evaluation_kit/xmc4800_iot_kit/common/Libraries/XMCLib/src\xmc_ccu8.c **** #define XMC_CCU8_SLICE_CHECK_SLICE_STATUS(channel) \
 167:D:/School/diseratie/SEMS/xmc4800_evaluation_kit/xmc4800_iot_kit/common/Libraries/XMCLib/src\xmc_ccu8.c ****     ((channel == XMC_CCU8_SLICE_STATUS_CHANNEL_1)       || \
 168:D:/School/diseratie/SEMS/xmc4800_evaluation_kit/xmc4800_iot_kit/common/Libraries/XMCLib/src\xmc_ccu8.c ****      (channel == XMC_CCU8_SLICE_STATUS_CHANNEL_2)       || \
 169:D:/School/diseratie/SEMS/xmc4800_evaluation_kit/xmc4800_iot_kit/common/Libraries/XMCLib/src\xmc_ccu8.c ****      (channel == XMC_CCU8_SLICE_STATUS_CHANNEL_1_AND_2) || \
 170:D:/School/diseratie/SEMS/xmc4800_evaluation_kit/xmc4800_iot_kit/common/Libraries/XMCLib/src\xmc_ccu8.c ****      (channel == XMC_CCU8_SLICE_STATUS_CHANNEL_1_OR_2))
 171:D:/School/diseratie/SEMS/xmc4800_evaluation_kit/xmc4800_iot_kit/common/Libraries/XMCLib/src\xmc_ccu8.c **** #else
 172:D:/School/diseratie/SEMS/xmc4800_evaluation_kit/xmc4800_iot_kit/common/Libraries/XMCLib/src\xmc_ccu8.c **** #define XMC_CCU8_SLICE_CHECK_SLICE_STATUS(channel) \
 173:D:/School/diseratie/SEMS/xmc4800_evaluation_kit/xmc4800_iot_kit/common/Libraries/XMCLib/src\xmc_ccu8.c ****     ((channel == XMC_CCU8_SLICE_STATUS_CHANNEL_1)       || \
 174:D:/School/diseratie/SEMS/xmc4800_evaluation_kit/xmc4800_iot_kit/common/Libraries/XMCLib/src\xmc_ccu8.c ****      (channel == XMC_CCU8_SLICE_STATUS_CHANNEL_2)       || \
 175:D:/School/diseratie/SEMS/xmc4800_evaluation_kit/xmc4800_iot_kit/common/Libraries/XMCLib/src\xmc_ccu8.c ****      (channel == XMC_CCU8_SLICE_STATUS_CHANNEL_1_AND_2))
 176:D:/School/diseratie/SEMS/xmc4800_evaluation_kit/xmc4800_iot_kit/common/Libraries/XMCLib/src\xmc_ccu8.c **** #endif
 177:D:/School/diseratie/SEMS/xmc4800_evaluation_kit/xmc4800_iot_kit/common/Libraries/XMCLib/src\xmc_ccu8.c **** 
 178:D:/School/diseratie/SEMS/xmc4800_evaluation_kit/xmc4800_iot_kit/common/Libraries/XMCLib/src\xmc_ccu8.c **** /**************************************************************************************************
 179:D:/School/diseratie/SEMS/xmc4800_evaluation_kit/xmc4800_iot_kit/common/Libraries/XMCLib/src\xmc_ccu8.c ****  * LOCAL ROUTINES
 180:D:/School/diseratie/SEMS/xmc4800_evaluation_kit/xmc4800_iot_kit/common/Libraries/XMCLib/src\xmc_ccu8.c ****  **************************************************************************************************
 181:D:/School/diseratie/SEMS/xmc4800_evaluation_kit/xmc4800_iot_kit/common/Libraries/XMCLib/src\xmc_ccu8.c **** #if defined(PERIPHERAL_RESET_SUPPORTED)
 182:D:/School/diseratie/SEMS/xmc4800_evaluation_kit/xmc4800_iot_kit/common/Libraries/XMCLib/src\xmc_ccu8.c **** __STATIC_INLINE void XMC_CCU8_lAssertReset(const XMC_CCU8_MODULE_t *const module)
 183:D:/School/diseratie/SEMS/xmc4800_evaluation_kit/xmc4800_iot_kit/common/Libraries/XMCLib/src\xmc_ccu8.c **** {
 184:D:/School/diseratie/SEMS/xmc4800_evaluation_kit/xmc4800_iot_kit/common/Libraries/XMCLib/src\xmc_ccu8.c ****   if (module == CCU80)
 185:D:/School/diseratie/SEMS/xmc4800_evaluation_kit/xmc4800_iot_kit/common/Libraries/XMCLib/src\xmc_ccu8.c ****   {
 186:D:/School/diseratie/SEMS/xmc4800_evaluation_kit/xmc4800_iot_kit/common/Libraries/XMCLib/src\xmc_ccu8.c ****     XMC_SCU_RESET_AssertPeripheralReset(XMC_SCU_PERIPHERAL_RESET_CCU80);
 187:D:/School/diseratie/SEMS/xmc4800_evaluation_kit/xmc4800_iot_kit/common/Libraries/XMCLib/src\xmc_ccu8.c ****   }
 188:D:/School/diseratie/SEMS/xmc4800_evaluation_kit/xmc4800_iot_kit/common/Libraries/XMCLib/src\xmc_ccu8.c **** #if defined(CCU81)
 189:D:/School/diseratie/SEMS/xmc4800_evaluation_kit/xmc4800_iot_kit/common/Libraries/XMCLib/src\xmc_ccu8.c ****   else if (module == CCU81)
 190:D:/School/diseratie/SEMS/xmc4800_evaluation_kit/xmc4800_iot_kit/common/Libraries/XMCLib/src\xmc_ccu8.c ****   {
 191:D:/School/diseratie/SEMS/xmc4800_evaluation_kit/xmc4800_iot_kit/common/Libraries/XMCLib/src\xmc_ccu8.c ****     XMC_SCU_RESET_AssertPeripheralReset(XMC_SCU_PERIPHERAL_RESET_CCU81);
 192:D:/School/diseratie/SEMS/xmc4800_evaluation_kit/xmc4800_iot_kit/common/Libraries/XMCLib/src\xmc_ccu8.c ****   }
 193:D:/School/diseratie/SEMS/xmc4800_evaluation_kit/xmc4800_iot_kit/common/Libraries/XMCLib/src\xmc_ccu8.c **** #endif
 194:D:/School/diseratie/SEMS/xmc4800_evaluation_kit/xmc4800_iot_kit/common/Libraries/XMCLib/src\xmc_ccu8.c ****   else
 195:D:/School/diseratie/SEMS/xmc4800_evaluation_kit/xmc4800_iot_kit/common/Libraries/XMCLib/src\xmc_ccu8.c ****   {
 196:D:/School/diseratie/SEMS/xmc4800_evaluation_kit/xmc4800_iot_kit/common/Libraries/XMCLib/src\xmc_ccu8.c ****     XMC_ASSERT("XMC_CCU8_lAssertReset:Invalid Module Pointer", 0);
 197:D:/School/diseratie/SEMS/xmc4800_evaluation_kit/xmc4800_iot_kit/common/Libraries/XMCLib/src\xmc_ccu8.c ****   }
 198:D:/School/diseratie/SEMS/xmc4800_evaluation_kit/xmc4800_iot_kit/common/Libraries/XMCLib/src\xmc_ccu8.c **** }
 199:D:/School/diseratie/SEMS/xmc4800_evaluation_kit/xmc4800_iot_kit/common/Libraries/XMCLib/src\xmc_ccu8.c **** 
 200:D:/School/diseratie/SEMS/xmc4800_evaluation_kit/xmc4800_iot_kit/common/Libraries/XMCLib/src\xmc_ccu8.c **** __STATIC_INLINE void XMC_CCU8_lDeassertReset(const XMC_CCU8_MODULE_t *const module)
 201:D:/School/diseratie/SEMS/xmc4800_evaluation_kit/xmc4800_iot_kit/common/Libraries/XMCLib/src\xmc_ccu8.c **** {
 202:D:/School/diseratie/SEMS/xmc4800_evaluation_kit/xmc4800_iot_kit/common/Libraries/XMCLib/src\xmc_ccu8.c ****   if (module == CCU80)
 203:D:/School/diseratie/SEMS/xmc4800_evaluation_kit/xmc4800_iot_kit/common/Libraries/XMCLib/src\xmc_ccu8.c ****   {
 204:D:/School/diseratie/SEMS/xmc4800_evaluation_kit/xmc4800_iot_kit/common/Libraries/XMCLib/src\xmc_ccu8.c ****     XMC_SCU_RESET_DeassertPeripheralReset(XMC_SCU_PERIPHERAL_RESET_CCU80);
 205:D:/School/diseratie/SEMS/xmc4800_evaluation_kit/xmc4800_iot_kit/common/Libraries/XMCLib/src\xmc_ccu8.c ****   }
 206:D:/School/diseratie/SEMS/xmc4800_evaluation_kit/xmc4800_iot_kit/common/Libraries/XMCLib/src\xmc_ccu8.c **** #if defined(CCU81)
 207:D:/School/diseratie/SEMS/xmc4800_evaluation_kit/xmc4800_iot_kit/common/Libraries/XMCLib/src\xmc_ccu8.c ****   else if (module == CCU81)
 208:D:/School/diseratie/SEMS/xmc4800_evaluation_kit/xmc4800_iot_kit/common/Libraries/XMCLib/src\xmc_ccu8.c ****   {
 209:D:/School/diseratie/SEMS/xmc4800_evaluation_kit/xmc4800_iot_kit/common/Libraries/XMCLib/src\xmc_ccu8.c ****     XMC_SCU_RESET_DeassertPeripheralReset(XMC_SCU_PERIPHERAL_RESET_CCU81);
 210:D:/School/diseratie/SEMS/xmc4800_evaluation_kit/xmc4800_iot_kit/common/Libraries/XMCLib/src\xmc_ccu8.c ****   }
 211:D:/School/diseratie/SEMS/xmc4800_evaluation_kit/xmc4800_iot_kit/common/Libraries/XMCLib/src\xmc_ccu8.c **** #endif
 212:D:/School/diseratie/SEMS/xmc4800_evaluation_kit/xmc4800_iot_kit/common/Libraries/XMCLib/src\xmc_ccu8.c ****   else
 213:D:/School/diseratie/SEMS/xmc4800_evaluation_kit/xmc4800_iot_kit/common/Libraries/XMCLib/src\xmc_ccu8.c ****   {
 214:D:/School/diseratie/SEMS/xmc4800_evaluation_kit/xmc4800_iot_kit/common/Libraries/XMCLib/src\xmc_ccu8.c ****     XMC_ASSERT("XMC_CCU8_lDeassertReset:Invalid Module Pointer", 0);
 215:D:/School/diseratie/SEMS/xmc4800_evaluation_kit/xmc4800_iot_kit/common/Libraries/XMCLib/src\xmc_ccu8.c ****   }
 216:D:/School/diseratie/SEMS/xmc4800_evaluation_kit/xmc4800_iot_kit/common/Libraries/XMCLib/src\xmc_ccu8.c **** }
 217:D:/School/diseratie/SEMS/xmc4800_evaluation_kit/xmc4800_iot_kit/common/Libraries/XMCLib/src\xmc_ccu8.c **** #endif
 218:D:/School/diseratie/SEMS/xmc4800_evaluation_kit/xmc4800_iot_kit/common/Libraries/XMCLib/src\xmc_ccu8.c **** 
 219:D:/School/diseratie/SEMS/xmc4800_evaluation_kit/xmc4800_iot_kit/common/Libraries/XMCLib/src\xmc_ccu8.c **** #if defined(CLOCK_GATING_SUPPORTED)
 220:D:/School/diseratie/SEMS/xmc4800_evaluation_kit/xmc4800_iot_kit/common/Libraries/XMCLib/src\xmc_ccu8.c **** __STATIC_INLINE void XMC_CCU8_lGateClock(XMC_CCU8_MODULE_t *const module)
 221:D:/School/diseratie/SEMS/xmc4800_evaluation_kit/xmc4800_iot_kit/common/Libraries/XMCLib/src\xmc_ccu8.c **** {
 222:D:/School/diseratie/SEMS/xmc4800_evaluation_kit/xmc4800_iot_kit/common/Libraries/XMCLib/src\xmc_ccu8.c ****   if (module == CCU80)
 223:D:/School/diseratie/SEMS/xmc4800_evaluation_kit/xmc4800_iot_kit/common/Libraries/XMCLib/src\xmc_ccu8.c ****   {
 224:D:/School/diseratie/SEMS/xmc4800_evaluation_kit/xmc4800_iot_kit/common/Libraries/XMCLib/src\xmc_ccu8.c ****     XMC_SCU_CLOCK_GatePeripheralClock(XMC_SCU_PERIPHERAL_CLOCK_CCU80);
 225:D:/School/diseratie/SEMS/xmc4800_evaluation_kit/xmc4800_iot_kit/common/Libraries/XMCLib/src\xmc_ccu8.c ****   }
 226:D:/School/diseratie/SEMS/xmc4800_evaluation_kit/xmc4800_iot_kit/common/Libraries/XMCLib/src\xmc_ccu8.c **** #if defined(CCU81)
 227:D:/School/diseratie/SEMS/xmc4800_evaluation_kit/xmc4800_iot_kit/common/Libraries/XMCLib/src\xmc_ccu8.c ****   else if (module == CCU81)
 228:D:/School/diseratie/SEMS/xmc4800_evaluation_kit/xmc4800_iot_kit/common/Libraries/XMCLib/src\xmc_ccu8.c ****   {
 229:D:/School/diseratie/SEMS/xmc4800_evaluation_kit/xmc4800_iot_kit/common/Libraries/XMCLib/src\xmc_ccu8.c ****     XMC_SCU_CLOCK_GatePeripheralClock(XMC_SCU_PERIPHERAL_CLOCK_CCU81);
 230:D:/School/diseratie/SEMS/xmc4800_evaluation_kit/xmc4800_iot_kit/common/Libraries/XMCLib/src\xmc_ccu8.c ****   }
 231:D:/School/diseratie/SEMS/xmc4800_evaluation_kit/xmc4800_iot_kit/common/Libraries/XMCLib/src\xmc_ccu8.c **** #endif
 232:D:/School/diseratie/SEMS/xmc4800_evaluation_kit/xmc4800_iot_kit/common/Libraries/XMCLib/src\xmc_ccu8.c ****   else
 233:D:/School/diseratie/SEMS/xmc4800_evaluation_kit/xmc4800_iot_kit/common/Libraries/XMCLib/src\xmc_ccu8.c ****   {
 234:D:/School/diseratie/SEMS/xmc4800_evaluation_kit/xmc4800_iot_kit/common/Libraries/XMCLib/src\xmc_ccu8.c ****     XMC_ASSERT("XMC_CCU8_lGateClock:Invalid Module Pointer", 0);
 235:D:/School/diseratie/SEMS/xmc4800_evaluation_kit/xmc4800_iot_kit/common/Libraries/XMCLib/src\xmc_ccu8.c ****   }
 236:D:/School/diseratie/SEMS/xmc4800_evaluation_kit/xmc4800_iot_kit/common/Libraries/XMCLib/src\xmc_ccu8.c **** }
 237:D:/School/diseratie/SEMS/xmc4800_evaluation_kit/xmc4800_iot_kit/common/Libraries/XMCLib/src\xmc_ccu8.c **** 
 238:D:/School/diseratie/SEMS/xmc4800_evaluation_kit/xmc4800_iot_kit/common/Libraries/XMCLib/src\xmc_ccu8.c **** __STATIC_INLINE void XMC_CCU8_lUngateClock(XMC_CCU8_MODULE_t *const module)
 239:D:/School/diseratie/SEMS/xmc4800_evaluation_kit/xmc4800_iot_kit/common/Libraries/XMCLib/src\xmc_ccu8.c **** {
 240:D:/School/diseratie/SEMS/xmc4800_evaluation_kit/xmc4800_iot_kit/common/Libraries/XMCLib/src\xmc_ccu8.c ****   if (module == CCU80)
 241:D:/School/diseratie/SEMS/xmc4800_evaluation_kit/xmc4800_iot_kit/common/Libraries/XMCLib/src\xmc_ccu8.c ****   {
 242:D:/School/diseratie/SEMS/xmc4800_evaluation_kit/xmc4800_iot_kit/common/Libraries/XMCLib/src\xmc_ccu8.c ****     XMC_SCU_CLOCK_UngatePeripheralClock(XMC_SCU_PERIPHERAL_CLOCK_CCU80);
 243:D:/School/diseratie/SEMS/xmc4800_evaluation_kit/xmc4800_iot_kit/common/Libraries/XMCLib/src\xmc_ccu8.c ****   }
 244:D:/School/diseratie/SEMS/xmc4800_evaluation_kit/xmc4800_iot_kit/common/Libraries/XMCLib/src\xmc_ccu8.c **** #if defined(CCU81)
 245:D:/School/diseratie/SEMS/xmc4800_evaluation_kit/xmc4800_iot_kit/common/Libraries/XMCLib/src\xmc_ccu8.c ****   else if (module == CCU81)
 246:D:/School/diseratie/SEMS/xmc4800_evaluation_kit/xmc4800_iot_kit/common/Libraries/XMCLib/src\xmc_ccu8.c ****   {
 247:D:/School/diseratie/SEMS/xmc4800_evaluation_kit/xmc4800_iot_kit/common/Libraries/XMCLib/src\xmc_ccu8.c ****     XMC_SCU_CLOCK_UngatePeripheralClock(XMC_SCU_PERIPHERAL_CLOCK_CCU81);
 248:D:/School/diseratie/SEMS/xmc4800_evaluation_kit/xmc4800_iot_kit/common/Libraries/XMCLib/src\xmc_ccu8.c ****   }
 249:D:/School/diseratie/SEMS/xmc4800_evaluation_kit/xmc4800_iot_kit/common/Libraries/XMCLib/src\xmc_ccu8.c **** #endif
 250:D:/School/diseratie/SEMS/xmc4800_evaluation_kit/xmc4800_iot_kit/common/Libraries/XMCLib/src\xmc_ccu8.c ****   else
 251:D:/School/diseratie/SEMS/xmc4800_evaluation_kit/xmc4800_iot_kit/common/Libraries/XMCLib/src\xmc_ccu8.c ****   {
 252:D:/School/diseratie/SEMS/xmc4800_evaluation_kit/xmc4800_iot_kit/common/Libraries/XMCLib/src\xmc_ccu8.c ****     XMC_ASSERT("XMC_CCU8_lUngateClock:Invalid Module Pointer", 0);
 253:D:/School/diseratie/SEMS/xmc4800_evaluation_kit/xmc4800_iot_kit/common/Libraries/XMCLib/src\xmc_ccu8.c ****   }
 254:D:/School/diseratie/SEMS/xmc4800_evaluation_kit/xmc4800_iot_kit/common/Libraries/XMCLib/src\xmc_ccu8.c **** }
 255:D:/School/diseratie/SEMS/xmc4800_evaluation_kit/xmc4800_iot_kit/common/Libraries/XMCLib/src\xmc_ccu8.c **** #endif
 256:D:/School/diseratie/SEMS/xmc4800_evaluation_kit/xmc4800_iot_kit/common/Libraries/XMCLib/src\xmc_ccu8.c **** 
 257:D:/School/diseratie/SEMS/xmc4800_evaluation_kit/xmc4800_iot_kit/common/Libraries/XMCLib/src\xmc_ccu8.c **** #if defined (XMC_ASSERT_ENABLE)
 258:D:/School/diseratie/SEMS/xmc4800_evaluation_kit/xmc4800_iot_kit/common/Libraries/XMCLib/src\xmc_ccu8.c **** __STATIC_INLINE bool XMC_CCU8_SLICE_IsInputvalid(XMC_CCU8_SLICE_INPUT_t input)
 259:D:/School/diseratie/SEMS/xmc4800_evaluation_kit/xmc4800_iot_kit/common/Libraries/XMCLib/src\xmc_ccu8.c **** {
 260:D:/School/diseratie/SEMS/xmc4800_evaluation_kit/xmc4800_iot_kit/common/Libraries/XMCLib/src\xmc_ccu8.c **** #if (UC_SERIES == XMC14)
 261:D:/School/diseratie/SEMS/xmc4800_evaluation_kit/xmc4800_iot_kit/common/Libraries/XMCLib/src\xmc_ccu8.c ****   return (input < 48U);
 262:D:/School/diseratie/SEMS/xmc4800_evaluation_kit/xmc4800_iot_kit/common/Libraries/XMCLib/src\xmc_ccu8.c **** #else
 263:D:/School/diseratie/SEMS/xmc4800_evaluation_kit/xmc4800_iot_kit/common/Libraries/XMCLib/src\xmc_ccu8.c ****   return (input < 16U);
 264:D:/School/diseratie/SEMS/xmc4800_evaluation_kit/xmc4800_iot_kit/common/Libraries/XMCLib/src\xmc_ccu8.c **** #endif
 265:D:/School/diseratie/SEMS/xmc4800_evaluation_kit/xmc4800_iot_kit/common/Libraries/XMCLib/src\xmc_ccu8.c **** }
 266:D:/School/diseratie/SEMS/xmc4800_evaluation_kit/xmc4800_iot_kit/common/Libraries/XMCLib/src\xmc_ccu8.c **** #endif
 267:D:/School/diseratie/SEMS/xmc4800_evaluation_kit/xmc4800_iot_kit/common/Libraries/XMCLib/src\xmc_ccu8.c **** /**************************************************************************************************
 268:D:/School/diseratie/SEMS/xmc4800_evaluation_kit/xmc4800_iot_kit/common/Libraries/XMCLib/src\xmc_ccu8.c ****  * API IMPLEMENTATION
 269:D:/School/diseratie/SEMS/xmc4800_evaluation_kit/xmc4800_iot_kit/common/Libraries/XMCLib/src\xmc_ccu8.c ****  **************************************************************************************************
 270:D:/School/diseratie/SEMS/xmc4800_evaluation_kit/xmc4800_iot_kit/common/Libraries/XMCLib/src\xmc_ccu8.c **** 
 271:D:/School/diseratie/SEMS/xmc4800_evaluation_kit/xmc4800_iot_kit/common/Libraries/XMCLib/src\xmc_ccu8.c **** /* API to set the CCU8 module as active and enable the clock  */
 272:D:/School/diseratie/SEMS/xmc4800_evaluation_kit/xmc4800_iot_kit/common/Libraries/XMCLib/src\xmc_ccu8.c **** void XMC_CCU8_EnableModule(XMC_CCU8_MODULE_t *const module)
 273:D:/School/diseratie/SEMS/xmc4800_evaluation_kit/xmc4800_iot_kit/common/Libraries/XMCLib/src\xmc_ccu8.c **** {
  28              	 .loc 1 273 0
  29              	 .cfi_startproc
  30              	 
  31              	 
  32              	.LVL0:
  33 0000 10B5     	 push {r4,lr}
  34              	.LCFI0:
  35              	 .cfi_def_cfa_offset 8
  36              	 .cfi_offset 4,-8
  37              	 .cfi_offset 14,-4
  38              	 .loc 1 273 0
  39 0002 0446     	 mov r4,r0
 274:D:/School/diseratie/SEMS/xmc4800_evaluation_kit/xmc4800_iot_kit/common/Libraries/XMCLib/src\xmc_ccu8.c ****   XMC_ASSERT("XMC_CCU8_EnableModule:Invalid Module Pointer", XMC_CCU8_IsValidModule(module));
 275:D:/School/diseratie/SEMS/xmc4800_evaluation_kit/xmc4800_iot_kit/common/Libraries/XMCLib/src\xmc_ccu8.c **** 
 276:D:/School/diseratie/SEMS/xmc4800_evaluation_kit/xmc4800_iot_kit/common/Libraries/XMCLib/src\xmc_ccu8.c **** #if (UC_FAMILY == XMC4)
 277:D:/School/diseratie/SEMS/xmc4800_evaluation_kit/xmc4800_iot_kit/common/Libraries/XMCLib/src\xmc_ccu8.c ****   /* Enable CCU8 module clock */
 278:D:/School/diseratie/SEMS/xmc4800_evaluation_kit/xmc4800_iot_kit/common/Libraries/XMCLib/src\xmc_ccu8.c ****   XMC_SCU_CLOCK_EnableClock(XMC_SCU_CLOCK_CCU);
  40              	 .loc 1 278 0
  41 0004 1020     	 movs r0,#16
  42              	.LVL1:
  43 0006 FFF7FEFF 	 bl XMC_SCU_CLOCK_EnableClock
  44              	.LVL2:
  45              	.LBB14:
  46              	.LBB15:
 240:D:/School/diseratie/SEMS/xmc4800_evaluation_kit/xmc4800_iot_kit/common/Libraries/XMCLib/src\xmc_ccu8.c ****   {
  47              	 .loc 1 240 0
  48 000a 0C4B     	 ldr r3,.L8
  49 000c 9C42     	 cmp r4,r3
  50 000e 0DD0     	 beq .L6
 245:D:/School/diseratie/SEMS/xmc4800_evaluation_kit/xmc4800_iot_kit/common/Libraries/XMCLib/src\xmc_ccu8.c ****   {
  51              	 .loc 1 245 0
  52 0010 0B4B     	 ldr r3,.L8+4
  53 0012 9C42     	 cmp r4,r3
  54 0014 00D0     	 beq .L7
  55 0016 10BD     	 pop {r4,pc}
  56              	.LVL3:
  57              	.L7:
 247:D:/School/diseratie/SEMS/xmc4800_evaluation_kit/xmc4800_iot_kit/common/Libraries/XMCLib/src\xmc_ccu8.c ****   }
  58              	 .loc 1 247 0
  59 0018 4FF48070 	 mov r0,#256
  60 001c FFF7FEFF 	 bl XMC_SCU_CLOCK_UngatePeripheralClock
  61              	.LVL4:
  62              	.LBE15:
  63              	.LBE14:
  64              	.LBB17:
  65              	.LBB18:
 209:D:/School/diseratie/SEMS/xmc4800_evaluation_kit/xmc4800_iot_kit/common/Libraries/XMCLib/src\xmc_ccu8.c ****   }
  66              	 .loc 1 209 0
  67 0020 4FF48070 	 mov r0,#256
  68              	.LBE18:
  69              	.LBE17:
 279:D:/School/diseratie/SEMS/xmc4800_evaluation_kit/xmc4800_iot_kit/common/Libraries/XMCLib/src\xmc_ccu8.c **** #endif
 280:D:/School/diseratie/SEMS/xmc4800_evaluation_kit/xmc4800_iot_kit/common/Libraries/XMCLib/src\xmc_ccu8.c **** 
 281:D:/School/diseratie/SEMS/xmc4800_evaluation_kit/xmc4800_iot_kit/common/Libraries/XMCLib/src\xmc_ccu8.c **** #if defined(CLOCK_GATING_SUPPORTED)
 282:D:/School/diseratie/SEMS/xmc4800_evaluation_kit/xmc4800_iot_kit/common/Libraries/XMCLib/src\xmc_ccu8.c ****   XMC_CCU8_lUngateClock(module);
 283:D:/School/diseratie/SEMS/xmc4800_evaluation_kit/xmc4800_iot_kit/common/Libraries/XMCLib/src\xmc_ccu8.c **** #endif
 284:D:/School/diseratie/SEMS/xmc4800_evaluation_kit/xmc4800_iot_kit/common/Libraries/XMCLib/src\xmc_ccu8.c **** 
 285:D:/School/diseratie/SEMS/xmc4800_evaluation_kit/xmc4800_iot_kit/common/Libraries/XMCLib/src\xmc_ccu8.c **** #if defined(PERIPHERAL_RESET_SUPPORTED)
 286:D:/School/diseratie/SEMS/xmc4800_evaluation_kit/xmc4800_iot_kit/common/Libraries/XMCLib/src\xmc_ccu8.c ****   XMC_CCU8_lDeassertReset(module);
 287:D:/School/diseratie/SEMS/xmc4800_evaluation_kit/xmc4800_iot_kit/common/Libraries/XMCLib/src\xmc_ccu8.c **** #endif
 288:D:/School/diseratie/SEMS/xmc4800_evaluation_kit/xmc4800_iot_kit/common/Libraries/XMCLib/src\xmc_ccu8.c **** }
  70              	 .loc 1 288 0
  71 0024 BDE81040 	 pop {r4,lr}
  72              	.LCFI1:
  73              	 .cfi_remember_state
  74              	 .cfi_restore 14
  75              	 .cfi_restore 4
  76              	 .cfi_def_cfa_offset 0
  77              	.LVL5:
  78              	.LBB22:
  79              	.LBB19:
 209:D:/School/diseratie/SEMS/xmc4800_evaluation_kit/xmc4800_iot_kit/common/Libraries/XMCLib/src\xmc_ccu8.c ****   }
  80              	 .loc 1 209 0
  81 0028 FFF7FEBF 	 b XMC_SCU_RESET_DeassertPeripheralReset
  82              	.LVL6:
  83              	.L6:
  84              	.LCFI2:
  85              	 .cfi_restore_state
  86              	.LBE19:
  87              	.LBE22:
  88              	.LBB23:
  89              	.LBB16:
 242:D:/School/diseratie/SEMS/xmc4800_evaluation_kit/xmc4800_iot_kit/common/Libraries/XMCLib/src\xmc_ccu8.c ****   }
  90              	 .loc 1 242 0
  91 002c 8020     	 movs r0,#128
  92 002e FFF7FEFF 	 bl XMC_SCU_CLOCK_UngatePeripheralClock
  93              	.LVL7:
  94              	.LBE16:
  95              	.LBE23:
  96              	.LBB24:
  97              	.LBB20:
 204:D:/School/diseratie/SEMS/xmc4800_evaluation_kit/xmc4800_iot_kit/common/Libraries/XMCLib/src\xmc_ccu8.c ****   }
  98              	 .loc 1 204 0
  99 0032 8020     	 movs r0,#128
 100              	.LBE20:
 101              	.LBE24:
 102              	 .loc 1 288 0
 103 0034 BDE81040 	 pop {r4,lr}
 104              	.LCFI3:
 105              	 .cfi_restore 14
 106              	 .cfi_restore 4
 107              	 .cfi_def_cfa_offset 0
 108              	.LVL8:
 109              	.LBB25:
 110              	.LBB21:
 204:D:/School/diseratie/SEMS/xmc4800_evaluation_kit/xmc4800_iot_kit/common/Libraries/XMCLib/src\xmc_ccu8.c ****   }
 111              	 .loc 1 204 0
 112 0038 FFF7FEBF 	 b XMC_SCU_RESET_DeassertPeripheralReset
 113              	.LVL9:
 114              	.L9:
 115              	 .align 2
 116              	.L8:
 117 003c 00000240 	 .word 1073872896
 118 0040 00400240 	 .word 1073889280
 119              	.LBE21:
 120              	.LBE25:
 121              	 .cfi_endproc
 122              	.LFE232:
 124              	 .section .text.XMC_CCU8_DisableModule,"ax",%progbits
 125              	 .align 2
 126              	 .global XMC_CCU8_DisableModule
 127              	 .thumb
 128              	 .thumb_func
 130              	XMC_CCU8_DisableModule:
 131              	.LFB233:
 289:D:/School/diseratie/SEMS/xmc4800_evaluation_kit/xmc4800_iot_kit/common/Libraries/XMCLib/src\xmc_ccu8.c **** 
 290:D:/School/diseratie/SEMS/xmc4800_evaluation_kit/xmc4800_iot_kit/common/Libraries/XMCLib/src\xmc_ccu8.c **** /* API to set the CCU8 module as idle and disable the clock  */
 291:D:/School/diseratie/SEMS/xmc4800_evaluation_kit/xmc4800_iot_kit/common/Libraries/XMCLib/src\xmc_ccu8.c **** void XMC_CCU8_DisableModule(XMC_CCU8_MODULE_t *const module)
 292:D:/School/diseratie/SEMS/xmc4800_evaluation_kit/xmc4800_iot_kit/common/Libraries/XMCLib/src\xmc_ccu8.c **** {
 132              	 .loc 1 292 0
 133              	 .cfi_startproc
 134              	 
 135              	 
 136              	.LVL10:
 137 0000 08B5     	 push {r3,lr}
 138              	.LCFI4:
 139              	 .cfi_def_cfa_offset 8
 140              	 .cfi_offset 3,-8
 141              	 .cfi_offset 14,-4
 142              	.LBB30:
 143              	.LBB31:
 184:D:/School/diseratie/SEMS/xmc4800_evaluation_kit/xmc4800_iot_kit/common/Libraries/XMCLib/src\xmc_ccu8.c ****   {
 144              	 .loc 1 184 0
 145 0002 0C4B     	 ldr r3,.L16
 146              	.LVL11:
 147 0004 9842     	 cmp r0,r3
 148 0006 0DD0     	 beq .L14
 189:D:/School/diseratie/SEMS/xmc4800_evaluation_kit/xmc4800_iot_kit/common/Libraries/XMCLib/src\xmc_ccu8.c ****   {
 149              	 .loc 1 189 0
 150 0008 0B4B     	 ldr r3,.L16+4
 151 000a 9842     	 cmp r0,r3
 152 000c 00D0     	 beq .L15
 153 000e 08BD     	 pop {r3,pc}
 154              	.L15:
 191:D:/School/diseratie/SEMS/xmc4800_evaluation_kit/xmc4800_iot_kit/common/Libraries/XMCLib/src\xmc_ccu8.c ****   }
 155              	 .loc 1 191 0
 156 0010 4FF48070 	 mov r0,#256
 157              	.LVL12:
 158 0014 FFF7FEFF 	 bl XMC_SCU_RESET_AssertPeripheralReset
 159              	.LVL13:
 160              	.LBE31:
 161              	.LBE30:
 162              	.LBB33:
 163              	.LBB34:
 229:D:/School/diseratie/SEMS/xmc4800_evaluation_kit/xmc4800_iot_kit/common/Libraries/XMCLib/src\xmc_ccu8.c ****   }
 164              	 .loc 1 229 0
 165 0018 4FF48070 	 mov r0,#256
 166              	.LBE34:
 167              	.LBE33:
 293:D:/School/diseratie/SEMS/xmc4800_evaluation_kit/xmc4800_iot_kit/common/Libraries/XMCLib/src\xmc_ccu8.c ****   XMC_ASSERT("XMC_CCU8_DisableModule:Invalid Module Pointer", XMC_CCU8_IsValidModule(module));
 294:D:/School/diseratie/SEMS/xmc4800_evaluation_kit/xmc4800_iot_kit/common/Libraries/XMCLib/src\xmc_ccu8.c **** 
 295:D:/School/diseratie/SEMS/xmc4800_evaluation_kit/xmc4800_iot_kit/common/Libraries/XMCLib/src\xmc_ccu8.c **** #if defined(PERIPHERAL_RESET_SUPPORTED)
 296:D:/School/diseratie/SEMS/xmc4800_evaluation_kit/xmc4800_iot_kit/common/Libraries/XMCLib/src\xmc_ccu8.c ****   XMC_CCU8_lAssertReset(module);
 297:D:/School/diseratie/SEMS/xmc4800_evaluation_kit/xmc4800_iot_kit/common/Libraries/XMCLib/src\xmc_ccu8.c **** #endif
 298:D:/School/diseratie/SEMS/xmc4800_evaluation_kit/xmc4800_iot_kit/common/Libraries/XMCLib/src\xmc_ccu8.c **** 
 299:D:/School/diseratie/SEMS/xmc4800_evaluation_kit/xmc4800_iot_kit/common/Libraries/XMCLib/src\xmc_ccu8.c **** #if defined(CLOCK_GATING_SUPPORTED)
 300:D:/School/diseratie/SEMS/xmc4800_evaluation_kit/xmc4800_iot_kit/common/Libraries/XMCLib/src\xmc_ccu8.c ****   XMC_CCU8_lGateClock(module);
 301:D:/School/diseratie/SEMS/xmc4800_evaluation_kit/xmc4800_iot_kit/common/Libraries/XMCLib/src\xmc_ccu8.c **** #endif
 302:D:/School/diseratie/SEMS/xmc4800_evaluation_kit/xmc4800_iot_kit/common/Libraries/XMCLib/src\xmc_ccu8.c **** }
 168              	 .loc 1 302 0
 169 001c BDE80840 	 pop {r3,lr}
 170              	.LCFI5:
 171              	 .cfi_remember_state
 172              	 .cfi_restore 14
 173              	 .cfi_restore 3
 174              	 .cfi_def_cfa_offset 0
 175              	.LBB38:
 176              	.LBB35:
 229:D:/School/diseratie/SEMS/xmc4800_evaluation_kit/xmc4800_iot_kit/common/Libraries/XMCLib/src\xmc_ccu8.c ****   }
 177              	 .loc 1 229 0
 178 0020 FFF7FEBF 	 b XMC_SCU_CLOCK_GatePeripheralClock
 179              	.LVL14:
 180              	.L14:
 181              	.LCFI6:
 182              	 .cfi_restore_state
 183              	.LBE35:
 184              	.LBE38:
 185              	.LBB39:
 186              	.LBB32:
 186:D:/School/diseratie/SEMS/xmc4800_evaluation_kit/xmc4800_iot_kit/common/Libraries/XMCLib/src\xmc_ccu8.c ****   }
 187              	 .loc 1 186 0
 188 0024 8020     	 movs r0,#128
 189              	.LVL15:
 190 0026 FFF7FEFF 	 bl XMC_SCU_RESET_AssertPeripheralReset
 191              	.LVL16:
 192              	.LBE32:
 193              	.LBE39:
 194              	.LBB40:
 195              	.LBB36:
 224:D:/School/diseratie/SEMS/xmc4800_evaluation_kit/xmc4800_iot_kit/common/Libraries/XMCLib/src\xmc_ccu8.c ****   }
 196              	 .loc 1 224 0
 197 002a 8020     	 movs r0,#128
 198              	.LBE36:
 199              	.LBE40:
 200              	 .loc 1 302 0
 201 002c BDE80840 	 pop {r3,lr}
 202              	.LCFI7:
 203              	 .cfi_restore 14
 204              	 .cfi_restore 3
 205              	 .cfi_def_cfa_offset 0
 206              	.LBB41:
 207              	.LBB37:
 224:D:/School/diseratie/SEMS/xmc4800_evaluation_kit/xmc4800_iot_kit/common/Libraries/XMCLib/src\xmc_ccu8.c ****   }
 208              	 .loc 1 224 0
 209 0030 FFF7FEBF 	 b XMC_SCU_CLOCK_GatePeripheralClock
 210              	.LVL17:
 211              	.L17:
 212              	 .align 2
 213              	.L16:
 214 0034 00000240 	 .word 1073872896
 215 0038 00400240 	 .word 1073889280
 216              	.LBE37:
 217              	.LBE41:
 218              	 .cfi_endproc
 219              	.LFE233:
 221              	 .section .text.XMC_CCU8_Init,"ax",%progbits
 222              	 .align 2
 223              	 .global XMC_CCU8_Init
 224              	 .thumb
 225              	 .thumb_func
 227              	XMC_CCU8_Init:
 228              	.LFB234:
 303:D:/School/diseratie/SEMS/xmc4800_evaluation_kit/xmc4800_iot_kit/common/Libraries/XMCLib/src\xmc_ccu8.c **** 
 304:D:/School/diseratie/SEMS/xmc4800_evaluation_kit/xmc4800_iot_kit/common/Libraries/XMCLib/src\xmc_ccu8.c **** /* API to initialize CCU8 global resources  */
 305:D:/School/diseratie/SEMS/xmc4800_evaluation_kit/xmc4800_iot_kit/common/Libraries/XMCLib/src\xmc_ccu8.c **** void XMC_CCU8_Init(XMC_CCU8_MODULE_t *const module, const XMC_CCU8_SLICE_MCMS_ACTION_t mcs_action)
 306:D:/School/diseratie/SEMS/xmc4800_evaluation_kit/xmc4800_iot_kit/common/Libraries/XMCLib/src\xmc_ccu8.c **** {
 229              	 .loc 1 306 0
 230              	 .cfi_startproc
 231              	 
 232              	 
 233              	.LVL18:
 234 0000 38B5     	 push {r3,r4,r5,lr}
 235              	.LCFI8:
 236              	 .cfi_def_cfa_offset 16
 237              	 .cfi_offset 3,-16
 238              	 .cfi_offset 4,-12
 239              	 .cfi_offset 5,-8
 240              	 .cfi_offset 14,-4
 241              	 .loc 1 306 0
 242 0002 0446     	 mov r4,r0
 243              	.LVL19:
 244              	.LBB50:
 245              	.LBB51:
 278:D:/School/diseratie/SEMS/xmc4800_evaluation_kit/xmc4800_iot_kit/common/Libraries/XMCLib/src\xmc_ccu8.c **** #endif
 246              	 .loc 1 278 0
 247 0004 1020     	 movs r0,#16
 248              	.LVL20:
 249              	.LBE51:
 250              	.LBE50:
 251              	 .loc 1 306 0
 252 0006 0D46     	 mov r5,r1
 253              	.LBB64:
 254              	.LBB62:
 278:D:/School/diseratie/SEMS/xmc4800_evaluation_kit/xmc4800_iot_kit/common/Libraries/XMCLib/src\xmc_ccu8.c **** #endif
 255              	 .loc 1 278 0
 256 0008 FFF7FEFF 	 bl XMC_SCU_CLOCK_EnableClock
 257              	.LVL21:
 258              	.LBB52:
 259              	.LBB53:
 240:D:/School/diseratie/SEMS/xmc4800_evaluation_kit/xmc4800_iot_kit/common/Libraries/XMCLib/src\xmc_ccu8.c ****   {
 260              	 .loc 1 240 0
 261 000c 104B     	 ldr r3,.L24
 262 000e 9C42     	 cmp r4,r3
 263 0010 16D0     	 beq .L22
 245:D:/School/diseratie/SEMS/xmc4800_evaluation_kit/xmc4800_iot_kit/common/Libraries/XMCLib/src\xmc_ccu8.c ****   {
 264              	 .loc 1 245 0
 265 0012 104B     	 ldr r3,.L24+4
 266 0014 9C42     	 cmp r4,r3
 267 0016 0AD0     	 beq .L23
 268              	.L20:
 269              	.LVL22:
 270              	.LBE53:
 271              	.LBE52:
 272              	.LBE62:
 273              	.LBE64:
 274              	.LBB65:
 275              	.LBB66:
 276              	 .file 2 "D:/School/diseratie/SEMS/xmc4800_evaluation_kit/xmc4800_iot_kit/common/Libraries/XMCLib/inc/xmc_ccu8.h"
   1:D:/School/diseratie/SEMS/xmc4800_evaluation_kit/xmc4800_iot_kit/common/Libraries/XMCLib/inc\xmc_ccu8.h **** /**
   2:D:/School/diseratie/SEMS/xmc4800_evaluation_kit/xmc4800_iot_kit/common/Libraries/XMCLib/inc\xmc_ccu8.h ****  * @file xmc_ccu8.h
   3:D:/School/diseratie/SEMS/xmc4800_evaluation_kit/xmc4800_iot_kit/common/Libraries/XMCLib/inc\xmc_ccu8.h ****  * @date 2017-09-15
   4:D:/School/diseratie/SEMS/xmc4800_evaluation_kit/xmc4800_iot_kit/common/Libraries/XMCLib/inc\xmc_ccu8.h ****  *
   5:D:/School/diseratie/SEMS/xmc4800_evaluation_kit/xmc4800_iot_kit/common/Libraries/XMCLib/inc\xmc_ccu8.h ****  * @cond
   6:D:/School/diseratie/SEMS/xmc4800_evaluation_kit/xmc4800_iot_kit/common/Libraries/XMCLib/inc\xmc_ccu8.h ****  **************************************************************************************************
   7:D:/School/diseratie/SEMS/xmc4800_evaluation_kit/xmc4800_iot_kit/common/Libraries/XMCLib/inc\xmc_ccu8.h ****  * XMClib v2.1.20 - XMC Peripheral Driver Library 
   8:D:/School/diseratie/SEMS/xmc4800_evaluation_kit/xmc4800_iot_kit/common/Libraries/XMCLib/inc\xmc_ccu8.h ****  *
   9:D:/School/diseratie/SEMS/xmc4800_evaluation_kit/xmc4800_iot_kit/common/Libraries/XMCLib/inc\xmc_ccu8.h ****  * Copyright (c) 2015-2018, Infineon Technologies AG
  10:D:/School/diseratie/SEMS/xmc4800_evaluation_kit/xmc4800_iot_kit/common/Libraries/XMCLib/inc\xmc_ccu8.h ****  * All rights reserved.                        
  11:D:/School/diseratie/SEMS/xmc4800_evaluation_kit/xmc4800_iot_kit/common/Libraries/XMCLib/inc\xmc_ccu8.h ****  *                                             
  12:D:/School/diseratie/SEMS/xmc4800_evaluation_kit/xmc4800_iot_kit/common/Libraries/XMCLib/inc\xmc_ccu8.h ****  * Redistribution and use in source and binary forms, with or without modification,are permitted pr
  13:D:/School/diseratie/SEMS/xmc4800_evaluation_kit/xmc4800_iot_kit/common/Libraries/XMCLib/inc\xmc_ccu8.h ****  * following conditions are met:   
  14:D:/School/diseratie/SEMS/xmc4800_evaluation_kit/xmc4800_iot_kit/common/Libraries/XMCLib/inc\xmc_ccu8.h ****  *                                                                              
  15:D:/School/diseratie/SEMS/xmc4800_evaluation_kit/xmc4800_iot_kit/common/Libraries/XMCLib/inc\xmc_ccu8.h ****  * Redistributions of source code must retain the above copyright notice, this list of conditions a
  16:D:/School/diseratie/SEMS/xmc4800_evaluation_kit/xmc4800_iot_kit/common/Libraries/XMCLib/inc\xmc_ccu8.h ****  * disclaimer.                        
  17:D:/School/diseratie/SEMS/xmc4800_evaluation_kit/xmc4800_iot_kit/common/Libraries/XMCLib/inc\xmc_ccu8.h ****  * 
  18:D:/School/diseratie/SEMS/xmc4800_evaluation_kit/xmc4800_iot_kit/common/Libraries/XMCLib/inc\xmc_ccu8.h ****  * Redistributions in binary form must reproduce the above copyright notice, this list of condition
  19:D:/School/diseratie/SEMS/xmc4800_evaluation_kit/xmc4800_iot_kit/common/Libraries/XMCLib/inc\xmc_ccu8.h ****  * disclaimer in the documentation and/or other materials provided with the distribution.          
  20:D:/School/diseratie/SEMS/xmc4800_evaluation_kit/xmc4800_iot_kit/common/Libraries/XMCLib/inc\xmc_ccu8.h ****  * 
  21:D:/School/diseratie/SEMS/xmc4800_evaluation_kit/xmc4800_iot_kit/common/Libraries/XMCLib/inc\xmc_ccu8.h ****  * Neither the name of the copyright holders nor the names of its contributors may be used to endor
  22:D:/School/diseratie/SEMS/xmc4800_evaluation_kit/xmc4800_iot_kit/common/Libraries/XMCLib/inc\xmc_ccu8.h ****  * products derived from this software without specific prior written permission.                  
  23:D:/School/diseratie/SEMS/xmc4800_evaluation_kit/xmc4800_iot_kit/common/Libraries/XMCLib/inc\xmc_ccu8.h ****  *                                                                              
  24:D:/School/diseratie/SEMS/xmc4800_evaluation_kit/xmc4800_iot_kit/common/Libraries/XMCLib/inc\xmc_ccu8.h ****  * THIS SOFTWARE IS PROVIDED BY THE COPYRIGHT HOLDERS AND CONTRIBUTORS "AS IS" AND ANY EXPRESS OR I
  25:D:/School/diseratie/SEMS/xmc4800_evaluation_kit/xmc4800_iot_kit/common/Libraries/XMCLib/inc\xmc_ccu8.h ****  * INCLUDING, BUT NOT LIMITED TO, THE IMPLIED WARRANTIES OF MERCHANTABILITY AND FITNESS FOR A PARTI
  26:D:/School/diseratie/SEMS/xmc4800_evaluation_kit/xmc4800_iot_kit/common/Libraries/XMCLib/inc\xmc_ccu8.h ****  * DISCLAIMED. IN NO EVENT SHALL THE COPYRIGHT HOLDER OR CONTRIBUTORS BE LIABLE  FOR ANY DIRECT, IN
  27:D:/School/diseratie/SEMS/xmc4800_evaluation_kit/xmc4800_iot_kit/common/Libraries/XMCLib/inc\xmc_ccu8.h ****  * SPECIAL, EXEMPLARY, OR CONSEQUENTIAL DAMAGES (INCLUDING, BUT NOT LIMITED TO, PROCUREMENT OF SUBS
  28:D:/School/diseratie/SEMS/xmc4800_evaluation_kit/xmc4800_iot_kit/common/Libraries/XMCLib/inc\xmc_ccu8.h ****  * SERVICES; LOSS OF USE, DATA, OR PROFITS; OR BUSINESS INTERRUPTION) HOWEVER CAUSED AND ON ANY THE
  29:D:/School/diseratie/SEMS/xmc4800_evaluation_kit/xmc4800_iot_kit/common/Libraries/XMCLib/inc\xmc_ccu8.h ****  * WHETHER IN CONTRACT, STRICT LIABILITY,OR TORT (INCLUDING NEGLIGENCE OR OTHERWISE) ARISING IN ANY
  30:D:/School/diseratie/SEMS/xmc4800_evaluation_kit/xmc4800_iot_kit/common/Libraries/XMCLib/inc\xmc_ccu8.h ****  * OF THIS SOFTWARE, EVEN IF ADVISED OF THE POSSIBILITY OF SUCH DAMAGE.                            
  31:D:/School/diseratie/SEMS/xmc4800_evaluation_kit/xmc4800_iot_kit/common/Libraries/XMCLib/inc\xmc_ccu8.h ****  *                                                                              
  32:D:/School/diseratie/SEMS/xmc4800_evaluation_kit/xmc4800_iot_kit/common/Libraries/XMCLib/inc\xmc_ccu8.h ****  * To improve the quality of the software, users are encouraged to share modifications, enhancement
  33:D:/School/diseratie/SEMS/xmc4800_evaluation_kit/xmc4800_iot_kit/common/Libraries/XMCLib/inc\xmc_ccu8.h ****  * Infineon Technologies AG dave@infineon.com).                                                    
  34:D:/School/diseratie/SEMS/xmc4800_evaluation_kit/xmc4800_iot_kit/common/Libraries/XMCLib/inc\xmc_ccu8.h ****  **************************************************************************************************
  35:D:/School/diseratie/SEMS/xmc4800_evaluation_kit/xmc4800_iot_kit/common/Libraries/XMCLib/inc\xmc_ccu8.h ****  *
  36:D:/School/diseratie/SEMS/xmc4800_evaluation_kit/xmc4800_iot_kit/common/Libraries/XMCLib/inc\xmc_ccu8.h ****  * Change History
  37:D:/School/diseratie/SEMS/xmc4800_evaluation_kit/xmc4800_iot_kit/common/Libraries/XMCLib/inc\xmc_ccu8.h ****  * --------------
  38:D:/School/diseratie/SEMS/xmc4800_evaluation_kit/xmc4800_iot_kit/common/Libraries/XMCLib/inc\xmc_ccu8.h ****  *
  39:D:/School/diseratie/SEMS/xmc4800_evaluation_kit/xmc4800_iot_kit/common/Libraries/XMCLib/inc\xmc_ccu8.h ****  * 2015-02-20:
  40:D:/School/diseratie/SEMS/xmc4800_evaluation_kit/xmc4800_iot_kit/common/Libraries/XMCLib/inc\xmc_ccu8.h ****  *     - Initial <br>
  41:D:/School/diseratie/SEMS/xmc4800_evaluation_kit/xmc4800_iot_kit/common/Libraries/XMCLib/inc\xmc_ccu8.h ****  *     - Documentation updates <br>
  42:D:/School/diseratie/SEMS/xmc4800_evaluation_kit/xmc4800_iot_kit/common/Libraries/XMCLib/inc\xmc_ccu8.h ****  *
  43:D:/School/diseratie/SEMS/xmc4800_evaluation_kit/xmc4800_iot_kit/common/Libraries/XMCLib/inc\xmc_ccu8.h ****  * 2015-06-20:
  44:D:/School/diseratie/SEMS/xmc4800_evaluation_kit/xmc4800_iot_kit/common/Libraries/XMCLib/inc\xmc_ccu8.h ****  *     - Removed version macros and declaration of GetDriverVersion API <br>
  45:D:/School/diseratie/SEMS/xmc4800_evaluation_kit/xmc4800_iot_kit/common/Libraries/XMCLib/inc\xmc_ccu8.h ****  *     - Added XMC_CCU8_SLICE_LoadSelector() API, to select which compare register value has to be 
  46:D:/School/diseratie/SEMS/xmc4800_evaluation_kit/xmc4800_iot_kit/common/Libraries/XMCLib/inc\xmc_ccu8.h ****  *       during external load event.
  47:D:/School/diseratie/SEMS/xmc4800_evaluation_kit/xmc4800_iot_kit/common/Libraries/XMCLib/inc\xmc_ccu8.h ****  *
  48:D:/School/diseratie/SEMS/xmc4800_evaluation_kit/xmc4800_iot_kit/common/Libraries/XMCLib/inc\xmc_ccu8.h ****  * 2015-07-01:
  49:D:/School/diseratie/SEMS/xmc4800_evaluation_kit/xmc4800_iot_kit/common/Libraries/XMCLib/inc\xmc_ccu8.h ****  *     - In XMC_CCU8_SLICE_CHECK_INTERRUPT macro, fixed the missing item for compare match down for
  50:D:/School/diseratie/SEMS/xmc4800_evaluation_kit/xmc4800_iot_kit/common/Libraries/XMCLib/inc\xmc_ccu8.h ****  *
  51:D:/School/diseratie/SEMS/xmc4800_evaluation_kit/xmc4800_iot_kit/common/Libraries/XMCLib/inc\xmc_ccu8.h ****  * 2015-07-24:
  52:D:/School/diseratie/SEMS/xmc4800_evaluation_kit/xmc4800_iot_kit/common/Libraries/XMCLib/inc\xmc_ccu8.h ****  *     - XMC_CCU8_SLICE_ConfigureStatusBitOverrideEvent() is updated to support XMC14 device. <br>
  53:D:/School/diseratie/SEMS/xmc4800_evaluation_kit/xmc4800_iot_kit/common/Libraries/XMCLib/inc\xmc_ccu8.h ****  *
  54:D:/School/diseratie/SEMS/xmc4800_evaluation_kit/xmc4800_iot_kit/common/Libraries/XMCLib/inc\xmc_ccu8.h ****  * 2015-08-17:
  55:D:/School/diseratie/SEMS/xmc4800_evaluation_kit/xmc4800_iot_kit/common/Libraries/XMCLib/inc\xmc_ccu8.h ****  *     - XMC_CCU8_SLICE_PRESCALER_t enum is added to set the prescaler divider. <br>
  56:D:/School/diseratie/SEMS/xmc4800_evaluation_kit/xmc4800_iot_kit/common/Libraries/XMCLib/inc\xmc_ccu8.h ****  *     - XMC_CCU8_SLICE_SHADOW_TRANSFER_MODE_t is added for all the devices except XMC45 devices, t
  57:D:/School/diseratie/SEMS/xmc4800_evaluation_kit/xmc4800_iot_kit/common/Libraries/XMCLib/inc\xmc_ccu8.h ****  *       shadow transfer has to happen. <br>
  58:D:/School/diseratie/SEMS/xmc4800_evaluation_kit/xmc4800_iot_kit/common/Libraries/XMCLib/inc\xmc_ccu8.h ****  *     - XMC_CCU8_SOURCE_OUT0_t, XMC_CCU8_SOURCE_OUT1_t, XMC_CCU8_SOURCE_OUT2_t, XMC_CCU8_SOURCE_OU
  59:D:/School/diseratie/SEMS/xmc4800_evaluation_kit/xmc4800_iot_kit/common/Libraries/XMCLib/inc\xmc_ccu8.h ****  *       to maps one of the ST to OUT0, OUT1, OUT3, OUT4 signals.
  60:D:/School/diseratie/SEMS/xmc4800_evaluation_kit/xmc4800_iot_kit/common/Libraries/XMCLib/inc\xmc_ccu8.h ****  *     - In XMC_CCU8_SLICE_COMPARE_CONFIG_t structure, selector_out0, selector_out1, selector_out2,
  61:D:/School/diseratie/SEMS/xmc4800_evaluation_kit/xmc4800_iot_kit/common/Libraries/XMCLib/inc\xmc_ccu8.h ****  *       added to support XMC14 devices.
  62:D:/School/diseratie/SEMS/xmc4800_evaluation_kit/xmc4800_iot_kit/common/Libraries/XMCLib/inc\xmc_ccu8.h ****  *     - XMC_CCU8_EnableShadowTransfer() API is made as inline, to improve the speed. <br>
  63:D:/School/diseratie/SEMS/xmc4800_evaluation_kit/xmc4800_iot_kit/common/Libraries/XMCLib/inc\xmc_ccu8.h ****  *     - XMC_CCU8_SLICE_EnableCascadedShadowTransfer(), XMC_CCU8_SLICE_DisableCascadedShadowTransfe
  64:D:/School/diseratie/SEMS/xmc4800_evaluation_kit/xmc4800_iot_kit/common/Libraries/XMCLib/inc\xmc_ccu8.h ****  *       XMC_CCU8_SLICE_SetShadowTransferMode() API are supported for all the devices except XMC45.
  65:D:/School/diseratie/SEMS/xmc4800_evaluation_kit/xmc4800_iot_kit/common/Libraries/XMCLib/inc\xmc_ccu8.h ****  *
  66:D:/School/diseratie/SEMS/xmc4800_evaluation_kit/xmc4800_iot_kit/common/Libraries/XMCLib/inc\xmc_ccu8.h ****  * 2015-09-29:
  67:D:/School/diseratie/SEMS/xmc4800_evaluation_kit/xmc4800_iot_kit/common/Libraries/XMCLib/inc\xmc_ccu8.h ****  *     - In XMC_CCU8_SLICE_EVENT_LEVEL_SENSITIVITY_t, two more enum items are added to support exte
  68:D:/School/diseratie/SEMS/xmc4800_evaluation_kit/xmc4800_iot_kit/common/Libraries/XMCLib/inc\xmc_ccu8.h ****  *       settings.
  69:D:/School/diseratie/SEMS/xmc4800_evaluation_kit/xmc4800_iot_kit/common/Libraries/XMCLib/inc\xmc_ccu8.h ****  *
  70:D:/School/diseratie/SEMS/xmc4800_evaluation_kit/xmc4800_iot_kit/common/Libraries/XMCLib/inc\xmc_ccu8.h ****  * 2015-10-07:
  71:D:/School/diseratie/SEMS/xmc4800_evaluation_kit/xmc4800_iot_kit/common/Libraries/XMCLib/inc\xmc_ccu8.h ****  *     - XMC_CCU8_SLICE_SetTimerCompareMatchChannel1(), XMC_CCU8_SLICE_SetTimerCompareMatchChannel2
  72:D:/School/diseratie/SEMS/xmc4800_evaluation_kit/xmc4800_iot_kit/common/Libraries/XMCLib/inc\xmc_ccu8.h ****  *       added to update the respective compare registers directly.
  73:D:/School/diseratie/SEMS/xmc4800_evaluation_kit/xmc4800_iot_kit/common/Libraries/XMCLib/inc\xmc_ccu8.h ****  *     - XMC_CCU8_SLICE_GetEvent() is made as inline.
  74:D:/School/diseratie/SEMS/xmc4800_evaluation_kit/xmc4800_iot_kit/common/Libraries/XMCLib/inc\xmc_ccu8.h ****  *     - XMC_CCU8_SLICE_MULTI_IRQ_ID_t is added to support the XMC_CCU8_SLICE_EnableMultipleEvents(
  75:D:/School/diseratie/SEMS/xmc4800_evaluation_kit/xmc4800_iot_kit/common/Libraries/XMCLib/inc\xmc_ccu8.h ****  *       XMC_CCU8_SLICE_DisableMultipleEvents() APIs.
  76:D:/School/diseratie/SEMS/xmc4800_evaluation_kit/xmc4800_iot_kit/common/Libraries/XMCLib/inc\xmc_ccu8.h ****  *     - DOC updates for the newly added APIs.
  77:D:/School/diseratie/SEMS/xmc4800_evaluation_kit/xmc4800_iot_kit/common/Libraries/XMCLib/inc\xmc_ccu8.h ****  *
  78:D:/School/diseratie/SEMS/xmc4800_evaluation_kit/xmc4800_iot_kit/common/Libraries/XMCLib/inc\xmc_ccu8.h ****  * 2016-03-09:
  79:D:/School/diseratie/SEMS/xmc4800_evaluation_kit/xmc4800_iot_kit/common/Libraries/XMCLib/inc\xmc_ccu8.h ****  *     - Optimization of write only registers
  80:D:/School/diseratie/SEMS/xmc4800_evaluation_kit/xmc4800_iot_kit/common/Libraries/XMCLib/inc\xmc_ccu8.h ****  *
  81:D:/School/diseratie/SEMS/xmc4800_evaluation_kit/xmc4800_iot_kit/common/Libraries/XMCLib/inc\xmc_ccu8.h ****  * 2016-05-20:
  82:D:/School/diseratie/SEMS/xmc4800_evaluation_kit/xmc4800_iot_kit/common/Libraries/XMCLib/inc\xmc_ccu8.h ****  *     - Added XMC_CCU8_SLICE_StopClearTimer()
  83:D:/School/diseratie/SEMS/xmc4800_evaluation_kit/xmc4800_iot_kit/common/Libraries/XMCLib/inc\xmc_ccu8.h ****  *     - Changed XMC_CCU8_SLICE_StopTimer() and XMC_CCU8_SLICE_ClearTimer() 
  84:D:/School/diseratie/SEMS/xmc4800_evaluation_kit/xmc4800_iot_kit/common/Libraries/XMCLib/inc\xmc_ccu8.h ****  *
  85:D:/School/diseratie/SEMS/xmc4800_evaluation_kit/xmc4800_iot_kit/common/Libraries/XMCLib/inc\xmc_ccu8.h ****  * 2017-04-27:
  86:D:/School/diseratie/SEMS/xmc4800_evaluation_kit/xmc4800_iot_kit/common/Libraries/XMCLib/inc\xmc_ccu8.h ****  *     - XMC_CCU8_SLICE_SetPrescaler() changed div_val parameter to type XMC_CCU8_SLICE_PRESCALER_t
  87:D:/School/diseratie/SEMS/xmc4800_evaluation_kit/xmc4800_iot_kit/common/Libraries/XMCLib/inc\xmc_ccu8.h ****  *
  88:D:/School/diseratie/SEMS/xmc4800_evaluation_kit/xmc4800_iot_kit/common/Libraries/XMCLib/inc\xmc_ccu8.h ****  * 2017-09-15:
  89:D:/School/diseratie/SEMS/xmc4800_evaluation_kit/xmc4800_iot_kit/common/Libraries/XMCLib/inc\xmc_ccu8.h ****  *     - Fix XMC_CCU8_SLICE_SetShadowTransferMode()
  90:D:/School/diseratie/SEMS/xmc4800_evaluation_kit/xmc4800_iot_kit/common/Libraries/XMCLib/inc\xmc_ccu8.h ****  *     - Added parity checking functionality
  91:D:/School/diseratie/SEMS/xmc4800_evaluation_kit/xmc4800_iot_kit/common/Libraries/XMCLib/inc\xmc_ccu8.h ****  *
  92:D:/School/diseratie/SEMS/xmc4800_evaluation_kit/xmc4800_iot_kit/common/Libraries/XMCLib/inc\xmc_ccu8.h ****  * @endcond
  93:D:/School/diseratie/SEMS/xmc4800_evaluation_kit/xmc4800_iot_kit/common/Libraries/XMCLib/inc\xmc_ccu8.h ****  */
  94:D:/School/diseratie/SEMS/xmc4800_evaluation_kit/xmc4800_iot_kit/common/Libraries/XMCLib/inc\xmc_ccu8.h **** 
  95:D:/School/diseratie/SEMS/xmc4800_evaluation_kit/xmc4800_iot_kit/common/Libraries/XMCLib/inc\xmc_ccu8.h **** #ifndef XMC_CCU8_H
  96:D:/School/diseratie/SEMS/xmc4800_evaluation_kit/xmc4800_iot_kit/common/Libraries/XMCLib/inc\xmc_ccu8.h **** #define XMC_CCU8_H
  97:D:/School/diseratie/SEMS/xmc4800_evaluation_kit/xmc4800_iot_kit/common/Libraries/XMCLib/inc\xmc_ccu8.h **** 
  98:D:/School/diseratie/SEMS/xmc4800_evaluation_kit/xmc4800_iot_kit/common/Libraries/XMCLib/inc\xmc_ccu8.h **** /**************************************************************************************************
  99:D:/School/diseratie/SEMS/xmc4800_evaluation_kit/xmc4800_iot_kit/common/Libraries/XMCLib/inc\xmc_ccu8.h ****  * HEADER FILES
 100:D:/School/diseratie/SEMS/xmc4800_evaluation_kit/xmc4800_iot_kit/common/Libraries/XMCLib/inc\xmc_ccu8.h ****  **************************************************************************************************
 101:D:/School/diseratie/SEMS/xmc4800_evaluation_kit/xmc4800_iot_kit/common/Libraries/XMCLib/inc\xmc_ccu8.h **** #include "xmc_common.h"
 102:D:/School/diseratie/SEMS/xmc4800_evaluation_kit/xmc4800_iot_kit/common/Libraries/XMCLib/inc\xmc_ccu8.h **** 
 103:D:/School/diseratie/SEMS/xmc4800_evaluation_kit/xmc4800_iot_kit/common/Libraries/XMCLib/inc\xmc_ccu8.h **** #if defined(CCU80)
 104:D:/School/diseratie/SEMS/xmc4800_evaluation_kit/xmc4800_iot_kit/common/Libraries/XMCLib/inc\xmc_ccu8.h **** 
 105:D:/School/diseratie/SEMS/xmc4800_evaluation_kit/xmc4800_iot_kit/common/Libraries/XMCLib/inc\xmc_ccu8.h **** #if UC_FAMILY == XMC1
 106:D:/School/diseratie/SEMS/xmc4800_evaluation_kit/xmc4800_iot_kit/common/Libraries/XMCLib/inc\xmc_ccu8.h ****  #include "xmc1_ccu8_map.h"
 107:D:/School/diseratie/SEMS/xmc4800_evaluation_kit/xmc4800_iot_kit/common/Libraries/XMCLib/inc\xmc_ccu8.h **** #endif
 108:D:/School/diseratie/SEMS/xmc4800_evaluation_kit/xmc4800_iot_kit/common/Libraries/XMCLib/inc\xmc_ccu8.h **** 
 109:D:/School/diseratie/SEMS/xmc4800_evaluation_kit/xmc4800_iot_kit/common/Libraries/XMCLib/inc\xmc_ccu8.h **** #if UC_FAMILY == XMC4
 110:D:/School/diseratie/SEMS/xmc4800_evaluation_kit/xmc4800_iot_kit/common/Libraries/XMCLib/inc\xmc_ccu8.h ****  #include "xmc4_ccu8_map.h"
 111:D:/School/diseratie/SEMS/xmc4800_evaluation_kit/xmc4800_iot_kit/common/Libraries/XMCLib/inc\xmc_ccu8.h **** #endif
 112:D:/School/diseratie/SEMS/xmc4800_evaluation_kit/xmc4800_iot_kit/common/Libraries/XMCLib/inc\xmc_ccu8.h **** 
 113:D:/School/diseratie/SEMS/xmc4800_evaluation_kit/xmc4800_iot_kit/common/Libraries/XMCLib/inc\xmc_ccu8.h **** /**
 114:D:/School/diseratie/SEMS/xmc4800_evaluation_kit/xmc4800_iot_kit/common/Libraries/XMCLib/inc\xmc_ccu8.h ****  * @addtogroup XMClib XMC Peripheral Library
 115:D:/School/diseratie/SEMS/xmc4800_evaluation_kit/xmc4800_iot_kit/common/Libraries/XMCLib/inc\xmc_ccu8.h ****  * @{
 116:D:/School/diseratie/SEMS/xmc4800_evaluation_kit/xmc4800_iot_kit/common/Libraries/XMCLib/inc\xmc_ccu8.h ****  */
 117:D:/School/diseratie/SEMS/xmc4800_evaluation_kit/xmc4800_iot_kit/common/Libraries/XMCLib/inc\xmc_ccu8.h **** 
 118:D:/School/diseratie/SEMS/xmc4800_evaluation_kit/xmc4800_iot_kit/common/Libraries/XMCLib/inc\xmc_ccu8.h **** /**
 119:D:/School/diseratie/SEMS/xmc4800_evaluation_kit/xmc4800_iot_kit/common/Libraries/XMCLib/inc\xmc_ccu8.h ****  * @addtogroup CCU8
 120:D:/School/diseratie/SEMS/xmc4800_evaluation_kit/xmc4800_iot_kit/common/Libraries/XMCLib/inc\xmc_ccu8.h ****  *
 121:D:/School/diseratie/SEMS/xmc4800_evaluation_kit/xmc4800_iot_kit/common/Libraries/XMCLib/inc\xmc_ccu8.h ****  * @brief Capture Compare Unit 8 (CCU8) low level driver for XMC family of microcontrollers<br>
 122:D:/School/diseratie/SEMS/xmc4800_evaluation_kit/xmc4800_iot_kit/common/Libraries/XMCLib/inc\xmc_ccu8.h ****  *
 123:D:/School/diseratie/SEMS/xmc4800_evaluation_kit/xmc4800_iot_kit/common/Libraries/XMCLib/inc\xmc_ccu8.h ****  * The CCU8 peripheral functions play a major role in applications that need complex Pulse Width Mo
 124:D:/School/diseratie/SEMS/xmc4800_evaluation_kit/xmc4800_iot_kit/common/Libraries/XMCLib/inc\xmc_ccu8.h ****  * generation, with complementary high side and low side switches, multi phase control. These funct
 125:D:/School/diseratie/SEMS/xmc4800_evaluation_kit/xmc4800_iot_kit/common/Libraries/XMCLib/inc\xmc_ccu8.h ****  * with a very flexible and programmable signal conditioning scheme, make the CCU8 the must have pe
 126:D:/School/diseratie/SEMS/xmc4800_evaluation_kit/xmc4800_iot_kit/common/Libraries/XMCLib/inc\xmc_ccu8.h ****  * of the art motor control, multi phase and multi level power electronics systems.\n
 127:D:/School/diseratie/SEMS/xmc4800_evaluation_kit/xmc4800_iot_kit/common/Libraries/XMCLib/inc\xmc_ccu8.h ****  * Each CCU8 module is comprised of four identical 16 bit Capture/Compare Timer slices, CC8y (where
 128:D:/School/diseratie/SEMS/xmc4800_evaluation_kit/xmc4800_iot_kit/common/Libraries/XMCLib/inc\xmc_ccu8.h ****  * timer slice can work in compare mode or in capture mode.
 129:D:/School/diseratie/SEMS/xmc4800_evaluation_kit/xmc4800_iot_kit/common/Libraries/XMCLib/inc\xmc_ccu8.h ****  *
 130:D:/School/diseratie/SEMS/xmc4800_evaluation_kit/xmc4800_iot_kit/common/Libraries/XMCLib/inc\xmc_ccu8.h ****  * APIs provided in this file cover the following functional blocks of CCU8:
 131:D:/School/diseratie/SEMS/xmc4800_evaluation_kit/xmc4800_iot_kit/common/Libraries/XMCLib/inc\xmc_ccu8.h ****  * -- Timer configuration, Capture configuration, Function/Event configuration, Interrupt configura
 132:D:/School/diseratie/SEMS/xmc4800_evaluation_kit/xmc4800_iot_kit/common/Libraries/XMCLib/inc\xmc_ccu8.h ****  * \par Note:
 133:D:/School/diseratie/SEMS/xmc4800_evaluation_kit/xmc4800_iot_kit/common/Libraries/XMCLib/inc\xmc_ccu8.h ****  * 1. SLICE (APIs prefixed with e.g. XMC_CCU8_SLICE_)
 134:D:/School/diseratie/SEMS/xmc4800_evaluation_kit/xmc4800_iot_kit/common/Libraries/XMCLib/inc\xmc_ccu8.h ****  * 2. Module (APIs are not having any prefix e.g. XMC_CCU8_)
 135:D:/School/diseratie/SEMS/xmc4800_evaluation_kit/xmc4800_iot_kit/common/Libraries/XMCLib/inc\xmc_ccu8.h ****  *
 136:D:/School/diseratie/SEMS/xmc4800_evaluation_kit/xmc4800_iot_kit/common/Libraries/XMCLib/inc\xmc_ccu8.h ****  * \par Timer(Compare mode) configuration:
 137:D:/School/diseratie/SEMS/xmc4800_evaluation_kit/xmc4800_iot_kit/common/Libraries/XMCLib/inc\xmc_ccu8.h ****  * This section of the LLD provides the configuration structure XMC_CCU8_SLICE_COMPARE_CONFIG_t, 
 138:D:/School/diseratie/SEMS/xmc4800_evaluation_kit/xmc4800_iot_kit/common/Libraries/XMCLib/inc\xmc_ccu8.h ****  * XMC_CCU8_SLICE_DEAD_TIME_CONFIG_t and the initialization functions XMC_CCU8_SLICE_CompareInit(),
 139:D:/School/diseratie/SEMS/xmc4800_evaluation_kit/xmc4800_iot_kit/common/Libraries/XMCLib/inc\xmc_ccu8.h ****  *
 140:D:/School/diseratie/SEMS/xmc4800_evaluation_kit/xmc4800_iot_kit/common/Libraries/XMCLib/inc\xmc_ccu8.h ****  * It can be used to:
 141:D:/School/diseratie/SEMS/xmc4800_evaluation_kit/xmc4800_iot_kit/common/Libraries/XMCLib/inc\xmc_ccu8.h ****  * -# Start and Stop the timer. (XMC_CCU8_SLICE_StartTimer(), XMC_CCU8_SLICE_StopTimer())
 142:D:/School/diseratie/SEMS/xmc4800_evaluation_kit/xmc4800_iot_kit/common/Libraries/XMCLib/inc\xmc_ccu8.h ****  * -# Update the period, compare, Dither, Prescaler  and Passive values. (XMC_CCU8_SLICE_SetTimerPe
 143:D:/School/diseratie/SEMS/xmc4800_evaluation_kit/xmc4800_iot_kit/common/Libraries/XMCLib/inc\xmc_ccu8.h ****  *    XMC_CCU8_SLICE_SetTimerCompareMatch(), XMC_CCU8_SLICE_SetPrescaler(), XMC_CCU8_SLICE_SetDithe
 144:D:/School/diseratie/SEMS/xmc4800_evaluation_kit/xmc4800_iot_kit/common/Libraries/XMCLib/inc\xmc_ccu8.h ****  *    XMC_CCU8_SLICE_SetPassiveLevel())
 145:D:/School/diseratie/SEMS/xmc4800_evaluation_kit/xmc4800_iot_kit/common/Libraries/XMCLib/inc\xmc_ccu8.h ****  * -# Configure the dead time.(XMC_CCU8_SLICE_SetDeadTimeValue(), XMC_CCU8_SLICE_SetDeadTimePrescal
 146:D:/School/diseratie/SEMS/xmc4800_evaluation_kit/xmc4800_iot_kit/common/Libraries/XMCLib/inc\xmc_ccu8.h ****  * -# Enable the slices to support multichannel mode. (XMC_CCU8_SLICE_EnableMultiChannelMode())
 147:D:/School/diseratie/SEMS/xmc4800_evaluation_kit/xmc4800_iot_kit/common/Libraries/XMCLib/inc\xmc_ccu8.h ****  * 
 148:D:/School/diseratie/SEMS/xmc4800_evaluation_kit/xmc4800_iot_kit/common/Libraries/XMCLib/inc\xmc_ccu8.h ****  * \par Capture configuration:
 149:D:/School/diseratie/SEMS/xmc4800_evaluation_kit/xmc4800_iot_kit/common/Libraries/XMCLib/inc\xmc_ccu8.h ****  * This section of the LLD provides the configuration structure XMC_CCU8_SLICE_CAPTURE_CONFIG_t and
 150:D:/School/diseratie/SEMS/xmc4800_evaluation_kit/xmc4800_iot_kit/common/Libraries/XMCLib/inc\xmc_ccu8.h ****  * function XMC_CCU8_SLICE_CaptureInit().
 151:D:/School/diseratie/SEMS/xmc4800_evaluation_kit/xmc4800_iot_kit/common/Libraries/XMCLib/inc\xmc_ccu8.h ****  *
 152:D:/School/diseratie/SEMS/xmc4800_evaluation_kit/xmc4800_iot_kit/common/Libraries/XMCLib/inc\xmc_ccu8.h ****  * It can be used to:
 153:D:/School/diseratie/SEMS/xmc4800_evaluation_kit/xmc4800_iot_kit/common/Libraries/XMCLib/inc\xmc_ccu8.h ****  * -# Configure the capture functionality. (XMC_CCU8_SLICE_Capture0Config(), XMC_CCU8_SLICE_Capture
 154:D:/School/diseratie/SEMS/xmc4800_evaluation_kit/xmc4800_iot_kit/common/Libraries/XMCLib/inc\xmc_ccu8.h ****  * -# Read the captured values along with the status, which indicate the value is latest or not.
 155:D:/School/diseratie/SEMS/xmc4800_evaluation_kit/xmc4800_iot_kit/common/Libraries/XMCLib/inc\xmc_ccu8.h ****  *    (XMC_CCU8_SLICE_GetCaptureRegisterValue())
 156:D:/School/diseratie/SEMS/xmc4800_evaluation_kit/xmc4800_iot_kit/common/Libraries/XMCLib/inc\xmc_ccu8.h ****  * 
 157:D:/School/diseratie/SEMS/xmc4800_evaluation_kit/xmc4800_iot_kit/common/Libraries/XMCLib/inc\xmc_ccu8.h ****  * \par Function/Event configuration:
 158:D:/School/diseratie/SEMS/xmc4800_evaluation_kit/xmc4800_iot_kit/common/Libraries/XMCLib/inc\xmc_ccu8.h ****  * This section of the LLD provides the configuration structure XMC_CCU8_SLICE_EVENT_CONFIG_t.
 159:D:/School/diseratie/SEMS/xmc4800_evaluation_kit/xmc4800_iot_kit/common/Libraries/XMCLib/inc\xmc_ccu8.h ****  * 
 160:D:/School/diseratie/SEMS/xmc4800_evaluation_kit/xmc4800_iot_kit/common/Libraries/XMCLib/inc\xmc_ccu8.h ****  * It can be used to:
 161:D:/School/diseratie/SEMS/xmc4800_evaluation_kit/xmc4800_iot_kit/common/Libraries/XMCLib/inc\xmc_ccu8.h ****  * -# Enable and Disable the events. (XMC_CCU8_SLICE_EnableEvent(), XMC_CCU8_SLICE_DisableEvent())
 162:D:/School/diseratie/SEMS/xmc4800_evaluation_kit/xmc4800_iot_kit/common/Libraries/XMCLib/inc\xmc_ccu8.h ****  * -# Configure to start and stop the timer on external events.(XMC_CCU8_SLICE_StartConfig(), XMC_C
 163:D:/School/diseratie/SEMS/xmc4800_evaluation_kit/xmc4800_iot_kit/common/Libraries/XMCLib/inc\xmc_ccu8.h ****  * -# Modulation, external load and Gating of the timer output.(XMC_CCU8_SLICE_ModulationConfig(), 
 164:D:/School/diseratie/SEMS/xmc4800_evaluation_kit/xmc4800_iot_kit/common/Libraries/XMCLib/inc\xmc_ccu8.h ****  *    XMC_CCU8_SLICE_LoadConfig(), XMC_CCU8_SLICE_GateConfig())
 165:D:/School/diseratie/SEMS/xmc4800_evaluation_kit/xmc4800_iot_kit/common/Libraries/XMCLib/inc\xmc_ccu8.h ****  * -# Control the count direction of the timer based on the external event. (XMC_CCU8_SLICE_Directi
 166:D:/School/diseratie/SEMS/xmc4800_evaluation_kit/xmc4800_iot_kit/common/Libraries/XMCLib/inc\xmc_ccu8.h ****  * -# Count the external events.(XMC_CCU8_SLICE_CountConfig())
 167:D:/School/diseratie/SEMS/xmc4800_evaluation_kit/xmc4800_iot_kit/common/Libraries/XMCLib/inc\xmc_ccu8.h ****  * -# External Trap. Which can be used as protective feature.(XMC_CCU8_SLICE_EnableTrap(), XMC_CCU8
 168:D:/School/diseratie/SEMS/xmc4800_evaluation_kit/xmc4800_iot_kit/common/Libraries/XMCLib/inc\xmc_ccu8.h ****  *    XMC_CCU8_SLICE_TrapConfig())
 169:D:/School/diseratie/SEMS/xmc4800_evaluation_kit/xmc4800_iot_kit/common/Libraries/XMCLib/inc\xmc_ccu8.h ****  *
 170:D:/School/diseratie/SEMS/xmc4800_evaluation_kit/xmc4800_iot_kit/common/Libraries/XMCLib/inc\xmc_ccu8.h ****  * \par Interrupt configuration:
 171:D:/School/diseratie/SEMS/xmc4800_evaluation_kit/xmc4800_iot_kit/common/Libraries/XMCLib/inc\xmc_ccu8.h ****  * This section of the LLD provides the function to configure the interrupt node to each event (XMC
 172:D:/School/diseratie/SEMS/xmc4800_evaluation_kit/xmc4800_iot_kit/common/Libraries/XMCLib/inc\xmc_ccu8.h ****  *
 173:D:/School/diseratie/SEMS/xmc4800_evaluation_kit/xmc4800_iot_kit/common/Libraries/XMCLib/inc\xmc_ccu8.h ****  * @{
 174:D:/School/diseratie/SEMS/xmc4800_evaluation_kit/xmc4800_iot_kit/common/Libraries/XMCLib/inc\xmc_ccu8.h ****  */
 175:D:/School/diseratie/SEMS/xmc4800_evaluation_kit/xmc4800_iot_kit/common/Libraries/XMCLib/inc\xmc_ccu8.h **** 
 176:D:/School/diseratie/SEMS/xmc4800_evaluation_kit/xmc4800_iot_kit/common/Libraries/XMCLib/inc\xmc_ccu8.h **** /**************************************************************************************************
 177:D:/School/diseratie/SEMS/xmc4800_evaluation_kit/xmc4800_iot_kit/common/Libraries/XMCLib/inc\xmc_ccu8.h ****  * MACROS
 178:D:/School/diseratie/SEMS/xmc4800_evaluation_kit/xmc4800_iot_kit/common/Libraries/XMCLib/inc\xmc_ccu8.h ****  **************************************************************************************************
 179:D:/School/diseratie/SEMS/xmc4800_evaluation_kit/xmc4800_iot_kit/common/Libraries/XMCLib/inc\xmc_ccu8.h **** #define XMC_CCU8_SLICE_CHECK_INTERRUPT(interrupt) \
 180:D:/School/diseratie/SEMS/xmc4800_evaluation_kit/xmc4800_iot_kit/common/Libraries/XMCLib/inc\xmc_ccu8.h ****     ((interrupt == XMC_CCU8_SLICE_IRQ_ID_PERIOD_MATCH)           || \
 181:D:/School/diseratie/SEMS/xmc4800_evaluation_kit/xmc4800_iot_kit/common/Libraries/XMCLib/inc\xmc_ccu8.h ****      (interrupt == XMC_CCU8_SLICE_IRQ_ID_ONE_MATCH)              || \
 182:D:/School/diseratie/SEMS/xmc4800_evaluation_kit/xmc4800_iot_kit/common/Libraries/XMCLib/inc\xmc_ccu8.h ****      (interrupt == XMC_CCU8_SLICE_IRQ_ID_COMPARE_MATCH_UP_CH_1)  || \
 183:D:/School/diseratie/SEMS/xmc4800_evaluation_kit/xmc4800_iot_kit/common/Libraries/XMCLib/inc\xmc_ccu8.h ****      (interrupt == XMC_CCU8_SLICE_IRQ_ID_COMPARE_MATCH_DOWN_CH_1)|| \
 184:D:/School/diseratie/SEMS/xmc4800_evaluation_kit/xmc4800_iot_kit/common/Libraries/XMCLib/inc\xmc_ccu8.h ****      (interrupt == XMC_CCU8_SLICE_IRQ_ID_COMPARE_MATCH_UP_CH_2)  || \
 185:D:/School/diseratie/SEMS/xmc4800_evaluation_kit/xmc4800_iot_kit/common/Libraries/XMCLib/inc\xmc_ccu8.h ****      (interrupt == XMC_CCU8_SLICE_IRQ_ID_COMPARE_MATCH_DOWN_CH_2)|| \
 186:D:/School/diseratie/SEMS/xmc4800_evaluation_kit/xmc4800_iot_kit/common/Libraries/XMCLib/inc\xmc_ccu8.h ****      (interrupt == XMC_CCU8_SLICE_IRQ_ID_EVENT0)                 || \
 187:D:/School/diseratie/SEMS/xmc4800_evaluation_kit/xmc4800_iot_kit/common/Libraries/XMCLib/inc\xmc_ccu8.h ****      (interrupt == XMC_CCU8_SLICE_IRQ_ID_EVENT1)                 || \
 188:D:/School/diseratie/SEMS/xmc4800_evaluation_kit/xmc4800_iot_kit/common/Libraries/XMCLib/inc\xmc_ccu8.h ****      (interrupt == XMC_CCU8_SLICE_IRQ_ID_EVENT2)                 || \
 189:D:/School/diseratie/SEMS/xmc4800_evaluation_kit/xmc4800_iot_kit/common/Libraries/XMCLib/inc\xmc_ccu8.h ****      (interrupt == XMC_CCU8_SLICE_IRQ_ID_TRAP))
 190:D:/School/diseratie/SEMS/xmc4800_evaluation_kit/xmc4800_iot_kit/common/Libraries/XMCLib/inc\xmc_ccu8.h ****      
 191:D:/School/diseratie/SEMS/xmc4800_evaluation_kit/xmc4800_iot_kit/common/Libraries/XMCLib/inc\xmc_ccu8.h **** /* Macro to check if the slice ptr passed is valid */
 192:D:/School/diseratie/SEMS/xmc4800_evaluation_kit/xmc4800_iot_kit/common/Libraries/XMCLib/inc\xmc_ccu8.h **** #define XMC_CCU8_SLICE_CHECK_COMP_CHANNEL(cmp_channel) \
 193:D:/School/diseratie/SEMS/xmc4800_evaluation_kit/xmc4800_iot_kit/common/Libraries/XMCLib/inc\xmc_ccu8.h ****     ((cmp_channel == XMC_CCU8_SLICE_COMPARE_CHANNEL_1) || \
 194:D:/School/diseratie/SEMS/xmc4800_evaluation_kit/xmc4800_iot_kit/common/Libraries/XMCLib/inc\xmc_ccu8.h ****      (cmp_channel == XMC_CCU8_SLICE_COMPARE_CHANNEL_2))
 195:D:/School/diseratie/SEMS/xmc4800_evaluation_kit/xmc4800_iot_kit/common/Libraries/XMCLib/inc\xmc_ccu8.h **** 
 196:D:/School/diseratie/SEMS/xmc4800_evaluation_kit/xmc4800_iot_kit/common/Libraries/XMCLib/inc\xmc_ccu8.h **** /**************************************************************************************************
 197:D:/School/diseratie/SEMS/xmc4800_evaluation_kit/xmc4800_iot_kit/common/Libraries/XMCLib/inc\xmc_ccu8.h ****  * ENUMS
 198:D:/School/diseratie/SEMS/xmc4800_evaluation_kit/xmc4800_iot_kit/common/Libraries/XMCLib/inc\xmc_ccu8.h ****  **************************************************************************************************
 199:D:/School/diseratie/SEMS/xmc4800_evaluation_kit/xmc4800_iot_kit/common/Libraries/XMCLib/inc\xmc_ccu8.h **** 
 200:D:/School/diseratie/SEMS/xmc4800_evaluation_kit/xmc4800_iot_kit/common/Libraries/XMCLib/inc\xmc_ccu8.h **** /**
 201:D:/School/diseratie/SEMS/xmc4800_evaluation_kit/xmc4800_iot_kit/common/Libraries/XMCLib/inc\xmc_ccu8.h ****  * Typedef for CCU8 Global data structure
 202:D:/School/diseratie/SEMS/xmc4800_evaluation_kit/xmc4800_iot_kit/common/Libraries/XMCLib/inc\xmc_ccu8.h ****  */
 203:D:/School/diseratie/SEMS/xmc4800_evaluation_kit/xmc4800_iot_kit/common/Libraries/XMCLib/inc\xmc_ccu8.h **** typedef CCU8_GLOBAL_TypeDef XMC_CCU8_MODULE_t;
 204:D:/School/diseratie/SEMS/xmc4800_evaluation_kit/xmc4800_iot_kit/common/Libraries/XMCLib/inc\xmc_ccu8.h **** 
 205:D:/School/diseratie/SEMS/xmc4800_evaluation_kit/xmc4800_iot_kit/common/Libraries/XMCLib/inc\xmc_ccu8.h **** /**
 206:D:/School/diseratie/SEMS/xmc4800_evaluation_kit/xmc4800_iot_kit/common/Libraries/XMCLib/inc\xmc_ccu8.h ****  * Typedef for CCU8 Slice data structure
 207:D:/School/diseratie/SEMS/xmc4800_evaluation_kit/xmc4800_iot_kit/common/Libraries/XMCLib/inc\xmc_ccu8.h ****  */
 208:D:/School/diseratie/SEMS/xmc4800_evaluation_kit/xmc4800_iot_kit/common/Libraries/XMCLib/inc\xmc_ccu8.h **** typedef CCU8_CC8_TypeDef XMC_CCU8_SLICE_t;
 209:D:/School/diseratie/SEMS/xmc4800_evaluation_kit/xmc4800_iot_kit/common/Libraries/XMCLib/inc\xmc_ccu8.h **** 
 210:D:/School/diseratie/SEMS/xmc4800_evaluation_kit/xmc4800_iot_kit/common/Libraries/XMCLib/inc\xmc_ccu8.h **** /**
 211:D:/School/diseratie/SEMS/xmc4800_evaluation_kit/xmc4800_iot_kit/common/Libraries/XMCLib/inc\xmc_ccu8.h ****  *  Return Value of an API
 212:D:/School/diseratie/SEMS/xmc4800_evaluation_kit/xmc4800_iot_kit/common/Libraries/XMCLib/inc\xmc_ccu8.h ****  */
 213:D:/School/diseratie/SEMS/xmc4800_evaluation_kit/xmc4800_iot_kit/common/Libraries/XMCLib/inc\xmc_ccu8.h **** typedef enum XMC_CCU8_STATUS
 214:D:/School/diseratie/SEMS/xmc4800_evaluation_kit/xmc4800_iot_kit/common/Libraries/XMCLib/inc\xmc_ccu8.h **** {
 215:D:/School/diseratie/SEMS/xmc4800_evaluation_kit/xmc4800_iot_kit/common/Libraries/XMCLib/inc\xmc_ccu8.h ****   XMC_CCU8_STATUS_OK      = 0U, /**< API fulfils request */
 216:D:/School/diseratie/SEMS/xmc4800_evaluation_kit/xmc4800_iot_kit/common/Libraries/XMCLib/inc\xmc_ccu8.h ****   XMC_CCU8_STATUS_ERROR       , /**< API cannot fulfil request */
 217:D:/School/diseratie/SEMS/xmc4800_evaluation_kit/xmc4800_iot_kit/common/Libraries/XMCLib/inc\xmc_ccu8.h ****   XMC_CCU8_STATUS_RUNNING     , /**< The timer slice is currently running */
 218:D:/School/diseratie/SEMS/xmc4800_evaluation_kit/xmc4800_iot_kit/common/Libraries/XMCLib/inc\xmc_ccu8.h ****   XMC_CCU8_STATUS_IDLE          /**< The timer slice is currently idle */
 219:D:/School/diseratie/SEMS/xmc4800_evaluation_kit/xmc4800_iot_kit/common/Libraries/XMCLib/inc\xmc_ccu8.h **** } XMC_CCU8_STATUS_t;
 220:D:/School/diseratie/SEMS/xmc4800_evaluation_kit/xmc4800_iot_kit/common/Libraries/XMCLib/inc\xmc_ccu8.h **** 
 221:D:/School/diseratie/SEMS/xmc4800_evaluation_kit/xmc4800_iot_kit/common/Libraries/XMCLib/inc\xmc_ccu8.h **** /**
 222:D:/School/diseratie/SEMS/xmc4800_evaluation_kit/xmc4800_iot_kit/common/Libraries/XMCLib/inc\xmc_ccu8.h ****  * CCU8 module clock
 223:D:/School/diseratie/SEMS/xmc4800_evaluation_kit/xmc4800_iot_kit/common/Libraries/XMCLib/inc\xmc_ccu8.h ****  */
 224:D:/School/diseratie/SEMS/xmc4800_evaluation_kit/xmc4800_iot_kit/common/Libraries/XMCLib/inc\xmc_ccu8.h **** typedef enum XMC_CCU8_CLOCK
 225:D:/School/diseratie/SEMS/xmc4800_evaluation_kit/xmc4800_iot_kit/common/Libraries/XMCLib/inc\xmc_ccu8.h **** {
 226:D:/School/diseratie/SEMS/xmc4800_evaluation_kit/xmc4800_iot_kit/common/Libraries/XMCLib/inc\xmc_ccu8.h ****   XMC_CCU8_CLOCK_SCU        = 0U, /**< Select the fCCU as the clock */
 227:D:/School/diseratie/SEMS/xmc4800_evaluation_kit/xmc4800_iot_kit/common/Libraries/XMCLib/inc\xmc_ccu8.h ****   XMC_CCU8_CLOCK_EXTERNAL_A     , /**< External clock-A */
 228:D:/School/diseratie/SEMS/xmc4800_evaluation_kit/xmc4800_iot_kit/common/Libraries/XMCLib/inc\xmc_ccu8.h ****   XMC_CCU8_CLOCK_EXTERNAL_B     , /**< External clock-B */
 229:D:/School/diseratie/SEMS/xmc4800_evaluation_kit/xmc4800_iot_kit/common/Libraries/XMCLib/inc\xmc_ccu8.h ****   XMC_CCU8_CLOCK_EXTERNAL_C       /**< External clock-C */
 230:D:/School/diseratie/SEMS/xmc4800_evaluation_kit/xmc4800_iot_kit/common/Libraries/XMCLib/inc\xmc_ccu8.h **** } XMC_CCU8_CLOCK_t;
 231:D:/School/diseratie/SEMS/xmc4800_evaluation_kit/xmc4800_iot_kit/common/Libraries/XMCLib/inc\xmc_ccu8.h **** 
 232:D:/School/diseratie/SEMS/xmc4800_evaluation_kit/xmc4800_iot_kit/common/Libraries/XMCLib/inc\xmc_ccu8.h **** /**
 233:D:/School/diseratie/SEMS/xmc4800_evaluation_kit/xmc4800_iot_kit/common/Libraries/XMCLib/inc\xmc_ccu8.h ****  * CCU8 set the shadow transfer type for multichannel mode
 234:D:/School/diseratie/SEMS/xmc4800_evaluation_kit/xmc4800_iot_kit/common/Libraries/XMCLib/inc\xmc_ccu8.h ****  */
 235:D:/School/diseratie/SEMS/xmc4800_evaluation_kit/xmc4800_iot_kit/common/Libraries/XMCLib/inc\xmc_ccu8.h **** typedef enum XMC_CCU8_MULTI_CHANNEL_SHADOW_TRANSFER
 236:D:/School/diseratie/SEMS/xmc4800_evaluation_kit/xmc4800_iot_kit/common/Libraries/XMCLib/inc\xmc_ccu8.h **** {
 237:D:/School/diseratie/SEMS/xmc4800_evaluation_kit/xmc4800_iot_kit/common/Libraries/XMCLib/inc\xmc_ccu8.h ****   XMC_CCU8_MULTI_CHANNEL_SHADOW_TRANSFER_SW_SLICE0       = (uint32_t)0x4000000, /**< Shadow transfe
 238:D:/School/diseratie/SEMS/xmc4800_evaluation_kit/xmc4800_iot_kit/common/Libraries/XMCLib/inc\xmc_ccu8.h ****                                                                                      only for slice
 239:D:/School/diseratie/SEMS/xmc4800_evaluation_kit/xmc4800_iot_kit/common/Libraries/XMCLib/inc\xmc_ccu8.h ****   XMC_CCU8_MULTI_CHANNEL_SHADOW_TRANSFER_SW_MCSS_SLICE0  = (uint32_t)0x4000400, /**< Shadow transfe
 240:D:/School/diseratie/SEMS/xmc4800_evaluation_kit/xmc4800_iot_kit/common/Libraries/XMCLib/inc\xmc_ccu8.h ****                                                                                      and hardware f
 241:D:/School/diseratie/SEMS/xmc4800_evaluation_kit/xmc4800_iot_kit/common/Libraries/XMCLib/inc\xmc_ccu8.h ****   XMC_CCU8_MULTI_CHANNEL_SHADOW_TRANSFER_SW_SLICE1       = (uint32_t)0x8000000, /**< Shadow transfe
 242:D:/School/diseratie/SEMS/xmc4800_evaluation_kit/xmc4800_iot_kit/common/Libraries/XMCLib/inc\xmc_ccu8.h ****                                                                                      only for slice
 243:D:/School/diseratie/SEMS/xmc4800_evaluation_kit/xmc4800_iot_kit/common/Libraries/XMCLib/inc\xmc_ccu8.h ****   XMC_CCU8_MULTI_CHANNEL_SHADOW_TRANSFER_SW_MCSS_SLICE1  = (uint32_t)0x8000800, /**< Shadow transfe
 244:D:/School/diseratie/SEMS/xmc4800_evaluation_kit/xmc4800_iot_kit/common/Libraries/XMCLib/inc\xmc_ccu8.h ****                                                                                      and hardware f
 245:D:/School/diseratie/SEMS/xmc4800_evaluation_kit/xmc4800_iot_kit/common/Libraries/XMCLib/inc\xmc_ccu8.h ****   XMC_CCU8_MULTI_CHANNEL_SHADOW_TRANSFER_SW_SLICE2       = (uint32_t)0x10000000, /**< Shadow transf
 246:D:/School/diseratie/SEMS/xmc4800_evaluation_kit/xmc4800_iot_kit/common/Libraries/XMCLib/inc\xmc_ccu8.h ****                                                                                       only for slic
 247:D:/School/diseratie/SEMS/xmc4800_evaluation_kit/xmc4800_iot_kit/common/Libraries/XMCLib/inc\xmc_ccu8.h ****   XMC_CCU8_MULTI_CHANNEL_SHADOW_TRANSFER_SW_MCSS_SLICE2  = (uint32_t)0x10001000, /**< Shadow transf
 248:D:/School/diseratie/SEMS/xmc4800_evaluation_kit/xmc4800_iot_kit/common/Libraries/XMCLib/inc\xmc_ccu8.h ****                                                                                       and hardware 
 249:D:/School/diseratie/SEMS/xmc4800_evaluation_kit/xmc4800_iot_kit/common/Libraries/XMCLib/inc\xmc_ccu8.h ****   XMC_CCU8_MULTI_CHANNEL_SHADOW_TRANSFER_SW_SLICE3       = (uint32_t)0x20000000, /**< Shadow transf
 250:D:/School/diseratie/SEMS/xmc4800_evaluation_kit/xmc4800_iot_kit/common/Libraries/XMCLib/inc\xmc_ccu8.h ****                                                                                       only for slic
 251:D:/School/diseratie/SEMS/xmc4800_evaluation_kit/xmc4800_iot_kit/common/Libraries/XMCLib/inc\xmc_ccu8.h ****   XMC_CCU8_MULTI_CHANNEL_SHADOW_TRANSFER_SW_MCSS_SLICE3  = (uint32_t)0x20002000  /**< Shadow transf
 252:D:/School/diseratie/SEMS/xmc4800_evaluation_kit/xmc4800_iot_kit/common/Libraries/XMCLib/inc\xmc_ccu8.h ****                                                                                       and hardware 
 253:D:/School/diseratie/SEMS/xmc4800_evaluation_kit/xmc4800_iot_kit/common/Libraries/XMCLib/inc\xmc_ccu8.h **** } XMC_CCU8_MULTI_CHANNEL_SHADOW_TRANSFER_t;
 254:D:/School/diseratie/SEMS/xmc4800_evaluation_kit/xmc4800_iot_kit/common/Libraries/XMCLib/inc\xmc_ccu8.h **** 
 255:D:/School/diseratie/SEMS/xmc4800_evaluation_kit/xmc4800_iot_kit/common/Libraries/XMCLib/inc\xmc_ccu8.h **** /**
 256:D:/School/diseratie/SEMS/xmc4800_evaluation_kit/xmc4800_iot_kit/common/Libraries/XMCLib/inc\xmc_ccu8.h ****  *  Operational modes of CCU8 slice
 257:D:/School/diseratie/SEMS/xmc4800_evaluation_kit/xmc4800_iot_kit/common/Libraries/XMCLib/inc\xmc_ccu8.h ****  */
 258:D:/School/diseratie/SEMS/xmc4800_evaluation_kit/xmc4800_iot_kit/common/Libraries/XMCLib/inc\xmc_ccu8.h **** typedef enum XMC_CCU8_SLICE_MODE
 259:D:/School/diseratie/SEMS/xmc4800_evaluation_kit/xmc4800_iot_kit/common/Libraries/XMCLib/inc\xmc_ccu8.h **** {
 260:D:/School/diseratie/SEMS/xmc4800_evaluation_kit/xmc4800_iot_kit/common/Libraries/XMCLib/inc\xmc_ccu8.h ****   XMC_CCU8_SLICE_MODE_COMPARE  = 0U, /**< slice(CC8y) operates in Compare Mode */
 261:D:/School/diseratie/SEMS/xmc4800_evaluation_kit/xmc4800_iot_kit/common/Libraries/XMCLib/inc\xmc_ccu8.h ****   XMC_CCU8_SLICE_MODE_CAPTURE        /**< slice(CC8y) operates in Capture Mode */
 262:D:/School/diseratie/SEMS/xmc4800_evaluation_kit/xmc4800_iot_kit/common/Libraries/XMCLib/inc\xmc_ccu8.h **** } XMC_CCU8_SLICE_MODE_t;
 263:D:/School/diseratie/SEMS/xmc4800_evaluation_kit/xmc4800_iot_kit/common/Libraries/XMCLib/inc\xmc_ccu8.h **** 
 264:D:/School/diseratie/SEMS/xmc4800_evaluation_kit/xmc4800_iot_kit/common/Libraries/XMCLib/inc\xmc_ccu8.h **** /**
 265:D:/School/diseratie/SEMS/xmc4800_evaluation_kit/xmc4800_iot_kit/common/Libraries/XMCLib/inc\xmc_ccu8.h ****  * Slice Output selection
 266:D:/School/diseratie/SEMS/xmc4800_evaluation_kit/xmc4800_iot_kit/common/Libraries/XMCLib/inc\xmc_ccu8.h ****  */
 267:D:/School/diseratie/SEMS/xmc4800_evaluation_kit/xmc4800_iot_kit/common/Libraries/XMCLib/inc\xmc_ccu8.h **** typedef enum XMC_CCU8_SLICE_OUTPUT
 268:D:/School/diseratie/SEMS/xmc4800_evaluation_kit/xmc4800_iot_kit/common/Libraries/XMCLib/inc\xmc_ccu8.h **** {
 269:D:/School/diseratie/SEMS/xmc4800_evaluation_kit/xmc4800_iot_kit/common/Libraries/XMCLib/inc\xmc_ccu8.h ****   XMC_CCU8_SLICE_OUTPUT_0  = 1U, /**< Slice Output-0 */
 270:D:/School/diseratie/SEMS/xmc4800_evaluation_kit/xmc4800_iot_kit/common/Libraries/XMCLib/inc\xmc_ccu8.h ****   XMC_CCU8_SLICE_OUTPUT_1  = 2U, /**< Slice Output-1 */
 271:D:/School/diseratie/SEMS/xmc4800_evaluation_kit/xmc4800_iot_kit/common/Libraries/XMCLib/inc\xmc_ccu8.h ****   XMC_CCU8_SLICE_OUTPUT_2  = 4U, /**< Slice Output-2 */
 272:D:/School/diseratie/SEMS/xmc4800_evaluation_kit/xmc4800_iot_kit/common/Libraries/XMCLib/inc\xmc_ccu8.h ****   XMC_CCU8_SLICE_OUTPUT_3  = 8U  /**< Slice Output-3 */
 273:D:/School/diseratie/SEMS/xmc4800_evaluation_kit/xmc4800_iot_kit/common/Libraries/XMCLib/inc\xmc_ccu8.h **** } XMC_CCU8_SLICE_OUTPUT_t;
 274:D:/School/diseratie/SEMS/xmc4800_evaluation_kit/xmc4800_iot_kit/common/Libraries/XMCLib/inc\xmc_ccu8.h **** 
 275:D:/School/diseratie/SEMS/xmc4800_evaluation_kit/xmc4800_iot_kit/common/Libraries/XMCLib/inc\xmc_ccu8.h **** /**
 276:D:/School/diseratie/SEMS/xmc4800_evaluation_kit/xmc4800_iot_kit/common/Libraries/XMCLib/inc\xmc_ccu8.h ****  *  Timer counting modes for the slice
 277:D:/School/diseratie/SEMS/xmc4800_evaluation_kit/xmc4800_iot_kit/common/Libraries/XMCLib/inc\xmc_ccu8.h ****  */
 278:D:/School/diseratie/SEMS/xmc4800_evaluation_kit/xmc4800_iot_kit/common/Libraries/XMCLib/inc\xmc_ccu8.h **** typedef enum XMC_CCU8_SLICE_TIMER_COUNT_MODE
 279:D:/School/diseratie/SEMS/xmc4800_evaluation_kit/xmc4800_iot_kit/common/Libraries/XMCLib/inc\xmc_ccu8.h **** {
 280:D:/School/diseratie/SEMS/xmc4800_evaluation_kit/xmc4800_iot_kit/common/Libraries/XMCLib/inc\xmc_ccu8.h ****   XMC_CCU8_SLICE_TIMER_COUNT_MODE_EA  = 0U, /**< Edge Aligned Mode */
 281:D:/School/diseratie/SEMS/xmc4800_evaluation_kit/xmc4800_iot_kit/common/Libraries/XMCLib/inc\xmc_ccu8.h ****   XMC_CCU8_SLICE_TIMER_COUNT_MODE_CA        /**< Centre Aligned Mode */
 282:D:/School/diseratie/SEMS/xmc4800_evaluation_kit/xmc4800_iot_kit/common/Libraries/XMCLib/inc\xmc_ccu8.h **** } XMC_CCU8_SLICE_TIMER_COUNT_MODE_t;
 283:D:/School/diseratie/SEMS/xmc4800_evaluation_kit/xmc4800_iot_kit/common/Libraries/XMCLib/inc\xmc_ccu8.h **** 
 284:D:/School/diseratie/SEMS/xmc4800_evaluation_kit/xmc4800_iot_kit/common/Libraries/XMCLib/inc\xmc_ccu8.h **** /**
 285:D:/School/diseratie/SEMS/xmc4800_evaluation_kit/xmc4800_iot_kit/common/Libraries/XMCLib/inc\xmc_ccu8.h ****  *  Timer repetition mode for the slice
 286:D:/School/diseratie/SEMS/xmc4800_evaluation_kit/xmc4800_iot_kit/common/Libraries/XMCLib/inc\xmc_ccu8.h ****  */
 287:D:/School/diseratie/SEMS/xmc4800_evaluation_kit/xmc4800_iot_kit/common/Libraries/XMCLib/inc\xmc_ccu8.h **** typedef enum XMC_CCU8_SLICE_TIMER_REPEAT_MODE
 288:D:/School/diseratie/SEMS/xmc4800_evaluation_kit/xmc4800_iot_kit/common/Libraries/XMCLib/inc\xmc_ccu8.h **** {
 289:D:/School/diseratie/SEMS/xmc4800_evaluation_kit/xmc4800_iot_kit/common/Libraries/XMCLib/inc\xmc_ccu8.h ****   XMC_CCU8_SLICE_TIMER_REPEAT_MODE_REPEAT = 0U, /**< Repetitive mode: continuous mode of operation 
 290:D:/School/diseratie/SEMS/xmc4800_evaluation_kit/xmc4800_iot_kit/common/Libraries/XMCLib/inc\xmc_ccu8.h ****   XMC_CCU8_SLICE_TIMER_REPEAT_MODE_SINGLE       /**< Single shot mode: Once a Period match/One matc
 291:D:/School/diseratie/SEMS/xmc4800_evaluation_kit/xmc4800_iot_kit/common/Libraries/XMCLib/inc\xmc_ccu8.h ****                                                      occurs timer goes to idle state */
 292:D:/School/diseratie/SEMS/xmc4800_evaluation_kit/xmc4800_iot_kit/common/Libraries/XMCLib/inc\xmc_ccu8.h **** } XMC_CCU8_SLICE_TIMER_REPEAT_MODE_t;
 293:D:/School/diseratie/SEMS/xmc4800_evaluation_kit/xmc4800_iot_kit/common/Libraries/XMCLib/inc\xmc_ccu8.h **** 
 294:D:/School/diseratie/SEMS/xmc4800_evaluation_kit/xmc4800_iot_kit/common/Libraries/XMCLib/inc\xmc_ccu8.h **** /**
 295:D:/School/diseratie/SEMS/xmc4800_evaluation_kit/xmc4800_iot_kit/common/Libraries/XMCLib/inc\xmc_ccu8.h ****  * Timer counting direction for the CCU8 slice
 296:D:/School/diseratie/SEMS/xmc4800_evaluation_kit/xmc4800_iot_kit/common/Libraries/XMCLib/inc\xmc_ccu8.h ****  */
 297:D:/School/diseratie/SEMS/xmc4800_evaluation_kit/xmc4800_iot_kit/common/Libraries/XMCLib/inc\xmc_ccu8.h **** typedef enum XMC_CCU8_SLICE_TIMER_COUNT_DIR
 298:D:/School/diseratie/SEMS/xmc4800_evaluation_kit/xmc4800_iot_kit/common/Libraries/XMCLib/inc\xmc_ccu8.h **** {
 299:D:/School/diseratie/SEMS/xmc4800_evaluation_kit/xmc4800_iot_kit/common/Libraries/XMCLib/inc\xmc_ccu8.h ****   XMC_CCU8_SLICE_TIMER_COUNT_DIR_UP   = 0U, /**< Counting up */
 300:D:/School/diseratie/SEMS/xmc4800_evaluation_kit/xmc4800_iot_kit/common/Libraries/XMCLib/inc\xmc_ccu8.h ****   XMC_CCU8_SLICE_TIMER_COUNT_DIR_DOWN       /**< Counting down */
 301:D:/School/diseratie/SEMS/xmc4800_evaluation_kit/xmc4800_iot_kit/common/Libraries/XMCLib/inc\xmc_ccu8.h **** } XMC_CCU8_SLICE_TIMER_COUNT_DIR_t;
 302:D:/School/diseratie/SEMS/xmc4800_evaluation_kit/xmc4800_iot_kit/common/Libraries/XMCLib/inc\xmc_ccu8.h **** 
 303:D:/School/diseratie/SEMS/xmc4800_evaluation_kit/xmc4800_iot_kit/common/Libraries/XMCLib/inc\xmc_ccu8.h **** /**
 304:D:/School/diseratie/SEMS/xmc4800_evaluation_kit/xmc4800_iot_kit/common/Libraries/XMCLib/inc\xmc_ccu8.h ****  *  Capture mode register sets
 305:D:/School/diseratie/SEMS/xmc4800_evaluation_kit/xmc4800_iot_kit/common/Libraries/XMCLib/inc\xmc_ccu8.h ****  */
 306:D:/School/diseratie/SEMS/xmc4800_evaluation_kit/xmc4800_iot_kit/common/Libraries/XMCLib/inc\xmc_ccu8.h **** typedef enum XMC_CCU8_SLICE_CAP_REG_SET
 307:D:/School/diseratie/SEMS/xmc4800_evaluation_kit/xmc4800_iot_kit/common/Libraries/XMCLib/inc\xmc_ccu8.h **** {
 308:D:/School/diseratie/SEMS/xmc4800_evaluation_kit/xmc4800_iot_kit/common/Libraries/XMCLib/inc\xmc_ccu8.h ****   XMC_CCU8_SLICE_CAP_REG_SET_LOW  = 0U, /**< Capture register-0, Capture register-1 used */
 309:D:/School/diseratie/SEMS/xmc4800_evaluation_kit/xmc4800_iot_kit/common/Libraries/XMCLib/inc\xmc_ccu8.h ****   XMC_CCU8_SLICE_CAP_REG_SET_HIGH       /**< Capture register-0, Capture register-1 used */
 310:D:/School/diseratie/SEMS/xmc4800_evaluation_kit/xmc4800_iot_kit/common/Libraries/XMCLib/inc\xmc_ccu8.h **** } XMC_CCU8_SLICE_CAP_REG_SET_t;
 311:D:/School/diseratie/SEMS/xmc4800_evaluation_kit/xmc4800_iot_kit/common/Libraries/XMCLib/inc\xmc_ccu8.h **** 
 312:D:/School/diseratie/SEMS/xmc4800_evaluation_kit/xmc4800_iot_kit/common/Libraries/XMCLib/inc\xmc_ccu8.h **** /**
 313:D:/School/diseratie/SEMS/xmc4800_evaluation_kit/xmc4800_iot_kit/common/Libraries/XMCLib/inc\xmc_ccu8.h ****  *  Prescaler mode
 314:D:/School/diseratie/SEMS/xmc4800_evaluation_kit/xmc4800_iot_kit/common/Libraries/XMCLib/inc\xmc_ccu8.h ****  */
 315:D:/School/diseratie/SEMS/xmc4800_evaluation_kit/xmc4800_iot_kit/common/Libraries/XMCLib/inc\xmc_ccu8.h **** typedef enum XMC_CCU8_SLICE_PRESCALER_MODE
 316:D:/School/diseratie/SEMS/xmc4800_evaluation_kit/xmc4800_iot_kit/common/Libraries/XMCLib/inc\xmc_ccu8.h **** {
 317:D:/School/diseratie/SEMS/xmc4800_evaluation_kit/xmc4800_iot_kit/common/Libraries/XMCLib/inc\xmc_ccu8.h ****   XMC_CCU8_SLICE_PRESCALER_MODE_NORMAL = 0U, /**< Fixed division of module clock */
 318:D:/School/diseratie/SEMS/xmc4800_evaluation_kit/xmc4800_iot_kit/common/Libraries/XMCLib/inc\xmc_ccu8.h ****   XMC_CCU8_SLICE_PRESCALER_MODE_FLOAT        /**< Floating divider */
 319:D:/School/diseratie/SEMS/xmc4800_evaluation_kit/xmc4800_iot_kit/common/Libraries/XMCLib/inc\xmc_ccu8.h **** } XMC_CCU8_SLICE_PRESCALER_MODE_t;
 320:D:/School/diseratie/SEMS/xmc4800_evaluation_kit/xmc4800_iot_kit/common/Libraries/XMCLib/inc\xmc_ccu8.h **** 
 321:D:/School/diseratie/SEMS/xmc4800_evaluation_kit/xmc4800_iot_kit/common/Libraries/XMCLib/inc\xmc_ccu8.h **** /**
 322:D:/School/diseratie/SEMS/xmc4800_evaluation_kit/xmc4800_iot_kit/common/Libraries/XMCLib/inc\xmc_ccu8.h ****  *  Timer output passive level
 323:D:/School/diseratie/SEMS/xmc4800_evaluation_kit/xmc4800_iot_kit/common/Libraries/XMCLib/inc\xmc_ccu8.h ****  */
 324:D:/School/diseratie/SEMS/xmc4800_evaluation_kit/xmc4800_iot_kit/common/Libraries/XMCLib/inc\xmc_ccu8.h **** typedef enum XMC_CCU8_SLICE_OUTPUT_PASSIVE_LEVEL
 325:D:/School/diseratie/SEMS/xmc4800_evaluation_kit/xmc4800_iot_kit/common/Libraries/XMCLib/inc\xmc_ccu8.h **** {
 326:D:/School/diseratie/SEMS/xmc4800_evaluation_kit/xmc4800_iot_kit/common/Libraries/XMCLib/inc\xmc_ccu8.h ****   XMC_CCU8_SLICE_OUTPUT_PASSIVE_LEVEL_LOW  = 0U, /**< Passive level = Low */
 327:D:/School/diseratie/SEMS/xmc4800_evaluation_kit/xmc4800_iot_kit/common/Libraries/XMCLib/inc\xmc_ccu8.h ****   XMC_CCU8_SLICE_OUTPUT_PASSIVE_LEVEL_HIGH       /**< Passive level = High */
 328:D:/School/diseratie/SEMS/xmc4800_evaluation_kit/xmc4800_iot_kit/common/Libraries/XMCLib/inc\xmc_ccu8.h **** } XMC_CCU8_SLICE_OUTPUT_PASSIVE_LEVEL_t;
 329:D:/School/diseratie/SEMS/xmc4800_evaluation_kit/xmc4800_iot_kit/common/Libraries/XMCLib/inc\xmc_ccu8.h **** 
 330:D:/School/diseratie/SEMS/xmc4800_evaluation_kit/xmc4800_iot_kit/common/Libraries/XMCLib/inc\xmc_ccu8.h **** /**
 331:D:/School/diseratie/SEMS/xmc4800_evaluation_kit/xmc4800_iot_kit/common/Libraries/XMCLib/inc\xmc_ccu8.h ****  *  Compare Channel selection
 332:D:/School/diseratie/SEMS/xmc4800_evaluation_kit/xmc4800_iot_kit/common/Libraries/XMCLib/inc\xmc_ccu8.h ****  */
 333:D:/School/diseratie/SEMS/xmc4800_evaluation_kit/xmc4800_iot_kit/common/Libraries/XMCLib/inc\xmc_ccu8.h **** typedef enum XMC_CCU8_SLICE_COMPARE_CHANNEL
 334:D:/School/diseratie/SEMS/xmc4800_evaluation_kit/xmc4800_iot_kit/common/Libraries/XMCLib/inc\xmc_ccu8.h **** {
 335:D:/School/diseratie/SEMS/xmc4800_evaluation_kit/xmc4800_iot_kit/common/Libraries/XMCLib/inc\xmc_ccu8.h ****   XMC_CCU8_SLICE_COMPARE_CHANNEL_1  = 0U, /**< Compare Channel-1 */
 336:D:/School/diseratie/SEMS/xmc4800_evaluation_kit/xmc4800_iot_kit/common/Libraries/XMCLib/inc\xmc_ccu8.h ****   XMC_CCU8_SLICE_COMPARE_CHANNEL_2        /**< Compare Channel-2 */
 337:D:/School/diseratie/SEMS/xmc4800_evaluation_kit/xmc4800_iot_kit/common/Libraries/XMCLib/inc\xmc_ccu8.h **** } XMC_CCU8_SLICE_COMPARE_CHANNEL_t;
 338:D:/School/diseratie/SEMS/xmc4800_evaluation_kit/xmc4800_iot_kit/common/Libraries/XMCLib/inc\xmc_ccu8.h **** 
 339:D:/School/diseratie/SEMS/xmc4800_evaluation_kit/xmc4800_iot_kit/common/Libraries/XMCLib/inc\xmc_ccu8.h **** /**
 340:D:/School/diseratie/SEMS/xmc4800_evaluation_kit/xmc4800_iot_kit/common/Libraries/XMCLib/inc\xmc_ccu8.h ****  * Timer clock Divider
 341:D:/School/diseratie/SEMS/xmc4800_evaluation_kit/xmc4800_iot_kit/common/Libraries/XMCLib/inc\xmc_ccu8.h ****  */
 342:D:/School/diseratie/SEMS/xmc4800_evaluation_kit/xmc4800_iot_kit/common/Libraries/XMCLib/inc\xmc_ccu8.h **** typedef enum XMC_CCU8_SLICE_PRESCALER
 343:D:/School/diseratie/SEMS/xmc4800_evaluation_kit/xmc4800_iot_kit/common/Libraries/XMCLib/inc\xmc_ccu8.h **** {
 344:D:/School/diseratie/SEMS/xmc4800_evaluation_kit/xmc4800_iot_kit/common/Libraries/XMCLib/inc\xmc_ccu8.h ****   XMC_CCU8_SLICE_PRESCALER_1  = 0U, /**< Slice Clock = fccu8 */
 345:D:/School/diseratie/SEMS/xmc4800_evaluation_kit/xmc4800_iot_kit/common/Libraries/XMCLib/inc\xmc_ccu8.h ****   XMC_CCU8_SLICE_PRESCALER_2      , /**< Slice Clock = fccu8/2 */
 346:D:/School/diseratie/SEMS/xmc4800_evaluation_kit/xmc4800_iot_kit/common/Libraries/XMCLib/inc\xmc_ccu8.h ****   XMC_CCU8_SLICE_PRESCALER_4      , /**< Slice Clock = fccu8/4 */
 347:D:/School/diseratie/SEMS/xmc4800_evaluation_kit/xmc4800_iot_kit/common/Libraries/XMCLib/inc\xmc_ccu8.h ****   XMC_CCU8_SLICE_PRESCALER_8      , /**< Slice Clock = fccu8/8 */
 348:D:/School/diseratie/SEMS/xmc4800_evaluation_kit/xmc4800_iot_kit/common/Libraries/XMCLib/inc\xmc_ccu8.h ****   XMC_CCU8_SLICE_PRESCALER_16     , /**< Slice Clock = fccu8/16 */
 349:D:/School/diseratie/SEMS/xmc4800_evaluation_kit/xmc4800_iot_kit/common/Libraries/XMCLib/inc\xmc_ccu8.h ****   XMC_CCU8_SLICE_PRESCALER_32     , /**< Slice Clock = fccu8/32 */
 350:D:/School/diseratie/SEMS/xmc4800_evaluation_kit/xmc4800_iot_kit/common/Libraries/XMCLib/inc\xmc_ccu8.h ****   XMC_CCU8_SLICE_PRESCALER_64     , /**< Slice Clock = fccu8/64 */
 351:D:/School/diseratie/SEMS/xmc4800_evaluation_kit/xmc4800_iot_kit/common/Libraries/XMCLib/inc\xmc_ccu8.h ****   XMC_CCU8_SLICE_PRESCALER_128    , /**< Slice Clock = fccu8/128 */
 352:D:/School/diseratie/SEMS/xmc4800_evaluation_kit/xmc4800_iot_kit/common/Libraries/XMCLib/inc\xmc_ccu8.h ****   XMC_CCU8_SLICE_PRESCALER_256    , /**< Slice Clock = fccu8/256 */
 353:D:/School/diseratie/SEMS/xmc4800_evaluation_kit/xmc4800_iot_kit/common/Libraries/XMCLib/inc\xmc_ccu8.h ****   XMC_CCU8_SLICE_PRESCALER_512    , /**< Slice Clock = fccu8/512 */
 354:D:/School/diseratie/SEMS/xmc4800_evaluation_kit/xmc4800_iot_kit/common/Libraries/XMCLib/inc\xmc_ccu8.h ****   XMC_CCU8_SLICE_PRESCALER_1024   , /**< Slice Clock = fccu8/1024 */
 355:D:/School/diseratie/SEMS/xmc4800_evaluation_kit/xmc4800_iot_kit/common/Libraries/XMCLib/inc\xmc_ccu8.h ****   XMC_CCU8_SLICE_PRESCALER_2048   , /**< Slice Clock = fccu8/2048 */
 356:D:/School/diseratie/SEMS/xmc4800_evaluation_kit/xmc4800_iot_kit/common/Libraries/XMCLib/inc\xmc_ccu8.h ****   XMC_CCU8_SLICE_PRESCALER_4096   , /**< Slice Clock = fccu8/4096 */
 357:D:/School/diseratie/SEMS/xmc4800_evaluation_kit/xmc4800_iot_kit/common/Libraries/XMCLib/inc\xmc_ccu8.h ****   XMC_CCU8_SLICE_PRESCALER_8192   , /**< Slice Clock = fccu8/8192 */
 358:D:/School/diseratie/SEMS/xmc4800_evaluation_kit/xmc4800_iot_kit/common/Libraries/XMCLib/inc\xmc_ccu8.h ****   XMC_CCU8_SLICE_PRESCALER_16384  , /**< Slice Clock = fccu8/16384 */
 359:D:/School/diseratie/SEMS/xmc4800_evaluation_kit/xmc4800_iot_kit/common/Libraries/XMCLib/inc\xmc_ccu8.h ****   XMC_CCU8_SLICE_PRESCALER_32768    /**< Slice Clock = fccu8/32768 */
 360:D:/School/diseratie/SEMS/xmc4800_evaluation_kit/xmc4800_iot_kit/common/Libraries/XMCLib/inc\xmc_ccu8.h **** } XMC_CCU8_SLICE_PRESCALER_t;
 361:D:/School/diseratie/SEMS/xmc4800_evaluation_kit/xmc4800_iot_kit/common/Libraries/XMCLib/inc\xmc_ccu8.h **** 
 362:D:/School/diseratie/SEMS/xmc4800_evaluation_kit/xmc4800_iot_kit/common/Libraries/XMCLib/inc\xmc_ccu8.h **** /**
 363:D:/School/diseratie/SEMS/xmc4800_evaluation_kit/xmc4800_iot_kit/common/Libraries/XMCLib/inc\xmc_ccu8.h ****  * Dead Time Generator Clock Divider
 364:D:/School/diseratie/SEMS/xmc4800_evaluation_kit/xmc4800_iot_kit/common/Libraries/XMCLib/inc\xmc_ccu8.h ****  */
 365:D:/School/diseratie/SEMS/xmc4800_evaluation_kit/xmc4800_iot_kit/common/Libraries/XMCLib/inc\xmc_ccu8.h **** typedef enum XMC_CCU8_SLICE_DTC_DIV
 366:D:/School/diseratie/SEMS/xmc4800_evaluation_kit/xmc4800_iot_kit/common/Libraries/XMCLib/inc\xmc_ccu8.h **** {
 367:D:/School/diseratie/SEMS/xmc4800_evaluation_kit/xmc4800_iot_kit/common/Libraries/XMCLib/inc\xmc_ccu8.h ****   XMC_CCU8_SLICE_DTC_DIV_1  = 0U, /**< DTC clock = Slice Clock */
 368:D:/School/diseratie/SEMS/xmc4800_evaluation_kit/xmc4800_iot_kit/common/Libraries/XMCLib/inc\xmc_ccu8.h ****   XMC_CCU8_SLICE_DTC_DIV_2      , /**< DTC clock = Slice Clock/2 */
 369:D:/School/diseratie/SEMS/xmc4800_evaluation_kit/xmc4800_iot_kit/common/Libraries/XMCLib/inc\xmc_ccu8.h ****   XMC_CCU8_SLICE_DTC_DIV_4      , /**< DTC clock = Slice Clock/4 */
 370:D:/School/diseratie/SEMS/xmc4800_evaluation_kit/xmc4800_iot_kit/common/Libraries/XMCLib/inc\xmc_ccu8.h ****   XMC_CCU8_SLICE_DTC_DIV_8        /**< DTC clock = Slice Clock/8 */
 371:D:/School/diseratie/SEMS/xmc4800_evaluation_kit/xmc4800_iot_kit/common/Libraries/XMCLib/inc\xmc_ccu8.h **** } XMC_CCU8_SLICE_DTC_DIV_t;
 372:D:/School/diseratie/SEMS/xmc4800_evaluation_kit/xmc4800_iot_kit/common/Libraries/XMCLib/inc\xmc_ccu8.h **** 
 373:D:/School/diseratie/SEMS/xmc4800_evaluation_kit/xmc4800_iot_kit/common/Libraries/XMCLib/inc\xmc_ccu8.h **** 
 374:D:/School/diseratie/SEMS/xmc4800_evaluation_kit/xmc4800_iot_kit/common/Libraries/XMCLib/inc\xmc_ccu8.h **** /**
 375:D:/School/diseratie/SEMS/xmc4800_evaluation_kit/xmc4800_iot_kit/common/Libraries/XMCLib/inc\xmc_ccu8.h ****  *  The compare channel output which is routed to the slice output signal(STy).
 376:D:/School/diseratie/SEMS/xmc4800_evaluation_kit/xmc4800_iot_kit/common/Libraries/XMCLib/inc\xmc_ccu8.h ****  */
 377:D:/School/diseratie/SEMS/xmc4800_evaluation_kit/xmc4800_iot_kit/common/Libraries/XMCLib/inc\xmc_ccu8.h **** typedef enum XMC_CCU8_SLICE_STATUS
 378:D:/School/diseratie/SEMS/xmc4800_evaluation_kit/xmc4800_iot_kit/common/Libraries/XMCLib/inc\xmc_ccu8.h **** {
 379:D:/School/diseratie/SEMS/xmc4800_evaluation_kit/xmc4800_iot_kit/common/Libraries/XMCLib/inc\xmc_ccu8.h ****   XMC_CCU8_SLICE_STATUS_CHANNEL_1        = 0U, /**< Channel-1 status connected to Slice Status */
 380:D:/School/diseratie/SEMS/xmc4800_evaluation_kit/xmc4800_iot_kit/common/Libraries/XMCLib/inc\xmc_ccu8.h ****   XMC_CCU8_SLICE_STATUS_CHANNEL_2            , /**< Channel-2 status connected to Slice Status */
 381:D:/School/diseratie/SEMS/xmc4800_evaluation_kit/xmc4800_iot_kit/common/Libraries/XMCLib/inc\xmc_ccu8.h ****   XMC_CCU8_SLICE_STATUS_CHANNEL_1_AND_2      , /**< \b Wired \b AND of Channel-1 and Channel-2 stat
 382:D:/School/diseratie/SEMS/xmc4800_evaluation_kit/xmc4800_iot_kit/common/Libraries/XMCLib/inc\xmc_ccu8.h ****                                                     Slice status */
 383:D:/School/diseratie/SEMS/xmc4800_evaluation_kit/xmc4800_iot_kit/common/Libraries/XMCLib/inc\xmc_ccu8.h **** #if ((UC_SERIES == XMC13) || (UC_SERIES == XMC14)) || defined(DOXYGEN)
 384:D:/School/diseratie/SEMS/xmc4800_evaluation_kit/xmc4800_iot_kit/common/Libraries/XMCLib/inc\xmc_ccu8.h ****   XMC_CCU8_SLICE_STATUS_CHANNEL_1_OR_2         /**< \b Wired \b OR of Channel-1 and Channel-2 statu
 385:D:/School/diseratie/SEMS/xmc4800_evaluation_kit/xmc4800_iot_kit/common/Libraries/XMCLib/inc\xmc_ccu8.h ****                                                     status. @note Only available for XMC1300 and XM
 386:D:/School/diseratie/SEMS/xmc4800_evaluation_kit/xmc4800_iot_kit/common/Libraries/XMCLib/inc\xmc_ccu8.h **** #endif
 387:D:/School/diseratie/SEMS/xmc4800_evaluation_kit/xmc4800_iot_kit/common/Libraries/XMCLib/inc\xmc_ccu8.h **** } XMC_CCU8_SLICE_STATUS_t;
 388:D:/School/diseratie/SEMS/xmc4800_evaluation_kit/xmc4800_iot_kit/common/Libraries/XMCLib/inc\xmc_ccu8.h **** 
 389:D:/School/diseratie/SEMS/xmc4800_evaluation_kit/xmc4800_iot_kit/common/Libraries/XMCLib/inc\xmc_ccu8.h **** /**
 390:D:/School/diseratie/SEMS/xmc4800_evaluation_kit/xmc4800_iot_kit/common/Libraries/XMCLib/inc\xmc_ccu8.h ****  *  Compare channel for which modulation has to be applied
 391:D:/School/diseratie/SEMS/xmc4800_evaluation_kit/xmc4800_iot_kit/common/Libraries/XMCLib/inc\xmc_ccu8.h ****  */
 392:D:/School/diseratie/SEMS/xmc4800_evaluation_kit/xmc4800_iot_kit/common/Libraries/XMCLib/inc\xmc_ccu8.h **** typedef enum XMC_CCU8_SLICE_MODULATION_CHANNEL
 393:D:/School/diseratie/SEMS/xmc4800_evaluation_kit/xmc4800_iot_kit/common/Libraries/XMCLib/inc\xmc_ccu8.h **** {
 394:D:/School/diseratie/SEMS/xmc4800_evaluation_kit/xmc4800_iot_kit/common/Libraries/XMCLib/inc\xmc_ccu8.h ****   XMC_CCU8_SLICE_MODULATION_CHANNEL_NONE  = 0U, /**< No modulation */
 395:D:/School/diseratie/SEMS/xmc4800_evaluation_kit/xmc4800_iot_kit/common/Libraries/XMCLib/inc\xmc_ccu8.h ****   XMC_CCU8_SLICE_MODULATION_CHANNEL_1         , /**< Modulation for Compare Channel-1 */
 396:D:/School/diseratie/SEMS/xmc4800_evaluation_kit/xmc4800_iot_kit/common/Libraries/XMCLib/inc\xmc_ccu8.h ****   XMC_CCU8_SLICE_MODULATION_CHANNEL_2         , /**< Modulation for Compare Channel-2 */
 397:D:/School/diseratie/SEMS/xmc4800_evaluation_kit/xmc4800_iot_kit/common/Libraries/XMCLib/inc\xmc_ccu8.h ****   XMC_CCU8_SLICE_MODULATION_CHANNEL_1_AND_2     /**< Modulation for Compare Channel-1 and Compare C
 398:D:/School/diseratie/SEMS/xmc4800_evaluation_kit/xmc4800_iot_kit/common/Libraries/XMCLib/inc\xmc_ccu8.h **** } XMC_CCU8_SLICE_MODULATION_CHANNEL_t;
 399:D:/School/diseratie/SEMS/xmc4800_evaluation_kit/xmc4800_iot_kit/common/Libraries/XMCLib/inc\xmc_ccu8.h **** 
 400:D:/School/diseratie/SEMS/xmc4800_evaluation_kit/xmc4800_iot_kit/common/Libraries/XMCLib/inc\xmc_ccu8.h **** /**
 401:D:/School/diseratie/SEMS/xmc4800_evaluation_kit/xmc4800_iot_kit/common/Libraries/XMCLib/inc\xmc_ccu8.h ****  *  External Function list
 402:D:/School/diseratie/SEMS/xmc4800_evaluation_kit/xmc4800_iot_kit/common/Libraries/XMCLib/inc\xmc_ccu8.h ****  */
 403:D:/School/diseratie/SEMS/xmc4800_evaluation_kit/xmc4800_iot_kit/common/Libraries/XMCLib/inc\xmc_ccu8.h **** typedef enum XMC_CCU8_SLICE_FUNCTION
 404:D:/School/diseratie/SEMS/xmc4800_evaluation_kit/xmc4800_iot_kit/common/Libraries/XMCLib/inc\xmc_ccu8.h **** {
 405:D:/School/diseratie/SEMS/xmc4800_evaluation_kit/xmc4800_iot_kit/common/Libraries/XMCLib/inc\xmc_ccu8.h ****   XMC_CCU8_SLICE_FUNCTION_START           = 0U, /**< Start function */
 406:D:/School/diseratie/SEMS/xmc4800_evaluation_kit/xmc4800_iot_kit/common/Libraries/XMCLib/inc\xmc_ccu8.h ****   XMC_CCU8_SLICE_FUNCTION_STOP                , /**< Stop function */
 407:D:/School/diseratie/SEMS/xmc4800_evaluation_kit/xmc4800_iot_kit/common/Libraries/XMCLib/inc\xmc_ccu8.h ****   XMC_CCU8_SLICE_FUNCTION_CAPTURE_EVENT0      , /**< Capture Event-0 function, CCycapt0 signal is u
 408:D:/School/diseratie/SEMS/xmc4800_evaluation_kit/xmc4800_iot_kit/common/Libraries/XMCLib/inc\xmc_ccu8.h ****                                                      generation */
 409:D:/School/diseratie/SEMS/xmc4800_evaluation_kit/xmc4800_iot_kit/common/Libraries/XMCLib/inc\xmc_ccu8.h ****   XMC_CCU8_SLICE_FUNCTION_CAPTURE_EVENT1      , /**< Capture Event-1 function, CCycapt1 signal is u
 410:D:/School/diseratie/SEMS/xmc4800_evaluation_kit/xmc4800_iot_kit/common/Libraries/XMCLib/inc\xmc_ccu8.h ****                                                      generation */
 411:D:/School/diseratie/SEMS/xmc4800_evaluation_kit/xmc4800_iot_kit/common/Libraries/XMCLib/inc\xmc_ccu8.h ****   XMC_CCU8_SLICE_FUNCTION_GATING              , /**< Gating function */
 412:D:/School/diseratie/SEMS/xmc4800_evaluation_kit/xmc4800_iot_kit/common/Libraries/XMCLib/inc\xmc_ccu8.h ****   XMC_CCU8_SLICE_FUNCTION_DIRECTION           , /**< Direction function */
 413:D:/School/diseratie/SEMS/xmc4800_evaluation_kit/xmc4800_iot_kit/common/Libraries/XMCLib/inc\xmc_ccu8.h ****   XMC_CCU8_SLICE_FUNCTION_LOAD                , /**< Load function */
 414:D:/School/diseratie/SEMS/xmc4800_evaluation_kit/xmc4800_iot_kit/common/Libraries/XMCLib/inc\xmc_ccu8.h ****   XMC_CCU8_SLICE_FUNCTION_COUNT               , /**< Counting function */
 415:D:/School/diseratie/SEMS/xmc4800_evaluation_kit/xmc4800_iot_kit/common/Libraries/XMCLib/inc\xmc_ccu8.h ****   XMC_CCU8_SLICE_FUNCTION_OVERRIDE            , /**< Override function */
 416:D:/School/diseratie/SEMS/xmc4800_evaluation_kit/xmc4800_iot_kit/common/Libraries/XMCLib/inc\xmc_ccu8.h ****   XMC_CCU8_SLICE_FUNCTION_MODULATION          , /**< Modulation function */
 417:D:/School/diseratie/SEMS/xmc4800_evaluation_kit/xmc4800_iot_kit/common/Libraries/XMCLib/inc\xmc_ccu8.h ****   XMC_CCU8_SLICE_FUNCTION_TRAP                  /**< Trap function */
 418:D:/School/diseratie/SEMS/xmc4800_evaluation_kit/xmc4800_iot_kit/common/Libraries/XMCLib/inc\xmc_ccu8.h **** } XMC_CCU8_SLICE_FUNCTION_t;
 419:D:/School/diseratie/SEMS/xmc4800_evaluation_kit/xmc4800_iot_kit/common/Libraries/XMCLib/inc\xmc_ccu8.h **** 
 420:D:/School/diseratie/SEMS/xmc4800_evaluation_kit/xmc4800_iot_kit/common/Libraries/XMCLib/inc\xmc_ccu8.h **** /**
 421:D:/School/diseratie/SEMS/xmc4800_evaluation_kit/xmc4800_iot_kit/common/Libraries/XMCLib/inc\xmc_ccu8.h ****  *  External Event list
 422:D:/School/diseratie/SEMS/xmc4800_evaluation_kit/xmc4800_iot_kit/common/Libraries/XMCLib/inc\xmc_ccu8.h ****  */
 423:D:/School/diseratie/SEMS/xmc4800_evaluation_kit/xmc4800_iot_kit/common/Libraries/XMCLib/inc\xmc_ccu8.h **** typedef enum XMC_CCU8_SLICE_EVENT
 424:D:/School/diseratie/SEMS/xmc4800_evaluation_kit/xmc4800_iot_kit/common/Libraries/XMCLib/inc\xmc_ccu8.h **** {
 425:D:/School/diseratie/SEMS/xmc4800_evaluation_kit/xmc4800_iot_kit/common/Libraries/XMCLib/inc\xmc_ccu8.h ****   XMC_CCU8_SLICE_EVENT_NONE  = 0U, /**< None */
 426:D:/School/diseratie/SEMS/xmc4800_evaluation_kit/xmc4800_iot_kit/common/Libraries/XMCLib/inc\xmc_ccu8.h ****   XMC_CCU8_SLICE_EVENT_0         , /**< Event-0 */
 427:D:/School/diseratie/SEMS/xmc4800_evaluation_kit/xmc4800_iot_kit/common/Libraries/XMCLib/inc\xmc_ccu8.h ****   XMC_CCU8_SLICE_EVENT_1         , /**< Event-1 */
 428:D:/School/diseratie/SEMS/xmc4800_evaluation_kit/xmc4800_iot_kit/common/Libraries/XMCLib/inc\xmc_ccu8.h ****   XMC_CCU8_SLICE_EVENT_2           /**< Event-2 */
 429:D:/School/diseratie/SEMS/xmc4800_evaluation_kit/xmc4800_iot_kit/common/Libraries/XMCLib/inc\xmc_ccu8.h **** } XMC_CCU8_SLICE_EVENT_t;
 430:D:/School/diseratie/SEMS/xmc4800_evaluation_kit/xmc4800_iot_kit/common/Libraries/XMCLib/inc\xmc_ccu8.h **** 
 431:D:/School/diseratie/SEMS/xmc4800_evaluation_kit/xmc4800_iot_kit/common/Libraries/XMCLib/inc\xmc_ccu8.h **** /**
 432:D:/School/diseratie/SEMS/xmc4800_evaluation_kit/xmc4800_iot_kit/common/Libraries/XMCLib/inc\xmc_ccu8.h ****  *  External Event trigger criteria  - Edge sensitivity
 433:D:/School/diseratie/SEMS/xmc4800_evaluation_kit/xmc4800_iot_kit/common/Libraries/XMCLib/inc\xmc_ccu8.h ****  */
 434:D:/School/diseratie/SEMS/xmc4800_evaluation_kit/xmc4800_iot_kit/common/Libraries/XMCLib/inc\xmc_ccu8.h **** typedef enum XMC_CCU8_SLICE_EVENT_EDGE_SENSITIVITY
 435:D:/School/diseratie/SEMS/xmc4800_evaluation_kit/xmc4800_iot_kit/common/Libraries/XMCLib/inc\xmc_ccu8.h **** {
 436:D:/School/diseratie/SEMS/xmc4800_evaluation_kit/xmc4800_iot_kit/common/Libraries/XMCLib/inc\xmc_ccu8.h ****   XMC_CCU8_SLICE_EVENT_EDGE_SENSITIVITY_NONE          = 0U, /**< None */
 437:D:/School/diseratie/SEMS/xmc4800_evaluation_kit/xmc4800_iot_kit/common/Libraries/XMCLib/inc\xmc_ccu8.h ****   XMC_CCU8_SLICE_EVENT_EDGE_SENSITIVITY_RISING_EDGE       , /**< Rising Edge of the input signal ge
 438:D:/School/diseratie/SEMS/xmc4800_evaluation_kit/xmc4800_iot_kit/common/Libraries/XMCLib/inc\xmc_ccu8.h ****                                                                  event trigger */
 439:D:/School/diseratie/SEMS/xmc4800_evaluation_kit/xmc4800_iot_kit/common/Libraries/XMCLib/inc\xmc_ccu8.h ****   XMC_CCU8_SLICE_EVENT_EDGE_SENSITIVITY_FALLING_EDGE      , /**< Falling Edge of the input signal g
 440:D:/School/diseratie/SEMS/xmc4800_evaluation_kit/xmc4800_iot_kit/common/Libraries/XMCLib/inc\xmc_ccu8.h ****                                                                  trigger */
 441:D:/School/diseratie/SEMS/xmc4800_evaluation_kit/xmc4800_iot_kit/common/Libraries/XMCLib/inc\xmc_ccu8.h ****   XMC_CCU8_SLICE_EVENT_EDGE_SENSITIVITY_DUAL_EDGE           /**< Both Rising and Falling edges caus
 442:D:/School/diseratie/SEMS/xmc4800_evaluation_kit/xmc4800_iot_kit/common/Libraries/XMCLib/inc\xmc_ccu8.h **** } XMC_CCU8_SLICE_EVENT_EDGE_SENSITIVITY_t;
 443:D:/School/diseratie/SEMS/xmc4800_evaluation_kit/xmc4800_iot_kit/common/Libraries/XMCLib/inc\xmc_ccu8.h **** 
 444:D:/School/diseratie/SEMS/xmc4800_evaluation_kit/xmc4800_iot_kit/common/Libraries/XMCLib/inc\xmc_ccu8.h **** /**
 445:D:/School/diseratie/SEMS/xmc4800_evaluation_kit/xmc4800_iot_kit/common/Libraries/XMCLib/inc\xmc_ccu8.h ****  *  External Event trigger criteria  - Level sensitivity
 446:D:/School/diseratie/SEMS/xmc4800_evaluation_kit/xmc4800_iot_kit/common/Libraries/XMCLib/inc\xmc_ccu8.h ****  */
 447:D:/School/diseratie/SEMS/xmc4800_evaluation_kit/xmc4800_iot_kit/common/Libraries/XMCLib/inc\xmc_ccu8.h **** typedef enum XMC_CCU8_SLICE_EVENT_LEVEL_SENSITIVITY
 448:D:/School/diseratie/SEMS/xmc4800_evaluation_kit/xmc4800_iot_kit/common/Libraries/XMCLib/inc\xmc_ccu8.h **** {
 449:D:/School/diseratie/SEMS/xmc4800_evaluation_kit/xmc4800_iot_kit/common/Libraries/XMCLib/inc\xmc_ccu8.h ****   XMC_CCU8_SLICE_EVENT_LEVEL_SENSITIVITY_ACTIVE_HIGH = 0U, /**< Level sensitive functions react to 
 450:D:/School/diseratie/SEMS/xmc4800_evaluation_kit/xmc4800_iot_kit/common/Libraries/XMCLib/inc\xmc_ccu8.h ****   XMC_CCU8_SLICE_EVENT_LEVEL_SENSITIVITY_ACTIVE_LOW  = 1U, /**< Level sensitive functions react to 
 451:D:/School/diseratie/SEMS/xmc4800_evaluation_kit/xmc4800_iot_kit/common/Libraries/XMCLib/inc\xmc_ccu8.h ****     /* Below enum items can be utilised specific to the functionality */
 452:D:/School/diseratie/SEMS/xmc4800_evaluation_kit/xmc4800_iot_kit/common/Libraries/XMCLib/inc\xmc_ccu8.h ****   XMC_CCU8_SLICE_EVENT_LEVEL_SENSITIVITY_COUNT_UP_ON_LOW = 0U, /**< Timer counts up, during Low sta
 453:D:/School/diseratie/SEMS/xmc4800_evaluation_kit/xmc4800_iot_kit/common/Libraries/XMCLib/inc\xmc_ccu8.h ****   XMC_CCU8_SLICE_EVENT_LEVEL_SENSITIVITY_COUNT_UP_ON_HIGH = 1U /**< Timer counts up, during High st
 454:D:/School/diseratie/SEMS/xmc4800_evaluation_kit/xmc4800_iot_kit/common/Libraries/XMCLib/inc\xmc_ccu8.h **** } XMC_CCU8_SLICE_EVENT_LEVEL_SENSITIVITY_t;
 455:D:/School/diseratie/SEMS/xmc4800_evaluation_kit/xmc4800_iot_kit/common/Libraries/XMCLib/inc\xmc_ccu8.h **** 
 456:D:/School/diseratie/SEMS/xmc4800_evaluation_kit/xmc4800_iot_kit/common/Libraries/XMCLib/inc\xmc_ccu8.h **** /**
 457:D:/School/diseratie/SEMS/xmc4800_evaluation_kit/xmc4800_iot_kit/common/Libraries/XMCLib/inc\xmc_ccu8.h ****  *  Low pass filter Configuration. The External Event input should be stable for a selected number 
 458:D:/School/diseratie/SEMS/xmc4800_evaluation_kit/xmc4800_iot_kit/common/Libraries/XMCLib/inc\xmc_ccu8.h ****  */
 459:D:/School/diseratie/SEMS/xmc4800_evaluation_kit/xmc4800_iot_kit/common/Libraries/XMCLib/inc\xmc_ccu8.h **** typedef enum XMC_CCU8_SLICE_EVENT_FILTER
 460:D:/School/diseratie/SEMS/xmc4800_evaluation_kit/xmc4800_iot_kit/common/Libraries/XMCLib/inc\xmc_ccu8.h **** {
 461:D:/School/diseratie/SEMS/xmc4800_evaluation_kit/xmc4800_iot_kit/common/Libraries/XMCLib/inc\xmc_ccu8.h ****   XMC_CCU8_SLICE_EVENT_FILTER_DISABLED  = 0U, /**< No Low Pass Filtering is applied */
 462:D:/School/diseratie/SEMS/xmc4800_evaluation_kit/xmc4800_iot_kit/common/Libraries/XMCLib/inc\xmc_ccu8.h ****   XMC_CCU8_SLICE_EVENT_FILTER_3_CYCLES      , /**< Input should be stable for 3 clock cycles */
 463:D:/School/diseratie/SEMS/xmc4800_evaluation_kit/xmc4800_iot_kit/common/Libraries/XMCLib/inc\xmc_ccu8.h ****   XMC_CCU8_SLICE_EVENT_FILTER_5_CYCLES      , /**< Input should be stable for 5 clock cycles */
 464:D:/School/diseratie/SEMS/xmc4800_evaluation_kit/xmc4800_iot_kit/common/Libraries/XMCLib/inc\xmc_ccu8.h ****   XMC_CCU8_SLICE_EVENT_FILTER_7_CYCLES        /**< Input should be stable for 7 clock cycles */
 465:D:/School/diseratie/SEMS/xmc4800_evaluation_kit/xmc4800_iot_kit/common/Libraries/XMCLib/inc\xmc_ccu8.h **** } XMC_CCU8_SLICE_EVENT_FILTER_t;
 466:D:/School/diseratie/SEMS/xmc4800_evaluation_kit/xmc4800_iot_kit/common/Libraries/XMCLib/inc\xmc_ccu8.h **** 
 467:D:/School/diseratie/SEMS/xmc4800_evaluation_kit/xmc4800_iot_kit/common/Libraries/XMCLib/inc\xmc_ccu8.h **** /**
 468:D:/School/diseratie/SEMS/xmc4800_evaluation_kit/xmc4800_iot_kit/common/Libraries/XMCLib/inc\xmc_ccu8.h ****  *  External Event Input list. This list depicts the possible input connections to the CCU8 slice.
 469:D:/School/diseratie/SEMS/xmc4800_evaluation_kit/xmc4800_iot_kit/common/Libraries/XMCLib/inc\xmc_ccu8.h ****  *  Interconnects are specific to each device.
 470:D:/School/diseratie/SEMS/xmc4800_evaluation_kit/xmc4800_iot_kit/common/Libraries/XMCLib/inc\xmc_ccu8.h ****  */
 471:D:/School/diseratie/SEMS/xmc4800_evaluation_kit/xmc4800_iot_kit/common/Libraries/XMCLib/inc\xmc_ccu8.h **** typedef uint8_t XMC_CCU8_SLICE_INPUT_t;
 472:D:/School/diseratie/SEMS/xmc4800_evaluation_kit/xmc4800_iot_kit/common/Libraries/XMCLib/inc\xmc_ccu8.h **** 
 473:D:/School/diseratie/SEMS/xmc4800_evaluation_kit/xmc4800_iot_kit/common/Libraries/XMCLib/inc\xmc_ccu8.h **** 
 474:D:/School/diseratie/SEMS/xmc4800_evaluation_kit/xmc4800_iot_kit/common/Libraries/XMCLib/inc\xmc_ccu8.h **** /**
 475:D:/School/diseratie/SEMS/xmc4800_evaluation_kit/xmc4800_iot_kit/common/Libraries/XMCLib/inc\xmc_ccu8.h ****  * Actions that can be performed upon detection of an external Timer STOP event
 476:D:/School/diseratie/SEMS/xmc4800_evaluation_kit/xmc4800_iot_kit/common/Libraries/XMCLib/inc\xmc_ccu8.h ****  */
 477:D:/School/diseratie/SEMS/xmc4800_evaluation_kit/xmc4800_iot_kit/common/Libraries/XMCLib/inc\xmc_ccu8.h **** typedef enum XMC_CCU8_SLICE_END_MODE
 478:D:/School/diseratie/SEMS/xmc4800_evaluation_kit/xmc4800_iot_kit/common/Libraries/XMCLib/inc\xmc_ccu8.h **** {
 479:D:/School/diseratie/SEMS/xmc4800_evaluation_kit/xmc4800_iot_kit/common/Libraries/XMCLib/inc\xmc_ccu8.h ****   XMC_CCU8_SLICE_END_MODE_TIMER_STOP       = 0U, /**< Stops the timer, without clearing TIMER regis
 480:D:/School/diseratie/SEMS/xmc4800_evaluation_kit/xmc4800_iot_kit/common/Libraries/XMCLib/inc\xmc_ccu8.h ****   XMC_CCU8_SLICE_END_MODE_TIMER_CLEAR          , /**< Without stopping timer, clears the TIMER regi
 481:D:/School/diseratie/SEMS/xmc4800_evaluation_kit/xmc4800_iot_kit/common/Libraries/XMCLib/inc\xmc_ccu8.h ****   XMC_CCU8_SLICE_END_MODE_TIMER_STOP_CLEAR       /**< Stops the timer and clears the TIMER register
 482:D:/School/diseratie/SEMS/xmc4800_evaluation_kit/xmc4800_iot_kit/common/Libraries/XMCLib/inc\xmc_ccu8.h **** } XMC_CCU8_SLICE_END_MODE_t;
 483:D:/School/diseratie/SEMS/xmc4800_evaluation_kit/xmc4800_iot_kit/common/Libraries/XMCLib/inc\xmc_ccu8.h **** 
 484:D:/School/diseratie/SEMS/xmc4800_evaluation_kit/xmc4800_iot_kit/common/Libraries/XMCLib/inc\xmc_ccu8.h **** /**
 485:D:/School/diseratie/SEMS/xmc4800_evaluation_kit/xmc4800_iot_kit/common/Libraries/XMCLib/inc\xmc_ccu8.h ****  *  Actions that can be performed upon detection of an external Timer START event
 486:D:/School/diseratie/SEMS/xmc4800_evaluation_kit/xmc4800_iot_kit/common/Libraries/XMCLib/inc\xmc_ccu8.h ****  */
 487:D:/School/diseratie/SEMS/xmc4800_evaluation_kit/xmc4800_iot_kit/common/Libraries/XMCLib/inc\xmc_ccu8.h **** typedef enum XMC_CCU8_SLICE_START_MODE
 488:D:/School/diseratie/SEMS/xmc4800_evaluation_kit/xmc4800_iot_kit/common/Libraries/XMCLib/inc\xmc_ccu8.h **** {
 489:D:/School/diseratie/SEMS/xmc4800_evaluation_kit/xmc4800_iot_kit/common/Libraries/XMCLib/inc\xmc_ccu8.h ****   XMC_CCU8_SLICE_START_MODE_TIMER_START       = 0U, /**< Start the timer from the current count of 
 490:D:/School/diseratie/SEMS/xmc4800_evaluation_kit/xmc4800_iot_kit/common/Libraries/XMCLib/inc\xmc_ccu8.h ****   XMC_CCU8_SLICE_START_MODE_TIMER_START_CLEAR       /**< Clears the TIMER register and start the ti
 491:D:/School/diseratie/SEMS/xmc4800_evaluation_kit/xmc4800_iot_kit/common/Libraries/XMCLib/inc\xmc_ccu8.h **** } XMC_CCU8_SLICE_START_MODE_t;
 492:D:/School/diseratie/SEMS/xmc4800_evaluation_kit/xmc4800_iot_kit/common/Libraries/XMCLib/inc\xmc_ccu8.h **** 
 493:D:/School/diseratie/SEMS/xmc4800_evaluation_kit/xmc4800_iot_kit/common/Libraries/XMCLib/inc\xmc_ccu8.h **** /**
 494:D:/School/diseratie/SEMS/xmc4800_evaluation_kit/xmc4800_iot_kit/common/Libraries/XMCLib/inc\xmc_ccu8.h ****  *  Modulation of timer output signals
 495:D:/School/diseratie/SEMS/xmc4800_evaluation_kit/xmc4800_iot_kit/common/Libraries/XMCLib/inc\xmc_ccu8.h ****  */
 496:D:/School/diseratie/SEMS/xmc4800_evaluation_kit/xmc4800_iot_kit/common/Libraries/XMCLib/inc\xmc_ccu8.h **** typedef enum XMC_CCU8_SLICE_MODULATION_MODE
 497:D:/School/diseratie/SEMS/xmc4800_evaluation_kit/xmc4800_iot_kit/common/Libraries/XMCLib/inc\xmc_ccu8.h **** {
 498:D:/School/diseratie/SEMS/xmc4800_evaluation_kit/xmc4800_iot_kit/common/Libraries/XMCLib/inc\xmc_ccu8.h ****   XMC_CCU8_SLICE_MODULATION_MODE_CLEAR_ST_OUT  = 0U, /**< Clear ST and OUT signals */
 499:D:/School/diseratie/SEMS/xmc4800_evaluation_kit/xmc4800_iot_kit/common/Libraries/XMCLib/inc\xmc_ccu8.h ****   XMC_CCU8_SLICE_MODULATION_MODE_CLEAR_OUT           /**< Clear only the OUT signal */
 500:D:/School/diseratie/SEMS/xmc4800_evaluation_kit/xmc4800_iot_kit/common/Libraries/XMCLib/inc\xmc_ccu8.h **** } XMC_CCU8_SLICE_MODULATION_MODE_t;
 501:D:/School/diseratie/SEMS/xmc4800_evaluation_kit/xmc4800_iot_kit/common/Libraries/XMCLib/inc\xmc_ccu8.h **** 
 502:D:/School/diseratie/SEMS/xmc4800_evaluation_kit/xmc4800_iot_kit/common/Libraries/XMCLib/inc\xmc_ccu8.h **** /**
 503:D:/School/diseratie/SEMS/xmc4800_evaluation_kit/xmc4800_iot_kit/common/Libraries/XMCLib/inc\xmc_ccu8.h ****  *  Trap exit mode
 504:D:/School/diseratie/SEMS/xmc4800_evaluation_kit/xmc4800_iot_kit/common/Libraries/XMCLib/inc\xmc_ccu8.h ****  */
 505:D:/School/diseratie/SEMS/xmc4800_evaluation_kit/xmc4800_iot_kit/common/Libraries/XMCLib/inc\xmc_ccu8.h **** typedef enum XMC_CCU8_SLICE_TRAP_EXIT_MODE
 506:D:/School/diseratie/SEMS/xmc4800_evaluation_kit/xmc4800_iot_kit/common/Libraries/XMCLib/inc\xmc_ccu8.h **** {
 507:D:/School/diseratie/SEMS/xmc4800_evaluation_kit/xmc4800_iot_kit/common/Libraries/XMCLib/inc\xmc_ccu8.h ****   XMC_CCU8_SLICE_TRAP_EXIT_MODE_AUTOMATIC = 0U, /**< Clear trap state as soon as the trap signal is
 508:D:/School/diseratie/SEMS/xmc4800_evaluation_kit/xmc4800_iot_kit/common/Libraries/XMCLib/inc\xmc_ccu8.h ****   XMC_CCU8_SLICE_TRAP_EXIT_MODE_SW              /**< Clear only when acknowledged by software */
 509:D:/School/diseratie/SEMS/xmc4800_evaluation_kit/xmc4800_iot_kit/common/Libraries/XMCLib/inc\xmc_ccu8.h **** } XMC_CCU8_SLICE_TRAP_EXIT_MODE_t;
 510:D:/School/diseratie/SEMS/xmc4800_evaluation_kit/xmc4800_iot_kit/common/Libraries/XMCLib/inc\xmc_ccu8.h **** 
 511:D:/School/diseratie/SEMS/xmc4800_evaluation_kit/xmc4800_iot_kit/common/Libraries/XMCLib/inc\xmc_ccu8.h **** /**
 512:D:/School/diseratie/SEMS/xmc4800_evaluation_kit/xmc4800_iot_kit/common/Libraries/XMCLib/inc\xmc_ccu8.h ****  *  Timer clear on capture
 513:D:/School/diseratie/SEMS/xmc4800_evaluation_kit/xmc4800_iot_kit/common/Libraries/XMCLib/inc\xmc_ccu8.h ****  */
 514:D:/School/diseratie/SEMS/xmc4800_evaluation_kit/xmc4800_iot_kit/common/Libraries/XMCLib/inc\xmc_ccu8.h **** typedef enum XMC_CCU8_SLICE_TIMER_CLEAR_MODE
 515:D:/School/diseratie/SEMS/xmc4800_evaluation_kit/xmc4800_iot_kit/common/Libraries/XMCLib/inc\xmc_ccu8.h **** {
 516:D:/School/diseratie/SEMS/xmc4800_evaluation_kit/xmc4800_iot_kit/common/Libraries/XMCLib/inc\xmc_ccu8.h ****   XMC_CCU8_SLICE_TIMER_CLEAR_MODE_NEVER    = 0U, /**< Never clear the timer on any capture event */
 517:D:/School/diseratie/SEMS/xmc4800_evaluation_kit/xmc4800_iot_kit/common/Libraries/XMCLib/inc\xmc_ccu8.h ****   XMC_CCU8_SLICE_TIMER_CLEAR_MODE_CAP_HIGH     , /**< Clear only when timer value has been captured
 518:D:/School/diseratie/SEMS/xmc4800_evaluation_kit/xmc4800_iot_kit/common/Libraries/XMCLib/inc\xmc_ccu8.h ****   XMC_CCU8_SLICE_TIMER_CLEAR_MODE_CAP_LOW      , /**< Clear only when timer value has been captured
 519:D:/School/diseratie/SEMS/xmc4800_evaluation_kit/xmc4800_iot_kit/common/Libraries/XMCLib/inc\xmc_ccu8.h ****   XMC_CCU8_SLICE_TIMER_CLEAR_MODE_ALWAYS         /**< Always clear the timer upon detection of any 
 520:D:/School/diseratie/SEMS/xmc4800_evaluation_kit/xmc4800_iot_kit/common/Libraries/XMCLib/inc\xmc_ccu8.h **** } XMC_CCU8_SLICE_TIMER_CLEAR_MODE_t;
 521:D:/School/diseratie/SEMS/xmc4800_evaluation_kit/xmc4800_iot_kit/common/Libraries/XMCLib/inc\xmc_ccu8.h **** 
 522:D:/School/diseratie/SEMS/xmc4800_evaluation_kit/xmc4800_iot_kit/common/Libraries/XMCLib/inc\xmc_ccu8.h **** /**
 523:D:/School/diseratie/SEMS/xmc4800_evaluation_kit/xmc4800_iot_kit/common/Libraries/XMCLib/inc\xmc_ccu8.h ****  *  Multi Channel Shadow transfer request configuration options
 524:D:/School/diseratie/SEMS/xmc4800_evaluation_kit/xmc4800_iot_kit/common/Libraries/XMCLib/inc\xmc_ccu8.h ****  */
 525:D:/School/diseratie/SEMS/xmc4800_evaluation_kit/xmc4800_iot_kit/common/Libraries/XMCLib/inc\xmc_ccu8.h **** typedef enum XMC_CCU8_SLICE_MCMS_ACTION
 526:D:/School/diseratie/SEMS/xmc4800_evaluation_kit/xmc4800_iot_kit/common/Libraries/XMCLib/inc\xmc_ccu8.h **** {
 527:D:/School/diseratie/SEMS/xmc4800_evaluation_kit/xmc4800_iot_kit/common/Libraries/XMCLib/inc\xmc_ccu8.h ****   XMC_CCU8_SLICE_MCMS_ACTION_TRANSFER_PR_CR          = 0U, /**< Transfer Compare and Period Shadow 
 528:D:/School/diseratie/SEMS/xmc4800_evaluation_kit/xmc4800_iot_kit/common/Libraries/XMCLib/inc\xmc_ccu8.h ****                                                                 the actual registers upon MCS xfer 
 529:D:/School/diseratie/SEMS/xmc4800_evaluation_kit/xmc4800_iot_kit/common/Libraries/XMCLib/inc\xmc_ccu8.h ****   XMC_CCU8_SLICE_MCMS_ACTION_TRANSFER_PR_CR_PCMP     = 1U, /**< Transfer Compare, Period and Presca
 530:D:/School/diseratie/SEMS/xmc4800_evaluation_kit/xmc4800_iot_kit/common/Libraries/XMCLib/inc\xmc_ccu8.h ****                                                                 register values to the actual regis
 531:D:/School/diseratie/SEMS/xmc4800_evaluation_kit/xmc4800_iot_kit/common/Libraries/XMCLib/inc\xmc_ccu8.h ****                                                                 request */
 532:D:/School/diseratie/SEMS/xmc4800_evaluation_kit/xmc4800_iot_kit/common/Libraries/XMCLib/inc\xmc_ccu8.h ****   XMC_CCU8_SLICE_MCMS_ACTION_TRANSFER_PR_CR_PCMP_DIT = 3U  /**< Transfer Compare, Period ,Prescaler
 533:D:/School/diseratie/SEMS/xmc4800_evaluation_kit/xmc4800_iot_kit/common/Libraries/XMCLib/inc\xmc_ccu8.h ****                                                                 Compare register values to the actu
 534:D:/School/diseratie/SEMS/xmc4800_evaluation_kit/xmc4800_iot_kit/common/Libraries/XMCLib/inc\xmc_ccu8.h ****                                                                 MCS xfer request */
 535:D:/School/diseratie/SEMS/xmc4800_evaluation_kit/xmc4800_iot_kit/common/Libraries/XMCLib/inc\xmc_ccu8.h **** } XMC_CCU8_SLICE_MCMS_ACTION_t;
 536:D:/School/diseratie/SEMS/xmc4800_evaluation_kit/xmc4800_iot_kit/common/Libraries/XMCLib/inc\xmc_ccu8.h **** 
 537:D:/School/diseratie/SEMS/xmc4800_evaluation_kit/xmc4800_iot_kit/common/Libraries/XMCLib/inc\xmc_ccu8.h **** /**
 538:D:/School/diseratie/SEMS/xmc4800_evaluation_kit/xmc4800_iot_kit/common/Libraries/XMCLib/inc\xmc_ccu8.h ****  * Available Interrupt Event Ids
 539:D:/School/diseratie/SEMS/xmc4800_evaluation_kit/xmc4800_iot_kit/common/Libraries/XMCLib/inc\xmc_ccu8.h ****  */
 540:D:/School/diseratie/SEMS/xmc4800_evaluation_kit/xmc4800_iot_kit/common/Libraries/XMCLib/inc\xmc_ccu8.h **** typedef enum XMC_CCU8_SLICE_IRQ_ID
 541:D:/School/diseratie/SEMS/xmc4800_evaluation_kit/xmc4800_iot_kit/common/Libraries/XMCLib/inc\xmc_ccu8.h **** {
 542:D:/School/diseratie/SEMS/xmc4800_evaluation_kit/xmc4800_iot_kit/common/Libraries/XMCLib/inc\xmc_ccu8.h ****   XMC_CCU8_SLICE_IRQ_ID_PERIOD_MATCH            = 0U , /**< Period match counting up */
 543:D:/School/diseratie/SEMS/xmc4800_evaluation_kit/xmc4800_iot_kit/common/Libraries/XMCLib/inc\xmc_ccu8.h ****   XMC_CCU8_SLICE_IRQ_ID_ONE_MATCH               = 1U , /**< One match counting down */
 544:D:/School/diseratie/SEMS/xmc4800_evaluation_kit/xmc4800_iot_kit/common/Libraries/XMCLib/inc\xmc_ccu8.h ****   XMC_CCU8_SLICE_IRQ_ID_COMPARE_MATCH_UP_CH_1   = 2U , /**< Compare match counting up for channel 1
 545:D:/School/diseratie/SEMS/xmc4800_evaluation_kit/xmc4800_iot_kit/common/Libraries/XMCLib/inc\xmc_ccu8.h ****   XMC_CCU8_SLICE_IRQ_ID_COMPARE_MATCH_DOWN_CH_1 = 3U , /**< Compare match counting down for channel
 546:D:/School/diseratie/SEMS/xmc4800_evaluation_kit/xmc4800_iot_kit/common/Libraries/XMCLib/inc\xmc_ccu8.h ****   XMC_CCU8_SLICE_IRQ_ID_COMPARE_MATCH_UP_CH_2   = 4U , /**< Compare match counting up for channel 2
 547:D:/School/diseratie/SEMS/xmc4800_evaluation_kit/xmc4800_iot_kit/common/Libraries/XMCLib/inc\xmc_ccu8.h ****   XMC_CCU8_SLICE_IRQ_ID_COMPARE_MATCH_DOWN_CH_2 = 5U , /**< Compare match counting down for channel
 548:D:/School/diseratie/SEMS/xmc4800_evaluation_kit/xmc4800_iot_kit/common/Libraries/XMCLib/inc\xmc_ccu8.h ****   XMC_CCU8_SLICE_IRQ_ID_EVENT0                  = 8U , /**< Event-0 occurrence */
 549:D:/School/diseratie/SEMS/xmc4800_evaluation_kit/xmc4800_iot_kit/common/Libraries/XMCLib/inc\xmc_ccu8.h ****   XMC_CCU8_SLICE_IRQ_ID_EVENT1                  = 9U , /**< Event-1 occurrence */
 550:D:/School/diseratie/SEMS/xmc4800_evaluation_kit/xmc4800_iot_kit/common/Libraries/XMCLib/inc\xmc_ccu8.h ****   XMC_CCU8_SLICE_IRQ_ID_EVENT2                  = 10U, /**< Event-2 occurrence */
 551:D:/School/diseratie/SEMS/xmc4800_evaluation_kit/xmc4800_iot_kit/common/Libraries/XMCLib/inc\xmc_ccu8.h ****   XMC_CCU8_SLICE_IRQ_ID_TRAP                    = 11U  /**< Trap occurrence */
 552:D:/School/diseratie/SEMS/xmc4800_evaluation_kit/xmc4800_iot_kit/common/Libraries/XMCLib/inc\xmc_ccu8.h **** } XMC_CCU8_SLICE_IRQ_ID_t;
 553:D:/School/diseratie/SEMS/xmc4800_evaluation_kit/xmc4800_iot_kit/common/Libraries/XMCLib/inc\xmc_ccu8.h **** 
 554:D:/School/diseratie/SEMS/xmc4800_evaluation_kit/xmc4800_iot_kit/common/Libraries/XMCLib/inc\xmc_ccu8.h **** /**
 555:D:/School/diseratie/SEMS/xmc4800_evaluation_kit/xmc4800_iot_kit/common/Libraries/XMCLib/inc\xmc_ccu8.h ****  * Available Interrupt Event Ids, which is added to support multi event APIs
 556:D:/School/diseratie/SEMS/xmc4800_evaluation_kit/xmc4800_iot_kit/common/Libraries/XMCLib/inc\xmc_ccu8.h ****  */
 557:D:/School/diseratie/SEMS/xmc4800_evaluation_kit/xmc4800_iot_kit/common/Libraries/XMCLib/inc\xmc_ccu8.h **** typedef enum XMC_CCU8_SLICE_MULTI_IRQ_ID
 558:D:/School/diseratie/SEMS/xmc4800_evaluation_kit/xmc4800_iot_kit/common/Libraries/XMCLib/inc\xmc_ccu8.h **** {
 559:D:/School/diseratie/SEMS/xmc4800_evaluation_kit/xmc4800_iot_kit/common/Libraries/XMCLib/inc\xmc_ccu8.h ****   XMC_CCU8_SLICE_MULTI_IRQ_ID_PERIOD_MATCH            = 0x1U,   /**< Period match counting up */
 560:D:/School/diseratie/SEMS/xmc4800_evaluation_kit/xmc4800_iot_kit/common/Libraries/XMCLib/inc\xmc_ccu8.h ****   XMC_CCU8_SLICE_MULTI_IRQ_ID_ONE_MATCH               = 0x2U,   /**< One match counting down */
 561:D:/School/diseratie/SEMS/xmc4800_evaluation_kit/xmc4800_iot_kit/common/Libraries/XMCLib/inc\xmc_ccu8.h ****   XMC_CCU8_SLICE_MULTI_IRQ_ID_COMPARE_MATCH_UP_CH_1   = 0x4U,   /**< Compare match counting up for 
 562:D:/School/diseratie/SEMS/xmc4800_evaluation_kit/xmc4800_iot_kit/common/Libraries/XMCLib/inc\xmc_ccu8.h ****   XMC_CCU8_SLICE_MULTI_IRQ_ID_COMPARE_MATCH_DOWN_CH_1 = 0x8U,   /**< Compare match counting down fo
 563:D:/School/diseratie/SEMS/xmc4800_evaluation_kit/xmc4800_iot_kit/common/Libraries/XMCLib/inc\xmc_ccu8.h ****   XMC_CCU8_SLICE_MULTI_IRQ_ID_COMPARE_MATCH_UP_CH_2   = 0x10U,  /**< Compare match counting up for 
 564:D:/School/diseratie/SEMS/xmc4800_evaluation_kit/xmc4800_iot_kit/common/Libraries/XMCLib/inc\xmc_ccu8.h ****   XMC_CCU8_SLICE_MULTI_IRQ_ID_COMPARE_MATCH_DOWN_CH_2 = 0x20U,  /**< Compare match counting down fo
 565:D:/School/diseratie/SEMS/xmc4800_evaluation_kit/xmc4800_iot_kit/common/Libraries/XMCLib/inc\xmc_ccu8.h ****   XMC_CCU8_SLICE_MULTI_IRQ_ID_EVENT0                  = 0x100U, /**< Event-0 occurrence */
 566:D:/School/diseratie/SEMS/xmc4800_evaluation_kit/xmc4800_iot_kit/common/Libraries/XMCLib/inc\xmc_ccu8.h ****   XMC_CCU8_SLICE_MULTI_IRQ_ID_EVENT1                  = 0x200U, /**< Event-1 occurrence */
 567:D:/School/diseratie/SEMS/xmc4800_evaluation_kit/xmc4800_iot_kit/common/Libraries/XMCLib/inc\xmc_ccu8.h ****   XMC_CCU8_SLICE_MULTI_IRQ_ID_EVENT2                  = 0x400U, /**< Event-2 occurrence */
 568:D:/School/diseratie/SEMS/xmc4800_evaluation_kit/xmc4800_iot_kit/common/Libraries/XMCLib/inc\xmc_ccu8.h **** } XMC_CCU8_SLICE_MULTI_IRQ_ID_t;
 569:D:/School/diseratie/SEMS/xmc4800_evaluation_kit/xmc4800_iot_kit/common/Libraries/XMCLib/inc\xmc_ccu8.h **** 
 570:D:/School/diseratie/SEMS/xmc4800_evaluation_kit/xmc4800_iot_kit/common/Libraries/XMCLib/inc\xmc_ccu8.h **** /**
 571:D:/School/diseratie/SEMS/xmc4800_evaluation_kit/xmc4800_iot_kit/common/Libraries/XMCLib/inc\xmc_ccu8.h ****  * Service Request Lines for CCU8. Event are mapped to these SR lines and these are used to generat
 572:D:/School/diseratie/SEMS/xmc4800_evaluation_kit/xmc4800_iot_kit/common/Libraries/XMCLib/inc\xmc_ccu8.h ****  */
 573:D:/School/diseratie/SEMS/xmc4800_evaluation_kit/xmc4800_iot_kit/common/Libraries/XMCLib/inc\xmc_ccu8.h **** typedef enum XMC_CCU8_SLICE_SR_ID
 574:D:/School/diseratie/SEMS/xmc4800_evaluation_kit/xmc4800_iot_kit/common/Libraries/XMCLib/inc\xmc_ccu8.h **** {
 575:D:/School/diseratie/SEMS/xmc4800_evaluation_kit/xmc4800_iot_kit/common/Libraries/XMCLib/inc\xmc_ccu8.h ****   XMC_CCU8_SLICE_SR_ID_0    = 0U, /**< Service Request Line-0 selected  */
 576:D:/School/diseratie/SEMS/xmc4800_evaluation_kit/xmc4800_iot_kit/common/Libraries/XMCLib/inc\xmc_ccu8.h ****   XMC_CCU8_SLICE_SR_ID_1        , /**< Service Request Line-1 selected  */
 577:D:/School/diseratie/SEMS/xmc4800_evaluation_kit/xmc4800_iot_kit/common/Libraries/XMCLib/inc\xmc_ccu8.h ****   XMC_CCU8_SLICE_SR_ID_2        , /**< Service Request Line-2 selected  */
 578:D:/School/diseratie/SEMS/xmc4800_evaluation_kit/xmc4800_iot_kit/common/Libraries/XMCLib/inc\xmc_ccu8.h ****   XMC_CCU8_SLICE_SR_ID_3          /**< Service Request Line-3 selected  */
 579:D:/School/diseratie/SEMS/xmc4800_evaluation_kit/xmc4800_iot_kit/common/Libraries/XMCLib/inc\xmc_ccu8.h **** } XMC_CCU8_SLICE_SR_ID_t;
 580:D:/School/diseratie/SEMS/xmc4800_evaluation_kit/xmc4800_iot_kit/common/Libraries/XMCLib/inc\xmc_ccu8.h **** 
 581:D:/School/diseratie/SEMS/xmc4800_evaluation_kit/xmc4800_iot_kit/common/Libraries/XMCLib/inc\xmc_ccu8.h **** 
 582:D:/School/diseratie/SEMS/xmc4800_evaluation_kit/xmc4800_iot_kit/common/Libraries/XMCLib/inc\xmc_ccu8.h **** /**
 583:D:/School/diseratie/SEMS/xmc4800_evaluation_kit/xmc4800_iot_kit/common/Libraries/XMCLib/inc\xmc_ccu8.h ****  *  Slice shadow transfer options.
 584:D:/School/diseratie/SEMS/xmc4800_evaluation_kit/xmc4800_iot_kit/common/Libraries/XMCLib/inc\xmc_ccu8.h ****  */
 585:D:/School/diseratie/SEMS/xmc4800_evaluation_kit/xmc4800_iot_kit/common/Libraries/XMCLib/inc\xmc_ccu8.h **** typedef enum XMC_CCU8_SHADOW_TRANSFER
 586:D:/School/diseratie/SEMS/xmc4800_evaluation_kit/xmc4800_iot_kit/common/Libraries/XMCLib/inc\xmc_ccu8.h **** {
 587:D:/School/diseratie/SEMS/xmc4800_evaluation_kit/xmc4800_iot_kit/common/Libraries/XMCLib/inc\xmc_ccu8.h ****   XMC_CCU8_SHADOW_TRANSFER_SLICE_0            = CCU8_GCSS_S0SE_Msk,  /**< Transfer Period, Compare 
 588:D:/School/diseratie/SEMS/xmc4800_evaluation_kit/xmc4800_iot_kit/common/Libraries/XMCLib/inc\xmc_ccu8.h ****                                                                           shadow register values to
 589:D:/School/diseratie/SEMS/xmc4800_evaluation_kit/xmc4800_iot_kit/common/Libraries/XMCLib/inc\xmc_ccu8.h ****                                                                           SLICE-0 */
 590:D:/School/diseratie/SEMS/xmc4800_evaluation_kit/xmc4800_iot_kit/common/Libraries/XMCLib/inc\xmc_ccu8.h ****   XMC_CCU8_SHADOW_TRANSFER_DITHER_SLICE_0     = CCU8_GCSS_S0DSE_Msk, /**< Transfer Dither compare s
 591:D:/School/diseratie/SEMS/xmc4800_evaluation_kit/xmc4800_iot_kit/common/Libraries/XMCLib/inc\xmc_ccu8.h ****                                                                           to actual register for SL
 592:D:/School/diseratie/SEMS/xmc4800_evaluation_kit/xmc4800_iot_kit/common/Libraries/XMCLib/inc\xmc_ccu8.h ****   XMC_CCU8_SHADOW_TRANSFER_PRESCALER_SLICE_0  = CCU8_GCSS_S0PSE_Msk, /**< Transfer Prescaler shadow
 593:D:/School/diseratie/SEMS/xmc4800_evaluation_kit/xmc4800_iot_kit/common/Libraries/XMCLib/inc\xmc_ccu8.h ****                                                                           actual register for SLICE
 594:D:/School/diseratie/SEMS/xmc4800_evaluation_kit/xmc4800_iot_kit/common/Libraries/XMCLib/inc\xmc_ccu8.h ****   XMC_CCU8_SHADOW_TRANSFER_SLICE_1            = CCU8_GCSS_S1SE_Msk,  /**< Transfer Period, Compare 
 595:D:/School/diseratie/SEMS/xmc4800_evaluation_kit/xmc4800_iot_kit/common/Libraries/XMCLib/inc\xmc_ccu8.h ****                                                                           shadow register values to
 596:D:/School/diseratie/SEMS/xmc4800_evaluation_kit/xmc4800_iot_kit/common/Libraries/XMCLib/inc\xmc_ccu8.h ****                                                                           SLICE-1 */
 597:D:/School/diseratie/SEMS/xmc4800_evaluation_kit/xmc4800_iot_kit/common/Libraries/XMCLib/inc\xmc_ccu8.h ****   XMC_CCU8_SHADOW_TRANSFER_DITHER_SLICE_1     = CCU8_GCSS_S1DSE_Msk, /**< Transfer Dither compare s
 598:D:/School/diseratie/SEMS/xmc4800_evaluation_kit/xmc4800_iot_kit/common/Libraries/XMCLib/inc\xmc_ccu8.h ****                                                                           to actual registers for S
 599:D:/School/diseratie/SEMS/xmc4800_evaluation_kit/xmc4800_iot_kit/common/Libraries/XMCLib/inc\xmc_ccu8.h ****   XMC_CCU8_SHADOW_TRANSFER_PRESCALER_SLICE_1  = CCU8_GCSS_S1PSE_Msk, /**< Transfer Prescaler shadow
 600:D:/School/diseratie/SEMS/xmc4800_evaluation_kit/xmc4800_iot_kit/common/Libraries/XMCLib/inc\xmc_ccu8.h ****                                                                           actual register for SLICE
 601:D:/School/diseratie/SEMS/xmc4800_evaluation_kit/xmc4800_iot_kit/common/Libraries/XMCLib/inc\xmc_ccu8.h ****   XMC_CCU8_SHADOW_TRANSFER_SLICE_2            = CCU8_GCSS_S2SE_Msk,  /**< Transfer Period, Compare 
 602:D:/School/diseratie/SEMS/xmc4800_evaluation_kit/xmc4800_iot_kit/common/Libraries/XMCLib/inc\xmc_ccu8.h ****                                                                           shadow register values to
 603:D:/School/diseratie/SEMS/xmc4800_evaluation_kit/xmc4800_iot_kit/common/Libraries/XMCLib/inc\xmc_ccu8.h ****                                                                           SLICE-2 */
 604:D:/School/diseratie/SEMS/xmc4800_evaluation_kit/xmc4800_iot_kit/common/Libraries/XMCLib/inc\xmc_ccu8.h ****   XMC_CCU8_SHADOW_TRANSFER_DITHER_SLICE_2     = CCU8_GCSS_S2DSE_Msk, /**< Transfer Dither compare s
 605:D:/School/diseratie/SEMS/xmc4800_evaluation_kit/xmc4800_iot_kit/common/Libraries/XMCLib/inc\xmc_ccu8.h ****                                                                           to actual register for SL
 606:D:/School/diseratie/SEMS/xmc4800_evaluation_kit/xmc4800_iot_kit/common/Libraries/XMCLib/inc\xmc_ccu8.h ****   XMC_CCU8_SHADOW_TRANSFER_PRESCALER_SLICE_2  = CCU8_GCSS_S2PSE_Msk, /**< Transfer Prescaler shadow
 607:D:/School/diseratie/SEMS/xmc4800_evaluation_kit/xmc4800_iot_kit/common/Libraries/XMCLib/inc\xmc_ccu8.h ****                                                                           actual register for SLICE
 608:D:/School/diseratie/SEMS/xmc4800_evaluation_kit/xmc4800_iot_kit/common/Libraries/XMCLib/inc\xmc_ccu8.h ****   XMC_CCU8_SHADOW_TRANSFER_SLICE_3            = CCU8_GCSS_S3SE_Msk,  /**< Transfer Period, Compare 
 609:D:/School/diseratie/SEMS/xmc4800_evaluation_kit/xmc4800_iot_kit/common/Libraries/XMCLib/inc\xmc_ccu8.h ****                                                                           shadow register values to
 610:D:/School/diseratie/SEMS/xmc4800_evaluation_kit/xmc4800_iot_kit/common/Libraries/XMCLib/inc\xmc_ccu8.h ****                                                                           SLICE-3 */
 611:D:/School/diseratie/SEMS/xmc4800_evaluation_kit/xmc4800_iot_kit/common/Libraries/XMCLib/inc\xmc_ccu8.h ****   XMC_CCU8_SHADOW_TRANSFER_DITHER_SLICE_3     = CCU8_GCSS_S3DSE_Msk, /**< Transfer Dither compare s
 612:D:/School/diseratie/SEMS/xmc4800_evaluation_kit/xmc4800_iot_kit/common/Libraries/XMCLib/inc\xmc_ccu8.h ****                                                                           to actual register for SL
 613:D:/School/diseratie/SEMS/xmc4800_evaluation_kit/xmc4800_iot_kit/common/Libraries/XMCLib/inc\xmc_ccu8.h ****   XMC_CCU8_SHADOW_TRANSFER_PRESCALER_SLICE_3  = CCU8_GCSS_S3PSE_Msk  /**< Transfer Prescaler shadow
 614:D:/School/diseratie/SEMS/xmc4800_evaluation_kit/xmc4800_iot_kit/common/Libraries/XMCLib/inc\xmc_ccu8.h ****                                                                           actual register for SLICE
 615:D:/School/diseratie/SEMS/xmc4800_evaluation_kit/xmc4800_iot_kit/common/Libraries/XMCLib/inc\xmc_ccu8.h **** } XMC_CCU8_SHADOW_TRANSFER_t;
 616:D:/School/diseratie/SEMS/xmc4800_evaluation_kit/xmc4800_iot_kit/common/Libraries/XMCLib/inc\xmc_ccu8.h **** 
 617:D:/School/diseratie/SEMS/xmc4800_evaluation_kit/xmc4800_iot_kit/common/Libraries/XMCLib/inc\xmc_ccu8.h **** #if (UC_SERIES != XMC45) || defined(DOXYGEN)
 618:D:/School/diseratie/SEMS/xmc4800_evaluation_kit/xmc4800_iot_kit/common/Libraries/XMCLib/inc\xmc_ccu8.h **** /**
 619:D:/School/diseratie/SEMS/xmc4800_evaluation_kit/xmc4800_iot_kit/common/Libraries/XMCLib/inc\xmc_ccu8.h ****  *  Slice shadow transfer mode options.
 620:D:/School/diseratie/SEMS/xmc4800_evaluation_kit/xmc4800_iot_kit/common/Libraries/XMCLib/inc\xmc_ccu8.h ****  * @note Not available for XMC4500 series
 621:D:/School/diseratie/SEMS/xmc4800_evaluation_kit/xmc4800_iot_kit/common/Libraries/XMCLib/inc\xmc_ccu8.h ****  */
 622:D:/School/diseratie/SEMS/xmc4800_evaluation_kit/xmc4800_iot_kit/common/Libraries/XMCLib/inc\xmc_ccu8.h **** typedef enum XMC_CCU8_SLICE_SHADOW_TRANSFER_MODE
 623:D:/School/diseratie/SEMS/xmc4800_evaluation_kit/xmc4800_iot_kit/common/Libraries/XMCLib/inc\xmc_ccu8.h **** {
 624:D:/School/diseratie/SEMS/xmc4800_evaluation_kit/xmc4800_iot_kit/common/Libraries/XMCLib/inc\xmc_ccu8.h ****   XMC_CCU8_SLICE_SHADOW_TRANSFER_MODE_IN_PERIOD_MATCH_AND_ONE_MATCH = 0U, /**< Shadow transfer is d
 625:D:/School/diseratie/SEMS/xmc4800_evaluation_kit/xmc4800_iot_kit/common/Libraries/XMCLib/inc\xmc_ccu8.h ****                                                                                One match. */
 626:D:/School/diseratie/SEMS/xmc4800_evaluation_kit/xmc4800_iot_kit/common/Libraries/XMCLib/inc\xmc_ccu8.h ****   XMC_CCU8_SLICE_SHADOW_TRANSFER_MODE_ONLY_IN_PERIOD_MATCH = 1U,  /**< Shadow transfer is done only
 627:D:/School/diseratie/SEMS/xmc4800_evaluation_kit/xmc4800_iot_kit/common/Libraries/XMCLib/inc\xmc_ccu8.h ****   XMC_CCU8_SLICE_SHADOW_TRANSFER_MODE_ONLY_IN_ONE_MATCH = 2U  /**< Shadow transfer is done only in 
 628:D:/School/diseratie/SEMS/xmc4800_evaluation_kit/xmc4800_iot_kit/common/Libraries/XMCLib/inc\xmc_ccu8.h **** } XMC_CCU8_SLICE_SHADOW_TRANSFER_MODE_t;
 629:D:/School/diseratie/SEMS/xmc4800_evaluation_kit/xmc4800_iot_kit/common/Libraries/XMCLib/inc\xmc_ccu8.h **** #endif
 630:D:/School/diseratie/SEMS/xmc4800_evaluation_kit/xmc4800_iot_kit/common/Libraries/XMCLib/inc\xmc_ccu8.h **** 
 631:D:/School/diseratie/SEMS/xmc4800_evaluation_kit/xmc4800_iot_kit/common/Libraries/XMCLib/inc\xmc_ccu8.h **** #if defined(CCU8V3) || defined(DOXYGEN) /* Defined for XMC1400 devices only */
 632:D:/School/diseratie/SEMS/xmc4800_evaluation_kit/xmc4800_iot_kit/common/Libraries/XMCLib/inc\xmc_ccu8.h **** /**
 633:D:/School/diseratie/SEMS/xmc4800_evaluation_kit/xmc4800_iot_kit/common/Libraries/XMCLib/inc\xmc_ccu8.h ****  *  Output sources for OUTy0 signal
 634:D:/School/diseratie/SEMS/xmc4800_evaluation_kit/xmc4800_iot_kit/common/Libraries/XMCLib/inc\xmc_ccu8.h ****  * @note Only available for XMC1400 series
 635:D:/School/diseratie/SEMS/xmc4800_evaluation_kit/xmc4800_iot_kit/common/Libraries/XMCLib/inc\xmc_ccu8.h ****  */
 636:D:/School/diseratie/SEMS/xmc4800_evaluation_kit/xmc4800_iot_kit/common/Libraries/XMCLib/inc\xmc_ccu8.h ****  typedef enum XMC_CCU8_SOURCE_OUT0
 637:D:/School/diseratie/SEMS/xmc4800_evaluation_kit/xmc4800_iot_kit/common/Libraries/XMCLib/inc\xmc_ccu8.h **** {
 638:D:/School/diseratie/SEMS/xmc4800_evaluation_kit/xmc4800_iot_kit/common/Libraries/XMCLib/inc\xmc_ccu8.h ****   XMC_CCU8_SOURCE_OUT0_ST1      = (uint32_t)0x0, /**< CCU8yST1 signal path is connected the CCU8x.O
 639:D:/School/diseratie/SEMS/xmc4800_evaluation_kit/xmc4800_iot_kit/common/Libraries/XMCLib/inc\xmc_ccu8.h ****   XMC_CCU8_SOURCE_OUT0_INV_ST1  = (uint32_t)0x1, /**< Inverted CCU8yST1 signal path is connected th
 640:D:/School/diseratie/SEMS/xmc4800_evaluation_kit/xmc4800_iot_kit/common/Libraries/XMCLib/inc\xmc_ccu8.h ****   XMC_CCU8_SOURCE_OUT0_ST2      = (uint32_t)0x2, /**< CCU8yST2 signal path is connected the CCU8x.O
 641:D:/School/diseratie/SEMS/xmc4800_evaluation_kit/xmc4800_iot_kit/common/Libraries/XMCLib/inc\xmc_ccu8.h ****   XMC_CCU8_SOURCE_OUT0_INV_ST2  = (uint32_t)0x3  /**< Inverted CCU8yST2 signal path is connected th
 642:D:/School/diseratie/SEMS/xmc4800_evaluation_kit/xmc4800_iot_kit/common/Libraries/XMCLib/inc\xmc_ccu8.h **** } XMC_CCU8_SOURCE_OUT0_t;
 643:D:/School/diseratie/SEMS/xmc4800_evaluation_kit/xmc4800_iot_kit/common/Libraries/XMCLib/inc\xmc_ccu8.h **** 
 644:D:/School/diseratie/SEMS/xmc4800_evaluation_kit/xmc4800_iot_kit/common/Libraries/XMCLib/inc\xmc_ccu8.h **** /**
 645:D:/School/diseratie/SEMS/xmc4800_evaluation_kit/xmc4800_iot_kit/common/Libraries/XMCLib/inc\xmc_ccu8.h ****  *  Output sources for OUTy1 signal
 646:D:/School/diseratie/SEMS/xmc4800_evaluation_kit/xmc4800_iot_kit/common/Libraries/XMCLib/inc\xmc_ccu8.h ****  *  @note Only available for XMC1400 series
 647:D:/School/diseratie/SEMS/xmc4800_evaluation_kit/xmc4800_iot_kit/common/Libraries/XMCLib/inc\xmc_ccu8.h ****  */
 648:D:/School/diseratie/SEMS/xmc4800_evaluation_kit/xmc4800_iot_kit/common/Libraries/XMCLib/inc\xmc_ccu8.h ****  typedef enum XMC_CCU8_SOURCE_OUT1
 649:D:/School/diseratie/SEMS/xmc4800_evaluation_kit/xmc4800_iot_kit/common/Libraries/XMCLib/inc\xmc_ccu8.h **** {
 650:D:/School/diseratie/SEMS/xmc4800_evaluation_kit/xmc4800_iot_kit/common/Libraries/XMCLib/inc\xmc_ccu8.h ****   XMC_CCU8_SOURCE_OUT1_ST1      = (uint32_t)0x1, /**< CCU8yST1 signal path is connected the CCU8x.O
 651:D:/School/diseratie/SEMS/xmc4800_evaluation_kit/xmc4800_iot_kit/common/Libraries/XMCLib/inc\xmc_ccu8.h ****   XMC_CCU8_SOURCE_OUT1_INV_ST1  = (uint32_t)0x0, /**< Inverted CCU8yST1 signal path is connected th
 652:D:/School/diseratie/SEMS/xmc4800_evaluation_kit/xmc4800_iot_kit/common/Libraries/XMCLib/inc\xmc_ccu8.h ****   XMC_CCU8_SOURCE_OUT1_ST2      = (uint32_t)0x3, /**< CCU8yST2 signal path is connected the CCU8x.O
 653:D:/School/diseratie/SEMS/xmc4800_evaluation_kit/xmc4800_iot_kit/common/Libraries/XMCLib/inc\xmc_ccu8.h ****   XMC_CCU8_SOURCE_OUT1_INV_ST2  = (uint32_t)0x2  /**< Inverted CCU8yST2 signal path is connected th
 654:D:/School/diseratie/SEMS/xmc4800_evaluation_kit/xmc4800_iot_kit/common/Libraries/XMCLib/inc\xmc_ccu8.h **** } XMC_CCU8_SOURCE_OUT1_t;
 655:D:/School/diseratie/SEMS/xmc4800_evaluation_kit/xmc4800_iot_kit/common/Libraries/XMCLib/inc\xmc_ccu8.h **** 
 656:D:/School/diseratie/SEMS/xmc4800_evaluation_kit/xmc4800_iot_kit/common/Libraries/XMCLib/inc\xmc_ccu8.h **** /**
 657:D:/School/diseratie/SEMS/xmc4800_evaluation_kit/xmc4800_iot_kit/common/Libraries/XMCLib/inc\xmc_ccu8.h ****  * Output sources for OUTy2 signal
 658:D:/School/diseratie/SEMS/xmc4800_evaluation_kit/xmc4800_iot_kit/common/Libraries/XMCLib/inc\xmc_ccu8.h ****  * @note Only available for XMC1400 series
 659:D:/School/diseratie/SEMS/xmc4800_evaluation_kit/xmc4800_iot_kit/common/Libraries/XMCLib/inc\xmc_ccu8.h ****  */
 660:D:/School/diseratie/SEMS/xmc4800_evaluation_kit/xmc4800_iot_kit/common/Libraries/XMCLib/inc\xmc_ccu8.h ****  typedef enum XMC_CCU8_SOURCE_OUT2
 661:D:/School/diseratie/SEMS/xmc4800_evaluation_kit/xmc4800_iot_kit/common/Libraries/XMCLib/inc\xmc_ccu8.h **** {
 662:D:/School/diseratie/SEMS/xmc4800_evaluation_kit/xmc4800_iot_kit/common/Libraries/XMCLib/inc\xmc_ccu8.h ****   XMC_CCU8_SOURCE_OUT2_ST2      = (uint32_t)0x0, /**< CCU8yST2 signal path is connected the CCU8x.O
 663:D:/School/diseratie/SEMS/xmc4800_evaluation_kit/xmc4800_iot_kit/common/Libraries/XMCLib/inc\xmc_ccu8.h ****   XMC_CCU8_SOURCE_OUT2_INV_ST2  = (uint32_t)0x1, /**< Inverted CCU8yST2 signal path is connected th
 664:D:/School/diseratie/SEMS/xmc4800_evaluation_kit/xmc4800_iot_kit/common/Libraries/XMCLib/inc\xmc_ccu8.h ****   XMC_CCU8_SOURCE_OUT2_ST1      = (uint32_t)0x2, /**< CCU8yST1 signal path is connected the CCU8x.O
 665:D:/School/diseratie/SEMS/xmc4800_evaluation_kit/xmc4800_iot_kit/common/Libraries/XMCLib/inc\xmc_ccu8.h ****   XMC_CCU8_SOURCE_OUT2_INV_ST1  = (uint32_t)0x3  /**< Inverted CCU8yST1 signal path is connected th
 666:D:/School/diseratie/SEMS/xmc4800_evaluation_kit/xmc4800_iot_kit/common/Libraries/XMCLib/inc\xmc_ccu8.h **** } XMC_CCU8_SOURCE_OUT2_t;
 667:D:/School/diseratie/SEMS/xmc4800_evaluation_kit/xmc4800_iot_kit/common/Libraries/XMCLib/inc\xmc_ccu8.h **** 
 668:D:/School/diseratie/SEMS/xmc4800_evaluation_kit/xmc4800_iot_kit/common/Libraries/XMCLib/inc\xmc_ccu8.h **** /**
 669:D:/School/diseratie/SEMS/xmc4800_evaluation_kit/xmc4800_iot_kit/common/Libraries/XMCLib/inc\xmc_ccu8.h ****  *  Output sources for OUTy3 signal
 670:D:/School/diseratie/SEMS/xmc4800_evaluation_kit/xmc4800_iot_kit/common/Libraries/XMCLib/inc\xmc_ccu8.h ****  *  @note Only available for XMC1400 series
 671:D:/School/diseratie/SEMS/xmc4800_evaluation_kit/xmc4800_iot_kit/common/Libraries/XMCLib/inc\xmc_ccu8.h ****  */
 672:D:/School/diseratie/SEMS/xmc4800_evaluation_kit/xmc4800_iot_kit/common/Libraries/XMCLib/inc\xmc_ccu8.h ****  typedef enum XMC_CCU8_SOURCE_OUT3
 673:D:/School/diseratie/SEMS/xmc4800_evaluation_kit/xmc4800_iot_kit/common/Libraries/XMCLib/inc\xmc_ccu8.h **** {
 674:D:/School/diseratie/SEMS/xmc4800_evaluation_kit/xmc4800_iot_kit/common/Libraries/XMCLib/inc\xmc_ccu8.h ****   XMC_CCU8_SOURCE_OUT3_ST2      = (uint32_t)0x1, /**< CCU8yST2 signal path is connected the CCU8x.O
 675:D:/School/diseratie/SEMS/xmc4800_evaluation_kit/xmc4800_iot_kit/common/Libraries/XMCLib/inc\xmc_ccu8.h ****   XMC_CCU8_SOURCE_OUT3_INV_ST2  = (uint32_t)0x0, /**< Inverted CCU8yST2 signal path is connected th
 676:D:/School/diseratie/SEMS/xmc4800_evaluation_kit/xmc4800_iot_kit/common/Libraries/XMCLib/inc\xmc_ccu8.h ****   XMC_CCU8_SOURCE_OUT3_ST1      = (uint32_t)0x3, /**< CCU8yST1 signal path is connected the CCU8x.O
 677:D:/School/diseratie/SEMS/xmc4800_evaluation_kit/xmc4800_iot_kit/common/Libraries/XMCLib/inc\xmc_ccu8.h ****   XMC_CCU8_SOURCE_OUT3_INV_ST1  = (uint32_t)0x2  /**< Inverted CCU8yST1 signal path is connected th
 678:D:/School/diseratie/SEMS/xmc4800_evaluation_kit/xmc4800_iot_kit/common/Libraries/XMCLib/inc\xmc_ccu8.h **** } XMC_CCU8_SOURCE_OUT3_t;
 679:D:/School/diseratie/SEMS/xmc4800_evaluation_kit/xmc4800_iot_kit/common/Libraries/XMCLib/inc\xmc_ccu8.h **** #endif
 680:D:/School/diseratie/SEMS/xmc4800_evaluation_kit/xmc4800_iot_kit/common/Libraries/XMCLib/inc\xmc_ccu8.h **** 
 681:D:/School/diseratie/SEMS/xmc4800_evaluation_kit/xmc4800_iot_kit/common/Libraries/XMCLib/inc\xmc_ccu8.h **** 
 682:D:/School/diseratie/SEMS/xmc4800_evaluation_kit/xmc4800_iot_kit/common/Libraries/XMCLib/inc\xmc_ccu8.h **** /**
 683:D:/School/diseratie/SEMS/xmc4800_evaluation_kit/xmc4800_iot_kit/common/Libraries/XMCLib/inc\xmc_ccu8.h ****  *  Output selector for CCU8x.OUT0-3
 684:D:/School/diseratie/SEMS/xmc4800_evaluation_kit/xmc4800_iot_kit/common/Libraries/XMCLib/inc\xmc_ccu8.h ****  */
 685:D:/School/diseratie/SEMS/xmc4800_evaluation_kit/xmc4800_iot_kit/common/Libraries/XMCLib/inc\xmc_ccu8.h **** #if !defined(CCU8V3) /* Defined for all devices except XMC1400 */
 686:D:/School/diseratie/SEMS/xmc4800_evaluation_kit/xmc4800_iot_kit/common/Libraries/XMCLib/inc\xmc_ccu8.h **** typedef enum XMC_CCU8_OUT_PATH
 687:D:/School/diseratie/SEMS/xmc4800_evaluation_kit/xmc4800_iot_kit/common/Libraries/XMCLib/inc\xmc_ccu8.h **** {
 688:D:/School/diseratie/SEMS/xmc4800_evaluation_kit/xmc4800_iot_kit/common/Libraries/XMCLib/inc\xmc_ccu8.h ****   XMC_CCU8_OUT_PATH_OUT0_ST1      = (uint32_t)0x20000, /**< CCU8yST1 signal path is connected the C
 689:D:/School/diseratie/SEMS/xmc4800_evaluation_kit/xmc4800_iot_kit/common/Libraries/XMCLib/inc\xmc_ccu8.h ****   XMC_CCU8_OUT_PATH_OUT0_INV_ST1  = (uint32_t)0x20002, /**< Inverted CCU8yST1 signal path is connec
 690:D:/School/diseratie/SEMS/xmc4800_evaluation_kit/xmc4800_iot_kit/common/Libraries/XMCLib/inc\xmc_ccu8.h ****   XMC_CCU8_OUT_PATH_OUT1_ST1      = (uint32_t)0x40000, /**< CCU8yST1 signal path is connected the C
 691:D:/School/diseratie/SEMS/xmc4800_evaluation_kit/xmc4800_iot_kit/common/Libraries/XMCLib/inc\xmc_ccu8.h ****   XMC_CCU8_OUT_PATH_OUT1_INV_ST1  = (uint32_t)0x40004, /**< Inverted CCU8yST1 signal path is connec
 692:D:/School/diseratie/SEMS/xmc4800_evaluation_kit/xmc4800_iot_kit/common/Libraries/XMCLib/inc\xmc_ccu8.h ****   XMC_CCU8_OUT_PATH_OUT2_ST2      = (uint32_t)0x80000, /**< CCU8yST2 signal path is connected the C
 693:D:/School/diseratie/SEMS/xmc4800_evaluation_kit/xmc4800_iot_kit/common/Libraries/XMCLib/inc\xmc_ccu8.h ****   XMC_CCU8_OUT_PATH_OUT2_INV_ST2  = (uint32_t)0x80008, /**< Inverted CCU8yST2 signal path is connec
 694:D:/School/diseratie/SEMS/xmc4800_evaluation_kit/xmc4800_iot_kit/common/Libraries/XMCLib/inc\xmc_ccu8.h ****   XMC_CCU8_OUT_PATH_OUT3_ST2      = (uint32_t)0x100000,/**< CCU8yST2 signal path is connected the C
 695:D:/School/diseratie/SEMS/xmc4800_evaluation_kit/xmc4800_iot_kit/common/Libraries/XMCLib/inc\xmc_ccu8.h ****   XMC_CCU8_OUT_PATH_OUT3_INV_ST1  = (uint32_t)0x100010 /**< Inverted CCU8yST2 signal path is connec
 696:D:/School/diseratie/SEMS/xmc4800_evaluation_kit/xmc4800_iot_kit/common/Libraries/XMCLib/inc\xmc_ccu8.h **** } XMC_CCU8_OUT_PATH_t;
 697:D:/School/diseratie/SEMS/xmc4800_evaluation_kit/xmc4800_iot_kit/common/Libraries/XMCLib/inc\xmc_ccu8.h **** #else
 698:D:/School/diseratie/SEMS/xmc4800_evaluation_kit/xmc4800_iot_kit/common/Libraries/XMCLib/inc\xmc_ccu8.h **** typedef enum XMC_CCU8_OUT_PATH
 699:D:/School/diseratie/SEMS/xmc4800_evaluation_kit/xmc4800_iot_kit/common/Libraries/XMCLib/inc\xmc_ccu8.h **** {
 700:D:/School/diseratie/SEMS/xmc4800_evaluation_kit/xmc4800_iot_kit/common/Libraries/XMCLib/inc\xmc_ccu8.h ****   XMC_CCU8_OUT_PATH_OUT0_ST1      = (uint32_t)0x000C0, /**< CCU8yST1 signal path is connected the C
 701:D:/School/diseratie/SEMS/xmc4800_evaluation_kit/xmc4800_iot_kit/common/Libraries/XMCLib/inc\xmc_ccu8.h ****   XMC_CCU8_OUT_PATH_OUT0_INV_ST1  = (uint32_t)0x000D0, /**< Inverted CCU8yST1 signal path is connec
 702:D:/School/diseratie/SEMS/xmc4800_evaluation_kit/xmc4800_iot_kit/common/Libraries/XMCLib/inc\xmc_ccu8.h ****   XMC_CCU8_OUT_PATH_OUT0_ST2      = (uint32_t)0x000E0, /**< CCU8yST2 signal path is connected the C
 703:D:/School/diseratie/SEMS/xmc4800_evaluation_kit/xmc4800_iot_kit/common/Libraries/XMCLib/inc\xmc_ccu8.h ****   XMC_CCU8_OUT_PATH_OUT0_INV_ST2  = (uint32_t)0x000F0, /**< Inverted CCU8yST2 signal path is connec
 704:D:/School/diseratie/SEMS/xmc4800_evaluation_kit/xmc4800_iot_kit/common/Libraries/XMCLib/inc\xmc_ccu8.h ****   XMC_CCU8_OUT_PATH_OUT1_ST1      = (uint32_t)0x00D00, /**< CCU8yST1 signal path is connected the C
 705:D:/School/diseratie/SEMS/xmc4800_evaluation_kit/xmc4800_iot_kit/common/Libraries/XMCLib/inc\xmc_ccu8.h ****   XMC_CCU8_OUT_PATH_OUT1_INV_ST1  = (uint32_t)0x00C00, /**< Inverted CCU8yST1 signal path is connec
 706:D:/School/diseratie/SEMS/xmc4800_evaluation_kit/xmc4800_iot_kit/common/Libraries/XMCLib/inc\xmc_ccu8.h ****   XMC_CCU8_OUT_PATH_OUT1_ST2      = (uint32_t)0x00F00, /**< CCU8yST2 signal path is connected the C
 707:D:/School/diseratie/SEMS/xmc4800_evaluation_kit/xmc4800_iot_kit/common/Libraries/XMCLib/inc\xmc_ccu8.h ****   XMC_CCU8_OUT_PATH_OUT1_INV_ST2  = (uint32_t)0x00E00, /**< Inverted CCU8yST2 signal path is connec
 708:D:/School/diseratie/SEMS/xmc4800_evaluation_kit/xmc4800_iot_kit/common/Libraries/XMCLib/inc\xmc_ccu8.h ****   XMC_CCU8_OUT_PATH_OUT2_ST2      = (uint32_t)0x0C000, /**< CCU8yST2 signal path is connected the C
 709:D:/School/diseratie/SEMS/xmc4800_evaluation_kit/xmc4800_iot_kit/common/Libraries/XMCLib/inc\xmc_ccu8.h ****   XMC_CCU8_OUT_PATH_OUT2_INV_ST2  = (uint32_t)0x0D000, /**< Inverted CCU8yST2 signal path is connec
 710:D:/School/diseratie/SEMS/xmc4800_evaluation_kit/xmc4800_iot_kit/common/Libraries/XMCLib/inc\xmc_ccu8.h ****   XMC_CCU8_OUT_PATH_OUT2_ST1      = (uint32_t)0x0E000, /**< CCU8yST1 signal path is connected the C
 711:D:/School/diseratie/SEMS/xmc4800_evaluation_kit/xmc4800_iot_kit/common/Libraries/XMCLib/inc\xmc_ccu8.h ****   XMC_CCU8_OUT_PATH_OUT2_INV_ST1  = (uint32_t)0x0F000, /**< Inverted CCU8yST1 signal path is connec
 712:D:/School/diseratie/SEMS/xmc4800_evaluation_kit/xmc4800_iot_kit/common/Libraries/XMCLib/inc\xmc_ccu8.h ****   XMC_CCU8_OUT_PATH_OUT3_ST2      = (uint32_t)0xD0000, /**< CCU8yST2 signal path is connected the C
 713:D:/School/diseratie/SEMS/xmc4800_evaluation_kit/xmc4800_iot_kit/common/Libraries/XMCLib/inc\xmc_ccu8.h ****   XMC_CCU8_OUT_PATH_OUT3_INV_ST2  = (uint32_t)0xC0000, /**< Inverted CCU8yST2 signal path is connec
 714:D:/School/diseratie/SEMS/xmc4800_evaluation_kit/xmc4800_iot_kit/common/Libraries/XMCLib/inc\xmc_ccu8.h ****   XMC_CCU8_OUT_PATH_OUT3_ST1      = (uint32_t)0xF0000, /**< CCU8yST1 signal path is connected the C
 715:D:/School/diseratie/SEMS/xmc4800_evaluation_kit/xmc4800_iot_kit/common/Libraries/XMCLib/inc\xmc_ccu8.h ****   XMC_CCU8_OUT_PATH_OUT3_INV_ST1  = (uint32_t)0xE0000  /**< Inverted CCU8yST1 signal path is connec
 716:D:/School/diseratie/SEMS/xmc4800_evaluation_kit/xmc4800_iot_kit/common/Libraries/XMCLib/inc\xmc_ccu8.h **** } XMC_CCU8_OUT_PATH_t;
 717:D:/School/diseratie/SEMS/xmc4800_evaluation_kit/xmc4800_iot_kit/common/Libraries/XMCLib/inc\xmc_ccu8.h **** 
 718:D:/School/diseratie/SEMS/xmc4800_evaluation_kit/xmc4800_iot_kit/common/Libraries/XMCLib/inc\xmc_ccu8.h **** /**
 719:D:/School/diseratie/SEMS/xmc4800_evaluation_kit/xmc4800_iot_kit/common/Libraries/XMCLib/inc\xmc_ccu8.h ****  *  Immediate write into configuration register
 720:D:/School/diseratie/SEMS/xmc4800_evaluation_kit/xmc4800_iot_kit/common/Libraries/XMCLib/inc\xmc_ccu8.h ****  *  @note Only available for XMC1400 series
 721:D:/School/diseratie/SEMS/xmc4800_evaluation_kit/xmc4800_iot_kit/common/Libraries/XMCLib/inc\xmc_ccu8.h ****  */
 722:D:/School/diseratie/SEMS/xmc4800_evaluation_kit/xmc4800_iot_kit/common/Libraries/XMCLib/inc\xmc_ccu8.h **** typedef enum XMC_CCU8_SLICE_WRITE_INTO
 723:D:/School/diseratie/SEMS/xmc4800_evaluation_kit/xmc4800_iot_kit/common/Libraries/XMCLib/inc\xmc_ccu8.h **** {
 724:D:/School/diseratie/SEMS/xmc4800_evaluation_kit/xmc4800_iot_kit/common/Libraries/XMCLib/inc\xmc_ccu8.h ****   XMC_CCU8_SLICE_WRITE_INTO_PERIOD_CONFIGURATION = CCU8_CC8_STC_IRPC_Msk,                  /**< Imm
 725:D:/School/diseratie/SEMS/xmc4800_evaluation_kit/xmc4800_iot_kit/common/Libraries/XMCLib/inc\xmc_ccu8.h ****                                                                                                 Wri
 726:D:/School/diseratie/SEMS/xmc4800_evaluation_kit/xmc4800_iot_kit/common/Libraries/XMCLib/inc\xmc_ccu8.h ****                                                                                                 Con
 727:D:/School/diseratie/SEMS/xmc4800_evaluation_kit/xmc4800_iot_kit/common/Libraries/XMCLib/inc\xmc_ccu8.h ****   XMC_CCU8_SLICE_WRITE_INTO_COMPARE1_CONFIGURATION = CCU8_CC8_STC_IRCC1_Msk,               /**< Imm
 728:D:/School/diseratie/SEMS/xmc4800_evaluation_kit/xmc4800_iot_kit/common/Libraries/XMCLib/inc\xmc_ccu8.h ****                                                                                                 Wri
 729:D:/School/diseratie/SEMS/xmc4800_evaluation_kit/xmc4800_iot_kit/common/Libraries/XMCLib/inc\xmc_ccu8.h ****                                                                                                 Con
 730:D:/School/diseratie/SEMS/xmc4800_evaluation_kit/xmc4800_iot_kit/common/Libraries/XMCLib/inc\xmc_ccu8.h ****   XMC_CCU8_SLICE_WRITE_INTO_COMPARE2_CONFIGURATION = CCU8_CC8_STC_IRCC2_Msk,               /**< Imm
 731:D:/School/diseratie/SEMS/xmc4800_evaluation_kit/xmc4800_iot_kit/common/Libraries/XMCLib/inc\xmc_ccu8.h ****                                                                                                 Wri
 732:D:/School/diseratie/SEMS/xmc4800_evaluation_kit/xmc4800_iot_kit/common/Libraries/XMCLib/inc\xmc_ccu8.h ****                                                                                                 Con
 733:D:/School/diseratie/SEMS/xmc4800_evaluation_kit/xmc4800_iot_kit/common/Libraries/XMCLib/inc\xmc_ccu8.h ****   XMC_CCU8_SLICE_WRITE_INTO_PASSIVE_LEVEL_CONFIGURATION = CCU8_CC8_STC_IRLC_Msk,           /**< Imm
 734:D:/School/diseratie/SEMS/xmc4800_evaluation_kit/xmc4800_iot_kit/common/Libraries/XMCLib/inc\xmc_ccu8.h ****                                                                                                 Wri
 735:D:/School/diseratie/SEMS/xmc4800_evaluation_kit/xmc4800_iot_kit/common/Libraries/XMCLib/inc\xmc_ccu8.h **** 	                                                                                            Config
 736:D:/School/diseratie/SEMS/xmc4800_evaluation_kit/xmc4800_iot_kit/common/Libraries/XMCLib/inc\xmc_ccu8.h ****   XMC_CCU8_SLICE_WRITE_INTO_DITHER_VALUE_CONFIGURATION = CCU8_CC8_STC_IRDC_Msk,            /**< Imm
 737:D:/School/diseratie/SEMS/xmc4800_evaluation_kit/xmc4800_iot_kit/common/Libraries/XMCLib/inc\xmc_ccu8.h ****                                                                                                 Wri
 738:D:/School/diseratie/SEMS/xmc4800_evaluation_kit/xmc4800_iot_kit/common/Libraries/XMCLib/inc\xmc_ccu8.h **** 	                                                                                            Config
 739:D:/School/diseratie/SEMS/xmc4800_evaluation_kit/xmc4800_iot_kit/common/Libraries/XMCLib/inc\xmc_ccu8.h ****   XMC_CCU8_SLICE_WRITE_INTO_FLOATING_PRESCALER_VALUE_CONFIGURATION = CCU8_CC8_STC_IRFC_Msk /**< Imm
 740:D:/School/diseratie/SEMS/xmc4800_evaluation_kit/xmc4800_iot_kit/common/Libraries/XMCLib/inc\xmc_ccu8.h ****                                                                                                 Wri
 741:D:/School/diseratie/SEMS/xmc4800_evaluation_kit/xmc4800_iot_kit/common/Libraries/XMCLib/inc\xmc_ccu8.h ****                                                                                                 Val
 742:D:/School/diseratie/SEMS/xmc4800_evaluation_kit/xmc4800_iot_kit/common/Libraries/XMCLib/inc\xmc_ccu8.h **** } XMC_CCU8_SLICE_WRITE_INTO_t;
 743:D:/School/diseratie/SEMS/xmc4800_evaluation_kit/xmc4800_iot_kit/common/Libraries/XMCLib/inc\xmc_ccu8.h **** 
 744:D:/School/diseratie/SEMS/xmc4800_evaluation_kit/xmc4800_iot_kit/common/Libraries/XMCLib/inc\xmc_ccu8.h **** 
 745:D:/School/diseratie/SEMS/xmc4800_evaluation_kit/xmc4800_iot_kit/common/Libraries/XMCLib/inc\xmc_ccu8.h **** /**
 746:D:/School/diseratie/SEMS/xmc4800_evaluation_kit/xmc4800_iot_kit/common/Libraries/XMCLib/inc\xmc_ccu8.h ****  *  Automatic Shadow Transfer request when writing into shadow register
 747:D:/School/diseratie/SEMS/xmc4800_evaluation_kit/xmc4800_iot_kit/common/Libraries/XMCLib/inc\xmc_ccu8.h ****  *  @note Only available for XMC1400 series
 748:D:/School/diseratie/SEMS/xmc4800_evaluation_kit/xmc4800_iot_kit/common/Libraries/XMCLib/inc\xmc_ccu8.h ****  */
 749:D:/School/diseratie/SEMS/xmc4800_evaluation_kit/xmc4800_iot_kit/common/Libraries/XMCLib/inc\xmc_ccu8.h **** typedef enum XMC_CCU8_SLICE_AUTOMAIC_SHADOW_TRANSFER_WRITE_INTO
 750:D:/School/diseratie/SEMS/xmc4800_evaluation_kit/xmc4800_iot_kit/common/Libraries/XMCLib/inc\xmc_ccu8.h **** {
 751:D:/School/diseratie/SEMS/xmc4800_evaluation_kit/xmc4800_iot_kit/common/Libraries/XMCLib/inc\xmc_ccu8.h ****   XMC_CCU8_SLICE_AUTOMAIC_SHADOW_TRANSFER_WRITE_INTO_PERIOD_SHADOW = CCU8_CC8_STC_ASPC_Msk,        
 752:D:/School/diseratie/SEMS/xmc4800_evaluation_kit/xmc4800_iot_kit/common/Libraries/XMCLib/inc\xmc_ccu8.h **** 	                                                                                                  
 753:D:/School/diseratie/SEMS/xmc4800_evaluation_kit/xmc4800_iot_kit/common/Libraries/XMCLib/inc\xmc_ccu8.h ****                                                                                                    
 754:D:/School/diseratie/SEMS/xmc4800_evaluation_kit/xmc4800_iot_kit/common/Libraries/XMCLib/inc\xmc_ccu8.h ****                                                                                                    
 755:D:/School/diseratie/SEMS/xmc4800_evaluation_kit/xmc4800_iot_kit/common/Libraries/XMCLib/inc\xmc_ccu8.h ****   XMC_CCU8_SLICE_AUTOMAIC_SHADOW_TRANSFER_WRITE_INTO_COMPARE1_SHADOW = CCU8_CC8_STC_ASCC1_Msk,     
 756:D:/School/diseratie/SEMS/xmc4800_evaluation_kit/xmc4800_iot_kit/common/Libraries/XMCLib/inc\xmc_ccu8.h **** 	                                                                                                  
 757:D:/School/diseratie/SEMS/xmc4800_evaluation_kit/xmc4800_iot_kit/common/Libraries/XMCLib/inc\xmc_ccu8.h **** 	                                                                                                  
 758:D:/School/diseratie/SEMS/xmc4800_evaluation_kit/xmc4800_iot_kit/common/Libraries/XMCLib/inc\xmc_ccu8.h **** 	                                                                                                  
 759:D:/School/diseratie/SEMS/xmc4800_evaluation_kit/xmc4800_iot_kit/common/Libraries/XMCLib/inc\xmc_ccu8.h ****   XMC_CCU8_SLICE_AUTOMAIC_SHADOW_TRANSFER_WRITE_INTO_COMPARE2_SHADOW = CCU8_CC8_STC_ASCC2_Msk,     
 760:D:/School/diseratie/SEMS/xmc4800_evaluation_kit/xmc4800_iot_kit/common/Libraries/XMCLib/inc\xmc_ccu8.h **** 	                                                                                                  
 761:D:/School/diseratie/SEMS/xmc4800_evaluation_kit/xmc4800_iot_kit/common/Libraries/XMCLib/inc\xmc_ccu8.h **** 	                                                                                                  
 762:D:/School/diseratie/SEMS/xmc4800_evaluation_kit/xmc4800_iot_kit/common/Libraries/XMCLib/inc\xmc_ccu8.h **** 	                                                                                                  
 763:D:/School/diseratie/SEMS/xmc4800_evaluation_kit/xmc4800_iot_kit/common/Libraries/XMCLib/inc\xmc_ccu8.h ****   XMC_CCU8_SLICE_AUTOMAIC_SHADOW_TRANSFER_WRITE_INTO_PASSIVE_LEVEL = CCU8_CC8_STC_ASLC_Msk,        
 764:D:/School/diseratie/SEMS/xmc4800_evaluation_kit/xmc4800_iot_kit/common/Libraries/XMCLib/inc\xmc_ccu8.h **** 	                                                                                                  
 765:D:/School/diseratie/SEMS/xmc4800_evaluation_kit/xmc4800_iot_kit/common/Libraries/XMCLib/inc\xmc_ccu8.h ****                                                                                                    
 766:D:/School/diseratie/SEMS/xmc4800_evaluation_kit/xmc4800_iot_kit/common/Libraries/XMCLib/inc\xmc_ccu8.h ****   XMC_CCU8_SLICE_AUTOMAIC_SHADOW_TRANSFER_WRITE_INTO_DITHER_SHADOW = CCU8_CC8_STC_ASDC_Msk,        
 767:D:/School/diseratie/SEMS/xmc4800_evaluation_kit/xmc4800_iot_kit/common/Libraries/XMCLib/inc\xmc_ccu8.h ****                                                                                                    
 768:D:/School/diseratie/SEMS/xmc4800_evaluation_kit/xmc4800_iot_kit/common/Libraries/XMCLib/inc\xmc_ccu8.h ****                                                                                                    
 769:D:/School/diseratie/SEMS/xmc4800_evaluation_kit/xmc4800_iot_kit/common/Libraries/XMCLib/inc\xmc_ccu8.h ****   XMC_CCU8_SLICE_AUTOMAIC_SHADOW_TRANSFER_WRITE_INTO_FLOATING_PRESCALER_SHADOW = CCU8_CC8_STC_ASFC_
 770:D:/School/diseratie/SEMS/xmc4800_evaluation_kit/xmc4800_iot_kit/common/Libraries/XMCLib/inc\xmc_ccu8.h **** 	                                                                                                  
 771:D:/School/diseratie/SEMS/xmc4800_evaluation_kit/xmc4800_iot_kit/common/Libraries/XMCLib/inc\xmc_ccu8.h ****                                                                                                    
 772:D:/School/diseratie/SEMS/xmc4800_evaluation_kit/xmc4800_iot_kit/common/Libraries/XMCLib/inc\xmc_ccu8.h ****                                                                                                    
 773:D:/School/diseratie/SEMS/xmc4800_evaluation_kit/xmc4800_iot_kit/common/Libraries/XMCLib/inc\xmc_ccu8.h **** 
 774:D:/School/diseratie/SEMS/xmc4800_evaluation_kit/xmc4800_iot_kit/common/Libraries/XMCLib/inc\xmc_ccu8.h **** } XMC_CCU8_SLICE_AUTOMAIC_SHADOW_TRANSFER_WRITE_INTO_t;
 775:D:/School/diseratie/SEMS/xmc4800_evaluation_kit/xmc4800_iot_kit/common/Libraries/XMCLib/inc\xmc_ccu8.h **** #endif
 776:D:/School/diseratie/SEMS/xmc4800_evaluation_kit/xmc4800_iot_kit/common/Libraries/XMCLib/inc\xmc_ccu8.h **** 
 777:D:/School/diseratie/SEMS/xmc4800_evaluation_kit/xmc4800_iot_kit/common/Libraries/XMCLib/inc\xmc_ccu8.h **** /**
 778:D:/School/diseratie/SEMS/xmc4800_evaluation_kit/xmc4800_iot_kit/common/Libraries/XMCLib/inc\xmc_ccu8.h ****  *  CCU8 slice mask which can be used for the APIs as input where multi slice support is available
 779:D:/School/diseratie/SEMS/xmc4800_evaluation_kit/xmc4800_iot_kit/common/Libraries/XMCLib/inc\xmc_ccu8.h ****  */
 780:D:/School/diseratie/SEMS/xmc4800_evaluation_kit/xmc4800_iot_kit/common/Libraries/XMCLib/inc\xmc_ccu8.h **** typedef enum XMC_CCU8_SLICE_MASK
 781:D:/School/diseratie/SEMS/xmc4800_evaluation_kit/xmc4800_iot_kit/common/Libraries/XMCLib/inc\xmc_ccu8.h **** {
 782:D:/School/diseratie/SEMS/xmc4800_evaluation_kit/xmc4800_iot_kit/common/Libraries/XMCLib/inc\xmc_ccu8.h ****   XMC_CCU8_SLICE_MASK_SLICE_0  = 1U , /**< SLICE-0 */
 783:D:/School/diseratie/SEMS/xmc4800_evaluation_kit/xmc4800_iot_kit/common/Libraries/XMCLib/inc\xmc_ccu8.h ****   XMC_CCU8_SLICE_MASK_SLICE_1  = 2U , /**< SLICE-1 */
 784:D:/School/diseratie/SEMS/xmc4800_evaluation_kit/xmc4800_iot_kit/common/Libraries/XMCLib/inc\xmc_ccu8.h ****   XMC_CCU8_SLICE_MASK_SLICE_2  = 4U , /**< SLICE-2 */
 785:D:/School/diseratie/SEMS/xmc4800_evaluation_kit/xmc4800_iot_kit/common/Libraries/XMCLib/inc\xmc_ccu8.h ****   XMC_CCU8_SLICE_MASK_SLICE_3  = 8U   /**< SLICE-3 */
 786:D:/School/diseratie/SEMS/xmc4800_evaluation_kit/xmc4800_iot_kit/common/Libraries/XMCLib/inc\xmc_ccu8.h **** } XMC_CCU8_SLICE_MASK_t;
 787:D:/School/diseratie/SEMS/xmc4800_evaluation_kit/xmc4800_iot_kit/common/Libraries/XMCLib/inc\xmc_ccu8.h **** 
 788:D:/School/diseratie/SEMS/xmc4800_evaluation_kit/xmc4800_iot_kit/common/Libraries/XMCLib/inc\xmc_ccu8.h **** /**
 789:D:/School/diseratie/SEMS/xmc4800_evaluation_kit/xmc4800_iot_kit/common/Libraries/XMCLib/inc\xmc_ccu8.h ****  *  Selects which signal is controlling the delay between the change at the CCU8 outputs and effect
 790:D:/School/diseratie/SEMS/xmc4800_evaluation_kit/xmc4800_iot_kit/common/Libraries/XMCLib/inc\xmc_ccu8.h ****  */
 791:D:/School/diseratie/SEMS/xmc4800_evaluation_kit/xmc4800_iot_kit/common/Libraries/XMCLib/inc\xmc_ccu8.h **** typedef enum XMC_CCU8_PARITY_CHECKER_DELAY_INPUT
 792:D:/School/diseratie/SEMS/xmc4800_evaluation_kit/xmc4800_iot_kit/common/Libraries/XMCLib/inc\xmc_ccu8.h **** {
 793:D:/School/diseratie/SEMS/xmc4800_evaluation_kit/xmc4800_iot_kit/common/Libraries/XMCLib/inc\xmc_ccu8.h ****   XMC_CCU8_PARITY_CHECKER_DELAY_INPUT_IGBTA = 0 << CCU8_GPCHK_PCDS_Pos,
 794:D:/School/diseratie/SEMS/xmc4800_evaluation_kit/xmc4800_iot_kit/common/Libraries/XMCLib/inc\xmc_ccu8.h ****   XMC_CCU8_PARITY_CHECKER_DELAY_INPUT_IGBTB = 1 << CCU8_GPCHK_PCDS_Pos,
 795:D:/School/diseratie/SEMS/xmc4800_evaluation_kit/xmc4800_iot_kit/common/Libraries/XMCLib/inc\xmc_ccu8.h ****   XMC_CCU8_PARITY_CHECKER_DELAY_INPUT_IGBTC = 2 << CCU8_GPCHK_PCDS_Pos,
 796:D:/School/diseratie/SEMS/xmc4800_evaluation_kit/xmc4800_iot_kit/common/Libraries/XMCLib/inc\xmc_ccu8.h ****   XMC_CCU8_PARITY_CHECKER_DELAY_INPUT_IGBTD = 3 << CCU8_GPCHK_PCDS_Pos
 797:D:/School/diseratie/SEMS/xmc4800_evaluation_kit/xmc4800_iot_kit/common/Libraries/XMCLib/inc\xmc_ccu8.h **** } XMC_CCU8_PARITY_CHECKER_DELAY_INPUT_t;
 798:D:/School/diseratie/SEMS/xmc4800_evaluation_kit/xmc4800_iot_kit/common/Libraries/XMCLib/inc\xmc_ccu8.h **** 
 799:D:/School/diseratie/SEMS/xmc4800_evaluation_kit/xmc4800_iot_kit/common/Libraries/XMCLib/inc\xmc_ccu8.h **** 
 800:D:/School/diseratie/SEMS/xmc4800_evaluation_kit/xmc4800_iot_kit/common/Libraries/XMCLib/inc\xmc_ccu8.h **** /**
 801:D:/School/diseratie/SEMS/xmc4800_evaluation_kit/xmc4800_iot_kit/common/Libraries/XMCLib/inc\xmc_ccu8.h ****  *  Selects which signal contains the driver parity information
 802:D:/School/diseratie/SEMS/xmc4800_evaluation_kit/xmc4800_iot_kit/common/Libraries/XMCLib/inc\xmc_ccu8.h ****  */
 803:D:/School/diseratie/SEMS/xmc4800_evaluation_kit/xmc4800_iot_kit/common/Libraries/XMCLib/inc\xmc_ccu8.h **** typedef enum XMC_CCU8_PARITY_CHECKER_DRIVER_INPUT
 804:D:/School/diseratie/SEMS/xmc4800_evaluation_kit/xmc4800_iot_kit/common/Libraries/XMCLib/inc\xmc_ccu8.h **** {
 805:D:/School/diseratie/SEMS/xmc4800_evaluation_kit/xmc4800_iot_kit/common/Libraries/XMCLib/inc\xmc_ccu8.h ****   XMC_CCU8_PARITY_CHECKER_DRIVER_INPUT_SLICE_0 = 0 << CCU8_GPCHK_PISEL_Pos,
 806:D:/School/diseratie/SEMS/xmc4800_evaluation_kit/xmc4800_iot_kit/common/Libraries/XMCLib/inc\xmc_ccu8.h ****   XMC_CCU8_PARITY_CHECKER_DRIVER_INPUT_SLICE_1 = 1 << CCU8_GPCHK_PISEL_Pos,
 807:D:/School/diseratie/SEMS/xmc4800_evaluation_kit/xmc4800_iot_kit/common/Libraries/XMCLib/inc\xmc_ccu8.h ****   XMC_CCU8_PARITY_CHECKER_DRIVER_INPUT_SLICE_2 = 2 << CCU8_GPCHK_PISEL_Pos,
 808:D:/School/diseratie/SEMS/xmc4800_evaluation_kit/xmc4800_iot_kit/common/Libraries/XMCLib/inc\xmc_ccu8.h ****   XMC_CCU8_PARITY_CHECKER_DRIVER_INPUT_SLICE_3 = 3 << CCU8_GPCHK_PISEL_Pos,
 809:D:/School/diseratie/SEMS/xmc4800_evaluation_kit/xmc4800_iot_kit/common/Libraries/XMCLib/inc\xmc_ccu8.h **** } XMC_CCU8_PARITY_CHECKER_DRIVER_INPUT_t;
 810:D:/School/diseratie/SEMS/xmc4800_evaluation_kit/xmc4800_iot_kit/common/Libraries/XMCLib/inc\xmc_ccu8.h **** 
 811:D:/School/diseratie/SEMS/xmc4800_evaluation_kit/xmc4800_iot_kit/common/Libraries/XMCLib/inc\xmc_ccu8.h **** /**
 812:D:/School/diseratie/SEMS/xmc4800_evaluation_kit/xmc4800_iot_kit/common/Libraries/XMCLib/inc\xmc_ccu8.h ****  *  Selects if we have an odd or even parity
 813:D:/School/diseratie/SEMS/xmc4800_evaluation_kit/xmc4800_iot_kit/common/Libraries/XMCLib/inc\xmc_ccu8.h ****  */
 814:D:/School/diseratie/SEMS/xmc4800_evaluation_kit/xmc4800_iot_kit/common/Libraries/XMCLib/inc\xmc_ccu8.h **** typedef enum XMC_CCU8_PARITY_CHECKER_TYPE
 815:D:/School/diseratie/SEMS/xmc4800_evaluation_kit/xmc4800_iot_kit/common/Libraries/XMCLib/inc\xmc_ccu8.h **** {
 816:D:/School/diseratie/SEMS/xmc4800_evaluation_kit/xmc4800_iot_kit/common/Libraries/XMCLib/inc\xmc_ccu8.h ****   XMC_CCU8_PARITY_CHECKER_TYPE_EVEN = 0 << CCU8_GPCHK_PCTS_Pos,
 817:D:/School/diseratie/SEMS/xmc4800_evaluation_kit/xmc4800_iot_kit/common/Libraries/XMCLib/inc\xmc_ccu8.h ****   XMC_CCU8_PARITY_CHECKER_TYPE_ODD = 1 << CCU8_GPCHK_PCTS_Pos,
 818:D:/School/diseratie/SEMS/xmc4800_evaluation_kit/xmc4800_iot_kit/common/Libraries/XMCLib/inc\xmc_ccu8.h **** } XMC_CCU8_PARITY_CHECKER_TYPE_t;
 819:D:/School/diseratie/SEMS/xmc4800_evaluation_kit/xmc4800_iot_kit/common/Libraries/XMCLib/inc\xmc_ccu8.h **** 
 820:D:/School/diseratie/SEMS/xmc4800_evaluation_kit/xmc4800_iot_kit/common/Libraries/XMCLib/inc\xmc_ccu8.h **** /**************************************************************************************************
 821:D:/School/diseratie/SEMS/xmc4800_evaluation_kit/xmc4800_iot_kit/common/Libraries/XMCLib/inc\xmc_ccu8.h ****  * DATA STRUCTURES
 822:D:/School/diseratie/SEMS/xmc4800_evaluation_kit/xmc4800_iot_kit/common/Libraries/XMCLib/inc\xmc_ccu8.h ****  **************************************************************************************************
 823:D:/School/diseratie/SEMS/xmc4800_evaluation_kit/xmc4800_iot_kit/common/Libraries/XMCLib/inc\xmc_ccu8.h **** 
 824:D:/School/diseratie/SEMS/xmc4800_evaluation_kit/xmc4800_iot_kit/common/Libraries/XMCLib/inc\xmc_ccu8.h **** /**
 825:D:/School/diseratie/SEMS/xmc4800_evaluation_kit/xmc4800_iot_kit/common/Libraries/XMCLib/inc\xmc_ccu8.h ****  *  Configuration data structure of an External Event(Event-0/1/2).
 826:D:/School/diseratie/SEMS/xmc4800_evaluation_kit/xmc4800_iot_kit/common/Libraries/XMCLib/inc\xmc_ccu8.h ****  *  Needed to configure the various aspects of an External Event.
 827:D:/School/diseratie/SEMS/xmc4800_evaluation_kit/xmc4800_iot_kit/common/Libraries/XMCLib/inc\xmc_ccu8.h ****  *  This structure will not connect the external event with an external function.
 828:D:/School/diseratie/SEMS/xmc4800_evaluation_kit/xmc4800_iot_kit/common/Libraries/XMCLib/inc\xmc_ccu8.h ****  */
 829:D:/School/diseratie/SEMS/xmc4800_evaluation_kit/xmc4800_iot_kit/common/Libraries/XMCLib/inc\xmc_ccu8.h **** typedef struct XMC_CCU8_SLICE_EVENT_CONFIG
 830:D:/School/diseratie/SEMS/xmc4800_evaluation_kit/xmc4800_iot_kit/common/Libraries/XMCLib/inc\xmc_ccu8.h **** {
 831:D:/School/diseratie/SEMS/xmc4800_evaluation_kit/xmc4800_iot_kit/common/Libraries/XMCLib/inc\xmc_ccu8.h ****   XMC_CCU8_SLICE_INPUT_t                   mapped_input; /**< Required input signal for the Event. 
 832:D:/School/diseratie/SEMS/xmc4800_evaluation_kit/xmc4800_iot_kit/common/Libraries/XMCLib/inc\xmc_ccu8.h ****   XMC_CCU8_SLICE_EVENT_EDGE_SENSITIVITY_t  edge;         /**< Select the event edge of the input si
 833:D:/School/diseratie/SEMS/xmc4800_evaluation_kit/xmc4800_iot_kit/common/Libraries/XMCLib/inc\xmc_ccu8.h ****                                                               This is needed for an edge sensitive 
 834:D:/School/diseratie/SEMS/xmc4800_evaluation_kit/xmc4800_iot_kit/common/Libraries/XMCLib/inc\xmc_ccu8.h ****   XMC_CCU8_SLICE_EVENT_LEVEL_SENSITIVITY_t level;        /**< Select the event level of the input s
 835:D:/School/diseratie/SEMS/xmc4800_evaluation_kit/xmc4800_iot_kit/common/Libraries/XMCLib/inc\xmc_ccu8.h ****                                                               This is needed for an level sensitive
 836:D:/School/diseratie/SEMS/xmc4800_evaluation_kit/xmc4800_iot_kit/common/Libraries/XMCLib/inc\xmc_ccu8.h ****   XMC_CCU8_SLICE_EVENT_FILTER_t            duration;     /**< Low Pass filter duration in terms of 
 837:D:/School/diseratie/SEMS/xmc4800_evaluation_kit/xmc4800_iot_kit/common/Libraries/XMCLib/inc\xmc_ccu8.h **** } XMC_CCU8_SLICE_EVENT_CONFIG_t;
 838:D:/School/diseratie/SEMS/xmc4800_evaluation_kit/xmc4800_iot_kit/common/Libraries/XMCLib/inc\xmc_ccu8.h **** 
 839:D:/School/diseratie/SEMS/xmc4800_evaluation_kit/xmc4800_iot_kit/common/Libraries/XMCLib/inc\xmc_ccu8.h **** /*Anonymous structure/union guard start*/
 840:D:/School/diseratie/SEMS/xmc4800_evaluation_kit/xmc4800_iot_kit/common/Libraries/XMCLib/inc\xmc_ccu8.h **** #if defined(__CC_ARM)
 841:D:/School/diseratie/SEMS/xmc4800_evaluation_kit/xmc4800_iot_kit/common/Libraries/XMCLib/inc\xmc_ccu8.h ****   #pragma push
 842:D:/School/diseratie/SEMS/xmc4800_evaluation_kit/xmc4800_iot_kit/common/Libraries/XMCLib/inc\xmc_ccu8.h ****   #pragma anon_unions
 843:D:/School/diseratie/SEMS/xmc4800_evaluation_kit/xmc4800_iot_kit/common/Libraries/XMCLib/inc\xmc_ccu8.h **** #elif defined(__TASKING__)
 844:D:/School/diseratie/SEMS/xmc4800_evaluation_kit/xmc4800_iot_kit/common/Libraries/XMCLib/inc\xmc_ccu8.h ****   #pragma warning 586
 845:D:/School/diseratie/SEMS/xmc4800_evaluation_kit/xmc4800_iot_kit/common/Libraries/XMCLib/inc\xmc_ccu8.h **** #endif
 846:D:/School/diseratie/SEMS/xmc4800_evaluation_kit/xmc4800_iot_kit/common/Libraries/XMCLib/inc\xmc_ccu8.h **** 
 847:D:/School/diseratie/SEMS/xmc4800_evaluation_kit/xmc4800_iot_kit/common/Libraries/XMCLib/inc\xmc_ccu8.h **** /**
 848:D:/School/diseratie/SEMS/xmc4800_evaluation_kit/xmc4800_iot_kit/common/Libraries/XMCLib/inc\xmc_ccu8.h ****  * Dead Time configuration
 849:D:/School/diseratie/SEMS/xmc4800_evaluation_kit/xmc4800_iot_kit/common/Libraries/XMCLib/inc\xmc_ccu8.h ****  */
 850:D:/School/diseratie/SEMS/xmc4800_evaluation_kit/xmc4800_iot_kit/common/Libraries/XMCLib/inc\xmc_ccu8.h **** typedef struct XMC_CCU8_SLICE_DEAD_TIME_CONFIG
 851:D:/School/diseratie/SEMS/xmc4800_evaluation_kit/xmc4800_iot_kit/common/Libraries/XMCLib/inc\xmc_ccu8.h **** {
 852:D:/School/diseratie/SEMS/xmc4800_evaluation_kit/xmc4800_iot_kit/common/Libraries/XMCLib/inc\xmc_ccu8.h ****   union
 853:D:/School/diseratie/SEMS/xmc4800_evaluation_kit/xmc4800_iot_kit/common/Libraries/XMCLib/inc\xmc_ccu8.h ****   {
 854:D:/School/diseratie/SEMS/xmc4800_evaluation_kit/xmc4800_iot_kit/common/Libraries/XMCLib/inc\xmc_ccu8.h ****     struct
 855:D:/School/diseratie/SEMS/xmc4800_evaluation_kit/xmc4800_iot_kit/common/Libraries/XMCLib/inc\xmc_ccu8.h ****     {
 856:D:/School/diseratie/SEMS/xmc4800_evaluation_kit/xmc4800_iot_kit/common/Libraries/XMCLib/inc\xmc_ccu8.h ****       uint32_t enable_dead_time_channel1 : 1; /**< Enable dead time for Compare Channel-1 */
 857:D:/School/diseratie/SEMS/xmc4800_evaluation_kit/xmc4800_iot_kit/common/Libraries/XMCLib/inc\xmc_ccu8.h ****       uint32_t enable_dead_time_channel2 : 1; /**< Enable dead time for Compare Channel-2 */
 858:D:/School/diseratie/SEMS/xmc4800_evaluation_kit/xmc4800_iot_kit/common/Libraries/XMCLib/inc\xmc_ccu8.h ****       uint32_t channel1_st_path : 1;          /**< Should dead time be applied to ST output of Comp
 859:D:/School/diseratie/SEMS/xmc4800_evaluation_kit/xmc4800_iot_kit/common/Libraries/XMCLib/inc\xmc_ccu8.h ****       uint32_t channel1_inv_st_path : 1;      /**< Should dead time be applied to inverse ST output
 860:D:/School/diseratie/SEMS/xmc4800_evaluation_kit/xmc4800_iot_kit/common/Libraries/XMCLib/inc\xmc_ccu8.h ****                                                    Compare Channel-1? */
 861:D:/School/diseratie/SEMS/xmc4800_evaluation_kit/xmc4800_iot_kit/common/Libraries/XMCLib/inc\xmc_ccu8.h ****       uint32_t channel2_st_path : 1;          /**< Should dead time be applied to ST output of Comp
 862:D:/School/diseratie/SEMS/xmc4800_evaluation_kit/xmc4800_iot_kit/common/Libraries/XMCLib/inc\xmc_ccu8.h ****       uint32_t channel2_inv_st_path : 1;      /**< Should dead time be applied to inverse ST output
 863:D:/School/diseratie/SEMS/xmc4800_evaluation_kit/xmc4800_iot_kit/common/Libraries/XMCLib/inc\xmc_ccu8.h ****                                                    Compare Channel-2? */
 864:D:/School/diseratie/SEMS/xmc4800_evaluation_kit/xmc4800_iot_kit/common/Libraries/XMCLib/inc\xmc_ccu8.h ****       uint32_t div : 2;                       /**< Dead time prescaler divider value.
 865:D:/School/diseratie/SEMS/xmc4800_evaluation_kit/xmc4800_iot_kit/common/Libraries/XMCLib/inc\xmc_ccu8.h ****                                                    Accepts enum ::XMC_CCU8_SLICE_DTC_DIV_t*/
 866:D:/School/diseratie/SEMS/xmc4800_evaluation_kit/xmc4800_iot_kit/common/Libraries/XMCLib/inc\xmc_ccu8.h ****       uint32_t : 24;
 867:D:/School/diseratie/SEMS/xmc4800_evaluation_kit/xmc4800_iot_kit/common/Libraries/XMCLib/inc\xmc_ccu8.h ****     };
 868:D:/School/diseratie/SEMS/xmc4800_evaluation_kit/xmc4800_iot_kit/common/Libraries/XMCLib/inc\xmc_ccu8.h ****     uint32_t dtc;
 869:D:/School/diseratie/SEMS/xmc4800_evaluation_kit/xmc4800_iot_kit/common/Libraries/XMCLib/inc\xmc_ccu8.h ****   };
 870:D:/School/diseratie/SEMS/xmc4800_evaluation_kit/xmc4800_iot_kit/common/Libraries/XMCLib/inc\xmc_ccu8.h ****   union
 871:D:/School/diseratie/SEMS/xmc4800_evaluation_kit/xmc4800_iot_kit/common/Libraries/XMCLib/inc\xmc_ccu8.h ****   {
 872:D:/School/diseratie/SEMS/xmc4800_evaluation_kit/xmc4800_iot_kit/common/Libraries/XMCLib/inc\xmc_ccu8.h ****     struct
 873:D:/School/diseratie/SEMS/xmc4800_evaluation_kit/xmc4800_iot_kit/common/Libraries/XMCLib/inc\xmc_ccu8.h ****     {
 874:D:/School/diseratie/SEMS/xmc4800_evaluation_kit/xmc4800_iot_kit/common/Libraries/XMCLib/inc\xmc_ccu8.h ****       uint32_t channel1_st_rising_edge_counter : 8; /**< Contains the delay value that is applied t
 875:D:/School/diseratie/SEMS/xmc4800_evaluation_kit/xmc4800_iot_kit/common/Libraries/XMCLib/inc\xmc_ccu8.h **** 	                                                       for compare channel-1. Range: [0x0 to 0xFF]
 876:D:/School/diseratie/SEMS/xmc4800_evaluation_kit/xmc4800_iot_kit/common/Libraries/XMCLib/inc\xmc_ccu8.h ****       uint32_t channel1_st_falling_edge_counter : 8; /**< Contains the delay value that is applied 
 877:D:/School/diseratie/SEMS/xmc4800_evaluation_kit/xmc4800_iot_kit/common/Libraries/XMCLib/inc\xmc_ccu8.h **** 	                                                        for compare channel-1. Range: [0x0 to 0xFF
 878:D:/School/diseratie/SEMS/xmc4800_evaluation_kit/xmc4800_iot_kit/common/Libraries/XMCLib/inc\xmc_ccu8.h ****       uint32_t : 16;
 879:D:/School/diseratie/SEMS/xmc4800_evaluation_kit/xmc4800_iot_kit/common/Libraries/XMCLib/inc\xmc_ccu8.h ****     };
 880:D:/School/diseratie/SEMS/xmc4800_evaluation_kit/xmc4800_iot_kit/common/Libraries/XMCLib/inc\xmc_ccu8.h ****     uint32_t dc1r;
 881:D:/School/diseratie/SEMS/xmc4800_evaluation_kit/xmc4800_iot_kit/common/Libraries/XMCLib/inc\xmc_ccu8.h ****   };
 882:D:/School/diseratie/SEMS/xmc4800_evaluation_kit/xmc4800_iot_kit/common/Libraries/XMCLib/inc\xmc_ccu8.h ****   union
 883:D:/School/diseratie/SEMS/xmc4800_evaluation_kit/xmc4800_iot_kit/common/Libraries/XMCLib/inc\xmc_ccu8.h ****   {
 884:D:/School/diseratie/SEMS/xmc4800_evaluation_kit/xmc4800_iot_kit/common/Libraries/XMCLib/inc\xmc_ccu8.h ****     struct
 885:D:/School/diseratie/SEMS/xmc4800_evaluation_kit/xmc4800_iot_kit/common/Libraries/XMCLib/inc\xmc_ccu8.h ****     {
 886:D:/School/diseratie/SEMS/xmc4800_evaluation_kit/xmc4800_iot_kit/common/Libraries/XMCLib/inc\xmc_ccu8.h ****       uint32_t channel2_st_rising_edge_counter : 8; /**< Contains the delay value that is applied t
 887:D:/School/diseratie/SEMS/xmc4800_evaluation_kit/xmc4800_iot_kit/common/Libraries/XMCLib/inc\xmc_ccu8.h **** 	                                                     for compare channel-2. Range: [0x0 to 0xFF]*/
 888:D:/School/diseratie/SEMS/xmc4800_evaluation_kit/xmc4800_iot_kit/common/Libraries/XMCLib/inc\xmc_ccu8.h ****       uint32_t channel2_st_falling_edge_counter : 8; /**< Contains the delay value that is applied 
 889:D:/School/diseratie/SEMS/xmc4800_evaluation_kit/xmc4800_iot_kit/common/Libraries/XMCLib/inc\xmc_ccu8.h **** 	                                                     for compare channel-2. Range: [0x0 to 0xFF]*/
 890:D:/School/diseratie/SEMS/xmc4800_evaluation_kit/xmc4800_iot_kit/common/Libraries/XMCLib/inc\xmc_ccu8.h ****       uint32_t : 16;
 891:D:/School/diseratie/SEMS/xmc4800_evaluation_kit/xmc4800_iot_kit/common/Libraries/XMCLib/inc\xmc_ccu8.h ****     };
 892:D:/School/diseratie/SEMS/xmc4800_evaluation_kit/xmc4800_iot_kit/common/Libraries/XMCLib/inc\xmc_ccu8.h ****     uint32_t dc2r;
 893:D:/School/diseratie/SEMS/xmc4800_evaluation_kit/xmc4800_iot_kit/common/Libraries/XMCLib/inc\xmc_ccu8.h ****   };
 894:D:/School/diseratie/SEMS/xmc4800_evaluation_kit/xmc4800_iot_kit/common/Libraries/XMCLib/inc\xmc_ccu8.h **** } XMC_CCU8_SLICE_DEAD_TIME_CONFIG_t;
 895:D:/School/diseratie/SEMS/xmc4800_evaluation_kit/xmc4800_iot_kit/common/Libraries/XMCLib/inc\xmc_ccu8.h **** 
 896:D:/School/diseratie/SEMS/xmc4800_evaluation_kit/xmc4800_iot_kit/common/Libraries/XMCLib/inc\xmc_ccu8.h **** /**
 897:D:/School/diseratie/SEMS/xmc4800_evaluation_kit/xmc4800_iot_kit/common/Libraries/XMCLib/inc\xmc_ccu8.h ****  *  Configuration data structure for CCU8 slice. Specifically configures the CCU8 slice to compare 
 898:D:/School/diseratie/SEMS/xmc4800_evaluation_kit/xmc4800_iot_kit/common/Libraries/XMCLib/inc\xmc_ccu8.h ****  *  This excludes event and function configuration.
 899:D:/School/diseratie/SEMS/xmc4800_evaluation_kit/xmc4800_iot_kit/common/Libraries/XMCLib/inc\xmc_ccu8.h ****  */
 900:D:/School/diseratie/SEMS/xmc4800_evaluation_kit/xmc4800_iot_kit/common/Libraries/XMCLib/inc\xmc_ccu8.h **** typedef struct XMC_CCU8_SLICE_COMPARE_CONFIG
 901:D:/School/diseratie/SEMS/xmc4800_evaluation_kit/xmc4800_iot_kit/common/Libraries/XMCLib/inc\xmc_ccu8.h **** {
 902:D:/School/diseratie/SEMS/xmc4800_evaluation_kit/xmc4800_iot_kit/common/Libraries/XMCLib/inc\xmc_ccu8.h ****   union
 903:D:/School/diseratie/SEMS/xmc4800_evaluation_kit/xmc4800_iot_kit/common/Libraries/XMCLib/inc\xmc_ccu8.h ****   {
 904:D:/School/diseratie/SEMS/xmc4800_evaluation_kit/xmc4800_iot_kit/common/Libraries/XMCLib/inc\xmc_ccu8.h ****     struct
 905:D:/School/diseratie/SEMS/xmc4800_evaluation_kit/xmc4800_iot_kit/common/Libraries/XMCLib/inc\xmc_ccu8.h ****     {
 906:D:/School/diseratie/SEMS/xmc4800_evaluation_kit/xmc4800_iot_kit/common/Libraries/XMCLib/inc\xmc_ccu8.h ****       uint32_t timer_mode : 1;         /**< Edge aligned or Centre Aligned.
 907:D:/School/diseratie/SEMS/xmc4800_evaluation_kit/xmc4800_iot_kit/common/Libraries/XMCLib/inc\xmc_ccu8.h ****                                             Accepts enum :: XMC_CCU8_SLICE_TIMER_COUNT_MODE_t */
 908:D:/School/diseratie/SEMS/xmc4800_evaluation_kit/xmc4800_iot_kit/common/Libraries/XMCLib/inc\xmc_ccu8.h ****       uint32_t monoshot : 1;           /**< Single shot or Continuous mode .
 909:D:/School/diseratie/SEMS/xmc4800_evaluation_kit/xmc4800_iot_kit/common/Libraries/XMCLib/inc\xmc_ccu8.h ****                                             Accepts enum :: XMC_CCU8_SLICE_TIMER_REPEAT_MODE_t */
 910:D:/School/diseratie/SEMS/xmc4800_evaluation_kit/xmc4800_iot_kit/common/Libraries/XMCLib/inc\xmc_ccu8.h ****       uint32_t shadow_xfer_clear : 1; /**< Should PR and CR shadow xfer happen when timer is cleare
 911:D:/School/diseratie/SEMS/xmc4800_evaluation_kit/xmc4800_iot_kit/common/Libraries/XMCLib/inc\xmc_ccu8.h ****       uint32_t : 10;
 912:D:/School/diseratie/SEMS/xmc4800_evaluation_kit/xmc4800_iot_kit/common/Libraries/XMCLib/inc\xmc_ccu8.h ****       uint32_t dither_timer_period: 1; /**< Can the period of the timer dither? */
 913:D:/School/diseratie/SEMS/xmc4800_evaluation_kit/xmc4800_iot_kit/common/Libraries/XMCLib/inc\xmc_ccu8.h ****       uint32_t dither_duty_cycle : 1;  /**< Can the compare match of the timer dither? */
 914:D:/School/diseratie/SEMS/xmc4800_evaluation_kit/xmc4800_iot_kit/common/Libraries/XMCLib/inc\xmc_ccu8.h ****       uint32_t : 1;
 915:D:/School/diseratie/SEMS/xmc4800_evaluation_kit/xmc4800_iot_kit/common/Libraries/XMCLib/inc\xmc_ccu8.h ****       uint32_t prescaler_mode: 1;      /**< Normal or floating prescaler mode.
 916:D:/School/diseratie/SEMS/xmc4800_evaluation_kit/xmc4800_iot_kit/common/Libraries/XMCLib/inc\xmc_ccu8.h ****                                             Accepts enum :: XMC_CCU8_SLICE_PRESCALER_MODE_t */
 917:D:/School/diseratie/SEMS/xmc4800_evaluation_kit/xmc4800_iot_kit/common/Libraries/XMCLib/inc\xmc_ccu8.h ****       uint32_t : 8;
 918:D:/School/diseratie/SEMS/xmc4800_evaluation_kit/xmc4800_iot_kit/common/Libraries/XMCLib/inc\xmc_ccu8.h ****       uint32_t mcm_ch1_enable : 1;     /**< Multi-Channel mode for compare channel 1 enable? */
 919:D:/School/diseratie/SEMS/xmc4800_evaluation_kit/xmc4800_iot_kit/common/Libraries/XMCLib/inc\xmc_ccu8.h ****       uint32_t mcm_ch2_enable : 1;     /**< Multi-Channel mode for compare channel 2 enable? */
 920:D:/School/diseratie/SEMS/xmc4800_evaluation_kit/xmc4800_iot_kit/common/Libraries/XMCLib/inc\xmc_ccu8.h ****       uint32_t : 2;
 921:D:/School/diseratie/SEMS/xmc4800_evaluation_kit/xmc4800_iot_kit/common/Libraries/XMCLib/inc\xmc_ccu8.h ****       uint32_t slice_status : 2;       /**< Which of the two channels drives the slice status outpu
 922:D:/School/diseratie/SEMS/xmc4800_evaluation_kit/xmc4800_iot_kit/common/Libraries/XMCLib/inc\xmc_ccu8.h **** 	                                          Accepts enum :: XMC_CCU8_SLICE_STATUS_t*/
 923:D:/School/diseratie/SEMS/xmc4800_evaluation_kit/xmc4800_iot_kit/common/Libraries/XMCLib/inc\xmc_ccu8.h ****       uint32_t : 1;
 924:D:/School/diseratie/SEMS/xmc4800_evaluation_kit/xmc4800_iot_kit/common/Libraries/XMCLib/inc\xmc_ccu8.h ****     };
 925:D:/School/diseratie/SEMS/xmc4800_evaluation_kit/xmc4800_iot_kit/common/Libraries/XMCLib/inc\xmc_ccu8.h ****     uint32_t tc;
 926:D:/School/diseratie/SEMS/xmc4800_evaluation_kit/xmc4800_iot_kit/common/Libraries/XMCLib/inc\xmc_ccu8.h ****   };
 927:D:/School/diseratie/SEMS/xmc4800_evaluation_kit/xmc4800_iot_kit/common/Libraries/XMCLib/inc\xmc_ccu8.h ****   union
 928:D:/School/diseratie/SEMS/xmc4800_evaluation_kit/xmc4800_iot_kit/common/Libraries/XMCLib/inc\xmc_ccu8.h ****   {
 929:D:/School/diseratie/SEMS/xmc4800_evaluation_kit/xmc4800_iot_kit/common/Libraries/XMCLib/inc\xmc_ccu8.h ****     struct
 930:D:/School/diseratie/SEMS/xmc4800_evaluation_kit/xmc4800_iot_kit/common/Libraries/XMCLib/inc\xmc_ccu8.h ****     {
 931:D:/School/diseratie/SEMS/xmc4800_evaluation_kit/xmc4800_iot_kit/common/Libraries/XMCLib/inc\xmc_ccu8.h ****       uint32_t passive_level_out0 : 1; /**< ST and OUT passive levels Configuration for OUT0. 
 932:D:/School/diseratie/SEMS/xmc4800_evaluation_kit/xmc4800_iot_kit/common/Libraries/XMCLib/inc\xmc_ccu8.h **** 	                                          Accepts enum :: XMC_CCU8_SLICE_OUTPUT_PASSIVE_LEVEL_t */
 933:D:/School/diseratie/SEMS/xmc4800_evaluation_kit/xmc4800_iot_kit/common/Libraries/XMCLib/inc\xmc_ccu8.h ****       uint32_t passive_level_out1 : 1; /**< ST and OUT passive levels Configuration for OUT1. 
 934:D:/School/diseratie/SEMS/xmc4800_evaluation_kit/xmc4800_iot_kit/common/Libraries/XMCLib/inc\xmc_ccu8.h **** 	                                          Accepts enum :: XMC_CCU8_SLICE_OUTPUT_PASSIVE_LEVEL_t */
 935:D:/School/diseratie/SEMS/xmc4800_evaluation_kit/xmc4800_iot_kit/common/Libraries/XMCLib/inc\xmc_ccu8.h ****       uint32_t passive_level_out2 : 1; /**< ST and OUT passive levels Configuration for OUT2. 
 936:D:/School/diseratie/SEMS/xmc4800_evaluation_kit/xmc4800_iot_kit/common/Libraries/XMCLib/inc\xmc_ccu8.h **** 	                                          Accepts enum :: XMC_CCU8_SLICE_OUTPUT_PASSIVE_LEVEL_t */
 937:D:/School/diseratie/SEMS/xmc4800_evaluation_kit/xmc4800_iot_kit/common/Libraries/XMCLib/inc\xmc_ccu8.h ****       uint32_t passive_level_out3 : 1; /**< ST and OUT passive levels Configuration for OUT3. 
 938:D:/School/diseratie/SEMS/xmc4800_evaluation_kit/xmc4800_iot_kit/common/Libraries/XMCLib/inc\xmc_ccu8.h **** 	                                          Accepts enum :: XMC_CCU8_SLICE_OUTPUT_PASSIVE_LEVEL_t */
 939:D:/School/diseratie/SEMS/xmc4800_evaluation_kit/xmc4800_iot_kit/common/Libraries/XMCLib/inc\xmc_ccu8.h ****       uint32_t : 28;
 940:D:/School/diseratie/SEMS/xmc4800_evaluation_kit/xmc4800_iot_kit/common/Libraries/XMCLib/inc\xmc_ccu8.h ****     };
 941:D:/School/diseratie/SEMS/xmc4800_evaluation_kit/xmc4800_iot_kit/common/Libraries/XMCLib/inc\xmc_ccu8.h ****     uint32_t psl;
 942:D:/School/diseratie/SEMS/xmc4800_evaluation_kit/xmc4800_iot_kit/common/Libraries/XMCLib/inc\xmc_ccu8.h ****   };
 943:D:/School/diseratie/SEMS/xmc4800_evaluation_kit/xmc4800_iot_kit/common/Libraries/XMCLib/inc\xmc_ccu8.h ****   union
 944:D:/School/diseratie/SEMS/xmc4800_evaluation_kit/xmc4800_iot_kit/common/Libraries/XMCLib/inc\xmc_ccu8.h ****   {
 945:D:/School/diseratie/SEMS/xmc4800_evaluation_kit/xmc4800_iot_kit/common/Libraries/XMCLib/inc\xmc_ccu8.h ****     struct
 946:D:/School/diseratie/SEMS/xmc4800_evaluation_kit/xmc4800_iot_kit/common/Libraries/XMCLib/inc\xmc_ccu8.h ****     {
 947:D:/School/diseratie/SEMS/xmc4800_evaluation_kit/xmc4800_iot_kit/common/Libraries/XMCLib/inc\xmc_ccu8.h ****       uint32_t asymmetric_pwm : 1;     /**< Should the PWM be a function of the 2 compare channels
 948:D:/School/diseratie/SEMS/xmc4800_evaluation_kit/xmc4800_iot_kit/common/Libraries/XMCLib/inc\xmc_ccu8.h ****                                             rather than period value? */
 949:D:/School/diseratie/SEMS/xmc4800_evaluation_kit/xmc4800_iot_kit/common/Libraries/XMCLib/inc\xmc_ccu8.h ****   #if !defined(CCU8V3)    /* Defined for all devices except XMC1400 */                             
 950:D:/School/diseratie/SEMS/xmc4800_evaluation_kit/xmc4800_iot_kit/common/Libraries/XMCLib/inc\xmc_ccu8.h ****       uint32_t invert_out0 : 1;        /**< Should inverted ST of Channel-1 be connected to OUT0? *
 951:D:/School/diseratie/SEMS/xmc4800_evaluation_kit/xmc4800_iot_kit/common/Libraries/XMCLib/inc\xmc_ccu8.h ****       uint32_t invert_out1 : 1;        /**< Should inverted ST of Channel-1 be connected to OUT1? *
 952:D:/School/diseratie/SEMS/xmc4800_evaluation_kit/xmc4800_iot_kit/common/Libraries/XMCLib/inc\xmc_ccu8.h ****       uint32_t invert_out2 : 1;        /**< Should inverted ST of Channel-2 be connected to OUT2? *
 953:D:/School/diseratie/SEMS/xmc4800_evaluation_kit/xmc4800_iot_kit/common/Libraries/XMCLib/inc\xmc_ccu8.h ****       uint32_t invert_out3 : 1;        /**< Should inverted ST of Channel-2 be connected to OUT3? *
 954:D:/School/diseratie/SEMS/xmc4800_evaluation_kit/xmc4800_iot_kit/common/Libraries/XMCLib/inc\xmc_ccu8.h ****       uint32_t : 27;
 955:D:/School/diseratie/SEMS/xmc4800_evaluation_kit/xmc4800_iot_kit/common/Libraries/XMCLib/inc\xmc_ccu8.h ****   #else
 956:D:/School/diseratie/SEMS/xmc4800_evaluation_kit/xmc4800_iot_kit/common/Libraries/XMCLib/inc\xmc_ccu8.h ****       uint32_t : 3;
 957:D:/School/diseratie/SEMS/xmc4800_evaluation_kit/xmc4800_iot_kit/common/Libraries/XMCLib/inc\xmc_ccu8.h ****       uint32_t selector_out0 : 2;      /**< Connect ST or inverted ST of Channel-1 or Channel-2 be 
 958:D:/School/diseratie/SEMS/xmc4800_evaluation_kit/xmc4800_iot_kit/common/Libraries/XMCLib/inc\xmc_ccu8.h ****                                             Accepts enum :: XMC_CCU8_SOURCE_OUT0_t 
 959:D:/School/diseratie/SEMS/xmc4800_evaluation_kit/xmc4800_iot_kit/common/Libraries/XMCLib/inc\xmc_ccu8.h ****                                             refer OCS1 bit-field of CHC register. 
 960:D:/School/diseratie/SEMS/xmc4800_evaluation_kit/xmc4800_iot_kit/common/Libraries/XMCLib/inc\xmc_ccu8.h **** 											@note Only available for XMC1400 series */
 961:D:/School/diseratie/SEMS/xmc4800_evaluation_kit/xmc4800_iot_kit/common/Libraries/XMCLib/inc\xmc_ccu8.h ****       uint32_t : 2;
 962:D:/School/diseratie/SEMS/xmc4800_evaluation_kit/xmc4800_iot_kit/common/Libraries/XMCLib/inc\xmc_ccu8.h ****       uint32_t selector_out1 : 2;      /**< Connect ST or inverted ST of Channel-1 or Channel-2 be 
 963:D:/School/diseratie/SEMS/xmc4800_evaluation_kit/xmc4800_iot_kit/common/Libraries/XMCLib/inc\xmc_ccu8.h ****                                             Accepts enum :: XMC_CCU8_SOURCE_OUT1_t 
 964:D:/School/diseratie/SEMS/xmc4800_evaluation_kit/xmc4800_iot_kit/common/Libraries/XMCLib/inc\xmc_ccu8.h ****                                             refer OCS2 bit-field of CHC register. 
 965:D:/School/diseratie/SEMS/xmc4800_evaluation_kit/xmc4800_iot_kit/common/Libraries/XMCLib/inc\xmc_ccu8.h **** 											@note Only available for XMC1400 series */
 966:D:/School/diseratie/SEMS/xmc4800_evaluation_kit/xmc4800_iot_kit/common/Libraries/XMCLib/inc\xmc_ccu8.h ****       uint32_t : 2;
 967:D:/School/diseratie/SEMS/xmc4800_evaluation_kit/xmc4800_iot_kit/common/Libraries/XMCLib/inc\xmc_ccu8.h ****       uint32_t selector_out2 : 2;      /**< Connect ST or inverted ST of Channel-1 or Channel-2 be 
 968:D:/School/diseratie/SEMS/xmc4800_evaluation_kit/xmc4800_iot_kit/common/Libraries/XMCLib/inc\xmc_ccu8.h ****                                             Accepts enum :: XMC_CCU8_SOURCE_OUT2_t 
 969:D:/School/diseratie/SEMS/xmc4800_evaluation_kit/xmc4800_iot_kit/common/Libraries/XMCLib/inc\xmc_ccu8.h ****                                             refer OCS3 bit-field of CHC register.
 970:D:/School/diseratie/SEMS/xmc4800_evaluation_kit/xmc4800_iot_kit/common/Libraries/XMCLib/inc\xmc_ccu8.h **** 											@note Only available for XMC1400 series */
 971:D:/School/diseratie/SEMS/xmc4800_evaluation_kit/xmc4800_iot_kit/common/Libraries/XMCLib/inc\xmc_ccu8.h ****       uint32_t : 2;
 972:D:/School/diseratie/SEMS/xmc4800_evaluation_kit/xmc4800_iot_kit/common/Libraries/XMCLib/inc\xmc_ccu8.h ****       uint32_t selector_out3 : 2;      /**< Connect ST or inverted ST of Channel-1 or Channel-2 be 
 973:D:/School/diseratie/SEMS/xmc4800_evaluation_kit/xmc4800_iot_kit/common/Libraries/XMCLib/inc\xmc_ccu8.h ****                                             Accepts enum :: XMC_CCU8_SOURCE_OUT3_t 
 974:D:/School/diseratie/SEMS/xmc4800_evaluation_kit/xmc4800_iot_kit/common/Libraries/XMCLib/inc\xmc_ccu8.h ****                                             refer OCS4 bit-field of CHC register.
 975:D:/School/diseratie/SEMS/xmc4800_evaluation_kit/xmc4800_iot_kit/common/Libraries/XMCLib/inc\xmc_ccu8.h **** 											@note Only available for XMC1400 series */
 976:D:/School/diseratie/SEMS/xmc4800_evaluation_kit/xmc4800_iot_kit/common/Libraries/XMCLib/inc\xmc_ccu8.h ****       uint32_t : 14;
 977:D:/School/diseratie/SEMS/xmc4800_evaluation_kit/xmc4800_iot_kit/common/Libraries/XMCLib/inc\xmc_ccu8.h ****   #endif
 978:D:/School/diseratie/SEMS/xmc4800_evaluation_kit/xmc4800_iot_kit/common/Libraries/XMCLib/inc\xmc_ccu8.h ****     };
 979:D:/School/diseratie/SEMS/xmc4800_evaluation_kit/xmc4800_iot_kit/common/Libraries/XMCLib/inc\xmc_ccu8.h ****     uint32_t chc;
 980:D:/School/diseratie/SEMS/xmc4800_evaluation_kit/xmc4800_iot_kit/common/Libraries/XMCLib/inc\xmc_ccu8.h ****   };
 981:D:/School/diseratie/SEMS/xmc4800_evaluation_kit/xmc4800_iot_kit/common/Libraries/XMCLib/inc\xmc_ccu8.h ****   uint32_t prescaler_initval : 4;      /**< Initial prescaler divider value 
 982:D:/School/diseratie/SEMS/xmc4800_evaluation_kit/xmc4800_iot_kit/common/Libraries/XMCLib/inc\xmc_ccu8.h ****                                             Accepts enum :: XMC_CCU8_SLICE_PRESCALER_t */
 983:D:/School/diseratie/SEMS/xmc4800_evaluation_kit/xmc4800_iot_kit/common/Libraries/XMCLib/inc\xmc_ccu8.h ****   uint32_t float_limit : 4;            /**< The max value which the prescaler divider can increment
 984:D:/School/diseratie/SEMS/xmc4800_evaluation_kit/xmc4800_iot_kit/common/Libraries/XMCLib/inc\xmc_ccu8.h ****                                             Range : [0 to 15] */
 985:D:/School/diseratie/SEMS/xmc4800_evaluation_kit/xmc4800_iot_kit/common/Libraries/XMCLib/inc\xmc_ccu8.h ****   uint32_t dither_limit : 4;           /**< The value that determines the spreading of dithering 
 986:D:/School/diseratie/SEMS/xmc4800_evaluation_kit/xmc4800_iot_kit/common/Libraries/XMCLib/inc\xmc_ccu8.h ****                                             Range : [0 to 15] */
 987:D:/School/diseratie/SEMS/xmc4800_evaluation_kit/xmc4800_iot_kit/common/Libraries/XMCLib/inc\xmc_ccu8.h ****   uint32_t timer_concatenation : 1;    /**< Enables the concatenation of the timer if true*/
 988:D:/School/diseratie/SEMS/xmc4800_evaluation_kit/xmc4800_iot_kit/common/Libraries/XMCLib/inc\xmc_ccu8.h **** } XMC_CCU8_SLICE_COMPARE_CONFIG_t;
 989:D:/School/diseratie/SEMS/xmc4800_evaluation_kit/xmc4800_iot_kit/common/Libraries/XMCLib/inc\xmc_ccu8.h **** 
 990:D:/School/diseratie/SEMS/xmc4800_evaluation_kit/xmc4800_iot_kit/common/Libraries/XMCLib/inc\xmc_ccu8.h **** /**
 991:D:/School/diseratie/SEMS/xmc4800_evaluation_kit/xmc4800_iot_kit/common/Libraries/XMCLib/inc\xmc_ccu8.h ****  *  Configuration data structure for CCU8 slice. Specifically configures the CCU8 slice to capture 
 992:D:/School/diseratie/SEMS/xmc4800_evaluation_kit/xmc4800_iot_kit/common/Libraries/XMCLib/inc\xmc_ccu8.h ****  *  This excludes event and function configuration.
 993:D:/School/diseratie/SEMS/xmc4800_evaluation_kit/xmc4800_iot_kit/common/Libraries/XMCLib/inc\xmc_ccu8.h ****  */
 994:D:/School/diseratie/SEMS/xmc4800_evaluation_kit/xmc4800_iot_kit/common/Libraries/XMCLib/inc\xmc_ccu8.h **** typedef struct XMC_CCU8_SLICE_CAPTURE_CONFIG
 995:D:/School/diseratie/SEMS/xmc4800_evaluation_kit/xmc4800_iot_kit/common/Libraries/XMCLib/inc\xmc_ccu8.h **** {
 996:D:/School/diseratie/SEMS/xmc4800_evaluation_kit/xmc4800_iot_kit/common/Libraries/XMCLib/inc\xmc_ccu8.h ****   union
 997:D:/School/diseratie/SEMS/xmc4800_evaluation_kit/xmc4800_iot_kit/common/Libraries/XMCLib/inc\xmc_ccu8.h ****   {
 998:D:/School/diseratie/SEMS/xmc4800_evaluation_kit/xmc4800_iot_kit/common/Libraries/XMCLib/inc\xmc_ccu8.h ****     struct
 999:D:/School/diseratie/SEMS/xmc4800_evaluation_kit/xmc4800_iot_kit/common/Libraries/XMCLib/inc\xmc_ccu8.h ****     {
1000:D:/School/diseratie/SEMS/xmc4800_evaluation_kit/xmc4800_iot_kit/common/Libraries/XMCLib/inc\xmc_ccu8.h ****       uint32_t : 4;
1001:D:/School/diseratie/SEMS/xmc4800_evaluation_kit/xmc4800_iot_kit/common/Libraries/XMCLib/inc\xmc_ccu8.h ****       uint32_t fifo_enable : 1;      /**< Should the capture registers be setup as a FIFO?(Extended
1002:D:/School/diseratie/SEMS/xmc4800_evaluation_kit/xmc4800_iot_kit/common/Libraries/XMCLib/inc\xmc_ccu8.h ****       uint32_t timer_clear_mode : 2; /**< How should the timer register be cleared upon detection o
1003:D:/School/diseratie/SEMS/xmc4800_evaluation_kit/xmc4800_iot_kit/common/Libraries/XMCLib/inc\xmc_ccu8.h ****                                           Accepts enum ::XMC_CCU8_SLICE_TIMER_CLEAR_MODE_t */
1004:D:/School/diseratie/SEMS/xmc4800_evaluation_kit/xmc4800_iot_kit/common/Libraries/XMCLib/inc\xmc_ccu8.h ****       uint32_t : 4;
1005:D:/School/diseratie/SEMS/xmc4800_evaluation_kit/xmc4800_iot_kit/common/Libraries/XMCLib/inc\xmc_ccu8.h ****       uint32_t same_event : 1;       /**< Should the capture event for C1V/C0V and C3V/C2V be same 
1006:D:/School/diseratie/SEMS/xmc4800_evaluation_kit/xmc4800_iot_kit/common/Libraries/XMCLib/inc\xmc_ccu8.h ****       uint32_t ignore_full_flag : 1; /**< Should updates to capture registers follow full flag rule
1007:D:/School/diseratie/SEMS/xmc4800_evaluation_kit/xmc4800_iot_kit/common/Libraries/XMCLib/inc\xmc_ccu8.h ****       uint32_t : 3;
1008:D:/School/diseratie/SEMS/xmc4800_evaluation_kit/xmc4800_iot_kit/common/Libraries/XMCLib/inc\xmc_ccu8.h ****       uint32_t prescaler_mode: 1;    /**< Normal or floating prescaler Accepts enum :: XMC_CCU8_SLI
1009:D:/School/diseratie/SEMS/xmc4800_evaluation_kit/xmc4800_iot_kit/common/Libraries/XMCLib/inc\xmc_ccu8.h ****       uint32_t : 15;
1010:D:/School/diseratie/SEMS/xmc4800_evaluation_kit/xmc4800_iot_kit/common/Libraries/XMCLib/inc\xmc_ccu8.h ****     };
1011:D:/School/diseratie/SEMS/xmc4800_evaluation_kit/xmc4800_iot_kit/common/Libraries/XMCLib/inc\xmc_ccu8.h ****     uint32_t tc;
1012:D:/School/diseratie/SEMS/xmc4800_evaluation_kit/xmc4800_iot_kit/common/Libraries/XMCLib/inc\xmc_ccu8.h ****   };
1013:D:/School/diseratie/SEMS/xmc4800_evaluation_kit/xmc4800_iot_kit/common/Libraries/XMCLib/inc\xmc_ccu8.h ****   uint32_t prescaler_initval : 4;    /**< Prescaler divider value */
1014:D:/School/diseratie/SEMS/xmc4800_evaluation_kit/xmc4800_iot_kit/common/Libraries/XMCLib/inc\xmc_ccu8.h ****   uint32_t float_limit : 4;          /**< The max value which the prescaler divider can increment t
1015:D:/School/diseratie/SEMS/xmc4800_evaluation_kit/xmc4800_iot_kit/common/Libraries/XMCLib/inc\xmc_ccu8.h ****   uint32_t timer_concatenation : 1;    /**< Enables the concatenation of the timer */
1016:D:/School/diseratie/SEMS/xmc4800_evaluation_kit/xmc4800_iot_kit/common/Libraries/XMCLib/inc\xmc_ccu8.h **** } XMC_CCU8_SLICE_CAPTURE_CONFIG_t;
1017:D:/School/diseratie/SEMS/xmc4800_evaluation_kit/xmc4800_iot_kit/common/Libraries/XMCLib/inc\xmc_ccu8.h **** /*Anonymous structure/union guard end*/
1018:D:/School/diseratie/SEMS/xmc4800_evaluation_kit/xmc4800_iot_kit/common/Libraries/XMCLib/inc\xmc_ccu8.h **** #if defined(__CC_ARM)
1019:D:/School/diseratie/SEMS/xmc4800_evaluation_kit/xmc4800_iot_kit/common/Libraries/XMCLib/inc\xmc_ccu8.h ****   #pragma pop
1020:D:/School/diseratie/SEMS/xmc4800_evaluation_kit/xmc4800_iot_kit/common/Libraries/XMCLib/inc\xmc_ccu8.h **** #elif defined(__TASKING__)
1021:D:/School/diseratie/SEMS/xmc4800_evaluation_kit/xmc4800_iot_kit/common/Libraries/XMCLib/inc\xmc_ccu8.h ****   #pragma warning restore
1022:D:/School/diseratie/SEMS/xmc4800_evaluation_kit/xmc4800_iot_kit/common/Libraries/XMCLib/inc\xmc_ccu8.h **** #endif
1023:D:/School/diseratie/SEMS/xmc4800_evaluation_kit/xmc4800_iot_kit/common/Libraries/XMCLib/inc\xmc_ccu8.h **** /**************************************************************************************************
1024:D:/School/diseratie/SEMS/xmc4800_evaluation_kit/xmc4800_iot_kit/common/Libraries/XMCLib/inc\xmc_ccu8.h ****  * API Prototypes
1025:D:/School/diseratie/SEMS/xmc4800_evaluation_kit/xmc4800_iot_kit/common/Libraries/XMCLib/inc\xmc_ccu8.h ****  **************************************************************************************************
1026:D:/School/diseratie/SEMS/xmc4800_evaluation_kit/xmc4800_iot_kit/common/Libraries/XMCLib/inc\xmc_ccu8.h **** #ifdef __cplusplus
1027:D:/School/diseratie/SEMS/xmc4800_evaluation_kit/xmc4800_iot_kit/common/Libraries/XMCLib/inc\xmc_ccu8.h **** extern "C" {
1028:D:/School/diseratie/SEMS/xmc4800_evaluation_kit/xmc4800_iot_kit/common/Libraries/XMCLib/inc\xmc_ccu8.h **** #endif
1029:D:/School/diseratie/SEMS/xmc4800_evaluation_kit/xmc4800_iot_kit/common/Libraries/XMCLib/inc\xmc_ccu8.h **** 
1030:D:/School/diseratie/SEMS/xmc4800_evaluation_kit/xmc4800_iot_kit/common/Libraries/XMCLib/inc\xmc_ccu8.h **** __STATIC_INLINE bool XMC_CCU8_IsValidModule(const XMC_CCU8_MODULE_t *const module)
1031:D:/School/diseratie/SEMS/xmc4800_evaluation_kit/xmc4800_iot_kit/common/Libraries/XMCLib/inc\xmc_ccu8.h **** {
1032:D:/School/diseratie/SEMS/xmc4800_evaluation_kit/xmc4800_iot_kit/common/Libraries/XMCLib/inc\xmc_ccu8.h ****   bool tmp = false;
1033:D:/School/diseratie/SEMS/xmc4800_evaluation_kit/xmc4800_iot_kit/common/Libraries/XMCLib/inc\xmc_ccu8.h ****   
1034:D:/School/diseratie/SEMS/xmc4800_evaluation_kit/xmc4800_iot_kit/common/Libraries/XMCLib/inc\xmc_ccu8.h ****   tmp = (module == CCU80);
1035:D:/School/diseratie/SEMS/xmc4800_evaluation_kit/xmc4800_iot_kit/common/Libraries/XMCLib/inc\xmc_ccu8.h ****   
1036:D:/School/diseratie/SEMS/xmc4800_evaluation_kit/xmc4800_iot_kit/common/Libraries/XMCLib/inc\xmc_ccu8.h **** #if defined(CCU81)
1037:D:/School/diseratie/SEMS/xmc4800_evaluation_kit/xmc4800_iot_kit/common/Libraries/XMCLib/inc\xmc_ccu8.h ****   tmp = tmp || (module == CCU81);
1038:D:/School/diseratie/SEMS/xmc4800_evaluation_kit/xmc4800_iot_kit/common/Libraries/XMCLib/inc\xmc_ccu8.h **** #endif
1039:D:/School/diseratie/SEMS/xmc4800_evaluation_kit/xmc4800_iot_kit/common/Libraries/XMCLib/inc\xmc_ccu8.h ****   
1040:D:/School/diseratie/SEMS/xmc4800_evaluation_kit/xmc4800_iot_kit/common/Libraries/XMCLib/inc\xmc_ccu8.h ****   return tmp;  
1041:D:/School/diseratie/SEMS/xmc4800_evaluation_kit/xmc4800_iot_kit/common/Libraries/XMCLib/inc\xmc_ccu8.h **** } 
1042:D:/School/diseratie/SEMS/xmc4800_evaluation_kit/xmc4800_iot_kit/common/Libraries/XMCLib/inc\xmc_ccu8.h **** 
1043:D:/School/diseratie/SEMS/xmc4800_evaluation_kit/xmc4800_iot_kit/common/Libraries/XMCLib/inc\xmc_ccu8.h **** __STATIC_INLINE bool XMC_CCU8_IsValidSlice(const XMC_CCU8_SLICE_t *const slice)
1044:D:/School/diseratie/SEMS/xmc4800_evaluation_kit/xmc4800_iot_kit/common/Libraries/XMCLib/inc\xmc_ccu8.h **** {
1045:D:/School/diseratie/SEMS/xmc4800_evaluation_kit/xmc4800_iot_kit/common/Libraries/XMCLib/inc\xmc_ccu8.h ****   bool tmp = false;
1046:D:/School/diseratie/SEMS/xmc4800_evaluation_kit/xmc4800_iot_kit/common/Libraries/XMCLib/inc\xmc_ccu8.h ****   
1047:D:/School/diseratie/SEMS/xmc4800_evaluation_kit/xmc4800_iot_kit/common/Libraries/XMCLib/inc\xmc_ccu8.h ****   tmp = (slice == CCU80_CC80);
1048:D:/School/diseratie/SEMS/xmc4800_evaluation_kit/xmc4800_iot_kit/common/Libraries/XMCLib/inc\xmc_ccu8.h **** #if defined(CCU80_CC81)  
1049:D:/School/diseratie/SEMS/xmc4800_evaluation_kit/xmc4800_iot_kit/common/Libraries/XMCLib/inc\xmc_ccu8.h ****   tmp = tmp || (slice == CCU80_CC81);
1050:D:/School/diseratie/SEMS/xmc4800_evaluation_kit/xmc4800_iot_kit/common/Libraries/XMCLib/inc\xmc_ccu8.h **** #endif
1051:D:/School/diseratie/SEMS/xmc4800_evaluation_kit/xmc4800_iot_kit/common/Libraries/XMCLib/inc\xmc_ccu8.h **** #if defined(CCU80_CC82)  
1052:D:/School/diseratie/SEMS/xmc4800_evaluation_kit/xmc4800_iot_kit/common/Libraries/XMCLib/inc\xmc_ccu8.h ****   tmp = tmp || (slice == CCU80_CC82);
1053:D:/School/diseratie/SEMS/xmc4800_evaluation_kit/xmc4800_iot_kit/common/Libraries/XMCLib/inc\xmc_ccu8.h **** #endif
1054:D:/School/diseratie/SEMS/xmc4800_evaluation_kit/xmc4800_iot_kit/common/Libraries/XMCLib/inc\xmc_ccu8.h **** #if defined(CCU80_CC83)  
1055:D:/School/diseratie/SEMS/xmc4800_evaluation_kit/xmc4800_iot_kit/common/Libraries/XMCLib/inc\xmc_ccu8.h ****   tmp = tmp || (slice == CCU80_CC83);
1056:D:/School/diseratie/SEMS/xmc4800_evaluation_kit/xmc4800_iot_kit/common/Libraries/XMCLib/inc\xmc_ccu8.h **** #endif
1057:D:/School/diseratie/SEMS/xmc4800_evaluation_kit/xmc4800_iot_kit/common/Libraries/XMCLib/inc\xmc_ccu8.h **** #if defined(CCU81)  
1058:D:/School/diseratie/SEMS/xmc4800_evaluation_kit/xmc4800_iot_kit/common/Libraries/XMCLib/inc\xmc_ccu8.h ****   tmp = tmp || (slice == CCU81_CC80);
1059:D:/School/diseratie/SEMS/xmc4800_evaluation_kit/xmc4800_iot_kit/common/Libraries/XMCLib/inc\xmc_ccu8.h **** #if defined(CCU81_CC81)  
1060:D:/School/diseratie/SEMS/xmc4800_evaluation_kit/xmc4800_iot_kit/common/Libraries/XMCLib/inc\xmc_ccu8.h ****   tmp = tmp || (slice == CCU81_CC81);
1061:D:/School/diseratie/SEMS/xmc4800_evaluation_kit/xmc4800_iot_kit/common/Libraries/XMCLib/inc\xmc_ccu8.h **** #endif
1062:D:/School/diseratie/SEMS/xmc4800_evaluation_kit/xmc4800_iot_kit/common/Libraries/XMCLib/inc\xmc_ccu8.h **** #if defined(CCU81_CC82)  
1063:D:/School/diseratie/SEMS/xmc4800_evaluation_kit/xmc4800_iot_kit/common/Libraries/XMCLib/inc\xmc_ccu8.h ****   tmp = tmp || (slice == CCU81_CC82);
1064:D:/School/diseratie/SEMS/xmc4800_evaluation_kit/xmc4800_iot_kit/common/Libraries/XMCLib/inc\xmc_ccu8.h **** #endif
1065:D:/School/diseratie/SEMS/xmc4800_evaluation_kit/xmc4800_iot_kit/common/Libraries/XMCLib/inc\xmc_ccu8.h **** #if defined(CCU81_CC83)  
1066:D:/School/diseratie/SEMS/xmc4800_evaluation_kit/xmc4800_iot_kit/common/Libraries/XMCLib/inc\xmc_ccu8.h ****   tmp = tmp || (slice == CCU81_CC83);
1067:D:/School/diseratie/SEMS/xmc4800_evaluation_kit/xmc4800_iot_kit/common/Libraries/XMCLib/inc\xmc_ccu8.h **** #endif
1068:D:/School/diseratie/SEMS/xmc4800_evaluation_kit/xmc4800_iot_kit/common/Libraries/XMCLib/inc\xmc_ccu8.h **** #endif 
1069:D:/School/diseratie/SEMS/xmc4800_evaluation_kit/xmc4800_iot_kit/common/Libraries/XMCLib/inc\xmc_ccu8.h ****  
1070:D:/School/diseratie/SEMS/xmc4800_evaluation_kit/xmc4800_iot_kit/common/Libraries/XMCLib/inc\xmc_ccu8.h ****   return tmp;  
1071:D:/School/diseratie/SEMS/xmc4800_evaluation_kit/xmc4800_iot_kit/common/Libraries/XMCLib/inc\xmc_ccu8.h **** } 
1072:D:/School/diseratie/SEMS/xmc4800_evaluation_kit/xmc4800_iot_kit/common/Libraries/XMCLib/inc\xmc_ccu8.h **** 
1073:D:/School/diseratie/SEMS/xmc4800_evaluation_kit/xmc4800_iot_kit/common/Libraries/XMCLib/inc\xmc_ccu8.h **** /**
1074:D:/School/diseratie/SEMS/xmc4800_evaluation_kit/xmc4800_iot_kit/common/Libraries/XMCLib/inc\xmc_ccu8.h ****  * @param module Constant pointer to CCU8 module
1075:D:/School/diseratie/SEMS/xmc4800_evaluation_kit/xmc4800_iot_kit/common/Libraries/XMCLib/inc\xmc_ccu8.h ****  * @param mcs_action multi-channel shadow transfer request configuration
1076:D:/School/diseratie/SEMS/xmc4800_evaluation_kit/xmc4800_iot_kit/common/Libraries/XMCLib/inc\xmc_ccu8.h ****  * @return <BR>
1077:D:/School/diseratie/SEMS/xmc4800_evaluation_kit/xmc4800_iot_kit/common/Libraries/XMCLib/inc\xmc_ccu8.h ****  *    None<BR>
1078:D:/School/diseratie/SEMS/xmc4800_evaluation_kit/xmc4800_iot_kit/common/Libraries/XMCLib/inc\xmc_ccu8.h ****  *
1079:D:/School/diseratie/SEMS/xmc4800_evaluation_kit/xmc4800_iot_kit/common/Libraries/XMCLib/inc\xmc_ccu8.h ****  * \par<b>Description:</b><br>
1080:D:/School/diseratie/SEMS/xmc4800_evaluation_kit/xmc4800_iot_kit/common/Libraries/XMCLib/inc\xmc_ccu8.h ****  *  Initialization of global register GCTRL.\n\n
1081:D:/School/diseratie/SEMS/xmc4800_evaluation_kit/xmc4800_iot_kit/common/Libraries/XMCLib/inc\xmc_ccu8.h ****  *  As part of module initialization, behaviour of the module upon detection
1082:D:/School/diseratie/SEMS/xmc4800_evaluation_kit/xmc4800_iot_kit/common/Libraries/XMCLib/inc\xmc_ccu8.h ****  *  Multi-Channel Mode trigger is configured. Will also invoke the XMC_CCU8_EnableModule().
1083:D:/School/diseratie/SEMS/xmc4800_evaluation_kit/xmc4800_iot_kit/common/Libraries/XMCLib/inc\xmc_ccu8.h ****  *  The API call would bring up the required CCU8 module and also initialize the module for
1084:D:/School/diseratie/SEMS/xmc4800_evaluation_kit/xmc4800_iot_kit/common/Libraries/XMCLib/inc\xmc_ccu8.h ****  *  the required multi-channel shadow transfer.
1085:D:/School/diseratie/SEMS/xmc4800_evaluation_kit/xmc4800_iot_kit/common/Libraries/XMCLib/inc\xmc_ccu8.h ****  *
1086:D:/School/diseratie/SEMS/xmc4800_evaluation_kit/xmc4800_iot_kit/common/Libraries/XMCLib/inc\xmc_ccu8.h ****  * \par<b>Related APIs:</b><br>
1087:D:/School/diseratie/SEMS/xmc4800_evaluation_kit/xmc4800_iot_kit/common/Libraries/XMCLib/inc\xmc_ccu8.h ****  * XMC_CCU8_SLICE_CompareInit()<BR> XMC_CCU8_SLICE_CaptureInit().
1088:D:/School/diseratie/SEMS/xmc4800_evaluation_kit/xmc4800_iot_kit/common/Libraries/XMCLib/inc\xmc_ccu8.h ****  */
1089:D:/School/diseratie/SEMS/xmc4800_evaluation_kit/xmc4800_iot_kit/common/Libraries/XMCLib/inc\xmc_ccu8.h **** void XMC_CCU8_Init(XMC_CCU8_MODULE_t *const module, const XMC_CCU8_SLICE_MCMS_ACTION_t mcs_action);
1090:D:/School/diseratie/SEMS/xmc4800_evaluation_kit/xmc4800_iot_kit/common/Libraries/XMCLib/inc\xmc_ccu8.h **** 
1091:D:/School/diseratie/SEMS/xmc4800_evaluation_kit/xmc4800_iot_kit/common/Libraries/XMCLib/inc\xmc_ccu8.h **** /**
1092:D:/School/diseratie/SEMS/xmc4800_evaluation_kit/xmc4800_iot_kit/common/Libraries/XMCLib/inc\xmc_ccu8.h ****  * @param module Constant pointer to CCU8 module
1093:D:/School/diseratie/SEMS/xmc4800_evaluation_kit/xmc4800_iot_kit/common/Libraries/XMCLib/inc\xmc_ccu8.h ****  * @return <BR>
1094:D:/School/diseratie/SEMS/xmc4800_evaluation_kit/xmc4800_iot_kit/common/Libraries/XMCLib/inc\xmc_ccu8.h ****  *    None<BR>
1095:D:/School/diseratie/SEMS/xmc4800_evaluation_kit/xmc4800_iot_kit/common/Libraries/XMCLib/inc\xmc_ccu8.h ****  *
1096:D:/School/diseratie/SEMS/xmc4800_evaluation_kit/xmc4800_iot_kit/common/Libraries/XMCLib/inc\xmc_ccu8.h ****  * \par<b>Description:</b><br>
1097:D:/School/diseratie/SEMS/xmc4800_evaluation_kit/xmc4800_iot_kit/common/Libraries/XMCLib/inc\xmc_ccu8.h ****  * Enables the CCU8 module and brings it to active state.\n\n
1098:D:/School/diseratie/SEMS/xmc4800_evaluation_kit/xmc4800_iot_kit/common/Libraries/XMCLib/inc\xmc_ccu8.h ****  * Also disables the gating of the clock signal (if applicable depending on the device being select
1099:D:/School/diseratie/SEMS/xmc4800_evaluation_kit/xmc4800_iot_kit/common/Libraries/XMCLib/inc\xmc_ccu8.h ****  * Invoke this API before any operations are done on the CCU8 module. Invoked from  XMC_CCU8_Init()
1100:D:/School/diseratie/SEMS/xmc4800_evaluation_kit/xmc4800_iot_kit/common/Libraries/XMCLib/inc\xmc_ccu8.h ****  *
1101:D:/School/diseratie/SEMS/xmc4800_evaluation_kit/xmc4800_iot_kit/common/Libraries/XMCLib/inc\xmc_ccu8.h ****  * \par<b>Related APIs:</b><br>
1102:D:/School/diseratie/SEMS/xmc4800_evaluation_kit/xmc4800_iot_kit/common/Libraries/XMCLib/inc\xmc_ccu8.h ****  * XMC_CCU8_SetModuleClock()<BR>  XMC_CCU8_DisableModule()<BR>  XMC_CCU8_StartPrescaler().
1103:D:/School/diseratie/SEMS/xmc4800_evaluation_kit/xmc4800_iot_kit/common/Libraries/XMCLib/inc\xmc_ccu8.h ****  */
1104:D:/School/diseratie/SEMS/xmc4800_evaluation_kit/xmc4800_iot_kit/common/Libraries/XMCLib/inc\xmc_ccu8.h **** void XMC_CCU8_EnableModule(XMC_CCU8_MODULE_t *const module);
1105:D:/School/diseratie/SEMS/xmc4800_evaluation_kit/xmc4800_iot_kit/common/Libraries/XMCLib/inc\xmc_ccu8.h **** 
1106:D:/School/diseratie/SEMS/xmc4800_evaluation_kit/xmc4800_iot_kit/common/Libraries/XMCLib/inc\xmc_ccu8.h **** /**
1107:D:/School/diseratie/SEMS/xmc4800_evaluation_kit/xmc4800_iot_kit/common/Libraries/XMCLib/inc\xmc_ccu8.h ****  * @param module Constant pointer to CCU8 module
1108:D:/School/diseratie/SEMS/xmc4800_evaluation_kit/xmc4800_iot_kit/common/Libraries/XMCLib/inc\xmc_ccu8.h ****  * @return <BR>
1109:D:/School/diseratie/SEMS/xmc4800_evaluation_kit/xmc4800_iot_kit/common/Libraries/XMCLib/inc\xmc_ccu8.h ****  *    None<BR>
1110:D:/School/diseratie/SEMS/xmc4800_evaluation_kit/xmc4800_iot_kit/common/Libraries/XMCLib/inc\xmc_ccu8.h ****  *
1111:D:/School/diseratie/SEMS/xmc4800_evaluation_kit/xmc4800_iot_kit/common/Libraries/XMCLib/inc\xmc_ccu8.h ****  * \par<b>Description:</b><br>
1112:D:/School/diseratie/SEMS/xmc4800_evaluation_kit/xmc4800_iot_kit/common/Libraries/XMCLib/inc\xmc_ccu8.h ****  * Brings the CCU8 module to reset state and enables gating of the clock signal(if applicable depen
1113:D:/School/diseratie/SEMS/xmc4800_evaluation_kit/xmc4800_iot_kit/common/Libraries/XMCLib/inc\xmc_ccu8.h ****  * on the device being selected).\n\n
1114:D:/School/diseratie/SEMS/xmc4800_evaluation_kit/xmc4800_iot_kit/common/Libraries/XMCLib/inc\xmc_ccu8.h ****  * Invoke this API when a CCU8 module needs to be disabled completely.
1115:D:/School/diseratie/SEMS/xmc4800_evaluation_kit/xmc4800_iot_kit/common/Libraries/XMCLib/inc\xmc_ccu8.h ****  * Any operation on the CCU8 module will have no effect after this API is called.
1116:D:/School/diseratie/SEMS/xmc4800_evaluation_kit/xmc4800_iot_kit/common/Libraries/XMCLib/inc\xmc_ccu8.h ****  *
1117:D:/School/diseratie/SEMS/xmc4800_evaluation_kit/xmc4800_iot_kit/common/Libraries/XMCLib/inc\xmc_ccu8.h ****  * \par<b>Related APIs:</b><br>
1118:D:/School/diseratie/SEMS/xmc4800_evaluation_kit/xmc4800_iot_kit/common/Libraries/XMCLib/inc\xmc_ccu8.h ****  * XMC_CCU8_EnableModule()<BR> XMC_CCU8_DisableModule().
1119:D:/School/diseratie/SEMS/xmc4800_evaluation_kit/xmc4800_iot_kit/common/Libraries/XMCLib/inc\xmc_ccu8.h ****  */
1120:D:/School/diseratie/SEMS/xmc4800_evaluation_kit/xmc4800_iot_kit/common/Libraries/XMCLib/inc\xmc_ccu8.h **** void XMC_CCU8_DisableModule(XMC_CCU8_MODULE_t *const module);
1121:D:/School/diseratie/SEMS/xmc4800_evaluation_kit/xmc4800_iot_kit/common/Libraries/XMCLib/inc\xmc_ccu8.h **** 
1122:D:/School/diseratie/SEMS/xmc4800_evaluation_kit/xmc4800_iot_kit/common/Libraries/XMCLib/inc\xmc_ccu8.h **** /**
1123:D:/School/diseratie/SEMS/xmc4800_evaluation_kit/xmc4800_iot_kit/common/Libraries/XMCLib/inc\xmc_ccu8.h ****  * @param module Constant pointer to CCU8 module
1124:D:/School/diseratie/SEMS/xmc4800_evaluation_kit/xmc4800_iot_kit/common/Libraries/XMCLib/inc\xmc_ccu8.h ****  * @param clock Choice of input clock to the module
1125:D:/School/diseratie/SEMS/xmc4800_evaluation_kit/xmc4800_iot_kit/common/Libraries/XMCLib/inc\xmc_ccu8.h ****  * @return <BR>
1126:D:/School/diseratie/SEMS/xmc4800_evaluation_kit/xmc4800_iot_kit/common/Libraries/XMCLib/inc\xmc_ccu8.h ****  *    None<BR>
1127:D:/School/diseratie/SEMS/xmc4800_evaluation_kit/xmc4800_iot_kit/common/Libraries/XMCLib/inc\xmc_ccu8.h ****  *
1128:D:/School/diseratie/SEMS/xmc4800_evaluation_kit/xmc4800_iot_kit/common/Libraries/XMCLib/inc\xmc_ccu8.h ****  * \par<b>Description:</b><br>
1129:D:/School/diseratie/SEMS/xmc4800_evaluation_kit/xmc4800_iot_kit/common/Libraries/XMCLib/inc\xmc_ccu8.h ****  *  Selects the Module Clock by configuring GCTRL.PCIS bits.\n\n
1130:D:/School/diseratie/SEMS/xmc4800_evaluation_kit/xmc4800_iot_kit/common/Libraries/XMCLib/inc\xmc_ccu8.h ****  *  There are 3 potential clock sources. This API helps to select the required clock source.
1131:D:/School/diseratie/SEMS/xmc4800_evaluation_kit/xmc4800_iot_kit/common/Libraries/XMCLib/inc\xmc_ccu8.h ****  *  Call to this API is valid after the XMC_CCU8_Init().
1132:D:/School/diseratie/SEMS/xmc4800_evaluation_kit/xmc4800_iot_kit/common/Libraries/XMCLib/inc\xmc_ccu8.h ****  *
1133:D:/School/diseratie/SEMS/xmc4800_evaluation_kit/xmc4800_iot_kit/common/Libraries/XMCLib/inc\xmc_ccu8.h ****  * \par<b>Related APIs:</b><br>
1134:D:/School/diseratie/SEMS/xmc4800_evaluation_kit/xmc4800_iot_kit/common/Libraries/XMCLib/inc\xmc_ccu8.h ****  * None.<BR>
1135:D:/School/diseratie/SEMS/xmc4800_evaluation_kit/xmc4800_iot_kit/common/Libraries/XMCLib/inc\xmc_ccu8.h ****  */
1136:D:/School/diseratie/SEMS/xmc4800_evaluation_kit/xmc4800_iot_kit/common/Libraries/XMCLib/inc\xmc_ccu8.h **** void XMC_CCU8_SetModuleClock(XMC_CCU8_MODULE_t *const module, const XMC_CCU8_CLOCK_t clock);
1137:D:/School/diseratie/SEMS/xmc4800_evaluation_kit/xmc4800_iot_kit/common/Libraries/XMCLib/inc\xmc_ccu8.h **** 
1138:D:/School/diseratie/SEMS/xmc4800_evaluation_kit/xmc4800_iot_kit/common/Libraries/XMCLib/inc\xmc_ccu8.h **** 
1139:D:/School/diseratie/SEMS/xmc4800_evaluation_kit/xmc4800_iot_kit/common/Libraries/XMCLib/inc\xmc_ccu8.h **** /**
1140:D:/School/diseratie/SEMS/xmc4800_evaluation_kit/xmc4800_iot_kit/common/Libraries/XMCLib/inc\xmc_ccu8.h ****  * @param module Constant pointer to CCU8 module
1141:D:/School/diseratie/SEMS/xmc4800_evaluation_kit/xmc4800_iot_kit/common/Libraries/XMCLib/inc\xmc_ccu8.h ****  * @return <BR>
1142:D:/School/diseratie/SEMS/xmc4800_evaluation_kit/xmc4800_iot_kit/common/Libraries/XMCLib/inc\xmc_ccu8.h ****  *    None<BR>
1143:D:/School/diseratie/SEMS/xmc4800_evaluation_kit/xmc4800_iot_kit/common/Libraries/XMCLib/inc\xmc_ccu8.h ****  *
1144:D:/School/diseratie/SEMS/xmc4800_evaluation_kit/xmc4800_iot_kit/common/Libraries/XMCLib/inc\xmc_ccu8.h ****  * \par<b>Description:</b><br>
1145:D:/School/diseratie/SEMS/xmc4800_evaluation_kit/xmc4800_iot_kit/common/Libraries/XMCLib/inc\xmc_ccu8.h ****  *  Starts the prescaler and restores clocks to the timer slices, by setting GIDLC.SPRB bit.<br>\n
1146:D:/School/diseratie/SEMS/xmc4800_evaluation_kit/xmc4800_iot_kit/common/Libraries/XMCLib/inc\xmc_ccu8.h ****  *  Once the input to the prescaler has been chosen and the prescaler divider of all slices program
1147:D:/School/diseratie/SEMS/xmc4800_evaluation_kit/xmc4800_iot_kit/common/Libraries/XMCLib/inc\xmc_ccu8.h ****  *  the prescaler itself may be started. Invoke this  API after XMC_CCU8_Init()
1148:D:/School/diseratie/SEMS/xmc4800_evaluation_kit/xmc4800_iot_kit/common/Libraries/XMCLib/inc\xmc_ccu8.h ****  *  (Mandatory to fully initialize the module).
1149:D:/School/diseratie/SEMS/xmc4800_evaluation_kit/xmc4800_iot_kit/common/Libraries/XMCLib/inc\xmc_ccu8.h ****  *
1150:D:/School/diseratie/SEMS/xmc4800_evaluation_kit/xmc4800_iot_kit/common/Libraries/XMCLib/inc\xmc_ccu8.h ****  * \par<b>Related APIs:</b><br>
1151:D:/School/diseratie/SEMS/xmc4800_evaluation_kit/xmc4800_iot_kit/common/Libraries/XMCLib/inc\xmc_ccu8.h ****  * XMC_CCU8_Init()<BR>  XMC_CCU8_EnableClock()<BR>  XMC_CCU8_DisableClock()<BR>  XMC_CCU8_StartPres
1152:D:/School/diseratie/SEMS/xmc4800_evaluation_kit/xmc4800_iot_kit/common/Libraries/XMCLib/inc\xmc_ccu8.h ****  *  XMC_CCU8_StopPrescaler().
1153:D:/School/diseratie/SEMS/xmc4800_evaluation_kit/xmc4800_iot_kit/common/Libraries/XMCLib/inc\xmc_ccu8.h ****  */
1154:D:/School/diseratie/SEMS/xmc4800_evaluation_kit/xmc4800_iot_kit/common/Libraries/XMCLib/inc\xmc_ccu8.h **** __STATIC_INLINE void XMC_CCU8_StartPrescaler(XMC_CCU8_MODULE_t *const module)
1155:D:/School/diseratie/SEMS/xmc4800_evaluation_kit/xmc4800_iot_kit/common/Libraries/XMCLib/inc\xmc_ccu8.h **** {
1156:D:/School/diseratie/SEMS/xmc4800_evaluation_kit/xmc4800_iot_kit/common/Libraries/XMCLib/inc\xmc_ccu8.h ****   XMC_ASSERT("XMC_CCU8_StartPrescaler:Invalid Module Pointer", XMC_CCU8_IsValidModule(module));
1157:D:/School/diseratie/SEMS/xmc4800_evaluation_kit/xmc4800_iot_kit/common/Libraries/XMCLib/inc\xmc_ccu8.h ****   module->GIDLC |= (uint32_t) CCU8_GIDLC_SPRB_Msk;
 277              	 .loc 2 1157 0
 278 0018 E368     	 ldr r3,[r4,#12]
 279 001a 43F48073 	 orr r3,r3,#256
 280 001e E360     	 str r3,[r4,#12]
 281              	.LBE66:
 282              	.LBE65:
 307:D:/School/diseratie/SEMS/xmc4800_evaluation_kit/xmc4800_iot_kit/common/Libraries/XMCLib/src\xmc_ccu8.c ****   uint32_t gctrl;
 308:D:/School/diseratie/SEMS/xmc4800_evaluation_kit/xmc4800_iot_kit/common/Libraries/XMCLib/src\xmc_ccu8.c **** 
 309:D:/School/diseratie/SEMS/xmc4800_evaluation_kit/xmc4800_iot_kit/common/Libraries/XMCLib/src\xmc_ccu8.c ****   XMC_ASSERT("XMC_CCU8_Init:Invalid Module Pointer", XMC_CCU8_IsValidModule(module));
 310:D:/School/diseratie/SEMS/xmc4800_evaluation_kit/xmc4800_iot_kit/common/Libraries/XMCLib/src\xmc_ccu8.c ****   XMC_ASSERT("XMC_CCU8_Init:Invalid mcs action", XMC_CCU8_SLICE_CHECK_MCS_ACTION(mcs_action));
 311:D:/School/diseratie/SEMS/xmc4800_evaluation_kit/xmc4800_iot_kit/common/Libraries/XMCLib/src\xmc_ccu8.c **** 
 312:D:/School/diseratie/SEMS/xmc4800_evaluation_kit/xmc4800_iot_kit/common/Libraries/XMCLib/src\xmc_ccu8.c ****   /* Enable CCU8 module */
 313:D:/School/diseratie/SEMS/xmc4800_evaluation_kit/xmc4800_iot_kit/common/Libraries/XMCLib/src\xmc_ccu8.c ****   XMC_CCU8_EnableModule(module);
 314:D:/School/diseratie/SEMS/xmc4800_evaluation_kit/xmc4800_iot_kit/common/Libraries/XMCLib/src\xmc_ccu8.c ****   /* Start the prescaler */
 315:D:/School/diseratie/SEMS/xmc4800_evaluation_kit/xmc4800_iot_kit/common/Libraries/XMCLib/src\xmc_ccu8.c ****   XMC_CCU8_StartPrescaler(module);
 316:D:/School/diseratie/SEMS/xmc4800_evaluation_kit/xmc4800_iot_kit/common/Libraries/XMCLib/src\xmc_ccu8.c ****   
 317:D:/School/diseratie/SEMS/xmc4800_evaluation_kit/xmc4800_iot_kit/common/Libraries/XMCLib/src\xmc_ccu8.c ****   gctrl = module->GCTRL;
 283              	 .loc 1 317 0
 284 0020 2368     	 ldr r3,[r4]
 285              	.LVL23:
 318:D:/School/diseratie/SEMS/xmc4800_evaluation_kit/xmc4800_iot_kit/common/Libraries/XMCLib/src\xmc_ccu8.c ****   gctrl &= ~((uint32_t) CCU8_GCTRL_MSDE_Msk);
 286              	 .loc 1 318 0
 287 0022 23F44043 	 bic r3,r3,#49152
 288              	.LVL24:
 319:D:/School/diseratie/SEMS/xmc4800_evaluation_kit/xmc4800_iot_kit/common/Libraries/XMCLib/src\xmc_ccu8.c ****   gctrl |= (uint32_t)mcs_action << CCU8_GCTRL_MSDE_Pos;
 289              	 .loc 1 319 0
 290 0026 43EA8531 	 orr r1,r3,r5,lsl#14
 291              	.LVL25:
 320:D:/School/diseratie/SEMS/xmc4800_evaluation_kit/xmc4800_iot_kit/common/Libraries/XMCLib/src\xmc_ccu8.c ****   
 321:D:/School/diseratie/SEMS/xmc4800_evaluation_kit/xmc4800_iot_kit/common/Libraries/XMCLib/src\xmc_ccu8.c ****   module->GCTRL = gctrl;
 292              	 .loc 1 321 0
 293 002a 2160     	 str r1,[r4]
 294 002c 38BD     	 pop {r3,r4,r5,pc}
 295              	.LVL26:
 296              	.L23:
 297              	.LBB67:
 298              	.LBB63:
 299              	.LBB56:
 300              	.LBB54:
 247:D:/School/diseratie/SEMS/xmc4800_evaluation_kit/xmc4800_iot_kit/common/Libraries/XMCLib/src\xmc_ccu8.c ****   }
 301              	 .loc 1 247 0
 302 002e 4FF48070 	 mov r0,#256
 303 0032 FFF7FEFF 	 bl XMC_SCU_CLOCK_UngatePeripheralClock
 304              	.LVL27:
 305              	.LBE54:
 306              	.LBE56:
 307              	.LBB57:
 308              	.LBB58:
 209:D:/School/diseratie/SEMS/xmc4800_evaluation_kit/xmc4800_iot_kit/common/Libraries/XMCLib/src\xmc_ccu8.c ****   }
 309              	 .loc 1 209 0
 310 0036 4FF48070 	 mov r0,#256
 311 003a FFF7FEFF 	 bl XMC_SCU_RESET_DeassertPeripheralReset
 312              	.LVL28:
 313 003e EBE7     	 b .L20
 314              	.LVL29:
 315              	.L22:
 316              	.LBE58:
 317              	.LBE57:
 318              	.LBB60:
 319              	.LBB55:
 242:D:/School/diseratie/SEMS/xmc4800_evaluation_kit/xmc4800_iot_kit/common/Libraries/XMCLib/src\xmc_ccu8.c ****   }
 320              	 .loc 1 242 0
 321 0040 8020     	 movs r0,#128
 322 0042 FFF7FEFF 	 bl XMC_SCU_CLOCK_UngatePeripheralClock
 323              	.LVL30:
 324              	.LBE55:
 325              	.LBE60:
 326              	.LBB61:
 327              	.LBB59:
 204:D:/School/diseratie/SEMS/xmc4800_evaluation_kit/xmc4800_iot_kit/common/Libraries/XMCLib/src\xmc_ccu8.c ****   }
 328              	 .loc 1 204 0
 329 0046 8020     	 movs r0,#128
 330 0048 FFF7FEFF 	 bl XMC_SCU_RESET_DeassertPeripheralReset
 331              	.LVL31:
 332 004c E4E7     	 b .L20
 333              	.L25:
 334 004e 00BF     	 .align 2
 335              	.L24:
 336 0050 00000240 	 .word 1073872896
 337 0054 00400240 	 .word 1073889280
 338              	.LBE59:
 339              	.LBE61:
 340              	.LBE63:
 341              	.LBE67:
 342              	 .cfi_endproc
 343              	.LFE234:
 345              	 .section .text.XMC_CCU8_SetModuleClock,"ax",%progbits
 346              	 .align 2
 347              	 .global XMC_CCU8_SetModuleClock
 348              	 .thumb
 349              	 .thumb_func
 351              	XMC_CCU8_SetModuleClock:
 352              	.LFB235:
 322:D:/School/diseratie/SEMS/xmc4800_evaluation_kit/xmc4800_iot_kit/common/Libraries/XMCLib/src\xmc_ccu8.c **** }
 323:D:/School/diseratie/SEMS/xmc4800_evaluation_kit/xmc4800_iot_kit/common/Libraries/XMCLib/src\xmc_ccu8.c **** 
 324:D:/School/diseratie/SEMS/xmc4800_evaluation_kit/xmc4800_iot_kit/common/Libraries/XMCLib/src\xmc_ccu8.c **** /* API to select CCU8 module clock */
 325:D:/School/diseratie/SEMS/xmc4800_evaluation_kit/xmc4800_iot_kit/common/Libraries/XMCLib/src\xmc_ccu8.c **** void XMC_CCU8_SetModuleClock(XMC_CCU8_MODULE_t *const module, const XMC_CCU8_CLOCK_t clock)
 326:D:/School/diseratie/SEMS/xmc4800_evaluation_kit/xmc4800_iot_kit/common/Libraries/XMCLib/src\xmc_ccu8.c **** {
 353              	 .loc 1 326 0
 354              	 .cfi_startproc
 355              	 
 356              	 
 357              	 
 358              	.LVL32:
