   1              	 .syntax unified
   2              	 .cpu cortex-m4
   3              	 .eabi_attribute 27,3
   4              	 .fpu fpv4-sp-d16
   5              	 .eabi_attribute 20,1
   6              	 .eabi_attribute 21,1
   7              	 .eabi_attribute 23,3
   8              	 .eabi_attribute 24,1
   9              	 .eabi_attribute 25,1
  10              	 .eabi_attribute 26,1
  11              	 .eabi_attribute 30,2
  12              	 .eabi_attribute 34,1
  13              	 .eabi_attribute 18,4
  14              	 .thumb
  15              	 .file "xmc_dma.c"
  16              	 .text
  17              	.Ltext0:
  18              	 .cfi_sections .debug_frame
  19              	 .section .text.XMC_DMA_Init,"ax",%progbits
  20              	 .align 2
  21              	 .global XMC_DMA_Init
  22              	 .thumb
  23              	 .thumb_func
  25              	XMC_DMA_Init:
  26              	.LFB186:
  27              	 .file 1 "D:/School/diseratie/SEMS/xmc4800_evaluation_kit/xmc4800_iot_kit/common/Libraries/XMCLib/src/xmc_dma.c"
   1:D:/School/diseratie/SEMS/xmc4800_evaluation_kit/xmc4800_iot_kit/common/Libraries/XMCLib/src\xmc_dma.c **** 
   2:D:/School/diseratie/SEMS/xmc4800_evaluation_kit/xmc4800_iot_kit/common/Libraries/XMCLib/src\xmc_dma.c **** /**
   3:D:/School/diseratie/SEMS/xmc4800_evaluation_kit/xmc4800_iot_kit/common/Libraries/XMCLib/src\xmc_dma.c ****  * @file xmc_dma.c
   4:D:/School/diseratie/SEMS/xmc4800_evaluation_kit/xmc4800_iot_kit/common/Libraries/XMCLib/src\xmc_dma.c ****  * @date 2016-04-08
   5:D:/School/diseratie/SEMS/xmc4800_evaluation_kit/xmc4800_iot_kit/common/Libraries/XMCLib/src\xmc_dma.c ****  *
   6:D:/School/diseratie/SEMS/xmc4800_evaluation_kit/xmc4800_iot_kit/common/Libraries/XMCLib/src\xmc_dma.c ****  * @cond
   7:D:/School/diseratie/SEMS/xmc4800_evaluation_kit/xmc4800_iot_kit/common/Libraries/XMCLib/src\xmc_dma.c ****  **************************************************************************************************
   8:D:/School/diseratie/SEMS/xmc4800_evaluation_kit/xmc4800_iot_kit/common/Libraries/XMCLib/src\xmc_dma.c ****  * XMClib v2.1.20 - XMC Peripheral Driver Library 
   9:D:/School/diseratie/SEMS/xmc4800_evaluation_kit/xmc4800_iot_kit/common/Libraries/XMCLib/src\xmc_dma.c ****  *
  10:D:/School/diseratie/SEMS/xmc4800_evaluation_kit/xmc4800_iot_kit/common/Libraries/XMCLib/src\xmc_dma.c ****  * Copyright (c) 2015-2018, Infineon Technologies AG
  11:D:/School/diseratie/SEMS/xmc4800_evaluation_kit/xmc4800_iot_kit/common/Libraries/XMCLib/src\xmc_dma.c ****  * All rights reserved.                        
  12:D:/School/diseratie/SEMS/xmc4800_evaluation_kit/xmc4800_iot_kit/common/Libraries/XMCLib/src\xmc_dma.c ****  *                                             
  13:D:/School/diseratie/SEMS/xmc4800_evaluation_kit/xmc4800_iot_kit/common/Libraries/XMCLib/src\xmc_dma.c ****  * Redistribution and use in source and binary forms, with or without modification,are permitted pr
  14:D:/School/diseratie/SEMS/xmc4800_evaluation_kit/xmc4800_iot_kit/common/Libraries/XMCLib/src\xmc_dma.c ****  * following conditions are met:   
  15:D:/School/diseratie/SEMS/xmc4800_evaluation_kit/xmc4800_iot_kit/common/Libraries/XMCLib/src\xmc_dma.c ****  *                                                                              
  16:D:/School/diseratie/SEMS/xmc4800_evaluation_kit/xmc4800_iot_kit/common/Libraries/XMCLib/src\xmc_dma.c ****  * Redistributions of source code must retain the above copyright notice, this list of conditions a
  17:D:/School/diseratie/SEMS/xmc4800_evaluation_kit/xmc4800_iot_kit/common/Libraries/XMCLib/src\xmc_dma.c ****  * disclaimer.                        
  18:D:/School/diseratie/SEMS/xmc4800_evaluation_kit/xmc4800_iot_kit/common/Libraries/XMCLib/src\xmc_dma.c ****  * 
  19:D:/School/diseratie/SEMS/xmc4800_evaluation_kit/xmc4800_iot_kit/common/Libraries/XMCLib/src\xmc_dma.c ****  * Redistributions in binary form must reproduce the above copyright notice, this list of condition
  20:D:/School/diseratie/SEMS/xmc4800_evaluation_kit/xmc4800_iot_kit/common/Libraries/XMCLib/src\xmc_dma.c ****  * disclaimer in the documentation and/or other materials provided with the distribution.          
  21:D:/School/diseratie/SEMS/xmc4800_evaluation_kit/xmc4800_iot_kit/common/Libraries/XMCLib/src\xmc_dma.c ****  * 
  22:D:/School/diseratie/SEMS/xmc4800_evaluation_kit/xmc4800_iot_kit/common/Libraries/XMCLib/src\xmc_dma.c ****  * Neither the name of the copyright holders nor the names of its contributors may be used to endor
  23:D:/School/diseratie/SEMS/xmc4800_evaluation_kit/xmc4800_iot_kit/common/Libraries/XMCLib/src\xmc_dma.c ****  * products derived from this software without specific prior written permission.                  
  24:D:/School/diseratie/SEMS/xmc4800_evaluation_kit/xmc4800_iot_kit/common/Libraries/XMCLib/src\xmc_dma.c ****  *                                                                              
  25:D:/School/diseratie/SEMS/xmc4800_evaluation_kit/xmc4800_iot_kit/common/Libraries/XMCLib/src\xmc_dma.c ****  * THIS SOFTWARE IS PROVIDED BY THE COPYRIGHT HOLDERS AND CONTRIBUTORS "AS IS" AND ANY EXPRESS OR I
  26:D:/School/diseratie/SEMS/xmc4800_evaluation_kit/xmc4800_iot_kit/common/Libraries/XMCLib/src\xmc_dma.c ****  * INCLUDING, BUT NOT LIMITED TO, THE IMPLIED WARRANTIES OF MERCHANTABILITY AND FITNESS FOR A PARTI
  27:D:/School/diseratie/SEMS/xmc4800_evaluation_kit/xmc4800_iot_kit/common/Libraries/XMCLib/src\xmc_dma.c ****  * DISCLAIMED. IN NO EVENT SHALL THE COPYRIGHT HOLDER OR CONTRIBUTORS BE LIABLE  FOR ANY DIRECT, IN
  28:D:/School/diseratie/SEMS/xmc4800_evaluation_kit/xmc4800_iot_kit/common/Libraries/XMCLib/src\xmc_dma.c ****  * SPECIAL, EXEMPLARY, OR CONSEQUENTIAL DAMAGES (INCLUDING, BUT NOT LIMITED TO, PROCUREMENT OF SUBS
  29:D:/School/diseratie/SEMS/xmc4800_evaluation_kit/xmc4800_iot_kit/common/Libraries/XMCLib/src\xmc_dma.c ****  * SERVICES; LOSS OF USE, DATA, OR PROFITS; OR BUSINESS INTERRUPTION) HOWEVER CAUSED AND ON ANY THE
  30:D:/School/diseratie/SEMS/xmc4800_evaluation_kit/xmc4800_iot_kit/common/Libraries/XMCLib/src\xmc_dma.c ****  * WHETHER IN CONTRACT, STRICT LIABILITY,OR TORT (INCLUDING NEGLIGENCE OR OTHERWISE) ARISING IN ANY
  31:D:/School/diseratie/SEMS/xmc4800_evaluation_kit/xmc4800_iot_kit/common/Libraries/XMCLib/src\xmc_dma.c ****  * OF THIS SOFTWARE, EVEN IF ADVISED OF THE POSSIBILITY OF SUCH DAMAGE.                            
  32:D:/School/diseratie/SEMS/xmc4800_evaluation_kit/xmc4800_iot_kit/common/Libraries/XMCLib/src\xmc_dma.c ****  *                                                                              
  33:D:/School/diseratie/SEMS/xmc4800_evaluation_kit/xmc4800_iot_kit/common/Libraries/XMCLib/src\xmc_dma.c ****  * To improve the quality of the software, users are encouraged to share modifications, enhancement
  34:D:/School/diseratie/SEMS/xmc4800_evaluation_kit/xmc4800_iot_kit/common/Libraries/XMCLib/src\xmc_dma.c ****  * Infineon Technologies AG dave@infineon.com).                                                    
  35:D:/School/diseratie/SEMS/xmc4800_evaluation_kit/xmc4800_iot_kit/common/Libraries/XMCLib/src\xmc_dma.c ****  **************************************************************************************************
  36:D:/School/diseratie/SEMS/xmc4800_evaluation_kit/xmc4800_iot_kit/common/Libraries/XMCLib/src\xmc_dma.c ****  *
  37:D:/School/diseratie/SEMS/xmc4800_evaluation_kit/xmc4800_iot_kit/common/Libraries/XMCLib/src\xmc_dma.c ****  * Change History
  38:D:/School/diseratie/SEMS/xmc4800_evaluation_kit/xmc4800_iot_kit/common/Libraries/XMCLib/src\xmc_dma.c ****  * --------------
  39:D:/School/diseratie/SEMS/xmc4800_evaluation_kit/xmc4800_iot_kit/common/Libraries/XMCLib/src\xmc_dma.c ****  *
  40:D:/School/diseratie/SEMS/xmc4800_evaluation_kit/xmc4800_iot_kit/common/Libraries/XMCLib/src\xmc_dma.c ****  * 2015-02-20:
  41:D:/School/diseratie/SEMS/xmc4800_evaluation_kit/xmc4800_iot_kit/common/Libraries/XMCLib/src\xmc_dma.c ****  *     - Initial <br>
  42:D:/School/diseratie/SEMS/xmc4800_evaluation_kit/xmc4800_iot_kit/common/Libraries/XMCLib/src\xmc_dma.c ****  *
  43:D:/School/diseratie/SEMS/xmc4800_evaluation_kit/xmc4800_iot_kit/common/Libraries/XMCLib/src\xmc_dma.c ****  * 2015-05-20:
  44:D:/School/diseratie/SEMS/xmc4800_evaluation_kit/xmc4800_iot_kit/common/Libraries/XMCLib/src\xmc_dma.c ****  *     - Add the declarations for the following APIs: <br>
  45:D:/School/diseratie/SEMS/xmc4800_evaluation_kit/xmc4800_iot_kit/common/Libraries/XMCLib/src\xmc_dma.c ****  *       XMC_DMA_DisableRequestLine, XMC_DMA_ClearRequestLine, <br>
  46:D:/School/diseratie/SEMS/xmc4800_evaluation_kit/xmc4800_iot_kit/common/Libraries/XMCLib/src\xmc_dma.c ****  *       XMC_DMA_CH_ClearSourcePeripheralRequest, <br>
  47:D:/School/diseratie/SEMS/xmc4800_evaluation_kit/xmc4800_iot_kit/common/Libraries/XMCLib/src\xmc_dma.c ****  *       XMC_DMA_CH_ClearDestinationPeripheralRequest <br>
  48:D:/School/diseratie/SEMS/xmc4800_evaluation_kit/xmc4800_iot_kit/common/Libraries/XMCLib/src\xmc_dma.c ****  *     - Remove PRIOARRAY <br>
  49:D:/School/diseratie/SEMS/xmc4800_evaluation_kit/xmc4800_iot_kit/common/Libraries/XMCLib/src\xmc_dma.c ****  *     - Documentation updates <br>
  50:D:/School/diseratie/SEMS/xmc4800_evaluation_kit/xmc4800_iot_kit/common/Libraries/XMCLib/src\xmc_dma.c ****  *
  51:D:/School/diseratie/SEMS/xmc4800_evaluation_kit/xmc4800_iot_kit/common/Libraries/XMCLib/src\xmc_dma.c ****  * 2015-06-20:
  52:D:/School/diseratie/SEMS/xmc4800_evaluation_kit/xmc4800_iot_kit/common/Libraries/XMCLib/src\xmc_dma.c ****  *     - Removed GetDriverVersion API <br>
  53:D:/School/diseratie/SEMS/xmc4800_evaluation_kit/xmc4800_iot_kit/common/Libraries/XMCLib/src\xmc_dma.c ****  *     - Updated XMC_DMA_CH_Init() to support scatter/gather functionality (only
  54:D:/School/diseratie/SEMS/xmc4800_evaluation_kit/xmc4800_iot_kit/common/Libraries/XMCLib/src\xmc_dma.c ****  *       on advanced DMA channels) <br>
  55:D:/School/diseratie/SEMS/xmc4800_evaluation_kit/xmc4800_iot_kit/common/Libraries/XMCLib/src\xmc_dma.c ****  *     - Updated XMC_DMA_CH_Disable() <br>
  56:D:/School/diseratie/SEMS/xmc4800_evaluation_kit/xmc4800_iot_kit/common/Libraries/XMCLib/src\xmc_dma.c ****  *
  57:D:/School/diseratie/SEMS/xmc4800_evaluation_kit/xmc4800_iot_kit/common/Libraries/XMCLib/src\xmc_dma.c ****  * 2016-03-09:
  58:D:/School/diseratie/SEMS/xmc4800_evaluation_kit/xmc4800_iot_kit/common/Libraries/XMCLib/src\xmc_dma.c ****  *     - Optimize write only registers
  59:D:/School/diseratie/SEMS/xmc4800_evaluation_kit/xmc4800_iot_kit/common/Libraries/XMCLib/src\xmc_dma.c ****  *
  60:D:/School/diseratie/SEMS/xmc4800_evaluation_kit/xmc4800_iot_kit/common/Libraries/XMCLib/src\xmc_dma.c ****  * 2016-04-08:
  61:D:/School/diseratie/SEMS/xmc4800_evaluation_kit/xmc4800_iot_kit/common/Libraries/XMCLib/src\xmc_dma.c ****  *     - Update XMC_DMA_CH_EnableEvent and XMC_DMA_CH_DisableEvent.
  62:D:/School/diseratie/SEMS/xmc4800_evaluation_kit/xmc4800_iot_kit/common/Libraries/XMCLib/src\xmc_dma.c ****  *       Write optimization of MASKCHEV 
  63:D:/School/diseratie/SEMS/xmc4800_evaluation_kit/xmc4800_iot_kit/common/Libraries/XMCLib/src\xmc_dma.c ****  *     - Fix XMC_DMA_IRQHandler, clear channel event status before processing the event handler.
  64:D:/School/diseratie/SEMS/xmc4800_evaluation_kit/xmc4800_iot_kit/common/Libraries/XMCLib/src\xmc_dma.c ****  *       It corrects event losses if the DMA triggered in the event handler finished before returni
  65:D:/School/diseratie/SEMS/xmc4800_evaluation_kit/xmc4800_iot_kit/common/Libraries/XMCLib/src\xmc_dma.c ****  *
  66:D:/School/diseratie/SEMS/xmc4800_evaluation_kit/xmc4800_iot_kit/common/Libraries/XMCLib/src\xmc_dma.c ****  * 2018-02-08:
  67:D:/School/diseratie/SEMS/xmc4800_evaluation_kit/xmc4800_iot_kit/common/Libraries/XMCLib/src\xmc_dma.c ****  *     - Fix XMC_DMA_CH_RequestLastMultiblockTransfer() clearing CTLL_LLP_SRC_EN and CTLL_LLP_DST_E
  68:D:/School/diseratie/SEMS/xmc4800_evaluation_kit/xmc4800_iot_kit/common/Libraries/XMCLib/src\xmc_dma.c ****  *
  69:D:/School/diseratie/SEMS/xmc4800_evaluation_kit/xmc4800_iot_kit/common/Libraries/XMCLib/src\xmc_dma.c ****  * @endcond
  70:D:/School/diseratie/SEMS/xmc4800_evaluation_kit/xmc4800_iot_kit/common/Libraries/XMCLib/src\xmc_dma.c ****  */
  71:D:/School/diseratie/SEMS/xmc4800_evaluation_kit/xmc4800_iot_kit/common/Libraries/XMCLib/src\xmc_dma.c **** 
  72:D:/School/diseratie/SEMS/xmc4800_evaluation_kit/xmc4800_iot_kit/common/Libraries/XMCLib/src\xmc_dma.c **** /*******************************************************************************
  73:D:/School/diseratie/SEMS/xmc4800_evaluation_kit/xmc4800_iot_kit/common/Libraries/XMCLib/src\xmc_dma.c ****  * HEADER FILES
  74:D:/School/diseratie/SEMS/xmc4800_evaluation_kit/xmc4800_iot_kit/common/Libraries/XMCLib/src\xmc_dma.c ****  *******************************************************************************/
  75:D:/School/diseratie/SEMS/xmc4800_evaluation_kit/xmc4800_iot_kit/common/Libraries/XMCLib/src\xmc_dma.c **** 
  76:D:/School/diseratie/SEMS/xmc4800_evaluation_kit/xmc4800_iot_kit/common/Libraries/XMCLib/src\xmc_dma.c **** #include "xmc_dma.h"
  77:D:/School/diseratie/SEMS/xmc4800_evaluation_kit/xmc4800_iot_kit/common/Libraries/XMCLib/src\xmc_dma.c **** 
  78:D:/School/diseratie/SEMS/xmc4800_evaluation_kit/xmc4800_iot_kit/common/Libraries/XMCLib/src\xmc_dma.c **** #if defined (GPDMA0)
  79:D:/School/diseratie/SEMS/xmc4800_evaluation_kit/xmc4800_iot_kit/common/Libraries/XMCLib/src\xmc_dma.c **** 
  80:D:/School/diseratie/SEMS/xmc4800_evaluation_kit/xmc4800_iot_kit/common/Libraries/XMCLib/src\xmc_dma.c **** #include "xmc_scu.h"
  81:D:/School/diseratie/SEMS/xmc4800_evaluation_kit/xmc4800_iot_kit/common/Libraries/XMCLib/src\xmc_dma.c **** 
  82:D:/School/diseratie/SEMS/xmc4800_evaluation_kit/xmc4800_iot_kit/common/Libraries/XMCLib/src\xmc_dma.c **** /*******************************************************************************
  83:D:/School/diseratie/SEMS/xmc4800_evaluation_kit/xmc4800_iot_kit/common/Libraries/XMCLib/src\xmc_dma.c ****  * MACROS
  84:D:/School/diseratie/SEMS/xmc4800_evaluation_kit/xmc4800_iot_kit/common/Libraries/XMCLib/src\xmc_dma.c ****  *******************************************************************************/
  85:D:/School/diseratie/SEMS/xmc4800_evaluation_kit/xmc4800_iot_kit/common/Libraries/XMCLib/src\xmc_dma.c **** 
  86:D:/School/diseratie/SEMS/xmc4800_evaluation_kit/xmc4800_iot_kit/common/Libraries/XMCLib/src\xmc_dma.c **** #define DLR_SRSEL_RS_MSK (0xfUL)
  87:D:/School/diseratie/SEMS/xmc4800_evaluation_kit/xmc4800_iot_kit/common/Libraries/XMCLib/src\xmc_dma.c **** #define DLR_SRSEL_RS_BITSIZE (4UL)
  88:D:/School/diseratie/SEMS/xmc4800_evaluation_kit/xmc4800_iot_kit/common/Libraries/XMCLib/src\xmc_dma.c **** #define DMA_EVENT_MAX (5UL)
  89:D:/School/diseratie/SEMS/xmc4800_evaluation_kit/xmc4800_iot_kit/common/Libraries/XMCLib/src\xmc_dma.c **** #define GPDMA_CH_CFGH_DEST_PER_Pos GPDMA0_CH_CFGH_DEST_PER_Pos
  90:D:/School/diseratie/SEMS/xmc4800_evaluation_kit/xmc4800_iot_kit/common/Libraries/XMCLib/src\xmc_dma.c **** #define GPDMA_CH_CFGH_SRC_PER_Pos GPDMA0_CH_CFGH_SRC_PER_Pos
  91:D:/School/diseratie/SEMS/xmc4800_evaluation_kit/xmc4800_iot_kit/common/Libraries/XMCLib/src\xmc_dma.c **** #define GPDMA0_CH_CFGH_PER_Msk (0x7U)
  92:D:/School/diseratie/SEMS/xmc4800_evaluation_kit/xmc4800_iot_kit/common/Libraries/XMCLib/src\xmc_dma.c **** #define GPDMA1_CH_CFGH_PER_Msk (0x3U)
  93:D:/School/diseratie/SEMS/xmc4800_evaluation_kit/xmc4800_iot_kit/common/Libraries/XMCLib/src\xmc_dma.c **** #define GPDMA_CH_CFGH_PER_BITSIZE (4U)
  94:D:/School/diseratie/SEMS/xmc4800_evaluation_kit/xmc4800_iot_kit/common/Libraries/XMCLib/src\xmc_dma.c **** #define GPDMA_CH_CTLL_INT_EN_Msk GPDMA0_CH_CTLL_INT_EN_Msk
  95:D:/School/diseratie/SEMS/xmc4800_evaluation_kit/xmc4800_iot_kit/common/Libraries/XMCLib/src\xmc_dma.c **** 
  96:D:/School/diseratie/SEMS/xmc4800_evaluation_kit/xmc4800_iot_kit/common/Libraries/XMCLib/src\xmc_dma.c **** /*******************************************************************************
  97:D:/School/diseratie/SEMS/xmc4800_evaluation_kit/xmc4800_iot_kit/common/Libraries/XMCLib/src\xmc_dma.c ****  * LOCAL DATA
  98:D:/School/diseratie/SEMS/xmc4800_evaluation_kit/xmc4800_iot_kit/common/Libraries/XMCLib/src\xmc_dma.c ****  *******************************************************************************/
  99:D:/School/diseratie/SEMS/xmc4800_evaluation_kit/xmc4800_iot_kit/common/Libraries/XMCLib/src\xmc_dma.c **** 
 100:D:/School/diseratie/SEMS/xmc4800_evaluation_kit/xmc4800_iot_kit/common/Libraries/XMCLib/src\xmc_dma.c **** #if defined (GPDMA0)
 101:D:/School/diseratie/SEMS/xmc4800_evaluation_kit/xmc4800_iot_kit/common/Libraries/XMCLib/src\xmc_dma.c **** XMC_DMA_CH_EVENT_HANDLER_t dma0_event_handlers[XMC_DMA0_NUM_CHANNELS];
 102:D:/School/diseratie/SEMS/xmc4800_evaluation_kit/xmc4800_iot_kit/common/Libraries/XMCLib/src\xmc_dma.c **** #endif
 103:D:/School/diseratie/SEMS/xmc4800_evaluation_kit/xmc4800_iot_kit/common/Libraries/XMCLib/src\xmc_dma.c **** 
 104:D:/School/diseratie/SEMS/xmc4800_evaluation_kit/xmc4800_iot_kit/common/Libraries/XMCLib/src\xmc_dma.c **** #if defined (GPDMA1)
 105:D:/School/diseratie/SEMS/xmc4800_evaluation_kit/xmc4800_iot_kit/common/Libraries/XMCLib/src\xmc_dma.c **** XMC_DMA_CH_EVENT_HANDLER_t dma1_event_handlers[XMC_DMA1_NUM_CHANNELS];
 106:D:/School/diseratie/SEMS/xmc4800_evaluation_kit/xmc4800_iot_kit/common/Libraries/XMCLib/src\xmc_dma.c **** #endif
 107:D:/School/diseratie/SEMS/xmc4800_evaluation_kit/xmc4800_iot_kit/common/Libraries/XMCLib/src\xmc_dma.c ****  
 108:D:/School/diseratie/SEMS/xmc4800_evaluation_kit/xmc4800_iot_kit/common/Libraries/XMCLib/src\xmc_dma.c **** /*******************************************************************************
 109:D:/School/diseratie/SEMS/xmc4800_evaluation_kit/xmc4800_iot_kit/common/Libraries/XMCLib/src\xmc_dma.c ****  * API IMPLEMENTATION
 110:D:/School/diseratie/SEMS/xmc4800_evaluation_kit/xmc4800_iot_kit/common/Libraries/XMCLib/src\xmc_dma.c ****  *******************************************************************************/
 111:D:/School/diseratie/SEMS/xmc4800_evaluation_kit/xmc4800_iot_kit/common/Libraries/XMCLib/src\xmc_dma.c **** 
 112:D:/School/diseratie/SEMS/xmc4800_evaluation_kit/xmc4800_iot_kit/common/Libraries/XMCLib/src\xmc_dma.c **** /* Initialize GPDMA */
 113:D:/School/diseratie/SEMS/xmc4800_evaluation_kit/xmc4800_iot_kit/common/Libraries/XMCLib/src\xmc_dma.c **** void XMC_DMA_Init(XMC_DMA_t *const dma)
 114:D:/School/diseratie/SEMS/xmc4800_evaluation_kit/xmc4800_iot_kit/common/Libraries/XMCLib/src\xmc_dma.c **** {
  28              	 .loc 1 114 0
  29              	 .cfi_startproc
  30              	 
  31              	 
  32              	.LVL0:
  33              	.LBB30:
  34              	.LBB31:
 115:D:/School/diseratie/SEMS/xmc4800_evaluation_kit/xmc4800_iot_kit/common/Libraries/XMCLib/src\xmc_dma.c ****   XMC_DMA_Enable(dma);
 116:D:/School/diseratie/SEMS/xmc4800_evaluation_kit/xmc4800_iot_kit/common/Libraries/XMCLib/src\xmc_dma.c **** }
 117:D:/School/diseratie/SEMS/xmc4800_evaluation_kit/xmc4800_iot_kit/common/Libraries/XMCLib/src\xmc_dma.c **** 
 118:D:/School/diseratie/SEMS/xmc4800_evaluation_kit/xmc4800_iot_kit/common/Libraries/XMCLib/src\xmc_dma.c **** /* Enable GPDMA module */
 119:D:/School/diseratie/SEMS/xmc4800_evaluation_kit/xmc4800_iot_kit/common/Libraries/XMCLib/src\xmc_dma.c **** void XMC_DMA_Enable(XMC_DMA_t *const dma)
 120:D:/School/diseratie/SEMS/xmc4800_evaluation_kit/xmc4800_iot_kit/common/Libraries/XMCLib/src\xmc_dma.c **** {
 121:D:/School/diseratie/SEMS/xmc4800_evaluation_kit/xmc4800_iot_kit/common/Libraries/XMCLib/src\xmc_dma.c **** #if defined(GPDMA1)
 122:D:/School/diseratie/SEMS/xmc4800_evaluation_kit/xmc4800_iot_kit/common/Libraries/XMCLib/src\xmc_dma.c ****   if (dma == XMC_DMA0)
  35              	 .loc 1 122 0
  36 0000 0C4B     	 ldr r3,.L7
  37 0002 9842     	 cmp r0,r3
  38              	.LBE31:
  39              	.LBE30:
 114:D:/School/diseratie/SEMS/xmc4800_evaluation_kit/xmc4800_iot_kit/common/Libraries/XMCLib/src\xmc_dma.c ****   XMC_DMA_Enable(dma);
  40              	 .loc 1 114 0
  41 0004 10B5     	 push {r4,lr}
  42              	.LCFI0:
  43              	 .cfi_def_cfa_offset 8
  44              	 .cfi_offset 4,-8
  45              	 .cfi_offset 14,-4
 114:D:/School/diseratie/SEMS/xmc4800_evaluation_kit/xmc4800_iot_kit/common/Libraries/XMCLib/src\xmc_dma.c ****   XMC_DMA_Enable(dma);
  46              	 .loc 1 114 0
  47 0006 0446     	 mov r4,r0
  48              	.LVL1:
  49              	.LBB33:
  50              	.LBB32:
  51              	 .loc 1 122 0
  52 0008 09D0     	 beq .L6
 123:D:/School/diseratie/SEMS/xmc4800_evaluation_kit/xmc4800_iot_kit/common/Libraries/XMCLib/src\xmc_dma.c ****   {
 124:D:/School/diseratie/SEMS/xmc4800_evaluation_kit/xmc4800_iot_kit/common/Libraries/XMCLib/src\xmc_dma.c **** #endif
 125:D:/School/diseratie/SEMS/xmc4800_evaluation_kit/xmc4800_iot_kit/common/Libraries/XMCLib/src\xmc_dma.c **** #if defined(CLOCK_GATING_SUPPORTED)
 126:D:/School/diseratie/SEMS/xmc4800_evaluation_kit/xmc4800_iot_kit/common/Libraries/XMCLib/src\xmc_dma.c ****     XMC_SCU_CLOCK_UngatePeripheralClock(XMC_SCU_PERIPHERAL_CLOCK_GPDMA0);
 127:D:/School/diseratie/SEMS/xmc4800_evaluation_kit/xmc4800_iot_kit/common/Libraries/XMCLib/src\xmc_dma.c **** #endif
 128:D:/School/diseratie/SEMS/xmc4800_evaluation_kit/xmc4800_iot_kit/common/Libraries/XMCLib/src\xmc_dma.c ****     XMC_SCU_RESET_DeassertPeripheralReset(XMC_SCU_PERIPHERAL_RESET_GPDMA0);
 129:D:/School/diseratie/SEMS/xmc4800_evaluation_kit/xmc4800_iot_kit/common/Libraries/XMCLib/src\xmc_dma.c **** #if defined(GPDMA1)
 130:D:/School/diseratie/SEMS/xmc4800_evaluation_kit/xmc4800_iot_kit/common/Libraries/XMCLib/src\xmc_dma.c ****   }
 131:D:/School/diseratie/SEMS/xmc4800_evaluation_kit/xmc4800_iot_kit/common/Libraries/XMCLib/src\xmc_dma.c ****   else
 132:D:/School/diseratie/SEMS/xmc4800_evaluation_kit/xmc4800_iot_kit/common/Libraries/XMCLib/src\xmc_dma.c ****   {
 133:D:/School/diseratie/SEMS/xmc4800_evaluation_kit/xmc4800_iot_kit/common/Libraries/XMCLib/src\xmc_dma.c **** #if defined(CLOCK_GATING_SUPPORTED)
 134:D:/School/diseratie/SEMS/xmc4800_evaluation_kit/xmc4800_iot_kit/common/Libraries/XMCLib/src\xmc_dma.c ****     XMC_SCU_CLOCK_UngatePeripheralClock(XMC_SCU_PERIPHERAL_CLOCK_GPDMA1);
  53              	 .loc 1 134 0
  54 000a 0B48     	 ldr r0,.L7+4
  55              	.LVL2:
  56 000c FFF7FEFF 	 bl XMC_SCU_CLOCK_UngatePeripheralClock
  57              	.LVL3:
 135:D:/School/diseratie/SEMS/xmc4800_evaluation_kit/xmc4800_iot_kit/common/Libraries/XMCLib/src\xmc_dma.c **** #endif
 136:D:/School/diseratie/SEMS/xmc4800_evaluation_kit/xmc4800_iot_kit/common/Libraries/XMCLib/src\xmc_dma.c ****     XMC_SCU_RESET_DeassertPeripheralReset(XMC_SCU_PERIPHERAL_RESET_GPDMA1);
  58              	 .loc 1 136 0
  59 0010 0948     	 ldr r0,.L7+4
  60 0012 FFF7FEFF 	 bl XMC_SCU_RESET_DeassertPeripheralReset
  61              	.LVL4:
 137:D:/School/diseratie/SEMS/xmc4800_evaluation_kit/xmc4800_iot_kit/common/Libraries/XMCLib/src\xmc_dma.c ****   }
 138:D:/School/diseratie/SEMS/xmc4800_evaluation_kit/xmc4800_iot_kit/common/Libraries/XMCLib/src\xmc_dma.c **** #endif
 139:D:/School/diseratie/SEMS/xmc4800_evaluation_kit/xmc4800_iot_kit/common/Libraries/XMCLib/src\xmc_dma.c **** 
 140:D:/School/diseratie/SEMS/xmc4800_evaluation_kit/xmc4800_iot_kit/common/Libraries/XMCLib/src\xmc_dma.c ****   dma->DMACFGREG = 0x1U;
  62              	 .loc 1 140 0
  63 0016 0123     	 movs r3,#1
  64 0018 C4F89833 	 str r3,[r4,#920]
  65 001c 10BD     	 pop {r4,pc}
  66              	.LVL5:
  67              	.L6:
 126:D:/School/diseratie/SEMS/xmc4800_evaluation_kit/xmc4800_iot_kit/common/Libraries/XMCLib/src\xmc_dma.c **** #endif
  68              	 .loc 1 126 0
  69 001e 0748     	 ldr r0,.L7+8
  70              	.LVL6:
  71 0020 FFF7FEFF 	 bl XMC_SCU_CLOCK_UngatePeripheralClock
  72              	.LVL7:
 128:D:/School/diseratie/SEMS/xmc4800_evaluation_kit/xmc4800_iot_kit/common/Libraries/XMCLib/src\xmc_dma.c **** #if defined(GPDMA1)
  73              	 .loc 1 128 0
  74 0024 0548     	 ldr r0,.L7+8
  75 0026 FFF7FEFF 	 bl XMC_SCU_RESET_DeassertPeripheralReset
  76              	.LVL8:
  77              	 .loc 1 140 0
  78 002a 0123     	 movs r3,#1
  79 002c C4F89833 	 str r3,[r4,#920]
  80 0030 10BD     	 pop {r4,pc}
  81              	.LVL9:
  82              	.L8:
  83 0032 00BF     	 .align 2
  84              	.L7:
  85 0034 00400150 	 .word 1342259200
  86 0038 20000020 	 .word 536870944
  87 003c 10000020 	 .word 536870928
  88              	.LBE32:
  89              	.LBE33:
  90              	 .cfi_endproc
  91              	.LFE186:
  93              	 .section .text.XMC_DMA_Enable,"ax",%progbits
  94              	 .align 2
  95              	 .global XMC_DMA_Enable
  96              	 .thumb
  97              	 .thumb_func
  99              	XMC_DMA_Enable:
 100              	.LFB187:
 120:D:/School/diseratie/SEMS/xmc4800_evaluation_kit/xmc4800_iot_kit/common/Libraries/XMCLib/src\xmc_dma.c **** #if defined(GPDMA1)
 101              	 .loc 1 120 0
 102              	 .cfi_startproc
 103              	 
 104              	 
 105              	.LVL10:
 122:D:/School/diseratie/SEMS/xmc4800_evaluation_kit/xmc4800_iot_kit/common/Libraries/XMCLib/src\xmc_dma.c ****   {
 106              	 .loc 1 122 0
 107 0000 0C4B     	 ldr r3,.L14
 108 0002 9842     	 cmp r0,r3
 120:D:/School/diseratie/SEMS/xmc4800_evaluation_kit/xmc4800_iot_kit/common/Libraries/XMCLib/src\xmc_dma.c **** #if defined(GPDMA1)
 109              	 .loc 1 120 0
 110 0004 10B5     	 push {r4,lr}
 111              	.LCFI1:
 112              	 .cfi_def_cfa_offset 8
 113              	 .cfi_offset 4,-8
 114              	 .cfi_offset 14,-4
 120:D:/School/diseratie/SEMS/xmc4800_evaluation_kit/xmc4800_iot_kit/common/Libraries/XMCLib/src\xmc_dma.c **** #if defined(GPDMA1)
 115              	 .loc 1 120 0
 116 0006 0446     	 mov r4,r0
 122:D:/School/diseratie/SEMS/xmc4800_evaluation_kit/xmc4800_iot_kit/common/Libraries/XMCLib/src\xmc_dma.c ****   {
 117              	 .loc 1 122 0
 118 0008 09D0     	 beq .L13
 134:D:/School/diseratie/SEMS/xmc4800_evaluation_kit/xmc4800_iot_kit/common/Libraries/XMCLib/src\xmc_dma.c **** #endif
 119              	 .loc 1 134 0
 120 000a 0B48     	 ldr r0,.L14+4
 121              	.LVL11:
 122 000c FFF7FEFF 	 bl XMC_SCU_CLOCK_UngatePeripheralClock
 123              	.LVL12:
 136:D:/School/diseratie/SEMS/xmc4800_evaluation_kit/xmc4800_iot_kit/common/Libraries/XMCLib/src\xmc_dma.c ****   }
 124              	 .loc 1 136 0
 125 0010 0948     	 ldr r0,.L14+4
 126 0012 FFF7FEFF 	 bl XMC_SCU_RESET_DeassertPeripheralReset
 127              	.LVL13:
 128              	 .loc 1 140 0
 129 0016 0123     	 movs r3,#1
 130 0018 C4F89833 	 str r3,[r4,#920]
 131 001c 10BD     	 pop {r4,pc}
 132              	.LVL14:
 133              	.L13:
 126:D:/School/diseratie/SEMS/xmc4800_evaluation_kit/xmc4800_iot_kit/common/Libraries/XMCLib/src\xmc_dma.c **** #endif
 134              	 .loc 1 126 0
 135 001e 0748     	 ldr r0,.L14+8
 136              	.LVL15:
 137 0020 FFF7FEFF 	 bl XMC_SCU_CLOCK_UngatePeripheralClock
 138              	.LVL16:
 128:D:/School/diseratie/SEMS/xmc4800_evaluation_kit/xmc4800_iot_kit/common/Libraries/XMCLib/src\xmc_dma.c **** #if defined(GPDMA1)
 139              	 .loc 1 128 0
 140 0024 0548     	 ldr r0,.L14+8
 141 0026 FFF7FEFF 	 bl XMC_SCU_RESET_DeassertPeripheralReset
 142              	.LVL17:
 143              	 .loc 1 140 0
 144 002a 0123     	 movs r3,#1
 145 002c C4F89833 	 str r3,[r4,#920]
 146 0030 10BD     	 pop {r4,pc}
 147              	.LVL18:
 148              	.L15:
 149 0032 00BF     	 .align 2
 150              	.L14:
 151 0034 00400150 	 .word 1342259200
 152 0038 20000020 	 .word 536870944
 153 003c 10000020 	 .word 536870928
 154              	 .cfi_endproc
 155              	.LFE187:
 157              	 .section .text.XMC_DMA_Disable,"ax",%progbits
 158              	 .align 2
 159              	 .global XMC_DMA_Disable
 160              	 .thumb
 161              	 .thumb_func
 163              	XMC_DMA_Disable:
 164              	.LFB188:
 141:D:/School/diseratie/SEMS/xmc4800_evaluation_kit/xmc4800_iot_kit/common/Libraries/XMCLib/src\xmc_dma.c **** }
 142:D:/School/diseratie/SEMS/xmc4800_evaluation_kit/xmc4800_iot_kit/common/Libraries/XMCLib/src\xmc_dma.c **** 
 143:D:/School/diseratie/SEMS/xmc4800_evaluation_kit/xmc4800_iot_kit/common/Libraries/XMCLib/src\xmc_dma.c **** /* Disable GPDMA module */
 144:D:/School/diseratie/SEMS/xmc4800_evaluation_kit/xmc4800_iot_kit/common/Libraries/XMCLib/src\xmc_dma.c **** void XMC_DMA_Disable(XMC_DMA_t *const dma)
 145:D:/School/diseratie/SEMS/xmc4800_evaluation_kit/xmc4800_iot_kit/common/Libraries/XMCLib/src\xmc_dma.c **** {
 165              	 .loc 1 145 0
 166              	 .cfi_startproc
 167              	 
 168              	 
 169              	.LVL19:
 170 0000 08B5     	 push {r3,lr}
 171              	.LCFI2:
 172              	 .cfi_def_cfa_offset 8
 173              	 .cfi_offset 3,-8
 174              	 .cfi_offset 14,-4
 146:D:/School/diseratie/SEMS/xmc4800_evaluation_kit/xmc4800_iot_kit/common/Libraries/XMCLib/src\xmc_dma.c ****   dma->DMACFGREG = 0x0U;
 147:D:/School/diseratie/SEMS/xmc4800_evaluation_kit/xmc4800_iot_kit/common/Libraries/XMCLib/src\xmc_dma.c **** 
 148:D:/School/diseratie/SEMS/xmc4800_evaluation_kit/xmc4800_iot_kit/common/Libraries/XMCLib/src\xmc_dma.c **** #if defined(GPDMA1)
 149:D:/School/diseratie/SEMS/xmc4800_evaluation_kit/xmc4800_iot_kit/common/Libraries/XMCLib/src\xmc_dma.c ****   if (dma == XMC_DMA0)
 175              	 .loc 1 149 0
 176 0002 0B4B     	 ldr r3,.L20
 146:D:/School/diseratie/SEMS/xmc4800_evaluation_kit/xmc4800_iot_kit/common/Libraries/XMCLib/src\xmc_dma.c ****   dma->DMACFGREG = 0x0U;
 177              	 .loc 1 146 0
 178 0004 0022     	 movs r2,#0
 179              	 .loc 1 149 0
 180 0006 9842     	 cmp r0,r3
 146:D:/School/diseratie/SEMS/xmc4800_evaluation_kit/xmc4800_iot_kit/common/Libraries/XMCLib/src\xmc_dma.c ****   dma->DMACFGREG = 0x0U;
 181              	 .loc 1 146 0
 182 0008 C0F89823 	 str r2,[r0,#920]
 183              	 .loc 1 149 0
 184 000c 07D0     	 beq .L19
 150:D:/School/diseratie/SEMS/xmc4800_evaluation_kit/xmc4800_iot_kit/common/Libraries/XMCLib/src\xmc_dma.c ****   {
 151:D:/School/diseratie/SEMS/xmc4800_evaluation_kit/xmc4800_iot_kit/common/Libraries/XMCLib/src\xmc_dma.c **** #endif
 152:D:/School/diseratie/SEMS/xmc4800_evaluation_kit/xmc4800_iot_kit/common/Libraries/XMCLib/src\xmc_dma.c ****     XMC_SCU_RESET_AssertPeripheralReset(XMC_SCU_PERIPHERAL_RESET_GPDMA0);
 153:D:/School/diseratie/SEMS/xmc4800_evaluation_kit/xmc4800_iot_kit/common/Libraries/XMCLib/src\xmc_dma.c **** #if defined(CLOCK_GATING_SUPPORTED)
 154:D:/School/diseratie/SEMS/xmc4800_evaluation_kit/xmc4800_iot_kit/common/Libraries/XMCLib/src\xmc_dma.c ****     XMC_SCU_CLOCK_GatePeripheralClock(XMC_SCU_PERIPHERAL_CLOCK_GPDMA0);
 155:D:/School/diseratie/SEMS/xmc4800_evaluation_kit/xmc4800_iot_kit/common/Libraries/XMCLib/src\xmc_dma.c **** #endif
 156:D:/School/diseratie/SEMS/xmc4800_evaluation_kit/xmc4800_iot_kit/common/Libraries/XMCLib/src\xmc_dma.c **** #if defined(GPDMA1)
 157:D:/School/diseratie/SEMS/xmc4800_evaluation_kit/xmc4800_iot_kit/common/Libraries/XMCLib/src\xmc_dma.c ****   }
 158:D:/School/diseratie/SEMS/xmc4800_evaluation_kit/xmc4800_iot_kit/common/Libraries/XMCLib/src\xmc_dma.c ****   else
 159:D:/School/diseratie/SEMS/xmc4800_evaluation_kit/xmc4800_iot_kit/common/Libraries/XMCLib/src\xmc_dma.c ****   {
 160:D:/School/diseratie/SEMS/xmc4800_evaluation_kit/xmc4800_iot_kit/common/Libraries/XMCLib/src\xmc_dma.c ****     XMC_SCU_RESET_AssertPeripheralReset(XMC_SCU_PERIPHERAL_RESET_GPDMA1);
 185              	 .loc 1 160 0
 186 000e 0948     	 ldr r0,.L20+4
 187              	.LVL20:
 188 0010 FFF7FEFF 	 bl XMC_SCU_RESET_AssertPeripheralReset
 189              	.LVL21:
 161:D:/School/diseratie/SEMS/xmc4800_evaluation_kit/xmc4800_iot_kit/common/Libraries/XMCLib/src\xmc_dma.c **** #if defined(CLOCK_GATING_SUPPORTED)
 162:D:/School/diseratie/SEMS/xmc4800_evaluation_kit/xmc4800_iot_kit/common/Libraries/XMCLib/src\xmc_dma.c ****     XMC_SCU_CLOCK_GatePeripheralClock(XMC_SCU_PERIPHERAL_CLOCK_GPDMA1);
 190              	 .loc 1 162 0
 191 0014 0748     	 ldr r0,.L20+4
 163:D:/School/diseratie/SEMS/xmc4800_evaluation_kit/xmc4800_iot_kit/common/Libraries/XMCLib/src\xmc_dma.c **** #endif
 164:D:/School/diseratie/SEMS/xmc4800_evaluation_kit/xmc4800_iot_kit/common/Libraries/XMCLib/src\xmc_dma.c ****   }
 165:D:/School/diseratie/SEMS/xmc4800_evaluation_kit/xmc4800_iot_kit/common/Libraries/XMCLib/src\xmc_dma.c **** #endif
 166:D:/School/diseratie/SEMS/xmc4800_evaluation_kit/xmc4800_iot_kit/common/Libraries/XMCLib/src\xmc_dma.c **** }
 192              	 .loc 1 166 0
 193 0016 BDE80840 	 pop {r3,lr}
 194              	.LCFI3:
 195              	 .cfi_remember_state
 196              	 .cfi_restore 14
 197              	 .cfi_restore 3
 198              	 .cfi_def_cfa_offset 0
 162:D:/School/diseratie/SEMS/xmc4800_evaluation_kit/xmc4800_iot_kit/common/Libraries/XMCLib/src\xmc_dma.c **** #endif
 199              	 .loc 1 162 0
 200 001a FFF7FEBF 	 b XMC_SCU_CLOCK_GatePeripheralClock
 201              	.LVL22:
 202              	.L19:
 203              	.LCFI4:
 204              	 .cfi_restore_state
 152:D:/School/diseratie/SEMS/xmc4800_evaluation_kit/xmc4800_iot_kit/common/Libraries/XMCLib/src\xmc_dma.c **** #if defined(CLOCK_GATING_SUPPORTED)
 205              	 .loc 1 152 0
 206 001e 0648     	 ldr r0,.L20+8
 207              	.LVL23:
 208 0020 FFF7FEFF 	 bl XMC_SCU_RESET_AssertPeripheralReset
 209              	.LVL24:
 154:D:/School/diseratie/SEMS/xmc4800_evaluation_kit/xmc4800_iot_kit/common/Libraries/XMCLib/src\xmc_dma.c **** #endif
 210              	 .loc 1 154 0
 211 0024 0448     	 ldr r0,.L20+8
 212              	 .loc 1 166 0
 213 0026 BDE80840 	 pop {r3,lr}
 214              	.LCFI5:
 215              	 .cfi_restore 14
 216              	 .cfi_restore 3
 217              	 .cfi_def_cfa_offset 0
 154:D:/School/diseratie/SEMS/xmc4800_evaluation_kit/xmc4800_iot_kit/common/Libraries/XMCLib/src\xmc_dma.c **** #endif
 218              	 .loc 1 154 0
 219 002a FFF7FEBF 	 b XMC_SCU_CLOCK_GatePeripheralClock
 220              	.LVL25:
 221              	.L21:
 222 002e 00BF     	 .align 2
 223              	.L20:
 224 0030 00400150 	 .word 1342259200
 225 0034 20000020 	 .word 536870944
 226 0038 10000020 	 .word 536870928
 227              	 .cfi_endproc
 228              	.LFE188:
 230              	 .section .text.XMC_DMA_IsEnabled,"ax",%progbits
 231              	 .align 2
 232              	 .global XMC_DMA_IsEnabled
 233              	 .thumb
 234              	 .thumb_func
 236              	XMC_DMA_IsEnabled:
 237              	.LFB189:
 167:D:/School/diseratie/SEMS/xmc4800_evaluation_kit/xmc4800_iot_kit/common/Libraries/XMCLib/src\xmc_dma.c **** 
 168:D:/School/diseratie/SEMS/xmc4800_evaluation_kit/xmc4800_iot_kit/common/Libraries/XMCLib/src\xmc_dma.c **** /* Check is the GPDMA peripheral is enabled */
 169:D:/School/diseratie/SEMS/xmc4800_evaluation_kit/xmc4800_iot_kit/common/Libraries/XMCLib/src\xmc_dma.c **** bool XMC_DMA_IsEnabled(const XMC_DMA_t *const dma)
 170:D:/School/diseratie/SEMS/xmc4800_evaluation_kit/xmc4800_iot_kit/common/Libraries/XMCLib/src\xmc_dma.c **** {
 238              	 .loc 1 170 0
 239              	 .cfi_startproc
 240              	 
 241              	 
 242              	.LVL26:
 171:D:/School/diseratie/SEMS/xmc4800_evaluation_kit/xmc4800_iot_kit/common/Libraries/XMCLib/src\xmc_dma.c ****   bool status;
 172:D:/School/diseratie/SEMS/xmc4800_evaluation_kit/xmc4800_iot_kit/common/Libraries/XMCLib/src\xmc_dma.c **** 
 173:D:/School/diseratie/SEMS/xmc4800_evaluation_kit/xmc4800_iot_kit/common/Libraries/XMCLib/src\xmc_dma.c **** #if defined(GPDMA1)
 174:D:/School/diseratie/SEMS/xmc4800_evaluation_kit/xmc4800_iot_kit/common/Libraries/XMCLib/src\xmc_dma.c ****   if (dma == XMC_DMA0)
 243              	 .loc 1 174 0
 244 0000 124B     	 ldr r3,.L36
 245 0002 9842     	 cmp r0,r3
 170:D:/School/diseratie/SEMS/xmc4800_evaluation_kit/xmc4800_iot_kit/common/Libraries/XMCLib/src\xmc_dma.c ****   bool status;
 246              	 .loc 1 170 0
 247 0004 10B5     	 push {r4,lr}
 248              	.LCFI6:
 249              	 .cfi_def_cfa_offset 8
 250              	 .cfi_offset 4,-8
 251              	 .cfi_offset 14,-4
 170:D:/School/diseratie/SEMS/xmc4800_evaluation_kit/xmc4800_iot_kit/common/Libraries/XMCLib/src\xmc_dma.c ****   bool status;
 252              	 .loc 1 170 0
 253 0006 0446     	 mov r4,r0
 254              	 .loc 1 174 0
 255 0008 13D0     	 beq .L33
 175:D:/School/diseratie/SEMS/xmc4800_evaluation_kit/xmc4800_iot_kit/common/Libraries/XMCLib/src\xmc_dma.c ****   {
 176:D:/School/diseratie/SEMS/xmc4800_evaluation_kit/xmc4800_iot_kit/common/Libraries/XMCLib/src\xmc_dma.c **** #endif
 177:D:/School/diseratie/SEMS/xmc4800_evaluation_kit/xmc4800_iot_kit/common/Libraries/XMCLib/src\xmc_dma.c ****     status = !XMC_SCU_RESET_IsPeripheralResetAsserted(XMC_SCU_PERIPHERAL_RESET_GPDMA0);
 178:D:/School/diseratie/SEMS/xmc4800_evaluation_kit/xmc4800_iot_kit/common/Libraries/XMCLib/src\xmc_dma.c **** #if defined(CLOCK_GATING_SUPPORTED)
 179:D:/School/diseratie/SEMS/xmc4800_evaluation_kit/xmc4800_iot_kit/common/Libraries/XMCLib/src\xmc_dma.c ****     status = status && !XMC_SCU_CLOCK_IsPeripheralClockGated(XMC_SCU_PERIPHERAL_CLOCK_GPDMA0);
 180:D:/School/diseratie/SEMS/xmc4800_evaluation_kit/xmc4800_iot_kit/common/Libraries/XMCLib/src\xmc_dma.c **** #endif
 181:D:/School/diseratie/SEMS/xmc4800_evaluation_kit/xmc4800_iot_kit/common/Libraries/XMCLib/src\xmc_dma.c **** #if defined(GPDMA1)
 182:D:/School/diseratie/SEMS/xmc4800_evaluation_kit/xmc4800_iot_kit/common/Libraries/XMCLib/src\xmc_dma.c ****   }
 183:D:/School/diseratie/SEMS/xmc4800_evaluation_kit/xmc4800_iot_kit/common/Libraries/XMCLib/src\xmc_dma.c ****   else
 184:D:/School/diseratie/SEMS/xmc4800_evaluation_kit/xmc4800_iot_kit/common/Libraries/XMCLib/src\xmc_dma.c ****   {
 185:D:/School/diseratie/SEMS/xmc4800_evaluation_kit/xmc4800_iot_kit/common/Libraries/XMCLib/src\xmc_dma.c ****     status = !XMC_SCU_RESET_IsPeripheralResetAsserted(XMC_SCU_PERIPHERAL_RESET_GPDMA1);
 256              	 .loc 1 185 0
 257 000a 1148     	 ldr r0,.L36+4
 258              	.LVL27:
 259 000c FFF7FEFF 	 bl XMC_SCU_RESET_IsPeripheralResetAsserted
 260              	.LVL28:
 186:D:/School/diseratie/SEMS/xmc4800_evaluation_kit/xmc4800_iot_kit/common/Libraries/XMCLib/src\xmc_dma.c **** #if defined(CLOCK_GATING_SUPPORTED)
 187:D:/School/diseratie/SEMS/xmc4800_evaluation_kit/xmc4800_iot_kit/common/Libraries/XMCLib/src\xmc_dma.c ****     status = status && !XMC_SCU_CLOCK_IsPeripheralClockGated(XMC_SCU_PERIPHERAL_CLOCK_GPDMA1);
 261              	 .loc 1 187 0
 262 0010 08B1     	 cbz r0,.L34
 263              	.LVL29:
 264              	.L30:
 265 0012 0020     	 movs r0,#0
 266              	.LVL30:
 267 0014 10BD     	 pop {r4,pc}
 268              	.LVL31:
 269              	.L34:
 270              	 .loc 1 187 0 is_stmt 0 discriminator 1
 271 0016 0E48     	 ldr r0,.L36+4
 272              	.LVL32:
 273 0018 FFF7FEFF 	 bl XMC_SCU_CLOCK_IsPeripheralClockGated
 274              	.LVL33:
 275 001c 80F00100 	 eor r0,r0,#1
 276 0020 C0B2     	 uxtb r0,r0
 277              	.L25:
 278              	.LVL34:
 188:D:/School/diseratie/SEMS/xmc4800_evaluation_kit/xmc4800_iot_kit/common/Libraries/XMCLib/src\xmc_dma.c **** #endif
 189:D:/School/diseratie/SEMS/xmc4800_evaluation_kit/xmc4800_iot_kit/common/Libraries/XMCLib/src\xmc_dma.c ****   }
 190:D:/School/diseratie/SEMS/xmc4800_evaluation_kit/xmc4800_iot_kit/common/Libraries/XMCLib/src\xmc_dma.c **** #endif
 191:D:/School/diseratie/SEMS/xmc4800_evaluation_kit/xmc4800_iot_kit/common/Libraries/XMCLib/src\xmc_dma.c **** 
 192:D:/School/diseratie/SEMS/xmc4800_evaluation_kit/xmc4800_iot_kit/common/Libraries/XMCLib/src\xmc_dma.c ****   /* DMA reset is not asserted and peripheral clock is not gated */
 193:D:/School/diseratie/SEMS/xmc4800_evaluation_kit/xmc4800_iot_kit/common/Libraries/XMCLib/src\xmc_dma.c ****   if (status == true)
 279              	 .loc 1 193 0 is_stmt 1
 280 0022 28B1     	 cbz r0,.L35
 194:D:/School/diseratie/SEMS/xmc4800_evaluation_kit/xmc4800_iot_kit/common/Libraries/XMCLib/src\xmc_dma.c ****   {
 195:D:/School/diseratie/SEMS/xmc4800_evaluation_kit/xmc4800_iot_kit/common/Libraries/XMCLib/src\xmc_dma.c ****     status = status && (dma->DMACFGREG != 0U);
 281              	 .loc 1 195 0 discriminator 1
 282 0024 D4F89803 	 ldr r0,[r4,#920]
 283              	.LVL35:
 284 0028 0030     	 adds r0,r0,#0
 285 002a 18BF     	 it ne
 286 002c 0120     	 movne r0,#1
 287              	.LVL36:
 288 002e 10BD     	 pop {r4,pc}
 289              	.LVL37:
 290              	.L35:
 196:D:/School/diseratie/SEMS/xmc4800_evaluation_kit/xmc4800_iot_kit/common/Libraries/XMCLib/src\xmc_dma.c ****   }
 197:D:/School/diseratie/SEMS/xmc4800_evaluation_kit/xmc4800_iot_kit/common/Libraries/XMCLib/src\xmc_dma.c **** 
 198:D:/School/diseratie/SEMS/xmc4800_evaluation_kit/xmc4800_iot_kit/common/Libraries/XMCLib/src\xmc_dma.c ****   return status;
 199:D:/School/diseratie/SEMS/xmc4800_evaluation_kit/xmc4800_iot_kit/common/Libraries/XMCLib/src\xmc_dma.c **** }
 291              	 .loc 1 199 0
 292 0030 10BD     	 pop {r4,pc}
 293              	.LVL38:
 294              	.L33:
 177:D:/School/diseratie/SEMS/xmc4800_evaluation_kit/xmc4800_iot_kit/common/Libraries/XMCLib/src\xmc_dma.c **** #if defined(CLOCK_GATING_SUPPORTED)
 295              	 .loc 1 177 0
 296 0032 0848     	 ldr r0,.L36+8
 297              	.LVL39:
 298 0034 FFF7FEFF 	 bl XMC_SCU_RESET_IsPeripheralResetAsserted
 299              	.LVL40:
 179:D:/School/diseratie/SEMS/xmc4800_evaluation_kit/xmc4800_iot_kit/common/Libraries/XMCLib/src\xmc_dma.c **** #endif
 300              	 .loc 1 179 0
 301 0038 0028     	 cmp r0,#0
 302 003a EAD1     	 bne .L30
 179:D:/School/diseratie/SEMS/xmc4800_evaluation_kit/xmc4800_iot_kit/common/Libraries/XMCLib/src\xmc_dma.c **** #endif
 303              	 .loc 1 179 0 is_stmt 0 discriminator 1
 304 003c 0548     	 ldr r0,.L36+8
 305              	.LVL41:
 306 003e FFF7FEFF 	 bl XMC_SCU_CLOCK_IsPeripheralClockGated
 307              	.LVL42:
 308 0042 80F00100 	 eor r0,r0,#1
 309 0046 C0B2     	 uxtb r0,r0
 310 0048 EBE7     	 b .L25
 311              	.L37:
 312 004a 00BF     	 .align 2
 313              	.L36:
 314 004c 00400150 	 .word 1342259200
 315 0050 20000020 	 .word 536870944
 316 0054 10000020 	 .word 536870928
 317              	 .cfi_endproc
 318              	.LFE189:
 320              	 .section .text.XMC_DMA_EnableRequestLine,"ax",%progbits
 321              	 .align 2
 322              	 .global XMC_DMA_EnableRequestLine
 323              	 .thumb
 324              	 .thumb_func
 326              	XMC_DMA_EnableRequestLine:
 327              	.LFB190:
 200:D:/School/diseratie/SEMS/xmc4800_evaluation_kit/xmc4800_iot_kit/common/Libraries/XMCLib/src\xmc_dma.c **** 
 201:D:/School/diseratie/SEMS/xmc4800_evaluation_kit/xmc4800_iot_kit/common/Libraries/XMCLib/src\xmc_dma.c **** /* Enable request line */
 202:D:/School/diseratie/SEMS/xmc4800_evaluation_kit/xmc4800_iot_kit/common/Libraries/XMCLib/src\xmc_dma.c **** void XMC_DMA_EnableRequestLine(XMC_DMA_t *const dma, uint8_t line, uint8_t peripheral)
 203:D:/School/diseratie/SEMS/xmc4800_evaluation_kit/xmc4800_iot_kit/common/Libraries/XMCLib/src\xmc_dma.c **** {
 328              	 .loc 1 203 0 is_stmt 1
 329              	 .cfi_startproc
 330              	 
 331              	 
 332              	 
 333              	.LVL43:
 204:D:/School/diseratie/SEMS/xmc4800_evaluation_kit/xmc4800_iot_kit/common/Libraries/XMCLib/src\xmc_dma.c **** #if defined(GPDMA1)
 205:D:/School/diseratie/SEMS/xmc4800_evaluation_kit/xmc4800_iot_kit/common/Libraries/XMCLib/src\xmc_dma.c ****   if (dma == XMC_DMA0)
 334              	 .loc 1 205 0
 335 0000 144B     	 ldr r3,.L43
 336 0002 9842     	 cmp r0,r3
 203:D:/School/diseratie/SEMS/xmc4800_evaluation_kit/xmc4800_iot_kit/common/Libraries/XMCLib/src\xmc_dma.c **** #if defined(GPDMA1)
 337              	 .loc 1 203 0
 338 0004 30B4     	 push {r4,r5}
 339              	.LCFI7:
 340              	 .cfi_def_cfa_offset 8
 341              	 .cfi_offset 4,-8
 342              	 .cfi_offset 5,-4
 343              	 .loc 1 205 0
 344 0006 11D0     	 beq .L42
 206:D:/School/diseratie/SEMS/xmc4800_evaluation_kit/xmc4800_iot_kit/common/Libraries/XMCLib/src\xmc_dma.c ****   {
 207:D:/School/diseratie/SEMS/xmc4800_evaluation_kit/xmc4800_iot_kit/common/Libraries/XMCLib/src\xmc_dma.c **** #endif
 208:D:/School/diseratie/SEMS/xmc4800_evaluation_kit/xmc4800_iot_kit/common/Libraries/XMCLib/src\xmc_dma.c ****     DLR->SRSEL0 = ((DLR->SRSEL0 & (uint32_t)~(DLR_SRSEL_RS_MSK << (line * DLR_SRSEL_RS_BITSIZE))) |
 209:D:/School/diseratie/SEMS/xmc4800_evaluation_kit/xmc4800_iot_kit/common/Libraries/XMCLib/src\xmc_dma.c ****                    ((uint32_t)peripheral << (line * DLR_SRSEL_RS_BITSIZE)));
 210:D:/School/diseratie/SEMS/xmc4800_evaluation_kit/xmc4800_iot_kit/common/Libraries/XMCLib/src\xmc_dma.c ****     DLR->LNEN |= (0x1UL << (line & GPDMA0_CH_CFGH_PER_Msk));
 211:D:/School/diseratie/SEMS/xmc4800_evaluation_kit/xmc4800_iot_kit/common/Libraries/XMCLib/src\xmc_dma.c **** #if defined(GPDMA1)
 212:D:/School/diseratie/SEMS/xmc4800_evaluation_kit/xmc4800_iot_kit/common/Libraries/XMCLib/src\xmc_dma.c ****   }
 213:D:/School/diseratie/SEMS/xmc4800_evaluation_kit/xmc4800_iot_kit/common/Libraries/XMCLib/src\xmc_dma.c ****   else
 214:D:/School/diseratie/SEMS/xmc4800_evaluation_kit/xmc4800_iot_kit/common/Libraries/XMCLib/src\xmc_dma.c ****   {
 215:D:/School/diseratie/SEMS/xmc4800_evaluation_kit/xmc4800_iot_kit/common/Libraries/XMCLib/src\xmc_dma.c ****     DLR->SRSEL1 = ((DLR->SRSEL1 & (uint32_t)~(DLR_SRSEL_RS_MSK << (line * DLR_SRSEL_RS_BITSIZE))) |
 345              	 .loc 1 215 0
 346 0008 134B     	 ldr r3,.L43+4
 347 000a 8D00     	 lsls r5,r1,#2
 348 000c DC68     	 ldr r4,[r3,#12]
 349 000e 0F20     	 movs r0,#15
 350              	.LVL44:
 351 0010 A840     	 lsls r0,r0,r5
 352 0012 24EA0000 	 bic r0,r4,r0
 216:D:/School/diseratie/SEMS/xmc4800_evaluation_kit/xmc4800_iot_kit/common/Libraries/XMCLib/src\xmc_dma.c ****                    ((uint32_t)peripheral << (line * DLR_SRSEL_RS_BITSIZE)));
 353              	 .loc 1 216 0
 354 0016 AA40     	 lsls r2,r2,r5
 355              	.LVL45:
 215:D:/School/diseratie/SEMS/xmc4800_evaluation_kit/xmc4800_iot_kit/common/Libraries/XMCLib/src\xmc_dma.c ****                    ((uint32_t)peripheral << (line * DLR_SRSEL_RS_BITSIZE)));
 356              	 .loc 1 215 0
 357 0018 0243     	 orrs r2,r2,r0
 358 001a DA60     	 str r2,[r3,#12]
 217:D:/School/diseratie/SEMS/xmc4800_evaluation_kit/xmc4800_iot_kit/common/Libraries/XMCLib/src\xmc_dma.c ****     DLR->LNEN |= (0x100UL << line);
 359              	 .loc 1 217 0
 360 001c 1869     	 ldr r0,[r3,#16]
 361 001e 4FF48072 	 mov r2,#256
 362 0022 8A40     	 lsls r2,r2,r1
 363 0024 0243     	 orrs r2,r2,r0
 364 0026 1A61     	 str r2,[r3,#16]
 218:D:/School/diseratie/SEMS/xmc4800_evaluation_kit/xmc4800_iot_kit/common/Libraries/XMCLib/src\xmc_dma.c ****   }
 219:D:/School/diseratie/SEMS/xmc4800_evaluation_kit/xmc4800_iot_kit/common/Libraries/XMCLib/src\xmc_dma.c **** #endif
 220:D:/School/diseratie/SEMS/xmc4800_evaluation_kit/xmc4800_iot_kit/common/Libraries/XMCLib/src\xmc_dma.c **** }
 365              	 .loc 1 220 0
 366 0028 30BC     	 pop {r4,r5}
 367              	.LCFI8:
 368              	 .cfi_remember_state
 369              	 .cfi_restore 5
 370              	 .cfi_restore 4
 371              	 .cfi_def_cfa_offset 0
 372 002a 7047     	 bx lr
 373              	.LVL46:
 374              	.L42:
 375              	.LCFI9:
 376              	 .cfi_restore_state
 377              	.LBB36:
 378              	.LBB37:
 208:D:/School/diseratie/SEMS/xmc4800_evaluation_kit/xmc4800_iot_kit/common/Libraries/XMCLib/src\xmc_dma.c ****                    ((uint32_t)peripheral << (line * DLR_SRSEL_RS_BITSIZE)));
 379              	 .loc 1 208 0
 380 002c A3F57743 	 sub r3,r3,#63232
 381 0030 8D00     	 lsls r5,r1,#2
 382 0032 9C68     	 ldr r4,[r3,#8]
 383 0034 0F20     	 movs r0,#15
 384              	.LVL47:
 385 0036 A840     	 lsls r0,r0,r5
 386 0038 24EA0000 	 bic r0,r4,r0
 209:D:/School/diseratie/SEMS/xmc4800_evaluation_kit/xmc4800_iot_kit/common/Libraries/XMCLib/src\xmc_dma.c ****     DLR->LNEN |= (0x1UL << (line & GPDMA0_CH_CFGH_PER_Msk));
 387              	 .loc 1 209 0
 388 003c AA40     	 lsls r2,r2,r5
 389              	.LVL48:
 208:D:/School/diseratie/SEMS/xmc4800_evaluation_kit/xmc4800_iot_kit/common/Libraries/XMCLib/src\xmc_dma.c ****                    ((uint32_t)peripheral << (line * DLR_SRSEL_RS_BITSIZE)));
 390              	 .loc 1 208 0
 391 003e 0243     	 orrs r2,r2,r0
 392 0040 9A60     	 str r2,[r3,#8]
 210:D:/School/diseratie/SEMS/xmc4800_evaluation_kit/xmc4800_iot_kit/common/Libraries/XMCLib/src\xmc_dma.c **** #if defined(GPDMA1)
 393              	 .loc 1 210 0
 394 0042 1869     	 ldr r0,[r3,#16]
 395 0044 01F00701 	 and r1,r1,#7
 396              	.LVL49:
 397 0048 0122     	 movs r2,#1
 398 004a 8A40     	 lsls r2,r2,r1
 399 004c 0243     	 orrs r2,r2,r0
 400 004e 1A61     	 str r2,[r3,#16]
 401              	.LBE37:
 402              	.LBE36:
 403              	 .loc 1 220 0
 404 0050 30BC     	 pop {r4,r5}
 405              	.LCFI10:
 406              	 .cfi_restore 4
 407              	 .cfi_restore 5
 408              	 .cfi_def_cfa_offset 0
 409 0052 7047     	 bx lr
 410              	.L44:
 411              	 .align 2
 412              	.L43:
 413 0054 00400150 	 .word 1342259200
 414 0058 00490050 	 .word 1342195968
 415              	 .cfi_endproc
 416              	.LFE190:
 418              	 .section .text.XMC_DMA_DisableRequestLine,"ax",%progbits
 419              	 .align 2
 420              	 .global XMC_DMA_DisableRequestLine
 421              	 .thumb
 422              	 .thumb_func
 424              	XMC_DMA_DisableRequestLine:
 425              	.LFB191:
 221:D:/School/diseratie/SEMS/xmc4800_evaluation_kit/xmc4800_iot_kit/common/Libraries/XMCLib/src\xmc_dma.c **** 
 222:D:/School/diseratie/SEMS/xmc4800_evaluation_kit/xmc4800_iot_kit/common/Libraries/XMCLib/src\xmc_dma.c **** void XMC_DMA_DisableRequestLine(XMC_DMA_t *const dma, uint8_t line)
 223:D:/School/diseratie/SEMS/xmc4800_evaluation_kit/xmc4800_iot_kit/common/Libraries/XMCLib/src\xmc_dma.c **** {
 426              	 .loc 1 223 0
 427              	 .cfi_startproc
 428              	 
 429              	 
 430              	 
 431              	.LVL50:
 224:D:/School/diseratie/SEMS/xmc4800_evaluation_kit/xmc4800_iot_kit/common/Libraries/XMCLib/src\xmc_dma.c **** #if defined(GPDMA1)
 225:D:/School/diseratie/SEMS/xmc4800_evaluation_kit/xmc4800_iot_kit/common/Libraries/XMCLib/src\xmc_dma.c ****   if (dma == XMC_DMA0)
 432              	 .loc 1 225 0
 433 0000 064B     	 ldr r3,.L48
 434 0002 9842     	 cmp r0,r3
 226:D:/School/diseratie/SEMS/xmc4800_evaluation_kit/xmc4800_iot_kit/common/Libraries/XMCLib/src\xmc_dma.c ****   {
 227:D:/School/diseratie/SEMS/xmc4800_evaluation_kit/xmc4800_iot_kit/common/Libraries/XMCLib/src\xmc_dma.c **** #endif
 228:D:/School/diseratie/SEMS/xmc4800_evaluation_kit/xmc4800_iot_kit/common/Libraries/XMCLib/src\xmc_dma.c ****     DLR->LNEN &= ~(0x1UL << line);
 435              	 .loc 1 228 0
 436 0004 0648     	 ldr r0,.L48+4
 437              	.LVL51:
 438 0006 08BF     	 it eq
 439 0008 0123     	 moveq r3,#1
 229:D:/School/diseratie/SEMS/xmc4800_evaluation_kit/xmc4800_iot_kit/common/Libraries/XMCLib/src\xmc_dma.c **** #if defined(GPDMA1)
 230:D:/School/diseratie/SEMS/xmc4800_evaluation_kit/xmc4800_iot_kit/common/Libraries/XMCLib/src\xmc_dma.c ****   }
 231:D:/School/diseratie/SEMS/xmc4800_evaluation_kit/xmc4800_iot_kit/common/Libraries/XMCLib/src\xmc_dma.c ****   else
 232:D:/School/diseratie/SEMS/xmc4800_evaluation_kit/xmc4800_iot_kit/common/Libraries/XMCLib/src\xmc_dma.c ****   {
 233:D:/School/diseratie/SEMS/xmc4800_evaluation_kit/xmc4800_iot_kit/common/Libraries/XMCLib/src\xmc_dma.c ****     DLR->LNEN &= ~(0x100UL << line);
 440              	 .loc 1 233 0
 441 000a 0269     	 ldr r2,[r0,#16]
 442 000c 18BF     	 it ne
 443 000e 4FF48073 	 movne r3,#256
 444 0012 8B40     	 lsls r3,r3,r1
 445 0014 22EA0303 	 bic r3,r2,r3
 446 0018 0361     	 str r3,[r0,#16]
 447 001a 7047     	 bx lr
 448              	.L49:
 449              	 .align 2
 450              	.L48:
 451 001c 00400150 	 .word 1342259200
 452 0020 00490050 	 .word 1342195968
 453              	 .cfi_endproc
 454              	.LFE191:
 456              	 .section .text.XMC_DMA_ClearRequestLine,"ax",%progbits
 457              	 .align 2
 458              	 .global XMC_DMA_ClearRequestLine
 459              	 .thumb
 460              	 .thumb_func
 462              	XMC_DMA_ClearRequestLine:
 463              	.LFB192:
 234:D:/School/diseratie/SEMS/xmc4800_evaluation_kit/xmc4800_iot_kit/common/Libraries/XMCLib/src\xmc_dma.c ****   }
 235:D:/School/diseratie/SEMS/xmc4800_evaluation_kit/xmc4800_iot_kit/common/Libraries/XMCLib/src\xmc_dma.c **** #endif
 236:D:/School/diseratie/SEMS/xmc4800_evaluation_kit/xmc4800_iot_kit/common/Libraries/XMCLib/src\xmc_dma.c **** }
 237:D:/School/diseratie/SEMS/xmc4800_evaluation_kit/xmc4800_iot_kit/common/Libraries/XMCLib/src\xmc_dma.c **** 
 238:D:/School/diseratie/SEMS/xmc4800_evaluation_kit/xmc4800_iot_kit/common/Libraries/XMCLib/src\xmc_dma.c **** void XMC_DMA_ClearRequestLine(XMC_DMA_t *const dma, uint8_t line)
 239:D:/School/diseratie/SEMS/xmc4800_evaluation_kit/xmc4800_iot_kit/common/Libraries/XMCLib/src\xmc_dma.c **** {
 464              	 .loc 1 239 0
 465              	 .cfi_startproc
 466              	 
 467              	 
 468              	 
 469              	.LVL52:
 240:D:/School/diseratie/SEMS/xmc4800_evaluation_kit/xmc4800_iot_kit/common/Libraries/XMCLib/src\xmc_dma.c **** #if defined(GPDMA1)
 241:D:/School/diseratie/SEMS/xmc4800_evaluation_kit/xmc4800_iot_kit/common/Libraries/XMCLib/src\xmc_dma.c ****   if (dma == XMC_DMA0)
 470              	 .loc 1 241 0
 471 0000 094B     	 ldr r3,.L54
 472 0002 9842     	 cmp r0,r3
 473              	.LBB40:
 474              	.LBB41:
 242:D:/School/diseratie/SEMS/xmc4800_evaluation_kit/xmc4800_iot_kit/common/Libraries/XMCLib/src\xmc_dma.c ****   {
 243:D:/School/diseratie/SEMS/xmc4800_evaluation_kit/xmc4800_iot_kit/common/Libraries/XMCLib/src\xmc_dma.c **** #endif
 244:D:/School/diseratie/SEMS/xmc4800_evaluation_kit/xmc4800_iot_kit/common/Libraries/XMCLib/src\xmc_dma.c ****     DLR->LNEN &= ~(0x1UL << line);
 475              	 .loc 1 244 0
 476 0004 0ABF     	 itet eq
 477 0006 A3F57743 	 subeq r3,r3,#63232
 478              	.LBE41:
 479              	.LBE40:
 245:D:/School/diseratie/SEMS/xmc4800_evaluation_kit/xmc4800_iot_kit/common/Libraries/XMCLib/src\xmc_dma.c **** 	DLR->LNEN |= 0x1UL << line;
 246:D:/School/diseratie/SEMS/xmc4800_evaluation_kit/xmc4800_iot_kit/common/Libraries/XMCLib/src\xmc_dma.c **** #if defined(GPDMA1)
 247:D:/School/diseratie/SEMS/xmc4800_evaluation_kit/xmc4800_iot_kit/common/Libraries/XMCLib/src\xmc_dma.c ****   }
 248:D:/School/diseratie/SEMS/xmc4800_evaluation_kit/xmc4800_iot_kit/common/Libraries/XMCLib/src\xmc_dma.c ****   else
 249:D:/School/diseratie/SEMS/xmc4800_evaluation_kit/xmc4800_iot_kit/common/Libraries/XMCLib/src\xmc_dma.c ****   {
 250:D:/School/diseratie/SEMS/xmc4800_evaluation_kit/xmc4800_iot_kit/common/Libraries/XMCLib/src\xmc_dma.c ****     DLR->LNEN &= ~(0x100UL << line);
 480              	 .loc 1 250 0
 481 000a 084B     	 ldrne r3,.L54+4
 482              	.LBB43:
 483              	.LBB42:
 244:D:/School/diseratie/SEMS/xmc4800_evaluation_kit/xmc4800_iot_kit/common/Libraries/XMCLib/src\xmc_dma.c **** 	DLR->LNEN |= 0x1UL << line;
 484              	 .loc 1 244 0
 485 000c 0122     	 moveq r2,#1
 486              	.LBE42:
 487              	.LBE43:
 488              	 .loc 1 250 0
 489 000e 1869     	 ldr r0,[r3,#16]
 490              	.LVL53:
 491 0010 18BF     	 it ne
 492 0012 4FF48072 	 movne r2,#256
 493 0016 8A40     	 lsls r2,r2,r1
 494 0018 20EA0201 	 bic r1,r0,r2
 495              	.LVL54:
 496 001c 1961     	 str r1,[r3,#16]
 251:D:/School/diseratie/SEMS/xmc4800_evaluation_kit/xmc4800_iot_kit/common/Libraries/XMCLib/src\xmc_dma.c **** 	DLR->LNEN |= 0x100UL << line;
 497              	 .loc 1 251 0
 498 001e 1969     	 ldr r1,[r3,#16]
 499 0020 0A43     	 orrs r2,r2,r1
 500 0022 1A61     	 str r2,[r3,#16]
 501 0024 7047     	 bx lr
 502              	.L55:
 503 0026 00BF     	 .align 2
 504              	.L54:
 505 0028 00400150 	 .word 1342259200
 506 002c 00490050 	 .word 1342195968
 507              	 .cfi_endproc
 508              	.LFE192:
 510              	 .section .text.XMC_DMA_GetOverrunStatus,"ax",%progbits
 511              	 .align 2
 512              	 .global XMC_DMA_GetOverrunStatus
 513              	 .thumb
 514              	 .thumb_func
 516              	XMC_DMA_GetOverrunStatus:
 517              	.LFB193:
 252:D:/School/diseratie/SEMS/xmc4800_evaluation_kit/xmc4800_iot_kit/common/Libraries/XMCLib/src\xmc_dma.c ****   }
 253:D:/School/diseratie/SEMS/xmc4800_evaluation_kit/xmc4800_iot_kit/common/Libraries/XMCLib/src\xmc_dma.c **** #endif
 254:D:/School/diseratie/SEMS/xmc4800_evaluation_kit/xmc4800_iot_kit/common/Libraries/XMCLib/src\xmc_dma.c **** }
 255:D:/School/diseratie/SEMS/xmc4800_evaluation_kit/xmc4800_iot_kit/common/Libraries/XMCLib/src\xmc_dma.c **** 
 256:D:/School/diseratie/SEMS/xmc4800_evaluation_kit/xmc4800_iot_kit/common/Libraries/XMCLib/src\xmc_dma.c **** /* Get DMA DLR overrun status */
 257:D:/School/diseratie/SEMS/xmc4800_evaluation_kit/xmc4800_iot_kit/common/Libraries/XMCLib/src\xmc_dma.c **** bool XMC_DMA_GetOverrunStatus(XMC_DMA_t *const dma, uint8_t line)
 258:D:/School/diseratie/SEMS/xmc4800_evaluation_kit/xmc4800_iot_kit/common/Libraries/XMCLib/src\xmc_dma.c **** {
 518              	 .loc 1 258 0
 519              	 .cfi_startproc
 520              	 
 521              	 
 522              	 
 523              	.LVL55:
 259:D:/School/diseratie/SEMS/xmc4800_evaluation_kit/xmc4800_iot_kit/common/Libraries/XMCLib/src\xmc_dma.c ****   bool status;
 260:D:/School/diseratie/SEMS/xmc4800_evaluation_kit/xmc4800_iot_kit/common/Libraries/XMCLib/src\xmc_dma.c **** 
 261:D:/School/diseratie/SEMS/xmc4800_evaluation_kit/xmc4800_iot_kit/common/Libraries/XMCLib/src\xmc_dma.c **** #if defined(GPDMA1)
 262:D:/School/diseratie/SEMS/xmc4800_evaluation_kit/xmc4800_iot_kit/common/Libraries/XMCLib/src\xmc_dma.c ****   if (dma == XMC_DMA0)
 524              	 .loc 1 262 0
 525 0000 094B     	 ldr r3,.L60
 526 0002 9842     	 cmp r0,r3
 527 0004 09D0     	 beq .L59
 263:D:/School/diseratie/SEMS/xmc4800_evaluation_kit/xmc4800_iot_kit/common/Libraries/XMCLib/src\xmc_dma.c ****   {
 264:D:/School/diseratie/SEMS/xmc4800_evaluation_kit/xmc4800_iot_kit/common/Libraries/XMCLib/src\xmc_dma.c **** #endif
 265:D:/School/diseratie/SEMS/xmc4800_evaluation_kit/xmc4800_iot_kit/common/Libraries/XMCLib/src\xmc_dma.c ****     status = (bool)(DLR->OVRSTAT & (0x1UL << line));
 266:D:/School/diseratie/SEMS/xmc4800_evaluation_kit/xmc4800_iot_kit/common/Libraries/XMCLib/src\xmc_dma.c **** #if defined(GPDMA1)
 267:D:/School/diseratie/SEMS/xmc4800_evaluation_kit/xmc4800_iot_kit/common/Libraries/XMCLib/src\xmc_dma.c ****   }
 268:D:/School/diseratie/SEMS/xmc4800_evaluation_kit/xmc4800_iot_kit/common/Libraries/XMCLib/src\xmc_dma.c ****   else
 269:D:/School/diseratie/SEMS/xmc4800_evaluation_kit/xmc4800_iot_kit/common/Libraries/XMCLib/src\xmc_dma.c ****   {
 270:D:/School/diseratie/SEMS/xmc4800_evaluation_kit/xmc4800_iot_kit/common/Libraries/XMCLib/src\xmc_dma.c ****     status = (bool)(DLR->OVRSTAT & (0x100UL << line));
 528              	 .loc 1 270 0
 529 0006 094A     	 ldr r2,.L60+4
 530 0008 4FF48073 	 mov r3,#256
 531 000c 1268     	 ldr r2,[r2]
 532 000e 8B40     	 lsls r3,r3,r1
 533 0010 1342     	 tst r3,r2
 534 0012 14BF     	 ite ne
 535 0014 0120     	 movne r0,#1
 536              	.LVL56:
 537 0016 0020     	 moveq r0,#0
 538              	.LVL57:
 271:D:/School/diseratie/SEMS/xmc4800_evaluation_kit/xmc4800_iot_kit/common/Libraries/XMCLib/src\xmc_dma.c ****   }
 272:D:/School/diseratie/SEMS/xmc4800_evaluation_kit/xmc4800_iot_kit/common/Libraries/XMCLib/src\xmc_dma.c **** #endif
 273:D:/School/diseratie/SEMS/xmc4800_evaluation_kit/xmc4800_iot_kit/common/Libraries/XMCLib/src\xmc_dma.c **** 
 274:D:/School/diseratie/SEMS/xmc4800_evaluation_kit/xmc4800_iot_kit/common/Libraries/XMCLib/src\xmc_dma.c ****   return status;
 275:D:/School/diseratie/SEMS/xmc4800_evaluation_kit/xmc4800_iot_kit/common/Libraries/XMCLib/src\xmc_dma.c **** }
 539              	 .loc 1 275 0
 540 0018 7047     	 bx lr
 541              	.LVL58:
 542              	.L59:
 265:D:/School/diseratie/SEMS/xmc4800_evaluation_kit/xmc4800_iot_kit/common/Libraries/XMCLib/src\xmc_dma.c **** #if defined(GPDMA1)
 543              	 .loc 1 265 0
 544 001a A3F57743 	 sub r3,r3,#63232
 545 001e 1868     	 ldr r0,[r3]
 546              	.LVL59:
 547 0020 C840     	 lsrs r0,r0,r1
 548 0022 00F00100 	 and r0,r0,#1
 549              	.LVL60:
 550 0026 7047     	 bx lr
 551              	.L61:
 552              	 .align 2
 553              	.L60:
 554 0028 00400150 	 .word 1342259200
 555 002c 00490050 	 .word 1342195968
 556              	 .cfi_endproc
 557              	.LFE193:
 559              	 .section .text.XMC_DMA_ClearOverrunStatus,"ax",%progbits
 560              	 .align 2
 561              	 .global XMC_DMA_ClearOverrunStatus
 562              	 .thumb
 563              	 .thumb_func
 565              	XMC_DMA_ClearOverrunStatus:
 566              	.LFB194:
 276:D:/School/diseratie/SEMS/xmc4800_evaluation_kit/xmc4800_iot_kit/common/Libraries/XMCLib/src\xmc_dma.c **** 
 277:D:/School/diseratie/SEMS/xmc4800_evaluation_kit/xmc4800_iot_kit/common/Libraries/XMCLib/src\xmc_dma.c **** /* Clear DMA DLR overrun status */
 278:D:/School/diseratie/SEMS/xmc4800_evaluation_kit/xmc4800_iot_kit/common/Libraries/XMCLib/src\xmc_dma.c **** void XMC_DMA_ClearOverrunStatus(XMC_DMA_t *const dma, const uint8_t line)
 279:D:/School/diseratie/SEMS/xmc4800_evaluation_kit/xmc4800_iot_kit/common/Libraries/XMCLib/src\xmc_dma.c **** {
 567              	 .loc 1 279 0
 568              	 .cfi_startproc
 569              	 
 570              	 
 571              	 
 572              	.LVL61:
 280:D:/School/diseratie/SEMS/xmc4800_evaluation_kit/xmc4800_iot_kit/common/Libraries/XMCLib/src\xmc_dma.c **** #if defined(GPDMA1)
 281:D:/School/diseratie/SEMS/xmc4800_evaluation_kit/xmc4800_iot_kit/common/Libraries/XMCLib/src\xmc_dma.c ****   if (dma == XMC_DMA0)
 573              	 .loc 1 281 0
 574 0000 044B     	 ldr r3,.L65
 282:D:/School/diseratie/SEMS/xmc4800_evaluation_kit/xmc4800_iot_kit/common/Libraries/XMCLib/src\xmc_dma.c ****   {
 283:D:/School/diseratie/SEMS/xmc4800_evaluation_kit/xmc4800_iot_kit/common/Libraries/XMCLib/src\xmc_dma.c **** #endif
 284:D:/School/diseratie/SEMS/xmc4800_evaluation_kit/xmc4800_iot_kit/common/Libraries/XMCLib/src\xmc_dma.c ****     DLR->OVRCLR = (uint32_t)(0x1UL << line);
 285:D:/School/diseratie/SEMS/xmc4800_evaluation_kit/xmc4800_iot_kit/common/Libraries/XMCLib/src\xmc_dma.c **** #if defined(GPDMA1)
 286:D:/School/diseratie/SEMS/xmc4800_evaluation_kit/xmc4800_iot_kit/common/Libraries/XMCLib/src\xmc_dma.c ****   }
 287:D:/School/diseratie/SEMS/xmc4800_evaluation_kit/xmc4800_iot_kit/common/Libraries/XMCLib/src\xmc_dma.c ****   else
 288:D:/School/diseratie/SEMS/xmc4800_evaluation_kit/xmc4800_iot_kit/common/Libraries/XMCLib/src\xmc_dma.c ****   {
 289:D:/School/diseratie/SEMS/xmc4800_evaluation_kit/xmc4800_iot_kit/common/Libraries/XMCLib/src\xmc_dma.c ****     DLR->OVRCLR = (uint32_t)(0x100UL << line);
 575              	 .loc 1 289 0
 576 0002 054A     	 ldr r2,.L65+4
 281:D:/School/diseratie/SEMS/xmc4800_evaluation_kit/xmc4800_iot_kit/common/Libraries/XMCLib/src\xmc_dma.c ****   {
 577              	 .loc 1 281 0
 578 0004 9842     	 cmp r0,r3
 284:D:/School/diseratie/SEMS/xmc4800_evaluation_kit/xmc4800_iot_kit/common/Libraries/XMCLib/src\xmc_dma.c **** #if defined(GPDMA1)
 579              	 .loc 1 284 0
 580 0006 0CBF     	 ite eq
 581 0008 0123     	 moveq r3,#1
 582              	 .loc 1 289 0
 583 000a 4FF48073 	 movne r3,#256
 584 000e 8B40     	 lsls r3,r3,r1
 585 0010 5360     	 str r3,[r2,#4]
 586 0012 7047     	 bx lr
 587              	.L66:
 588              	 .align 2
 589              	.L65:
 590 0014 00400150 	 .word 1342259200
 591 0018 00490050 	 .word 1342195968
 592              	 .cfi_endproc
 593              	.LFE194:
 595              	 .section .text.XMC_DMA_CH_Disable,"ax",%progbits
 596              	 .align 2
 597              	 .global XMC_DMA_CH_Disable
 598              	 .thumb
 599              	 .thumb_func
 601              	XMC_DMA_CH_Disable:
 602              	.LFB195:
 290:D:/School/diseratie/SEMS/xmc4800_evaluation_kit/xmc4800_iot_kit/common/Libraries/XMCLib/src\xmc_dma.c ****   }
 291:D:/School/diseratie/SEMS/xmc4800_evaluation_kit/xmc4800_iot_kit/common/Libraries/XMCLib/src\xmc_dma.c **** #endif
 292:D:/School/diseratie/SEMS/xmc4800_evaluation_kit/xmc4800_iot_kit/common/Libraries/XMCLib/src\xmc_dma.c **** }
 293:D:/School/diseratie/SEMS/xmc4800_evaluation_kit/xmc4800_iot_kit/common/Libraries/XMCLib/src\xmc_dma.c **** 
 294:D:/School/diseratie/SEMS/xmc4800_evaluation_kit/xmc4800_iot_kit/common/Libraries/XMCLib/src\xmc_dma.c **** /* Disable DMA channel */
 295:D:/School/diseratie/SEMS/xmc4800_evaluation_kit/xmc4800_iot_kit/common/Libraries/XMCLib/src\xmc_dma.c **** void XMC_DMA_CH_Disable(XMC_DMA_t *const dma, const uint8_t channel)
 296:D:/School/diseratie/SEMS/xmc4800_evaluation_kit/xmc4800_iot_kit/common/Libraries/XMCLib/src\xmc_dma.c **** {
 603              	 .loc 1 296 0
 604              	 .cfi_startproc
 605              	 
 606              	 
 607              	 
 608              	.LVL62:
 297:D:/School/diseratie/SEMS/xmc4800_evaluation_kit/xmc4800_iot_kit/common/Libraries/XMCLib/src\xmc_dma.c ****   dma->CHENREG = (uint32_t)(0x100UL << channel);
 609              	 .loc 1 297 0
 610 0000 4FF48073 	 mov r3,#256
 611 0004 8B40     	 lsls r3,r3,r1
 612 0006 0122     	 movs r2,#1
 613 0008 C0F8A033 	 str r3,[r0,#928]
 614 000c 8A40     	 lsls r2,r2,r1
 615              	.L68:
 298:D:/School/diseratie/SEMS/xmc4800_evaluation_kit/xmc4800_iot_kit/common/Libraries/XMCLib/src\xmc_dma.c ****   while((dma->CHENREG & (uint32_t)(0x1UL << channel)) != 0U)
 616              	 .loc 1 298 0 discriminator 1
 617 000e D0F8A033 	 ldr r3,[r0,#928]
 618 0012 1A42     	 tst r2,r3
 619 0014 FBD1     	 bne .L68
 299:D:/School/diseratie/SEMS/xmc4800_evaluation_kit/xmc4800_iot_kit/common/Libraries/XMCLib/src\xmc_dma.c ****   {
 300:D:/School/diseratie/SEMS/xmc4800_evaluation_kit/xmc4800_iot_kit/common/Libraries/XMCLib/src\xmc_dma.c ****     /* wait until channel is disabled */
 301:D:/School/diseratie/SEMS/xmc4800_evaluation_kit/xmc4800_iot_kit/common/Libraries/XMCLib/src\xmc_dma.c ****   }
 302:D:/School/diseratie/SEMS/xmc4800_evaluation_kit/xmc4800_iot_kit/common/Libraries/XMCLib/src\xmc_dma.c **** }
 620              	 .loc 1 302 0
 621 0016 7047     	 bx lr
 622              	 .cfi_endproc
 623              	.LFE195:
 625              	 .section .text.XMC_DMA_CH_IsEnabled,"ax",%progbits
 626              	 .align 2
 627              	 .global XMC_DMA_CH_IsEnabled
 628              	 .thumb
 629              	 .thumb_func
 631              	XMC_DMA_CH_IsEnabled:
 632              	.LFB196:
 303:D:/School/diseratie/SEMS/xmc4800_evaluation_kit/xmc4800_iot_kit/common/Libraries/XMCLib/src\xmc_dma.c **** 
 304:D:/School/diseratie/SEMS/xmc4800_evaluation_kit/xmc4800_iot_kit/common/Libraries/XMCLib/src\xmc_dma.c **** /* Check if a DMA channel is enabled */
 305:D:/School/diseratie/SEMS/xmc4800_evaluation_kit/xmc4800_iot_kit/common/Libraries/XMCLib/src\xmc_dma.c **** bool XMC_DMA_CH_IsEnabled(XMC_DMA_t *const dma, const uint8_t channel)
 306:D:/School/diseratie/SEMS/xmc4800_evaluation_kit/xmc4800_iot_kit/common/Libraries/XMCLib/src\xmc_dma.c **** {
 633              	 .loc 1 306 0
 634              	 .cfi_startproc
 635              	 
 636              	 
 637              	 
 638              	.LVL63:
 307:D:/School/diseratie/SEMS/xmc4800_evaluation_kit/xmc4800_iot_kit/common/Libraries/XMCLib/src\xmc_dma.c ****   return (bool)(dma->CHENREG & ((uint32_t)1U << channel));
 639              	 .loc 1 307 0
 640 0000 D0F8A003 	 ldr r0,[r0,#928]
 641              	.LVL64:
 642 0004 C840     	 lsrs r0,r0,r1
 308:D:/School/diseratie/SEMS/xmc4800_evaluation_kit/xmc4800_iot_kit/common/Libraries/XMCLib/src\xmc_dma.c **** }
 643              	 .loc 1 308 0
 644 0006 00F00100 	 and r0,r0,#1
 645 000a 7047     	 bx lr
 646              	 .cfi_endproc
 647              	.LFE196:
 649              	 .section .text.XMC_DMA_CH_Init,"ax",%progbits
 650              	 .align 2
 651              	 .global XMC_DMA_CH_Init
 652              	 .thumb
 653              	 .thumb_func
 655              	XMC_DMA_CH_Init:
 656              	.LFB197:
 309:D:/School/diseratie/SEMS/xmc4800_evaluation_kit/xmc4800_iot_kit/common/Libraries/XMCLib/src\xmc_dma.c **** 
 310:D:/School/diseratie/SEMS/xmc4800_evaluation_kit/xmc4800_iot_kit/common/Libraries/XMCLib/src\xmc_dma.c **** /* Initialize DMA channel */
 311:D:/School/diseratie/SEMS/xmc4800_evaluation_kit/xmc4800_iot_kit/common/Libraries/XMCLib/src\xmc_dma.c **** XMC_DMA_CH_STATUS_t XMC_DMA_CH_Init(XMC_DMA_t *const dma, const uint8_t channel, const XMC_DMA_CH_C
 312:D:/School/diseratie/SEMS/xmc4800_evaluation_kit/xmc4800_iot_kit/common/Libraries/XMCLib/src\xmc_dma.c **** {
 657              	 .loc 1 312 0
 658              	 .cfi_startproc
 659              	 
 660              	 
 661              	.LVL65:
 662 0000 F8B5     	 push {r3,r4,r5,r6,r7,lr}
 663              	.LCFI11:
 664              	 .cfi_def_cfa_offset 24
 665              	 .cfi_offset 3,-24
 666              	 .cfi_offset 4,-20
 667              	 .cfi_offset 5,-16
 668              	 .cfi_offset 6,-12
 669              	 .cfi_offset 7,-8
 670              	 .cfi_offset 14,-4
 671              	.LBB58:
 672              	.LBB59:
 174:D:/School/diseratie/SEMS/xmc4800_evaluation_kit/xmc4800_iot_kit/common/Libraries/XMCLib/src\xmc_dma.c ****   {
 673              	 .loc 1 174 0
 674 0002 A14B     	 ldr r3,.L110
 675 0004 9842     	 cmp r0,r3
 676              	.LBE59:
 677              	.LBE58:
 678              	 .loc 1 312 0
 679 0006 0446     	 mov r4,r0
 680              	.LVL66:
 681 0008 0E46     	 mov r6,r1
 682 000a 1546     	 mov r5,r2
 683              	.LBB63:
 684              	.LBB60:
 174:D:/School/diseratie/SEMS/xmc4800_evaluation_kit/xmc4800_iot_kit/common/Libraries/XMCLib/src\xmc_dma.c ****   {
 685              	 .loc 1 174 0
 686 000c 53D0     	 beq .L102
 185:D:/School/diseratie/SEMS/xmc4800_evaluation_kit/xmc4800_iot_kit/common/Libraries/XMCLib/src\xmc_dma.c **** #if defined(CLOCK_GATING_SUPPORTED)
 687              	 .loc 1 185 0
 688 000e 9F48     	 ldr r0,.L110+4
 689              	.LVL67:
 690 0010 FFF7FEFF 	 bl XMC_SCU_RESET_IsPeripheralResetAsserted
 691              	.LVL68:
 187:D:/School/diseratie/SEMS/xmc4800_evaluation_kit/xmc4800_iot_kit/common/Libraries/XMCLib/src\xmc_dma.c **** #endif
 692              	 .loc 1 187 0
 693 0014 08B1     	 cbz r0,.L103
 694              	.LVL69:
 695              	.L99:
 696              	.LBE60:
 697              	.LBE63:
 313:D:/School/diseratie/SEMS/xmc4800_evaluation_kit/xmc4800_iot_kit/common/Libraries/XMCLib/src\xmc_dma.c ****   XMC_DMA_CH_STATUS_t status;
 314:D:/School/diseratie/SEMS/xmc4800_evaluation_kit/xmc4800_iot_kit/common/Libraries/XMCLib/src\xmc_dma.c ****   uint8_t line;
 315:D:/School/diseratie/SEMS/xmc4800_evaluation_kit/xmc4800_iot_kit/common/Libraries/XMCLib/src\xmc_dma.c ****   uint8_t peripheral;
 316:D:/School/diseratie/SEMS/xmc4800_evaluation_kit/xmc4800_iot_kit/common/Libraries/XMCLib/src\xmc_dma.c **** 
 317:D:/School/diseratie/SEMS/xmc4800_evaluation_kit/xmc4800_iot_kit/common/Libraries/XMCLib/src\xmc_dma.c ****   if (XMC_DMA_IsEnabled(dma) == true)
 318:D:/School/diseratie/SEMS/xmc4800_evaluation_kit/xmc4800_iot_kit/common/Libraries/XMCLib/src\xmc_dma.c ****   {
 319:D:/School/diseratie/SEMS/xmc4800_evaluation_kit/xmc4800_iot_kit/common/Libraries/XMCLib/src\xmc_dma.c ****     if (XMC_DMA_CH_IsEnabled(dma, channel) == false)
 320:D:/School/diseratie/SEMS/xmc4800_evaluation_kit/xmc4800_iot_kit/common/Libraries/XMCLib/src\xmc_dma.c ****     {
 321:D:/School/diseratie/SEMS/xmc4800_evaluation_kit/xmc4800_iot_kit/common/Libraries/XMCLib/src\xmc_dma.c ****       dma->CH[channel].SAR = config->src_addr;
 322:D:/School/diseratie/SEMS/xmc4800_evaluation_kit/xmc4800_iot_kit/common/Libraries/XMCLib/src\xmc_dma.c ****       dma->CH[channel].DAR = config->dst_addr;
 323:D:/School/diseratie/SEMS/xmc4800_evaluation_kit/xmc4800_iot_kit/common/Libraries/XMCLib/src\xmc_dma.c ****       dma->CH[channel].LLP = (uint32_t)config->linked_list_pointer;
 324:D:/School/diseratie/SEMS/xmc4800_evaluation_kit/xmc4800_iot_kit/common/Libraries/XMCLib/src\xmc_dma.c ****       dma->CH[channel].CTLH = (uint32_t)config->block_size;
 325:D:/School/diseratie/SEMS/xmc4800_evaluation_kit/xmc4800_iot_kit/common/Libraries/XMCLib/src\xmc_dma.c ****       dma->CH[channel].CTLL = config->control;
 326:D:/School/diseratie/SEMS/xmc4800_evaluation_kit/xmc4800_iot_kit/common/Libraries/XMCLib/src\xmc_dma.c **** 
 327:D:/School/diseratie/SEMS/xmc4800_evaluation_kit/xmc4800_iot_kit/common/Libraries/XMCLib/src\xmc_dma.c ****       dma->CH[channel].CFGL = (uint32_t)((uint32_t)config->priority |
 328:D:/School/diseratie/SEMS/xmc4800_evaluation_kit/xmc4800_iot_kit/common/Libraries/XMCLib/src\xmc_dma.c ****                                          (uint32_t)GPDMA0_CH_CFGL_HS_SEL_SRC_Msk |
 329:D:/School/diseratie/SEMS/xmc4800_evaluation_kit/xmc4800_iot_kit/common/Libraries/XMCLib/src\xmc_dma.c ****                                          (uint32_t)GPDMA0_CH_CFGL_HS_SEL_DST_Msk);
 330:D:/School/diseratie/SEMS/xmc4800_evaluation_kit/xmc4800_iot_kit/common/Libraries/XMCLib/src\xmc_dma.c **** 
 331:D:/School/diseratie/SEMS/xmc4800_evaluation_kit/xmc4800_iot_kit/common/Libraries/XMCLib/src\xmc_dma.c ****       if ((dma == XMC_DMA0) && (channel < (uint8_t)2))
 332:D:/School/diseratie/SEMS/xmc4800_evaluation_kit/xmc4800_iot_kit/common/Libraries/XMCLib/src\xmc_dma.c ****       {
 333:D:/School/diseratie/SEMS/xmc4800_evaluation_kit/xmc4800_iot_kit/common/Libraries/XMCLib/src\xmc_dma.c ****         /* Configure scatter and gather */
 334:D:/School/diseratie/SEMS/xmc4800_evaluation_kit/xmc4800_iot_kit/common/Libraries/XMCLib/src\xmc_dma.c ****         dma->CH[channel].SGR = config->src_gather_control;
 335:D:/School/diseratie/SEMS/xmc4800_evaluation_kit/xmc4800_iot_kit/common/Libraries/XMCLib/src\xmc_dma.c ****         dma->CH[channel].DSR = config->dst_scatter_control;
 336:D:/School/diseratie/SEMS/xmc4800_evaluation_kit/xmc4800_iot_kit/common/Libraries/XMCLib/src\xmc_dma.c ****       }
 337:D:/School/diseratie/SEMS/xmc4800_evaluation_kit/xmc4800_iot_kit/common/Libraries/XMCLib/src\xmc_dma.c **** 
 338:D:/School/diseratie/SEMS/xmc4800_evaluation_kit/xmc4800_iot_kit/common/Libraries/XMCLib/src\xmc_dma.c ****       if (config->dst_handshaking == XMC_DMA_CH_DST_HANDSHAKING_HARDWARE)
 339:D:/School/diseratie/SEMS/xmc4800_evaluation_kit/xmc4800_iot_kit/common/Libraries/XMCLib/src\xmc_dma.c ****       {
 340:D:/School/diseratie/SEMS/xmc4800_evaluation_kit/xmc4800_iot_kit/common/Libraries/XMCLib/src\xmc_dma.c ****         /* Hardware handshaking interface configuration */
 341:D:/School/diseratie/SEMS/xmc4800_evaluation_kit/xmc4800_iot_kit/common/Libraries/XMCLib/src\xmc_dma.c ****         if ((config->transfer_flow == (uint32_t)XMC_DMA_CH_TRANSFER_FLOW_M2P_DMA) ||
 342:D:/School/diseratie/SEMS/xmc4800_evaluation_kit/xmc4800_iot_kit/common/Libraries/XMCLib/src\xmc_dma.c ****             (config->transfer_flow == (uint32_t)XMC_DMA_CH_TRANSFER_FLOW_P2P_DMA))
 343:D:/School/diseratie/SEMS/xmc4800_evaluation_kit/xmc4800_iot_kit/common/Libraries/XMCLib/src\xmc_dma.c ****         {
 344:D:/School/diseratie/SEMS/xmc4800_evaluation_kit/xmc4800_iot_kit/common/Libraries/XMCLib/src\xmc_dma.c **** #if defined(GPDMA1)
 345:D:/School/diseratie/SEMS/xmc4800_evaluation_kit/xmc4800_iot_kit/common/Libraries/XMCLib/src\xmc_dma.c ****           if (dma == XMC_DMA0)
 346:D:/School/diseratie/SEMS/xmc4800_evaluation_kit/xmc4800_iot_kit/common/Libraries/XMCLib/src\xmc_dma.c ****           {
 347:D:/School/diseratie/SEMS/xmc4800_evaluation_kit/xmc4800_iot_kit/common/Libraries/XMCLib/src\xmc_dma.c **** #endif
 348:D:/School/diseratie/SEMS/xmc4800_evaluation_kit/xmc4800_iot_kit/common/Libraries/XMCLib/src\xmc_dma.c ****             line = config->dst_peripheral_request & GPDMA0_CH_CFGH_PER_Msk;
 349:D:/School/diseratie/SEMS/xmc4800_evaluation_kit/xmc4800_iot_kit/common/Libraries/XMCLib/src\xmc_dma.c **** #if defined(GPDMA1)
 350:D:/School/diseratie/SEMS/xmc4800_evaluation_kit/xmc4800_iot_kit/common/Libraries/XMCLib/src\xmc_dma.c ****           }
 351:D:/School/diseratie/SEMS/xmc4800_evaluation_kit/xmc4800_iot_kit/common/Libraries/XMCLib/src\xmc_dma.c ****           else
 352:D:/School/diseratie/SEMS/xmc4800_evaluation_kit/xmc4800_iot_kit/common/Libraries/XMCLib/src\xmc_dma.c ****           {
 353:D:/School/diseratie/SEMS/xmc4800_evaluation_kit/xmc4800_iot_kit/common/Libraries/XMCLib/src\xmc_dma.c ****             line = config->dst_peripheral_request & GPDMA1_CH_CFGH_PER_Msk;
 354:D:/School/diseratie/SEMS/xmc4800_evaluation_kit/xmc4800_iot_kit/common/Libraries/XMCLib/src\xmc_dma.c ****           }
 355:D:/School/diseratie/SEMS/xmc4800_evaluation_kit/xmc4800_iot_kit/common/Libraries/XMCLib/src\xmc_dma.c **** #endif
 356:D:/School/diseratie/SEMS/xmc4800_evaluation_kit/xmc4800_iot_kit/common/Libraries/XMCLib/src\xmc_dma.c ****           peripheral = config->dst_peripheral_request >> GPDMA_CH_CFGH_PER_BITSIZE;
 357:D:/School/diseratie/SEMS/xmc4800_evaluation_kit/xmc4800_iot_kit/common/Libraries/XMCLib/src\xmc_dma.c **** 
 358:D:/School/diseratie/SEMS/xmc4800_evaluation_kit/xmc4800_iot_kit/common/Libraries/XMCLib/src\xmc_dma.c ****           dma->CH[channel].CFGH |= (uint32_t)((uint32_t)line << GPDMA0_CH_CFGH_DEST_PER_Pos);
 359:D:/School/diseratie/SEMS/xmc4800_evaluation_kit/xmc4800_iot_kit/common/Libraries/XMCLib/src\xmc_dma.c ****           XMC_DMA_EnableRequestLine(dma, line, peripheral);
 360:D:/School/diseratie/SEMS/xmc4800_evaluation_kit/xmc4800_iot_kit/common/Libraries/XMCLib/src\xmc_dma.c ****           dma->CH[channel].CFGL &= (uint32_t)~GPDMA0_CH_CFGL_HS_SEL_DST_Msk;
 361:D:/School/diseratie/SEMS/xmc4800_evaluation_kit/xmc4800_iot_kit/common/Libraries/XMCLib/src\xmc_dma.c ****         }
 362:D:/School/diseratie/SEMS/xmc4800_evaluation_kit/xmc4800_iot_kit/common/Libraries/XMCLib/src\xmc_dma.c ****       }
 363:D:/School/diseratie/SEMS/xmc4800_evaluation_kit/xmc4800_iot_kit/common/Libraries/XMCLib/src\xmc_dma.c **** 
 364:D:/School/diseratie/SEMS/xmc4800_evaluation_kit/xmc4800_iot_kit/common/Libraries/XMCLib/src\xmc_dma.c **** 
 365:D:/School/diseratie/SEMS/xmc4800_evaluation_kit/xmc4800_iot_kit/common/Libraries/XMCLib/src\xmc_dma.c ****       if (config->src_handshaking == XMC_DMA_CH_SRC_HANDSHAKING_HARDWARE)
 366:D:/School/diseratie/SEMS/xmc4800_evaluation_kit/xmc4800_iot_kit/common/Libraries/XMCLib/src\xmc_dma.c ****       {
 367:D:/School/diseratie/SEMS/xmc4800_evaluation_kit/xmc4800_iot_kit/common/Libraries/XMCLib/src\xmc_dma.c ****         if ((config->transfer_flow == (uint32_t)XMC_DMA_CH_TRANSFER_FLOW_P2M_DMA) ||
 368:D:/School/diseratie/SEMS/xmc4800_evaluation_kit/xmc4800_iot_kit/common/Libraries/XMCLib/src\xmc_dma.c ****             (config->transfer_flow == (uint32_t)XMC_DMA_CH_TRANSFER_FLOW_P2P_DMA))
 369:D:/School/diseratie/SEMS/xmc4800_evaluation_kit/xmc4800_iot_kit/common/Libraries/XMCLib/src\xmc_dma.c ****         {
 370:D:/School/diseratie/SEMS/xmc4800_evaluation_kit/xmc4800_iot_kit/common/Libraries/XMCLib/src\xmc_dma.c **** #if defined(GPDMA1)
 371:D:/School/diseratie/SEMS/xmc4800_evaluation_kit/xmc4800_iot_kit/common/Libraries/XMCLib/src\xmc_dma.c ****           if (dma == XMC_DMA0)
 372:D:/School/diseratie/SEMS/xmc4800_evaluation_kit/xmc4800_iot_kit/common/Libraries/XMCLib/src\xmc_dma.c ****           {
 373:D:/School/diseratie/SEMS/xmc4800_evaluation_kit/xmc4800_iot_kit/common/Libraries/XMCLib/src\xmc_dma.c **** #endif
 374:D:/School/diseratie/SEMS/xmc4800_evaluation_kit/xmc4800_iot_kit/common/Libraries/XMCLib/src\xmc_dma.c ****             line = config->src_peripheral_request & GPDMA0_CH_CFGH_PER_Msk;
 375:D:/School/diseratie/SEMS/xmc4800_evaluation_kit/xmc4800_iot_kit/common/Libraries/XMCLib/src\xmc_dma.c **** #if defined(GPDMA1)
 376:D:/School/diseratie/SEMS/xmc4800_evaluation_kit/xmc4800_iot_kit/common/Libraries/XMCLib/src\xmc_dma.c ****           }
 377:D:/School/diseratie/SEMS/xmc4800_evaluation_kit/xmc4800_iot_kit/common/Libraries/XMCLib/src\xmc_dma.c ****           else
 378:D:/School/diseratie/SEMS/xmc4800_evaluation_kit/xmc4800_iot_kit/common/Libraries/XMCLib/src\xmc_dma.c ****           {
 379:D:/School/diseratie/SEMS/xmc4800_evaluation_kit/xmc4800_iot_kit/common/Libraries/XMCLib/src\xmc_dma.c ****             line = config->src_peripheral_request & GPDMA1_CH_CFGH_PER_Msk;
 380:D:/School/diseratie/SEMS/xmc4800_evaluation_kit/xmc4800_iot_kit/common/Libraries/XMCLib/src\xmc_dma.c ****           }
 381:D:/School/diseratie/SEMS/xmc4800_evaluation_kit/xmc4800_iot_kit/common/Libraries/XMCLib/src\xmc_dma.c **** #endif
 382:D:/School/diseratie/SEMS/xmc4800_evaluation_kit/xmc4800_iot_kit/common/Libraries/XMCLib/src\xmc_dma.c ****           peripheral = config->src_peripheral_request >> GPDMA_CH_CFGH_PER_BITSIZE;
 383:D:/School/diseratie/SEMS/xmc4800_evaluation_kit/xmc4800_iot_kit/common/Libraries/XMCLib/src\xmc_dma.c **** 
 384:D:/School/diseratie/SEMS/xmc4800_evaluation_kit/xmc4800_iot_kit/common/Libraries/XMCLib/src\xmc_dma.c ****           dma->CH[channel].CFGH |= (uint32_t)((uint32_t)line << GPDMA0_CH_CFGH_SRC_PER_Pos);
 385:D:/School/diseratie/SEMS/xmc4800_evaluation_kit/xmc4800_iot_kit/common/Libraries/XMCLib/src\xmc_dma.c ****           XMC_DMA_EnableRequestLine(dma, line, peripheral);
 386:D:/School/diseratie/SEMS/xmc4800_evaluation_kit/xmc4800_iot_kit/common/Libraries/XMCLib/src\xmc_dma.c ****           dma->CH[channel].CFGL &= (uint32_t)~GPDMA0_CH_CFGL_HS_SEL_SRC_Msk;
 387:D:/School/diseratie/SEMS/xmc4800_evaluation_kit/xmc4800_iot_kit/common/Libraries/XMCLib/src\xmc_dma.c ****         }
 388:D:/School/diseratie/SEMS/xmc4800_evaluation_kit/xmc4800_iot_kit/common/Libraries/XMCLib/src\xmc_dma.c ****       }
 389:D:/School/diseratie/SEMS/xmc4800_evaluation_kit/xmc4800_iot_kit/common/Libraries/XMCLib/src\xmc_dma.c ****       
 390:D:/School/diseratie/SEMS/xmc4800_evaluation_kit/xmc4800_iot_kit/common/Libraries/XMCLib/src\xmc_dma.c ****       XMC_DMA_CH_ClearEventStatus(dma, channel, (uint32_t)((uint32_t)XMC_DMA_CH_EVENT_TRANSFER_COMP
 391:D:/School/diseratie/SEMS/xmc4800_evaluation_kit/xmc4800_iot_kit/common/Libraries/XMCLib/src\xmc_dma.c ****                                                            (uint32_t)XMC_DMA_CH_EVENT_BLOCK_TRANSFE
 392:D:/School/diseratie/SEMS/xmc4800_evaluation_kit/xmc4800_iot_kit/common/Libraries/XMCLib/src\xmc_dma.c ****                                                            (uint32_t)XMC_DMA_CH_EVENT_SRC_TRANSACTI
 393:D:/School/diseratie/SEMS/xmc4800_evaluation_kit/xmc4800_iot_kit/common/Libraries/XMCLib/src\xmc_dma.c ****                                                            (uint32_t)XMC_DMA_CH_EVENT_DST_TRANSACTI
 394:D:/School/diseratie/SEMS/xmc4800_evaluation_kit/xmc4800_iot_kit/common/Libraries/XMCLib/src\xmc_dma.c ****                                                            (uint32_t)XMC_DMA_CH_EVENT_ERROR));
 395:D:/School/diseratie/SEMS/xmc4800_evaluation_kit/xmc4800_iot_kit/common/Libraries/XMCLib/src\xmc_dma.c **** 
 396:D:/School/diseratie/SEMS/xmc4800_evaluation_kit/xmc4800_iot_kit/common/Libraries/XMCLib/src\xmc_dma.c ****       switch (config->transfer_type)
 397:D:/School/diseratie/SEMS/xmc4800_evaluation_kit/xmc4800_iot_kit/common/Libraries/XMCLib/src\xmc_dma.c ****       {
 398:D:/School/diseratie/SEMS/xmc4800_evaluation_kit/xmc4800_iot_kit/common/Libraries/XMCLib/src\xmc_dma.c ****         case XMC_DMA_CH_TRANSFER_TYPE_SINGLE_BLOCK:
 399:D:/School/diseratie/SEMS/xmc4800_evaluation_kit/xmc4800_iot_kit/common/Libraries/XMCLib/src\xmc_dma.c ****           break;
 400:D:/School/diseratie/SEMS/xmc4800_evaluation_kit/xmc4800_iot_kit/common/Libraries/XMCLib/src\xmc_dma.c **** 
 401:D:/School/diseratie/SEMS/xmc4800_evaluation_kit/xmc4800_iot_kit/common/Libraries/XMCLib/src\xmc_dma.c ****         case XMC_DMA_CH_TRANSFER_TYPE_MULTI_BLOCK_SRCADR_CONTIGUOUS_DSTADR_RELOAD:
 402:D:/School/diseratie/SEMS/xmc4800_evaluation_kit/xmc4800_iot_kit/common/Libraries/XMCLib/src\xmc_dma.c ****           dma->CH[channel].CFGL |= (uint32_t)GPDMA0_CH_CFGL_RELOAD_DST_Msk;
 403:D:/School/diseratie/SEMS/xmc4800_evaluation_kit/xmc4800_iot_kit/common/Libraries/XMCLib/src\xmc_dma.c ****           break;
 404:D:/School/diseratie/SEMS/xmc4800_evaluation_kit/xmc4800_iot_kit/common/Libraries/XMCLib/src\xmc_dma.c **** 
 405:D:/School/diseratie/SEMS/xmc4800_evaluation_kit/xmc4800_iot_kit/common/Libraries/XMCLib/src\xmc_dma.c ****         case XMC_DMA_CH_TRANSFER_TYPE_MULTI_BLOCK_SRCADR_RELOAD_DSTADR_CONTIGUOUS:
 406:D:/School/diseratie/SEMS/xmc4800_evaluation_kit/xmc4800_iot_kit/common/Libraries/XMCLib/src\xmc_dma.c ****           dma->CH[channel].CFGL |= (uint32_t)GPDMA0_CH_CFGL_RELOAD_SRC_Msk;
 407:D:/School/diseratie/SEMS/xmc4800_evaluation_kit/xmc4800_iot_kit/common/Libraries/XMCLib/src\xmc_dma.c ****           break;
 408:D:/School/diseratie/SEMS/xmc4800_evaluation_kit/xmc4800_iot_kit/common/Libraries/XMCLib/src\xmc_dma.c **** 
 409:D:/School/diseratie/SEMS/xmc4800_evaluation_kit/xmc4800_iot_kit/common/Libraries/XMCLib/src\xmc_dma.c ****         case XMC_DMA_CH_TRANSFER_TYPE_MULTI_BLOCK_SRCADR_RELOAD_DSTADR_RELOAD:
 410:D:/School/diseratie/SEMS/xmc4800_evaluation_kit/xmc4800_iot_kit/common/Libraries/XMCLib/src\xmc_dma.c ****           dma->CH[channel].CFGL |= (uint32_t)((uint32_t)GPDMA0_CH_CFGL_RELOAD_DST_Msk |
 411:D:/School/diseratie/SEMS/xmc4800_evaluation_kit/xmc4800_iot_kit/common/Libraries/XMCLib/src\xmc_dma.c ****                                               (uint32_t)GPDMA0_CH_CFGL_RELOAD_SRC_Msk);
 412:D:/School/diseratie/SEMS/xmc4800_evaluation_kit/xmc4800_iot_kit/common/Libraries/XMCLib/src\xmc_dma.c ****           break;
 413:D:/School/diseratie/SEMS/xmc4800_evaluation_kit/xmc4800_iot_kit/common/Libraries/XMCLib/src\xmc_dma.c **** 
 414:D:/School/diseratie/SEMS/xmc4800_evaluation_kit/xmc4800_iot_kit/common/Libraries/XMCLib/src\xmc_dma.c ****         case XMC_DMA_CH_TRANSFER_TYPE_MULTI_BLOCK_SRCADR_CONTIGUOUS_DSTADR_LINKED:
 415:D:/School/diseratie/SEMS/xmc4800_evaluation_kit/xmc4800_iot_kit/common/Libraries/XMCLib/src\xmc_dma.c ****           dma->CH[channel].CTLL |= (uint32_t)GPDMA0_CH_CTLL_LLP_DST_EN_Msk;
 416:D:/School/diseratie/SEMS/xmc4800_evaluation_kit/xmc4800_iot_kit/common/Libraries/XMCLib/src\xmc_dma.c ****           break;
 417:D:/School/diseratie/SEMS/xmc4800_evaluation_kit/xmc4800_iot_kit/common/Libraries/XMCLib/src\xmc_dma.c **** 
 418:D:/School/diseratie/SEMS/xmc4800_evaluation_kit/xmc4800_iot_kit/common/Libraries/XMCLib/src\xmc_dma.c ****         case XMC_DMA_CH_TRANSFER_TYPE_MULTI_BLOCK_SRCADR_RELOAD_DSTADR_LINKED:
 419:D:/School/diseratie/SEMS/xmc4800_evaluation_kit/xmc4800_iot_kit/common/Libraries/XMCLib/src\xmc_dma.c ****           dma->CH[channel].CFGL |= (uint32_t)GPDMA0_CH_CFGL_RELOAD_SRC_Msk;
 420:D:/School/diseratie/SEMS/xmc4800_evaluation_kit/xmc4800_iot_kit/common/Libraries/XMCLib/src\xmc_dma.c ****           dma->CH[channel].CTLL |= (uint32_t)GPDMA0_CH_CTLL_LLP_DST_EN_Msk;
 421:D:/School/diseratie/SEMS/xmc4800_evaluation_kit/xmc4800_iot_kit/common/Libraries/XMCLib/src\xmc_dma.c ****           break;
 422:D:/School/diseratie/SEMS/xmc4800_evaluation_kit/xmc4800_iot_kit/common/Libraries/XMCLib/src\xmc_dma.c **** 
 423:D:/School/diseratie/SEMS/xmc4800_evaluation_kit/xmc4800_iot_kit/common/Libraries/XMCLib/src\xmc_dma.c ****         case XMC_DMA_CH_TRANSFER_TYPE_MULTI_BLOCK_SRCADR_LINKED_DSTADR_CONTIGUOUS:
 424:D:/School/diseratie/SEMS/xmc4800_evaluation_kit/xmc4800_iot_kit/common/Libraries/XMCLib/src\xmc_dma.c ****           dma->CH[channel].CTLL |= (uint32_t)GPDMA0_CH_CTLL_LLP_SRC_EN_Msk;
 425:D:/School/diseratie/SEMS/xmc4800_evaluation_kit/xmc4800_iot_kit/common/Libraries/XMCLib/src\xmc_dma.c ****           break;
 426:D:/School/diseratie/SEMS/xmc4800_evaluation_kit/xmc4800_iot_kit/common/Libraries/XMCLib/src\xmc_dma.c **** 
 427:D:/School/diseratie/SEMS/xmc4800_evaluation_kit/xmc4800_iot_kit/common/Libraries/XMCLib/src\xmc_dma.c ****         case XMC_DMA_CH_TRANSFER_TYPE_MULTI_BLOCK_SRCADR_LINKED_DSTADR_RELOAD:
 428:D:/School/diseratie/SEMS/xmc4800_evaluation_kit/xmc4800_iot_kit/common/Libraries/XMCLib/src\xmc_dma.c ****           dma->CH[channel].CFGL |= (uint32_t)GPDMA0_CH_CFGL_RELOAD_DST_Msk;
 429:D:/School/diseratie/SEMS/xmc4800_evaluation_kit/xmc4800_iot_kit/common/Libraries/XMCLib/src\xmc_dma.c ****           dma->CH[channel].CTLL |= (uint32_t)GPDMA0_CH_CTLL_LLP_SRC_EN_Msk;
 430:D:/School/diseratie/SEMS/xmc4800_evaluation_kit/xmc4800_iot_kit/common/Libraries/XMCLib/src\xmc_dma.c ****           break;
 431:D:/School/diseratie/SEMS/xmc4800_evaluation_kit/xmc4800_iot_kit/common/Libraries/XMCLib/src\xmc_dma.c **** 
 432:D:/School/diseratie/SEMS/xmc4800_evaluation_kit/xmc4800_iot_kit/common/Libraries/XMCLib/src\xmc_dma.c ****         case XMC_DMA_CH_TRANSFER_TYPE_MULTI_BLOCK_SRCADR_LINKED_DSTADR_LINKED:
 433:D:/School/diseratie/SEMS/xmc4800_evaluation_kit/xmc4800_iot_kit/common/Libraries/XMCLib/src\xmc_dma.c ****           dma->CH[channel].CTLL |= (uint32_t)((uint32_t)GPDMA0_CH_CTLL_LLP_SRC_EN_Msk |
 434:D:/School/diseratie/SEMS/xmc4800_evaluation_kit/xmc4800_iot_kit/common/Libraries/XMCLib/src\xmc_dma.c ****                                               (uint32_t)GPDMA0_CH_CTLL_LLP_DST_EN_Msk);
 435:D:/School/diseratie/SEMS/xmc4800_evaluation_kit/xmc4800_iot_kit/common/Libraries/XMCLib/src\xmc_dma.c ****           break;
 436:D:/School/diseratie/SEMS/xmc4800_evaluation_kit/xmc4800_iot_kit/common/Libraries/XMCLib/src\xmc_dma.c **** 
 437:D:/School/diseratie/SEMS/xmc4800_evaluation_kit/xmc4800_iot_kit/common/Libraries/XMCLib/src\xmc_dma.c ****         default:
 438:D:/School/diseratie/SEMS/xmc4800_evaluation_kit/xmc4800_iot_kit/common/Libraries/XMCLib/src\xmc_dma.c ****           break;
 439:D:/School/diseratie/SEMS/xmc4800_evaluation_kit/xmc4800_iot_kit/common/Libraries/XMCLib/src\xmc_dma.c ****       }
 440:D:/School/diseratie/SEMS/xmc4800_evaluation_kit/xmc4800_iot_kit/common/Libraries/XMCLib/src\xmc_dma.c **** 
 441:D:/School/diseratie/SEMS/xmc4800_evaluation_kit/xmc4800_iot_kit/common/Libraries/XMCLib/src\xmc_dma.c ****       status = XMC_DMA_CH_STATUS_OK;
 442:D:/School/diseratie/SEMS/xmc4800_evaluation_kit/xmc4800_iot_kit/common/Libraries/XMCLib/src\xmc_dma.c **** 
 443:D:/School/diseratie/SEMS/xmc4800_evaluation_kit/xmc4800_iot_kit/common/Libraries/XMCLib/src\xmc_dma.c ****     }
 444:D:/School/diseratie/SEMS/xmc4800_evaluation_kit/xmc4800_iot_kit/common/Libraries/XMCLib/src\xmc_dma.c ****     else
 445:D:/School/diseratie/SEMS/xmc4800_evaluation_kit/xmc4800_iot_kit/common/Libraries/XMCLib/src\xmc_dma.c ****     {
 446:D:/School/diseratie/SEMS/xmc4800_evaluation_kit/xmc4800_iot_kit/common/Libraries/XMCLib/src\xmc_dma.c ****       status = XMC_DMA_CH_STATUS_BUSY;
 447:D:/School/diseratie/SEMS/xmc4800_evaluation_kit/xmc4800_iot_kit/common/Libraries/XMCLib/src\xmc_dma.c ****     }
 448:D:/School/diseratie/SEMS/xmc4800_evaluation_kit/xmc4800_iot_kit/common/Libraries/XMCLib/src\xmc_dma.c ****   }
 449:D:/School/diseratie/SEMS/xmc4800_evaluation_kit/xmc4800_iot_kit/common/Libraries/XMCLib/src\xmc_dma.c ****   else 
 450:D:/School/diseratie/SEMS/xmc4800_evaluation_kit/xmc4800_iot_kit/common/Libraries/XMCLib/src\xmc_dma.c ****   {
 451:D:/School/diseratie/SEMS/xmc4800_evaluation_kit/xmc4800_iot_kit/common/Libraries/XMCLib/src\xmc_dma.c ****     status = XMC_DMA_CH_STATUS_ERROR;
 698              	 .loc 1 451 0
 699 0016 0120     	 movs r0,#1
 700              	.LVL70:
 701 0018 F8BD     	 pop {r3,r4,r5,r6,r7,pc}
 702              	.LVL71:
 703              	.L103:
 704              	.LBB64:
 705              	.LBB61:
 187:D:/School/diseratie/SEMS/xmc4800_evaluation_kit/xmc4800_iot_kit/common/Libraries/XMCLib/src\xmc_dma.c **** #endif
 706              	 .loc 1 187 0
 707 001a 9C48     	 ldr r0,.L110+4
 708              	.LVL72:
 709 001c FFF7FEFF 	 bl XMC_SCU_CLOCK_IsPeripheralClockGated
 710              	.LVL73:
 711 0020 80F00100 	 eor r0,r0,#1
 712 0024 C0B2     	 uxtb r0,r0
 713              	.L74:
 714              	.LVL74:
 193:D:/School/diseratie/SEMS/xmc4800_evaluation_kit/xmc4800_iot_kit/common/Libraries/XMCLib/src\xmc_dma.c ****   {
 715              	 .loc 1 193 0
 716 0026 0028     	 cmp r0,#0
 717 0028 F5D0     	 beq .L99
 195:D:/School/diseratie/SEMS/xmc4800_evaluation_kit/xmc4800_iot_kit/common/Libraries/XMCLib/src\xmc_dma.c ****   }
 718              	 .loc 1 195 0
 719 002a D4F89833 	 ldr r3,[r4,#920]
 720              	.LVL75:
 721              	.LBE61:
 722              	.LBE64:
 317:D:/School/diseratie/SEMS/xmc4800_evaluation_kit/xmc4800_iot_kit/common/Libraries/XMCLib/src\xmc_dma.c ****   {
 723              	 .loc 1 317 0
 724 002e 002B     	 cmp r3,#0
 725 0030 F1D0     	 beq .L99
 726              	.LVL76:
 727              	.LBB65:
 728              	.LBB66:
 307:D:/School/diseratie/SEMS/xmc4800_evaluation_kit/xmc4800_iot_kit/common/Libraries/XMCLib/src\xmc_dma.c **** }
 729              	 .loc 1 307 0
 730 0032 D4F8A033 	 ldr r3,[r4,#928]
 731              	.LVL77:
 732 0036 F340     	 lsrs r3,r3,r6
 733              	.LBE66:
 734              	.LBE65:
 319:D:/School/diseratie/SEMS/xmc4800_evaluation_kit/xmc4800_iot_kit/common/Libraries/XMCLib/src\xmc_dma.c ****     {
 735              	 .loc 1 319 0
 736 0038 DB07     	 lsls r3,r3,#31
 737 003a 01D5     	 bpl .L104
 446:D:/School/diseratie/SEMS/xmc4800_evaluation_kit/xmc4800_iot_kit/common/Libraries/XMCLib/src\xmc_dma.c ****     }
 738              	 .loc 1 446 0
 739 003c 0220     	 movs r0,#2
 740 003e F8BD     	 pop {r3,r4,r5,r6,r7,pc}
 741              	.LVL78:
 742              	.L104:
 321:D:/School/diseratie/SEMS/xmc4800_evaluation_kit/xmc4800_iot_kit/common/Libraries/XMCLib/src\xmc_dma.c ****       dma->CH[channel].DAR = config->dst_addr;
 743              	 .loc 1 321 0
 744 0040 5822     	 movs r2,#88
 745 0042 02FB06F2 	 mul r2,r2,r6
 746 0046 6968     	 ldr r1,[r5,#4]
 747 0048 A150     	 str r1,[r4,r2]
 748 004a A318     	 adds r3,r4,r2
 322:D:/School/diseratie/SEMS/xmc4800_evaluation_kit/xmc4800_iot_kit/common/Libraries/XMCLib/src\xmc_dma.c ****       dma->CH[channel].LLP = (uint32_t)config->linked_list_pointer;
 749              	 .loc 1 322 0
 750 004c A968     	 ldr r1,[r5,#8]
 327:D:/School/diseratie/SEMS/xmc4800_evaluation_kit/xmc4800_iot_kit/common/Libraries/XMCLib/src\xmc_dma.c ****                                          (uint32_t)GPDMA0_CH_CFGL_HS_SEL_SRC_Msk |
 751              	 .loc 1 327 0
 752 004e EA7E     	 ldrb r2,[r5,#27]
 323:D:/School/diseratie/SEMS/xmc4800_evaluation_kit/xmc4800_iot_kit/common/Libraries/XMCLib/src\xmc_dma.c ****       dma->CH[channel].CTLH = (uint32_t)config->block_size;
 753              	 .loc 1 323 0
 754 0050 D5F80CE0 	 ldr lr,[r5,#12]
 324:D:/School/diseratie/SEMS/xmc4800_evaluation_kit/xmc4800_iot_kit/common/Libraries/XMCLib/src\xmc_dma.c ****       dma->CH[channel].CTLL = config->control;
 755              	 .loc 1 324 0
 756 0054 2F8B     	 ldrh r7,[r5,#24]
 322:D:/School/diseratie/SEMS/xmc4800_evaluation_kit/xmc4800_iot_kit/common/Libraries/XMCLib/src\xmc_dma.c ****       dma->CH[channel].LLP = (uint32_t)config->linked_list_pointer;
 757              	 .loc 1 322 0
 758 0056 9960     	 str r1,[r3,#8]
 331:D:/School/diseratie/SEMS/xmc4800_evaluation_kit/xmc4800_iot_kit/common/Libraries/XMCLib/src\xmc_dma.c ****       {
 759              	 .loc 1 331 0
 760 0058 8B49     	 ldr r1,.L110
 323:D:/School/diseratie/SEMS/xmc4800_evaluation_kit/xmc4800_iot_kit/common/Libraries/XMCLib/src\xmc_dma.c ****       dma->CH[channel].CTLH = (uint32_t)config->block_size;
 761              	 .loc 1 323 0
 762 005a C3F810E0 	 str lr,[r3,#16]
 324:D:/School/diseratie/SEMS/xmc4800_evaluation_kit/xmc4800_iot_kit/common/Libraries/XMCLib/src\xmc_dma.c ****       dma->CH[channel].CTLL = config->control;
 763              	 .loc 1 324 0
 764 005e DF61     	 str r7,[r3,#28]
 325:D:/School/diseratie/SEMS/xmc4800_evaluation_kit/xmc4800_iot_kit/common/Libraries/XMCLib/src\xmc_dma.c **** 
 765              	 .loc 1 325 0
 766 0060 2868     	 ldr r0,[r5]
 767 0062 9861     	 str r0,[r3,#24]
 327:D:/School/diseratie/SEMS/xmc4800_evaluation_kit/xmc4800_iot_kit/common/Libraries/XMCLib/src\xmc_dma.c ****                                          (uint32_t)GPDMA0_CH_CFGL_HS_SEL_SRC_Msk |
 768              	 .loc 1 327 0
 769 0064 42F44062 	 orr r2,r2,#3072
 331:D:/School/diseratie/SEMS/xmc4800_evaluation_kit/xmc4800_iot_kit/common/Libraries/XMCLib/src\xmc_dma.c ****       {
 770              	 .loc 1 331 0
 771 0068 8C42     	 cmp r4,r1
 327:D:/School/diseratie/SEMS/xmc4800_evaluation_kit/xmc4800_iot_kit/common/Libraries/XMCLib/src\xmc_dma.c ****                                          (uint32_t)GPDMA0_CH_CFGL_HS_SEL_SRC_Msk |
 772              	 .loc 1 327 0
 773 006a 1A64     	 str r2,[r3,#64]
 331:D:/School/diseratie/SEMS/xmc4800_evaluation_kit/xmc4800_iot_kit/common/Libraries/XMCLib/src\xmc_dma.c ****       {
 774              	 .loc 1 331 0
 775 006c 2FD0     	 beq .L105
 776              	.L77:
 338:D:/School/diseratie/SEMS/xmc4800_evaluation_kit/xmc4800_iot_kit/common/Libraries/XMCLib/src\xmc_dma.c ****       {
 777              	 .loc 1 338 0
 778 006e 2B8C     	 ldrh r3,[r5,#32]
 779 0070 23B9     	 cbnz r3,.L78
 341:D:/School/diseratie/SEMS/xmc4800_evaluation_kit/xmc4800_iot_kit/common/Libraries/XMCLib/src\xmc_dma.c ****             (config->transfer_flow == (uint32_t)XMC_DMA_CH_TRANSFER_FLOW_P2P_DMA))
 780              	 .loc 1 341 0
 781 0072 AB78     	 ldrb r3,[r5,#2]
 782 0074 03F05003 	 and r3,r3,#80
 783 0078 102B     	 cmp r3,#16
 784 007a 2FD0     	 beq .L106
 785              	.L78:
 365:D:/School/diseratie/SEMS/xmc4800_evaluation_kit/xmc4800_iot_kit/common/Libraries/XMCLib/src\xmc_dma.c ****       {
 786              	 .loc 1 365 0
 787 007c AB8B     	 ldrh r3,[r5,#28]
 788 007e 23B9     	 cbnz r3,.L81
 367:D:/School/diseratie/SEMS/xmc4800_evaluation_kit/xmc4800_iot_kit/common/Libraries/XMCLib/src\xmc_dma.c ****             (config->transfer_flow == (uint32_t)XMC_DMA_CH_TRANSFER_FLOW_P2P_DMA))
 789              	 .loc 1 367 0
 790 0080 AB78     	 ldrb r3,[r5,#2]
 791 0082 03F06003 	 and r3,r3,#96
 792 0086 202B     	 cmp r3,#32
 793 0088 53D0     	 beq .L107
 794              	.L81:
 795              	.LVL79:
 396:D:/School/diseratie/SEMS/xmc4800_evaluation_kit/xmc4800_iot_kit/common/Libraries/XMCLib/src\xmc_dma.c ****       {
 796              	 .loc 1 396 0
 797 008a AA7E     	 ldrb r2,[r5,#26]
 798              	.LBB67:
 799              	.LBB68:
 452:D:/School/diseratie/SEMS/xmc4800_evaluation_kit/xmc4800_iot_kit/common/Libraries/XMCLib/src\xmc_dma.c ****   }
 453:D:/School/diseratie/SEMS/xmc4800_evaluation_kit/xmc4800_iot_kit/common/Libraries/XMCLib/src\xmc_dma.c ****   
 454:D:/School/diseratie/SEMS/xmc4800_evaluation_kit/xmc4800_iot_kit/common/Libraries/XMCLib/src\xmc_dma.c ****   return status;
 455:D:/School/diseratie/SEMS/xmc4800_evaluation_kit/xmc4800_iot_kit/common/Libraries/XMCLib/src\xmc_dma.c **** }
 456:D:/School/diseratie/SEMS/xmc4800_evaluation_kit/xmc4800_iot_kit/common/Libraries/XMCLib/src\xmc_dma.c **** 
 457:D:/School/diseratie/SEMS/xmc4800_evaluation_kit/xmc4800_iot_kit/common/Libraries/XMCLib/src\xmc_dma.c **** /* Suspend DMA channel transfer */
 458:D:/School/diseratie/SEMS/xmc4800_evaluation_kit/xmc4800_iot_kit/common/Libraries/XMCLib/src\xmc_dma.c **** void XMC_DMA_CH_Suspend(XMC_DMA_t *const dma, const uint8_t channel)
 459:D:/School/diseratie/SEMS/xmc4800_evaluation_kit/xmc4800_iot_kit/common/Libraries/XMCLib/src\xmc_dma.c **** {
 460:D:/School/diseratie/SEMS/xmc4800_evaluation_kit/xmc4800_iot_kit/common/Libraries/XMCLib/src\xmc_dma.c ****   dma->CH[channel].CFGL |= (uint32_t)GPDMA0_CH_CFGL_CH_SUSP_Msk;
 461:D:/School/diseratie/SEMS/xmc4800_evaluation_kit/xmc4800_iot_kit/common/Libraries/XMCLib/src\xmc_dma.c **** }
 462:D:/School/diseratie/SEMS/xmc4800_evaluation_kit/xmc4800_iot_kit/common/Libraries/XMCLib/src\xmc_dma.c **** 
 463:D:/School/diseratie/SEMS/xmc4800_evaluation_kit/xmc4800_iot_kit/common/Libraries/XMCLib/src\xmc_dma.c **** /* Resume DMA channel transfer */
 464:D:/School/diseratie/SEMS/xmc4800_evaluation_kit/xmc4800_iot_kit/common/Libraries/XMCLib/src\xmc_dma.c **** void XMC_DMA_CH_Resume(XMC_DMA_t *const dma, const uint8_t channel)
 465:D:/School/diseratie/SEMS/xmc4800_evaluation_kit/xmc4800_iot_kit/common/Libraries/XMCLib/src\xmc_dma.c **** {
 466:D:/School/diseratie/SEMS/xmc4800_evaluation_kit/xmc4800_iot_kit/common/Libraries/XMCLib/src\xmc_dma.c ****   dma->CH[channel].CFGL &= (uint32_t)~GPDMA0_CH_CFGL_CH_SUSP_Msk;
 467:D:/School/diseratie/SEMS/xmc4800_evaluation_kit/xmc4800_iot_kit/common/Libraries/XMCLib/src\xmc_dma.c **** }
 468:D:/School/diseratie/SEMS/xmc4800_evaluation_kit/xmc4800_iot_kit/common/Libraries/XMCLib/src\xmc_dma.c **** 
 469:D:/School/diseratie/SEMS/xmc4800_evaluation_kit/xmc4800_iot_kit/common/Libraries/XMCLib/src\xmc_dma.c **** /* Check if a DMA channel is suspended */
 470:D:/School/diseratie/SEMS/xmc4800_evaluation_kit/xmc4800_iot_kit/common/Libraries/XMCLib/src\xmc_dma.c **** bool XMC_DMA_CH_IsSuspended(XMC_DMA_t *const dma, const uint8_t channel)
 471:D:/School/diseratie/SEMS/xmc4800_evaluation_kit/xmc4800_iot_kit/common/Libraries/XMCLib/src\xmc_dma.c **** {
 472:D:/School/diseratie/SEMS/xmc4800_evaluation_kit/xmc4800_iot_kit/common/Libraries/XMCLib/src\xmc_dma.c ****   return (bool)(dma->CH[channel].CFGL & (uint32_t)GPDMA0_CH_CFGL_CH_SUSP_Msk);
 473:D:/School/diseratie/SEMS/xmc4800_evaluation_kit/xmc4800_iot_kit/common/Libraries/XMCLib/src\xmc_dma.c **** }
 474:D:/School/diseratie/SEMS/xmc4800_evaluation_kit/xmc4800_iot_kit/common/Libraries/XMCLib/src\xmc_dma.c **** 
 475:D:/School/diseratie/SEMS/xmc4800_evaluation_kit/xmc4800_iot_kit/common/Libraries/XMCLib/src\xmc_dma.c **** /* Enable GPDMA event */
 476:D:/School/diseratie/SEMS/xmc4800_evaluation_kit/xmc4800_iot_kit/common/Libraries/XMCLib/src\xmc_dma.c **** void XMC_DMA_CH_EnableEvent(XMC_DMA_t *const dma, const uint8_t channel, const uint32_t event)
 477:D:/School/diseratie/SEMS/xmc4800_evaluation_kit/xmc4800_iot_kit/common/Libraries/XMCLib/src\xmc_dma.c **** {
 478:D:/School/diseratie/SEMS/xmc4800_evaluation_kit/xmc4800_iot_kit/common/Libraries/XMCLib/src\xmc_dma.c ****   uint32_t event_idx;
 479:D:/School/diseratie/SEMS/xmc4800_evaluation_kit/xmc4800_iot_kit/common/Libraries/XMCLib/src\xmc_dma.c **** 
 480:D:/School/diseratie/SEMS/xmc4800_evaluation_kit/xmc4800_iot_kit/common/Libraries/XMCLib/src\xmc_dma.c ****   for(event_idx = 0UL; event_idx < DMA_EVENT_MAX; ++event_idx)
 481:D:/School/diseratie/SEMS/xmc4800_evaluation_kit/xmc4800_iot_kit/common/Libraries/XMCLib/src\xmc_dma.c ****   {
 482:D:/School/diseratie/SEMS/xmc4800_evaluation_kit/xmc4800_iot_kit/common/Libraries/XMCLib/src\xmc_dma.c ****     if (event & ((uint32_t)0x1UL << event_idx))
 483:D:/School/diseratie/SEMS/xmc4800_evaluation_kit/xmc4800_iot_kit/common/Libraries/XMCLib/src\xmc_dma.c ****     {
 484:D:/School/diseratie/SEMS/xmc4800_evaluation_kit/xmc4800_iot_kit/common/Libraries/XMCLib/src\xmc_dma.c ****       dma->MASKCHEV[event_idx * 2UL] = ((uint32_t)0x101UL << channel);
 485:D:/School/diseratie/SEMS/xmc4800_evaluation_kit/xmc4800_iot_kit/common/Libraries/XMCLib/src\xmc_dma.c ****     }
 486:D:/School/diseratie/SEMS/xmc4800_evaluation_kit/xmc4800_iot_kit/common/Libraries/XMCLib/src\xmc_dma.c ****   }
 487:D:/School/diseratie/SEMS/xmc4800_evaluation_kit/xmc4800_iot_kit/common/Libraries/XMCLib/src\xmc_dma.c **** }
 488:D:/School/diseratie/SEMS/xmc4800_evaluation_kit/xmc4800_iot_kit/common/Libraries/XMCLib/src\xmc_dma.c **** 
 489:D:/School/diseratie/SEMS/xmc4800_evaluation_kit/xmc4800_iot_kit/common/Libraries/XMCLib/src\xmc_dma.c **** /* Disable GPDMA event */
 490:D:/School/diseratie/SEMS/xmc4800_evaluation_kit/xmc4800_iot_kit/common/Libraries/XMCLib/src\xmc_dma.c **** void XMC_DMA_CH_DisableEvent(XMC_DMA_t *const dma, const uint8_t channel, const uint32_t event)
 491:D:/School/diseratie/SEMS/xmc4800_evaluation_kit/xmc4800_iot_kit/common/Libraries/XMCLib/src\xmc_dma.c **** {
 492:D:/School/diseratie/SEMS/xmc4800_evaluation_kit/xmc4800_iot_kit/common/Libraries/XMCLib/src\xmc_dma.c ****   uint32_t event_idx;
 493:D:/School/diseratie/SEMS/xmc4800_evaluation_kit/xmc4800_iot_kit/common/Libraries/XMCLib/src\xmc_dma.c **** 
 494:D:/School/diseratie/SEMS/xmc4800_evaluation_kit/xmc4800_iot_kit/common/Libraries/XMCLib/src\xmc_dma.c ****   for(event_idx = 0UL; event_idx < DMA_EVENT_MAX; ++event_idx)
 495:D:/School/diseratie/SEMS/xmc4800_evaluation_kit/xmc4800_iot_kit/common/Libraries/XMCLib/src\xmc_dma.c ****   {
 496:D:/School/diseratie/SEMS/xmc4800_evaluation_kit/xmc4800_iot_kit/common/Libraries/XMCLib/src\xmc_dma.c ****     if (event & ((uint32_t)0x1UL << event_idx))
 497:D:/School/diseratie/SEMS/xmc4800_evaluation_kit/xmc4800_iot_kit/common/Libraries/XMCLib/src\xmc_dma.c ****     {
 498:D:/School/diseratie/SEMS/xmc4800_evaluation_kit/xmc4800_iot_kit/common/Libraries/XMCLib/src\xmc_dma.c ****       dma->MASKCHEV[event_idx * 2UL] = ((uint32_t)0x100UL << channel);
 499:D:/School/diseratie/SEMS/xmc4800_evaluation_kit/xmc4800_iot_kit/common/Libraries/XMCLib/src\xmc_dma.c ****     }
 500:D:/School/diseratie/SEMS/xmc4800_evaluation_kit/xmc4800_iot_kit/common/Libraries/XMCLib/src\xmc_dma.c ****   }
 501:D:/School/diseratie/SEMS/xmc4800_evaluation_kit/xmc4800_iot_kit/common/Libraries/XMCLib/src\xmc_dma.c **** }
 502:D:/School/diseratie/SEMS/xmc4800_evaluation_kit/xmc4800_iot_kit/common/Libraries/XMCLib/src\xmc_dma.c **** 
 503:D:/School/diseratie/SEMS/xmc4800_evaluation_kit/xmc4800_iot_kit/common/Libraries/XMCLib/src\xmc_dma.c **** /* Clear GPDMA event */
 504:D:/School/diseratie/SEMS/xmc4800_evaluation_kit/xmc4800_iot_kit/common/Libraries/XMCLib/src\xmc_dma.c **** void XMC_DMA_CH_ClearEventStatus(XMC_DMA_t *const dma, const uint8_t channel, const uint32_t event)
 505:D:/School/diseratie/SEMS/xmc4800_evaluation_kit/xmc4800_iot_kit/common/Libraries/XMCLib/src\xmc_dma.c **** {
 506:D:/School/diseratie/SEMS/xmc4800_evaluation_kit/xmc4800_iot_kit/common/Libraries/XMCLib/src\xmc_dma.c ****   uint32_t event_idx;
 507:D:/School/diseratie/SEMS/xmc4800_evaluation_kit/xmc4800_iot_kit/common/Libraries/XMCLib/src\xmc_dma.c **** 
 508:D:/School/diseratie/SEMS/xmc4800_evaluation_kit/xmc4800_iot_kit/common/Libraries/XMCLib/src\xmc_dma.c ****   for(event_idx = 0UL; event_idx < DMA_EVENT_MAX; ++event_idx)
 509:D:/School/diseratie/SEMS/xmc4800_evaluation_kit/xmc4800_iot_kit/common/Libraries/XMCLib/src\xmc_dma.c ****   {
 510:D:/School/diseratie/SEMS/xmc4800_evaluation_kit/xmc4800_iot_kit/common/Libraries/XMCLib/src\xmc_dma.c ****     if (event & (uint32_t)((uint32_t)0x1UL << event_idx))
 511:D:/School/diseratie/SEMS/xmc4800_evaluation_kit/xmc4800_iot_kit/common/Libraries/XMCLib/src\xmc_dma.c ****     {
 512:D:/School/diseratie/SEMS/xmc4800_evaluation_kit/xmc4800_iot_kit/common/Libraries/XMCLib/src\xmc_dma.c ****       dma->CLEARCHEV[event_idx * 2UL] = ((uint32_t)0x1UL << channel);
 800              	 .loc 1 512 0
 801 008c 0123     	 movs r3,#1
 802 008e B340     	 lsls r3,r3,r6
 803              	.LBE68:
 804              	.LBE67:
 396:D:/School/diseratie/SEMS/xmc4800_evaluation_kit/xmc4800_iot_kit/common/Libraries/XMCLib/src\xmc_dma.c ****       {
 805              	 .loc 1 396 0
 806 0090 013A     	 subs r2,r2,#1
 807              	.LBB70:
 808              	.LBB69:
 809              	 .loc 1 512 0
 810 0092 C4F83833 	 str r3,[r4,#824]
 811              	.LVL80:
 812 0096 C4F84033 	 str r3,[r4,#832]
 813              	.LVL81:
 814 009a C4F84833 	 str r3,[r4,#840]
 815              	.LVL82:
 816 009e C4F85033 	 str r3,[r4,#848]
 817              	.LVL83:
 818 00a2 C4F85833 	 str r3,[r4,#856]
 819              	.LVL84:
 820              	.LBE69:
 821              	.LBE70:
 396:D:/School/diseratie/SEMS/xmc4800_evaluation_kit/xmc4800_iot_kit/common/Libraries/XMCLib/src\xmc_dma.c ****       {
 822              	 .loc 1 396 0
 823 00a6 072A     	 cmp r2,#7
 824 00a8 6CD8     	 bhi .L98
 825 00aa DFE802F0 	 tbb [pc,r2]
 826              	.L93:
 827 00ae 95       	 .byte (.L84-.L93)/2
 828 00af 9E       	 .byte (.L85-.L93)/2
 829 00b0 6D       	 .byte (.L86-.L93)/2
 830 00b1 76       	 .byte (.L87-.L93)/2
 831 00b2 7F       	 .byte (.L88-.L93)/2
 832 00b3 8C       	 .byte (.L89-.L93)/2
 833 00b4 A7       	 .byte (.L90-.L93)/2
 834 00b5 B4       	 .byte (.L91-.L93)/2
 835              	.LVL85:
 836              	 .p2align 1
 837              	.L102:
 838              	.LBB71:
 839              	.LBB62:
 177:D:/School/diseratie/SEMS/xmc4800_evaluation_kit/xmc4800_iot_kit/common/Libraries/XMCLib/src\xmc_dma.c **** #if defined(CLOCK_GATING_SUPPORTED)
 840              	 .loc 1 177 0
 841 00b6 7648     	 ldr r0,.L110+8
 842              	.LVL86:
 843 00b8 FFF7FEFF 	 bl XMC_SCU_RESET_IsPeripheralResetAsserted
 844              	.LVL87:
 179:D:/School/diseratie/SEMS/xmc4800_evaluation_kit/xmc4800_iot_kit/common/Libraries/XMCLib/src\xmc_dma.c **** #endif
 845              	 .loc 1 179 0
 846 00bc 0028     	 cmp r0,#0
 847 00be AAD1     	 bne .L99
 848 00c0 7348     	 ldr r0,.L110+8
 849              	.LVL88:
 850 00c2 FFF7FEFF 	 bl XMC_SCU_CLOCK_IsPeripheralClockGated
 851              	.LVL89:
 852 00c6 80F00100 	 eor r0,r0,#1
 853 00ca C0B2     	 uxtb r0,r0
 854 00cc ABE7     	 b .L74
 855              	.LVL90:
 856              	.L105:
 857              	.LBE62:
 858              	.LBE71:
 331:D:/School/diseratie/SEMS/xmc4800_evaluation_kit/xmc4800_iot_kit/common/Libraries/XMCLib/src\xmc_dma.c ****       {
 859              	 .loc 1 331 0 discriminator 1
 860 00ce 012E     	 cmp r6,#1
 861 00d0 CDD8     	 bhi .L77
 334:D:/School/diseratie/SEMS/xmc4800_evaluation_kit/xmc4800_iot_kit/common/Libraries/XMCLib/src\xmc_dma.c ****         dma->CH[channel].DSR = config->dst_scatter_control;
 862              	 .loc 1 334 0
 863 00d2 2A69     	 ldr r2,[r5,#16]
 864 00d4 9A64     	 str r2,[r3,#72]
 335:D:/School/diseratie/SEMS/xmc4800_evaluation_kit/xmc4800_iot_kit/common/Libraries/XMCLib/src\xmc_dma.c ****       }
 865              	 .loc 1 335 0
 866 00d6 6A69     	 ldr r2,[r5,#20]
 867 00d8 1A65     	 str r2,[r3,#80]
 868 00da C8E7     	 b .L77
 869              	.L106:
 345:D:/School/diseratie/SEMS/xmc4800_evaluation_kit/xmc4800_iot_kit/common/Libraries/XMCLib/src\xmc_dma.c ****           {
 870              	 .loc 1 345 0
 871 00dc 6A4B     	 ldr r3,.L110
 872              	.LBB72:
 873              	.LBB73:
 874              	.LBB74:
 875              	.LBB75:
 208:D:/School/diseratie/SEMS/xmc4800_evaluation_kit/xmc4800_iot_kit/common/Libraries/XMCLib/src\xmc_dma.c ****                    ((uint32_t)peripheral << (line * DLR_SRSEL_RS_BITSIZE)));
 876              	 .loc 1 208 0
 877 00de 6D49     	 ldr r1,.L110+12
 878              	.LBE75:
 879              	.LBE74:
 880              	.LBE73:
 881              	.LBE72:
 358:D:/School/diseratie/SEMS/xmc4800_evaluation_kit/xmc4800_iot_kit/common/Libraries/XMCLib/src\xmc_dma.c ****           XMC_DMA_EnableRequestLine(dma, line, peripheral);
 882              	 .loc 1 358 0
 883 00e0 5822     	 movs r2,#88
 884 00e2 02FB0642 	 mla r2,r2,r6,r4
 345:D:/School/diseratie/SEMS/xmc4800_evaluation_kit/xmc4800_iot_kit/common/Libraries/XMCLib/src\xmc_dma.c ****           {
 885              	 .loc 1 345 0
 886 00e6 9C42     	 cmp r4,r3
 358:D:/School/diseratie/SEMS/xmc4800_evaluation_kit/xmc4800_iot_kit/common/Libraries/XMCLib/src\xmc_dma.c ****           XMC_DMA_EnableRequestLine(dma, line, peripheral);
 887              	 .loc 1 358 0
 888 00e8 576C     	 ldr r7,[r2,#68]
 348:D:/School/diseratie/SEMS/xmc4800_evaluation_kit/xmc4800_iot_kit/common/Libraries/XMCLib/src\xmc_dma.c **** #if defined(GPDMA1)
 889              	 .loc 1 348 0
 890 00ea 95F82230 	 ldrb r3,[r5,#34]
 345:D:/School/diseratie/SEMS/xmc4800_evaluation_kit/xmc4800_iot_kit/common/Libraries/XMCLib/src\xmc_dma.c ****           {
 891              	 .loc 1 345 0
 892 00ee 00F0B380 	 beq .L108
 353:D:/School/diseratie/SEMS/xmc4800_evaluation_kit/xmc4800_iot_kit/common/Libraries/XMCLib/src\xmc_dma.c ****           }
 893              	 .loc 1 353 0
 894 00f2 03F00300 	 and r0,r3,#3
 895              	.LVL91:
 358:D:/School/diseratie/SEMS/xmc4800_evaluation_kit/xmc4800_iot_kit/common/Libraries/XMCLib/src\xmc_dma.c ****           XMC_DMA_EnableRequestLine(dma, line, peripheral);
 896              	 .loc 1 358 0
 897 00f6 47EAC027 	 orr r7,r7,r0,lsl#11
 898 00fa 5764     	 str r7,[r2,#68]
 899              	.LVL92:
 900              	.LBB80:
 901              	.LBB78:
 215:D:/School/diseratie/SEMS/xmc4800_evaluation_kit/xmc4800_iot_kit/common/Libraries/XMCLib/src\xmc_dma.c ****                    ((uint32_t)peripheral << (line * DLR_SRSEL_RS_BITSIZE)));
 902              	 .loc 1 215 0
 903 00fc CF68     	 ldr r7,[r1,#12]
 904 00fe 4FEA800E 	 lsl lr,r0,#2
 905 0102 0F22     	 movs r2,#15
 216:D:/School/diseratie/SEMS/xmc4800_evaluation_kit/xmc4800_iot_kit/common/Libraries/XMCLib/src\xmc_dma.c ****     DLR->LNEN |= (0x100UL << line);
 906              	 .loc 1 216 0
 907 0104 1B09     	 lsrs r3,r3,#4
 908              	.LVL93:
 215:D:/School/diseratie/SEMS/xmc4800_evaluation_kit/xmc4800_iot_kit/common/Libraries/XMCLib/src\xmc_dma.c ****                    ((uint32_t)peripheral << (line * DLR_SRSEL_RS_BITSIZE)));
 909              	 .loc 1 215 0
 910 0106 02FA0EF2 	 lsl r2,r2,lr
 911 010a 27EA0202 	 bic r2,r7,r2
 216:D:/School/diseratie/SEMS/xmc4800_evaluation_kit/xmc4800_iot_kit/common/Libraries/XMCLib/src\xmc_dma.c ****     DLR->LNEN |= (0x100UL << line);
 912              	 .loc 1 216 0
 913 010e 03FA0EF3 	 lsl r3,r3,lr
 215:D:/School/diseratie/SEMS/xmc4800_evaluation_kit/xmc4800_iot_kit/common/Libraries/XMCLib/src\xmc_dma.c ****                    ((uint32_t)peripheral << (line * DLR_SRSEL_RS_BITSIZE)));
 914              	 .loc 1 215 0
 915 0112 1343     	 orrs r3,r3,r2
 916 0114 CB60     	 str r3,[r1,#12]
 217:D:/School/diseratie/SEMS/xmc4800_evaluation_kit/xmc4800_iot_kit/common/Libraries/XMCLib/src\xmc_dma.c ****   }
 917              	 .loc 1 217 0
 918 0116 0A69     	 ldr r2,[r1,#16]
 919 0118 4FF48073 	 mov r3,#256
 920 011c 8340     	 lsls r3,r3,r0
 921 011e 1343     	 orrs r3,r3,r2
 922 0120 0B61     	 str r3,[r1,#16]
 923              	.LVL94:
 924              	.L80:
 925              	.LBE78:
 926              	.LBE80:
 360:D:/School/diseratie/SEMS/xmc4800_evaluation_kit/xmc4800_iot_kit/common/Libraries/XMCLib/src\xmc_dma.c ****         }
 927              	 .loc 1 360 0
 928 0122 5823     	 movs r3,#88
 929 0124 03FB0643 	 mla r3,r3,r6,r4
 930 0128 1A6C     	 ldr r2,[r3,#64]
 931 012a 22F48062 	 bic r2,r2,#1024
 932 012e 1A64     	 str r2,[r3,#64]
 933 0130 A4E7     	 b .L78
 934              	.LVL95:
 935              	.L107:
 371:D:/School/diseratie/SEMS/xmc4800_evaluation_kit/xmc4800_iot_kit/common/Libraries/XMCLib/src\xmc_dma.c ****           {
 936              	 .loc 1 371 0
 937 0132 554B     	 ldr r3,.L110
 938              	.LBB81:
 939              	.LBB82:
 940              	.LBB83:
 941              	.LBB84:
 208:D:/School/diseratie/SEMS/xmc4800_evaluation_kit/xmc4800_iot_kit/common/Libraries/XMCLib/src\xmc_dma.c ****                    ((uint32_t)peripheral << (line * DLR_SRSEL_RS_BITSIZE)));
 942              	 .loc 1 208 0
 943 0134 5749     	 ldr r1,.L110+12
 944              	.LBE84:
 945              	.LBE83:
 946              	.LBE82:
 947              	.LBE81:
 384:D:/School/diseratie/SEMS/xmc4800_evaluation_kit/xmc4800_iot_kit/common/Libraries/XMCLib/src\xmc_dma.c ****           XMC_DMA_EnableRequestLine(dma, line, peripheral);
 948              	 .loc 1 384 0
 949 0136 5822     	 movs r2,#88
 950 0138 02FB0642 	 mla r2,r2,r6,r4
 371:D:/School/diseratie/SEMS/xmc4800_evaluation_kit/xmc4800_iot_kit/common/Libraries/XMCLib/src\xmc_dma.c ****           {
 951              	 .loc 1 371 0
 952 013c 9C42     	 cmp r4,r3
 384:D:/School/diseratie/SEMS/xmc4800_evaluation_kit/xmc4800_iot_kit/common/Libraries/XMCLib/src\xmc_dma.c ****           XMC_DMA_EnableRequestLine(dma, line, peripheral);
 953              	 .loc 1 384 0
 954 013e 576C     	 ldr r7,[r2,#68]
 374:D:/School/diseratie/SEMS/xmc4800_evaluation_kit/xmc4800_iot_kit/common/Libraries/XMCLib/src\xmc_dma.c **** #if defined(GPDMA1)
 955              	 .loc 1 374 0
 956 0140 AB7F     	 ldrb r3,[r5,#30]
 371:D:/School/diseratie/SEMS/xmc4800_evaluation_kit/xmc4800_iot_kit/common/Libraries/XMCLib/src\xmc_dma.c ****           {
 957              	 .loc 1 371 0
 958 0142 71D0     	 beq .L109
 379:D:/School/diseratie/SEMS/xmc4800_evaluation_kit/xmc4800_iot_kit/common/Libraries/XMCLib/src\xmc_dma.c ****           }
 959              	 .loc 1 379 0
 960 0144 03F00300 	 and r0,r3,#3
 961              	.LVL96:
 384:D:/School/diseratie/SEMS/xmc4800_evaluation_kit/xmc4800_iot_kit/common/Libraries/XMCLib/src\xmc_dma.c ****           XMC_DMA_EnableRequestLine(dma, line, peripheral);
 962              	 .loc 1 384 0
 963 0148 47EAC017 	 orr r7,r7,r0,lsl#7
 964 014c 5764     	 str r7,[r2,#68]
 965              	.LVL97:
 966              	.LBB89:
 967              	.LBB87:
 215:D:/School/diseratie/SEMS/xmc4800_evaluation_kit/xmc4800_iot_kit/common/Libraries/XMCLib/src\xmc_dma.c ****                    ((uint32_t)peripheral << (line * DLR_SRSEL_RS_BITSIZE)));
 968              	 .loc 1 215 0
 969 014e CF68     	 ldr r7,[r1,#12]
 970 0150 4FEA800E 	 lsl lr,r0,#2
 971 0154 0F22     	 movs r2,#15
 216:D:/School/diseratie/SEMS/xmc4800_evaluation_kit/xmc4800_iot_kit/common/Libraries/XMCLib/src\xmc_dma.c ****     DLR->LNEN |= (0x100UL << line);
 972              	 .loc 1 216 0
 973 0156 1B09     	 lsrs r3,r3,#4
 974              	.LVL98:
 215:D:/School/diseratie/SEMS/xmc4800_evaluation_kit/xmc4800_iot_kit/common/Libraries/XMCLib/src\xmc_dma.c ****                    ((uint32_t)peripheral << (line * DLR_SRSEL_RS_BITSIZE)));
 975              	 .loc 1 215 0
 976 0158 02FA0EF2 	 lsl r2,r2,lr
 977 015c 27EA0202 	 bic r2,r7,r2
 216:D:/School/diseratie/SEMS/xmc4800_evaluation_kit/xmc4800_iot_kit/common/Libraries/XMCLib/src\xmc_dma.c ****     DLR->LNEN |= (0x100UL << line);
 978              	 .loc 1 216 0
 979 0160 03FA0EF3 	 lsl r3,r3,lr
 215:D:/School/diseratie/SEMS/xmc4800_evaluation_kit/xmc4800_iot_kit/common/Libraries/XMCLib/src\xmc_dma.c ****                    ((uint32_t)peripheral << (line * DLR_SRSEL_RS_BITSIZE)));
 980              	 .loc 1 215 0
 981 0164 1343     	 orrs r3,r3,r2
 982 0166 CB60     	 str r3,[r1,#12]
 217:D:/School/diseratie/SEMS/xmc4800_evaluation_kit/xmc4800_iot_kit/common/Libraries/XMCLib/src\xmc_dma.c ****   }
 983              	 .loc 1 217 0
 984 0168 0A69     	 ldr r2,[r1,#16]
 985 016a 4FF48073 	 mov r3,#256
 986 016e 8340     	 lsls r3,r3,r0
 987 0170 1343     	 orrs r3,r3,r2
 988 0172 0B61     	 str r3,[r1,#16]
 989              	.LVL99:
 990              	.L83:
 991              	.LBE87:
 992              	.LBE89:
 386:D:/School/diseratie/SEMS/xmc4800_evaluation_kit/xmc4800_iot_kit/common/Libraries/XMCLib/src\xmc_dma.c ****         }
 993              	 .loc 1 386 0
 994 0174 5823     	 movs r3,#88
 995 0176 03FB0643 	 mla r3,r3,r6,r4
 996 017a 1A6C     	 ldr r2,[r3,#64]
 997 017c 22F40062 	 bic r2,r2,#2048
 998 0180 1A64     	 str r2,[r3,#64]
 999 0182 82E7     	 b .L81
 1000              	.LVL100:
 1001              	.L98:
 441:D:/School/diseratie/SEMS/xmc4800_evaluation_kit/xmc4800_iot_kit/common/Libraries/XMCLib/src\xmc_dma.c **** 
 1002              	 .loc 1 441 0
 1003 0184 0020     	 movs r0,#0
 1004 0186 F8BD     	 pop {r3,r4,r5,r6,r7,pc}
 1005              	.LVL101:
 1006              	.L86:
 410:D:/School/diseratie/SEMS/xmc4800_evaluation_kit/xmc4800_iot_kit/common/Libraries/XMCLib/src\xmc_dma.c ****                                               (uint32_t)GPDMA0_CH_CFGL_RELOAD_SRC_Msk);
 1007              	 .loc 1 410 0
 1008 0188 5821     	 movs r1,#88
 1009 018a 01FB0644 	 mla r4,r1,r6,r4
 1010              	.LVL102:
 441:D:/School/diseratie/SEMS/xmc4800_evaluation_kit/xmc4800_iot_kit/common/Libraries/XMCLib/src\xmc_dma.c **** 
 1011              	 .loc 1 441 0
 1012 018e 0020     	 movs r0,#0
 410:D:/School/diseratie/SEMS/xmc4800_evaluation_kit/xmc4800_iot_kit/common/Libraries/XMCLib/src\xmc_dma.c ****                                               (uint32_t)GPDMA0_CH_CFGL_RELOAD_SRC_Msk);
 1013              	 .loc 1 410 0
 1014 0190 236C     	 ldr r3,[r4,#64]
 1015 0192 43F04043 	 orr r3,r3,#-1073741824
 1016 0196 2364     	 str r3,[r4,#64]
 412:D:/School/diseratie/SEMS/xmc4800_evaluation_kit/xmc4800_iot_kit/common/Libraries/XMCLib/src\xmc_dma.c **** 
 1017              	 .loc 1 412 0
 1018 0198 F8BD     	 pop {r3,r4,r5,r6,r7,pc}
 1019              	.LVL103:
 1020              	.L87:
 415:D:/School/diseratie/SEMS/xmc4800_evaluation_kit/xmc4800_iot_kit/common/Libraries/XMCLib/src\xmc_dma.c ****           break;
 1021              	 .loc 1 415 0
 1022 019a 5821     	 movs r1,#88
 1023 019c 01FB0644 	 mla r4,r1,r6,r4
 1024              	.LVL104:
 441:D:/School/diseratie/SEMS/xmc4800_evaluation_kit/xmc4800_iot_kit/common/Libraries/XMCLib/src\xmc_dma.c **** 
 1025              	 .loc 1 441 0
 1026 01a0 0020     	 movs r0,#0
 415:D:/School/diseratie/SEMS/xmc4800_evaluation_kit/xmc4800_iot_kit/common/Libraries/XMCLib/src\xmc_dma.c ****           break;
 1027              	 .loc 1 415 0
 1028 01a2 A369     	 ldr r3,[r4,#24]
 1029 01a4 43F00063 	 orr r3,r3,#134217728
 1030 01a8 A361     	 str r3,[r4,#24]
 416:D:/School/diseratie/SEMS/xmc4800_evaluation_kit/xmc4800_iot_kit/common/Libraries/XMCLib/src\xmc_dma.c **** 
 1031              	 .loc 1 416 0
 1032 01aa F8BD     	 pop {r3,r4,r5,r6,r7,pc}
 1033              	.LVL105:
 1034              	.L88:
 419:D:/School/diseratie/SEMS/xmc4800_evaluation_kit/xmc4800_iot_kit/common/Libraries/XMCLib/src\xmc_dma.c ****           dma->CH[channel].CTLL |= (uint32_t)GPDMA0_CH_CTLL_LLP_DST_EN_Msk;
 1035              	 .loc 1 419 0
 1036 01ac 5821     	 movs r1,#88
 1037 01ae 01FB0644 	 mla r4,r1,r6,r4
 1038              	.LVL106:
 441:D:/School/diseratie/SEMS/xmc4800_evaluation_kit/xmc4800_iot_kit/common/Libraries/XMCLib/src\xmc_dma.c **** 
 1039              	 .loc 1 441 0
 1040 01b2 0020     	 movs r0,#0
 419:D:/School/diseratie/SEMS/xmc4800_evaluation_kit/xmc4800_iot_kit/common/Libraries/XMCLib/src\xmc_dma.c ****           dma->CH[channel].CTLL |= (uint32_t)GPDMA0_CH_CTLL_LLP_DST_EN_Msk;
 1041              	 .loc 1 419 0
 1042 01b4 236C     	 ldr r3,[r4,#64]
 1043 01b6 43F08043 	 orr r3,r3,#1073741824
 1044 01ba 2364     	 str r3,[r4,#64]
 420:D:/School/diseratie/SEMS/xmc4800_evaluation_kit/xmc4800_iot_kit/common/Libraries/XMCLib/src\xmc_dma.c ****           break;
 1045              	 .loc 1 420 0
 1046 01bc A369     	 ldr r3,[r4,#24]
 1047 01be 43F00063 	 orr r3,r3,#134217728
 1048 01c2 A361     	 str r3,[r4,#24]
 421:D:/School/diseratie/SEMS/xmc4800_evaluation_kit/xmc4800_iot_kit/common/Libraries/XMCLib/src\xmc_dma.c **** 
 1049              	 .loc 1 421 0
 1050 01c4 F8BD     	 pop {r3,r4,r5,r6,r7,pc}
 1051              	.LVL107:
 1052              	.L89:
 424:D:/School/diseratie/SEMS/xmc4800_evaluation_kit/xmc4800_iot_kit/common/Libraries/XMCLib/src\xmc_dma.c ****           break;
 1053              	 .loc 1 424 0
 1054 01c6 5821     	 movs r1,#88
 1055 01c8 01FB0644 	 mla r4,r1,r6,r4
 1056              	.LVL108:
 441:D:/School/diseratie/SEMS/xmc4800_evaluation_kit/xmc4800_iot_kit/common/Libraries/XMCLib/src\xmc_dma.c **** 
 1057              	 .loc 1 441 0
 1058 01cc 0020     	 movs r0,#0
 424:D:/School/diseratie/SEMS/xmc4800_evaluation_kit/xmc4800_iot_kit/common/Libraries/XMCLib/src\xmc_dma.c ****           break;
 1059              	 .loc 1 424 0
 1060 01ce A369     	 ldr r3,[r4,#24]
 1061 01d0 43F08053 	 orr r3,r3,#268435456
 1062 01d4 A361     	 str r3,[r4,#24]
 425:D:/School/diseratie/SEMS/xmc4800_evaluation_kit/xmc4800_iot_kit/common/Libraries/XMCLib/src\xmc_dma.c **** 
 1063              	 .loc 1 425 0
 1064 01d6 F8BD     	 pop {r3,r4,r5,r6,r7,pc}
 1065              	.LVL109:
 1066              	.L84:
 402:D:/School/diseratie/SEMS/xmc4800_evaluation_kit/xmc4800_iot_kit/common/Libraries/XMCLib/src\xmc_dma.c ****           break;
 1067              	 .loc 1 402 0
 1068 01d8 5821     	 movs r1,#88
 1069 01da 01FB0644 	 mla r4,r1,r6,r4
 1070              	.LVL110:
 441:D:/School/diseratie/SEMS/xmc4800_evaluation_kit/xmc4800_iot_kit/common/Libraries/XMCLib/src\xmc_dma.c **** 
 1071              	 .loc 1 441 0
 1072 01de 0020     	 movs r0,#0
 402:D:/School/diseratie/SEMS/xmc4800_evaluation_kit/xmc4800_iot_kit/common/Libraries/XMCLib/src\xmc_dma.c ****           break;
 1073              	 .loc 1 402 0
 1074 01e0 236C     	 ldr r3,[r4,#64]
 1075 01e2 43F00043 	 orr r3,r3,#-2147483648
 1076 01e6 2364     	 str r3,[r4,#64]
 403:D:/School/diseratie/SEMS/xmc4800_evaluation_kit/xmc4800_iot_kit/common/Libraries/XMCLib/src\xmc_dma.c **** 
 1077              	 .loc 1 403 0
 1078 01e8 F8BD     	 pop {r3,r4,r5,r6,r7,pc}
 1079              	.LVL111:
 1080              	.L85:
 406:D:/School/diseratie/SEMS/xmc4800_evaluation_kit/xmc4800_iot_kit/common/Libraries/XMCLib/src\xmc_dma.c ****           break;
 1081              	 .loc 1 406 0
 1082 01ea 5821     	 movs r1,#88
 1083 01ec 01FB0644 	 mla r4,r1,r6,r4
 1084              	.LVL112:
 441:D:/School/diseratie/SEMS/xmc4800_evaluation_kit/xmc4800_iot_kit/common/Libraries/XMCLib/src\xmc_dma.c **** 
 1085              	 .loc 1 441 0
 1086 01f0 0020     	 movs r0,#0
 406:D:/School/diseratie/SEMS/xmc4800_evaluation_kit/xmc4800_iot_kit/common/Libraries/XMCLib/src\xmc_dma.c ****           break;
 1087              	 .loc 1 406 0
 1088 01f2 236C     	 ldr r3,[r4,#64]
 1089 01f4 43F08043 	 orr r3,r3,#1073741824
 1090 01f8 2364     	 str r3,[r4,#64]
 407:D:/School/diseratie/SEMS/xmc4800_evaluation_kit/xmc4800_iot_kit/common/Libraries/XMCLib/src\xmc_dma.c **** 
 1091              	 .loc 1 407 0
 1092 01fa F8BD     	 pop {r3,r4,r5,r6,r7,pc}
 1093              	.LVL113:
 1094              	.L90:
 428:D:/School/diseratie/SEMS/xmc4800_evaluation_kit/xmc4800_iot_kit/common/Libraries/XMCLib/src\xmc_dma.c ****           dma->CH[channel].CTLL |= (uint32_t)GPDMA0_CH_CTLL_LLP_SRC_EN_Msk;
 1095              	 .loc 1 428 0
 1096 01fc 5821     	 movs r1,#88
 1097 01fe 01FB0644 	 mla r4,r1,r6,r4
 1098              	.LVL114:
 441:D:/School/diseratie/SEMS/xmc4800_evaluation_kit/xmc4800_iot_kit/common/Libraries/XMCLib/src\xmc_dma.c **** 
 1099              	 .loc 1 441 0
 1100 0202 0020     	 movs r0,#0
 428:D:/School/diseratie/SEMS/xmc4800_evaluation_kit/xmc4800_iot_kit/common/Libraries/XMCLib/src\xmc_dma.c ****           dma->CH[channel].CTLL |= (uint32_t)GPDMA0_CH_CTLL_LLP_SRC_EN_Msk;
 1101              	 .loc 1 428 0
 1102 0204 236C     	 ldr r3,[r4,#64]
 1103 0206 43F00043 	 orr r3,r3,#-2147483648
 1104 020a 2364     	 str r3,[r4,#64]
 429:D:/School/diseratie/SEMS/xmc4800_evaluation_kit/xmc4800_iot_kit/common/Libraries/XMCLib/src\xmc_dma.c ****           break;
 1105              	 .loc 1 429 0
 1106 020c A369     	 ldr r3,[r4,#24]
 1107 020e 43F08053 	 orr r3,r3,#268435456
 1108 0212 A361     	 str r3,[r4,#24]
 430:D:/School/diseratie/SEMS/xmc4800_evaluation_kit/xmc4800_iot_kit/common/Libraries/XMCLib/src\xmc_dma.c **** 
 1109              	 .loc 1 430 0
 1110 0214 F8BD     	 pop {r3,r4,r5,r6,r7,pc}
 1111              	.LVL115:
 1112              	.L91:
 433:D:/School/diseratie/SEMS/xmc4800_evaluation_kit/xmc4800_iot_kit/common/Libraries/XMCLib/src\xmc_dma.c ****                                               (uint32_t)GPDMA0_CH_CTLL_LLP_DST_EN_Msk);
 1113              	 .loc 1 433 0
 1114 0216 5821     	 movs r1,#88
 1115 0218 01FB0644 	 mla r4,r1,r6,r4
 1116              	.LVL116:
 441:D:/School/diseratie/SEMS/xmc4800_evaluation_kit/xmc4800_iot_kit/common/Libraries/XMCLib/src\xmc_dma.c **** 
 1117              	 .loc 1 441 0
 1118 021c 0020     	 movs r0,#0
 433:D:/School/diseratie/SEMS/xmc4800_evaluation_kit/xmc4800_iot_kit/common/Libraries/XMCLib/src\xmc_dma.c ****                                               (uint32_t)GPDMA0_CH_CTLL_LLP_DST_EN_Msk);
 1119              	 .loc 1 433 0
 1120 021e A369     	 ldr r3,[r4,#24]
 1121 0220 43F0C053 	 orr r3,r3,#402653184
 1122 0224 A361     	 str r3,[r4,#24]
 435:D:/School/diseratie/SEMS/xmc4800_evaluation_kit/xmc4800_iot_kit/common/Libraries/XMCLib/src\xmc_dma.c **** 
 1123              	 .loc 1 435 0
 1124 0226 F8BD     	 pop {r3,r4,r5,r6,r7,pc}
 1125              	.LVL117:
 1126              	.L109:
 374:D:/School/diseratie/SEMS/xmc4800_evaluation_kit/xmc4800_iot_kit/common/Libraries/XMCLib/src\xmc_dma.c **** #if defined(GPDMA1)
 1127              	 .loc 1 374 0
 1128 0228 03F00700 	 and r0,r3,#7
 1129              	.LVL118:
 384:D:/School/diseratie/SEMS/xmc4800_evaluation_kit/xmc4800_iot_kit/common/Libraries/XMCLib/src\xmc_dma.c ****           XMC_DMA_EnableRequestLine(dma, line, peripheral);
 1130              	 .loc 1 384 0
 1131 022c 47EAC017 	 orr r7,r7,r0,lsl#7
 1132 0230 5764     	 str r7,[r2,#68]
 1133              	.LVL119:
 1134              	.LBB90:
 1135              	.LBB88:
 1136              	.LBB86:
 1137              	.LBB85:
 208:D:/School/diseratie/SEMS/xmc4800_evaluation_kit/xmc4800_iot_kit/common/Libraries/XMCLib/src\xmc_dma.c ****                    ((uint32_t)peripheral << (line * DLR_SRSEL_RS_BITSIZE)));
 1138              	 .loc 1 208 0
 1139 0232 8F68     	 ldr r7,[r1,#8]
 1140 0234 4FEA800E 	 lsl lr,r0,#2
 1141 0238 0F22     	 movs r2,#15
 209:D:/School/diseratie/SEMS/xmc4800_evaluation_kit/xmc4800_iot_kit/common/Libraries/XMCLib/src\xmc_dma.c ****     DLR->LNEN |= (0x1UL << (line & GPDMA0_CH_CFGH_PER_Msk));
 1142              	 .loc 1 209 0
 1143 023a 1B09     	 lsrs r3,r3,#4
 1144              	.LVL120:
 208:D:/School/diseratie/SEMS/xmc4800_evaluation_kit/xmc4800_iot_kit/common/Libraries/XMCLib/src\xmc_dma.c ****                    ((uint32_t)peripheral << (line * DLR_SRSEL_RS_BITSIZE)));
 1145              	 .loc 1 208 0
 1146 023c 02FA0EF2 	 lsl r2,r2,lr
 1147 0240 27EA0202 	 bic r2,r7,r2
 209:D:/School/diseratie/SEMS/xmc4800_evaluation_kit/xmc4800_iot_kit/common/Libraries/XMCLib/src\xmc_dma.c ****     DLR->LNEN |= (0x1UL << (line & GPDMA0_CH_CFGH_PER_Msk));
 1148              	 .loc 1 209 0
 1149 0244 03FA0EF3 	 lsl r3,r3,lr
 208:D:/School/diseratie/SEMS/xmc4800_evaluation_kit/xmc4800_iot_kit/common/Libraries/XMCLib/src\xmc_dma.c ****                    ((uint32_t)peripheral << (line * DLR_SRSEL_RS_BITSIZE)));
 1150              	 .loc 1 208 0
 1151 0248 1343     	 orrs r3,r3,r2
 1152 024a 8B60     	 str r3,[r1,#8]
 210:D:/School/diseratie/SEMS/xmc4800_evaluation_kit/xmc4800_iot_kit/common/Libraries/XMCLib/src\xmc_dma.c **** #if defined(GPDMA1)
 1153              	 .loc 1 210 0
 1154 024c 0A69     	 ldr r2,[r1,#16]
 1155 024e 0123     	 movs r3,#1
 1156 0250 8340     	 lsls r3,r3,r0
 1157 0252 1343     	 orrs r3,r3,r2
 1158 0254 0B61     	 str r3,[r1,#16]
 1159 0256 8DE7     	 b .L83
 1160              	.LVL121:
 1161              	.L108:
 1162              	.LBE85:
 1163              	.LBE86:
 1164              	.LBE88:
 1165              	.LBE90:
 348:D:/School/diseratie/SEMS/xmc4800_evaluation_kit/xmc4800_iot_kit/common/Libraries/XMCLib/src\xmc_dma.c **** #if defined(GPDMA1)
 1166              	 .loc 1 348 0
 1167 0258 03F00700 	 and r0,r3,#7
 1168              	.LVL122:
 358:D:/School/diseratie/SEMS/xmc4800_evaluation_kit/xmc4800_iot_kit/common/Libraries/XMCLib/src\xmc_dma.c ****           XMC_DMA_EnableRequestLine(dma, line, peripheral);
 1169              	 .loc 1 358 0
 1170 025c 47EAC027 	 orr r7,r7,r0,lsl#11
 1171 0260 5764     	 str r7,[r2,#68]
 1172              	.LVL123:
 1173              	.LBB91:
 1174              	.LBB79:
 1175              	.LBB77:
 1176              	.LBB76:
 208:D:/School/diseratie/SEMS/xmc4800_evaluation_kit/xmc4800_iot_kit/common/Libraries/XMCLib/src\xmc_dma.c ****                    ((uint32_t)peripheral << (line * DLR_SRSEL_RS_BITSIZE)));
 1177              	 .loc 1 208 0
 1178 0262 8F68     	 ldr r7,[r1,#8]
 1179 0264 4FEA800E 	 lsl lr,r0,#2
 1180 0268 0F22     	 movs r2,#15
 209:D:/School/diseratie/SEMS/xmc4800_evaluation_kit/xmc4800_iot_kit/common/Libraries/XMCLib/src\xmc_dma.c ****     DLR->LNEN |= (0x1UL << (line & GPDMA0_CH_CFGH_PER_Msk));
 1181              	 .loc 1 209 0
 1182 026a 1B09     	 lsrs r3,r3,#4
 1183              	.LVL124:
 208:D:/School/diseratie/SEMS/xmc4800_evaluation_kit/xmc4800_iot_kit/common/Libraries/XMCLib/src\xmc_dma.c ****                    ((uint32_t)peripheral << (line * DLR_SRSEL_RS_BITSIZE)));
 1184              	 .loc 1 208 0
 1185 026c 02FA0EF2 	 lsl r2,r2,lr
 1186 0270 27EA0202 	 bic r2,r7,r2
 209:D:/School/diseratie/SEMS/xmc4800_evaluation_kit/xmc4800_iot_kit/common/Libraries/XMCLib/src\xmc_dma.c ****     DLR->LNEN |= (0x1UL << (line & GPDMA0_CH_CFGH_PER_Msk));
 1187              	 .loc 1 209 0
 1188 0274 03FA0EF3 	 lsl r3,r3,lr
 208:D:/School/diseratie/SEMS/xmc4800_evaluation_kit/xmc4800_iot_kit/common/Libraries/XMCLib/src\xmc_dma.c ****                    ((uint32_t)peripheral << (line * DLR_SRSEL_RS_BITSIZE)));
 1189              	 .loc 1 208 0
 1190 0278 1343     	 orrs r3,r3,r2
 1191 027a 8B60     	 str r3,[r1,#8]
 210:D:/School/diseratie/SEMS/xmc4800_evaluation_kit/xmc4800_iot_kit/common/Libraries/XMCLib/src\xmc_dma.c **** #if defined(GPDMA1)
 1192              	 .loc 1 210 0
 1193 027c 0A69     	 ldr r2,[r1,#16]
 1194 027e 0123     	 movs r3,#1
 1195 0280 8340     	 lsls r3,r3,r0
 1196 0282 1343     	 orrs r3,r3,r2
 1197 0284 0B61     	 str r3,[r1,#16]
 1198 0286 4CE7     	 b .L80
 1199              	.L111:
 1200              	 .align 2
 1201              	.L110:
 1202 0288 00400150 	 .word 1342259200
 1203 028c 20000020 	 .word 536870944
 1204 0290 10000020 	 .word 536870928
 1205 0294 00490050 	 .word 1342195968
 1206              	.LBE76:
 1207              	.LBE77:
 1208              	.LBE79:
 1209              	.LBE91:
 1210              	 .cfi_endproc
 1211              	.LFE197:
 1213              	 .section .text.XMC_DMA_CH_Suspend,"ax",%progbits
 1214              	 .align 2
 1215              	 .global XMC_DMA_CH_Suspend
 1216              	 .thumb
 1217              	 .thumb_func
 1219              	XMC_DMA_CH_Suspend:
 1220              	.LFB198:
 459:D:/School/diseratie/SEMS/xmc4800_evaluation_kit/xmc4800_iot_kit/common/Libraries/XMCLib/src\xmc_dma.c ****   dma->CH[channel].CFGL |= (uint32_t)GPDMA0_CH_CFGL_CH_SUSP_Msk;
 1221              	 .loc 1 459 0
 1222              	 .cfi_startproc
 1223              	 
 1224              	 
 1225              	 
 1226              	.LVL125:
 460:D:/School/diseratie/SEMS/xmc4800_evaluation_kit/xmc4800_iot_kit/common/Libraries/XMCLib/src\xmc_dma.c **** }
 1227              	 .loc 1 460 0
 1228 0000 5823     	 movs r3,#88
 1229 0002 03FB0101 	 mla r1,r3,r1,r0
 1230              	.LVL126:
 1231 0006 0B6C     	 ldr r3,[r1,#64]
 1232 0008 43F48073 	 orr r3,r3,#256
 1233 000c 0B64     	 str r3,[r1,#64]
 1234 000e 7047     	 bx lr
 1235              	 .cfi_endproc
 1236              	.LFE198:
 1238              	 .section .text.XMC_DMA_CH_Resume,"ax",%progbits
 1239              	 .align 2
 1240              	 .global XMC_DMA_CH_Resume
 1241              	 .thumb
 1242              	 .thumb_func
 1244              	XMC_DMA_CH_Resume:
 1245              	.LFB199:
 465:D:/School/diseratie/SEMS/xmc4800_evaluation_kit/xmc4800_iot_kit/common/Libraries/XMCLib/src\xmc_dma.c ****   dma->CH[channel].CFGL &= (uint32_t)~GPDMA0_CH_CFGL_CH_SUSP_Msk;
 1246              	 .loc 1 465 0
 1247              	 .cfi_startproc
 1248              	 
 1249              	 
 1250              	 
 1251              	.LVL127:
 466:D:/School/diseratie/SEMS/xmc4800_evaluation_kit/xmc4800_iot_kit/common/Libraries/XMCLib/src\xmc_dma.c **** }
 1252              	 .loc 1 466 0
 1253 0000 5823     	 movs r3,#88
 1254 0002 03FB0101 	 mla r1,r3,r1,r0
 1255              	.LVL128:
 1256 0006 0B6C     	 ldr r3,[r1,#64]
 1257 0008 23F48073 	 bic r3,r3,#256
 1258 000c 0B64     	 str r3,[r1,#64]
 1259 000e 7047     	 bx lr
 1260              	 .cfi_endproc
 1261              	.LFE199:
 1263              	 .section .text.XMC_DMA_CH_IsSuspended,"ax",%progbits
 1264              	 .align 2
 1265              	 .global XMC_DMA_CH_IsSuspended
 1266              	 .thumb
 1267              	 .thumb_func
 1269              	XMC_DMA_CH_IsSuspended:
 1270              	.LFB200:
 471:D:/School/diseratie/SEMS/xmc4800_evaluation_kit/xmc4800_iot_kit/common/Libraries/XMCLib/src\xmc_dma.c ****   return (bool)(dma->CH[channel].CFGL & (uint32_t)GPDMA0_CH_CFGL_CH_SUSP_Msk);
 1271              	 .loc 1 471 0
 1272              	 .cfi_startproc
 1273              	 
 1274              	 
 1275              	 
 1276              	.LVL129:
 472:D:/School/diseratie/SEMS/xmc4800_evaluation_kit/xmc4800_iot_kit/common/Libraries/XMCLib/src\xmc_dma.c **** }
 1277              	 .loc 1 472 0
 1278 0000 5823     	 movs r3,#88
 1279 0002 03FB0101 	 mla r1,r3,r1,r0
 1280              	.LVL130:
 1281 0006 086C     	 ldr r0,[r1,#64]
 1282              	.LVL131:
 473:D:/School/diseratie/SEMS/xmc4800_evaluation_kit/xmc4800_iot_kit/common/Libraries/XMCLib/src\xmc_dma.c **** 
 1283              	 .loc 1 473 0
 1284 0008 C0F30020 	 ubfx r0,r0,#8,#1
 1285 000c 7047     	 bx lr
 1286              	 .cfi_endproc
 1287              	.LFE200:
 1289 000e 00BF     	 .section .text.XMC_DMA_CH_EnableEvent,"ax",%progbits
 1290              	 .align 2
 1291              	 .global XMC_DMA_CH_EnableEvent
 1292              	 .thumb
 1293              	 .thumb_func
 1295              	XMC_DMA_CH_EnableEvent:
 1296              	.LFB201:
 477:D:/School/diseratie/SEMS/xmc4800_evaluation_kit/xmc4800_iot_kit/common/Libraries/XMCLib/src\xmc_dma.c ****   uint32_t event_idx;
 1297              	 .loc 1 477 0
 1298              	 .cfi_startproc
 1299              	 
 1300              	 
 1301              	 
 1302              	.LVL132:
 484:D:/School/diseratie/SEMS/xmc4800_evaluation_kit/xmc4800_iot_kit/common/Libraries/XMCLib/src\xmc_dma.c ****     }
 1303              	 .loc 1 484 0
 1304 0000 40F20113 	 movw r3,#257
 1305 0004 8B40     	 lsls r3,r3,r1
 1306              	.LVL133:
 482:D:/School/diseratie/SEMS/xmc4800_evaluation_kit/xmc4800_iot_kit/common/Libraries/XMCLib/src\xmc_dma.c ****     {
 1307              	 .loc 1 482 0
 1308 0006 D107     	 lsls r1,r2,#31
 1309              	.LVL134:
 484:D:/School/diseratie/SEMS/xmc4800_evaluation_kit/xmc4800_iot_kit/common/Libraries/XMCLib/src\xmc_dma.c ****     }
 1310              	 .loc 1 484 0
 1311 0008 48BF     	 it mi
 1312 000a C0F81033 	 strmi r3,[r0,#784]
 482:D:/School/diseratie/SEMS/xmc4800_evaluation_kit/xmc4800_iot_kit/common/Libraries/XMCLib/src\xmc_dma.c ****     {
 1313              	 .loc 1 482 0
 1314 000e 9107     	 lsls r1,r2,#30
 484:D:/School/diseratie/SEMS/xmc4800_evaluation_kit/xmc4800_iot_kit/common/Libraries/XMCLib/src\xmc_dma.c ****     }
 1315              	 .loc 1 484 0
 1316 0010 48BF     	 it mi
 1317 0012 C0F81833 	 strmi r3,[r0,#792]
 482:D:/School/diseratie/SEMS/xmc4800_evaluation_kit/xmc4800_iot_kit/common/Libraries/XMCLib/src\xmc_dma.c ****     {
 1318              	 .loc 1 482 0
 1319 0016 5107     	 lsls r1,r2,#29
 484:D:/School/diseratie/SEMS/xmc4800_evaluation_kit/xmc4800_iot_kit/common/Libraries/XMCLib/src\xmc_dma.c ****     }
 1320              	 .loc 1 484 0
 1321 0018 48BF     	 it mi
 1322 001a C0F82033 	 strmi r3,[r0,#800]
 482:D:/School/diseratie/SEMS/xmc4800_evaluation_kit/xmc4800_iot_kit/common/Libraries/XMCLib/src\xmc_dma.c ****     {
 1323              	 .loc 1 482 0
 1324 001e 1107     	 lsls r1,r2,#28
 484:D:/School/diseratie/SEMS/xmc4800_evaluation_kit/xmc4800_iot_kit/common/Libraries/XMCLib/src\xmc_dma.c ****     }
 1325              	 .loc 1 484 0
 1326 0020 48BF     	 it mi
 1327 0022 C0F82833 	 strmi r3,[r0,#808]
 482:D:/School/diseratie/SEMS/xmc4800_evaluation_kit/xmc4800_iot_kit/common/Libraries/XMCLib/src\xmc_dma.c ****     {
 1328              	 .loc 1 482 0
 1329 0026 D206     	 lsls r2,r2,#27
 1330              	.LVL135:
 484:D:/School/diseratie/SEMS/xmc4800_evaluation_kit/xmc4800_iot_kit/common/Libraries/XMCLib/src\xmc_dma.c ****     }
 1331              	 .loc 1 484 0
 1332 0028 48BF     	 it mi
 1333 002a C0F83033 	 strmi r3,[r0,#816]
 1334              	.LVL136:
 1335 002e 7047     	 bx lr
 1336              	 .cfi_endproc
 1337              	.LFE201:
 1339              	 .section .text.XMC_DMA_CH_DisableEvent,"ax",%progbits
 1340              	 .align 2
 1341              	 .global XMC_DMA_CH_DisableEvent
 1342              	 .thumb
 1343              	 .thumb_func
 1345              	XMC_DMA_CH_DisableEvent:
 1346              	.LFB202:
 491:D:/School/diseratie/SEMS/xmc4800_evaluation_kit/xmc4800_iot_kit/common/Libraries/XMCLib/src\xmc_dma.c ****   uint32_t event_idx;
 1347              	 .loc 1 491 0
 1348              	 .cfi_startproc
 1349              	 
 1350              	 
 1351              	 
 1352              	.LVL137:
 498:D:/School/diseratie/SEMS/xmc4800_evaluation_kit/xmc4800_iot_kit/common/Libraries/XMCLib/src\xmc_dma.c ****     }
 1353              	 .loc 1 498 0
 1354 0000 4FF48073 	 mov r3,#256
 1355 0004 8B40     	 lsls r3,r3,r1
 1356              	.LVL138:
 496:D:/School/diseratie/SEMS/xmc4800_evaluation_kit/xmc4800_iot_kit/common/Libraries/XMCLib/src\xmc_dma.c ****     {
 1357              	 .loc 1 496 0
 1358 0006 D107     	 lsls r1,r2,#31
 1359              	.LVL139:
 498:D:/School/diseratie/SEMS/xmc4800_evaluation_kit/xmc4800_iot_kit/common/Libraries/XMCLib/src\xmc_dma.c ****     }
 1360              	 .loc 1 498 0
 1361 0008 48BF     	 it mi
 1362 000a C0F81033 	 strmi r3,[r0,#784]
 496:D:/School/diseratie/SEMS/xmc4800_evaluation_kit/xmc4800_iot_kit/common/Libraries/XMCLib/src\xmc_dma.c ****     {
 1363              	 .loc 1 496 0
 1364 000e 9107     	 lsls r1,r2,#30
 498:D:/School/diseratie/SEMS/xmc4800_evaluation_kit/xmc4800_iot_kit/common/Libraries/XMCLib/src\xmc_dma.c ****     }
 1365              	 .loc 1 498 0
 1366 0010 48BF     	 it mi
 1367 0012 C0F81833 	 strmi r3,[r0,#792]
 496:D:/School/diseratie/SEMS/xmc4800_evaluation_kit/xmc4800_iot_kit/common/Libraries/XMCLib/src\xmc_dma.c ****     {
 1368              	 .loc 1 496 0
 1369 0016 5107     	 lsls r1,r2,#29
 498:D:/School/diseratie/SEMS/xmc4800_evaluation_kit/xmc4800_iot_kit/common/Libraries/XMCLib/src\xmc_dma.c ****     }
 1370              	 .loc 1 498 0
 1371 0018 48BF     	 it mi
 1372 001a C0F82033 	 strmi r3,[r0,#800]
 496:D:/School/diseratie/SEMS/xmc4800_evaluation_kit/xmc4800_iot_kit/common/Libraries/XMCLib/src\xmc_dma.c ****     {
 1373              	 .loc 1 496 0
 1374 001e 1107     	 lsls r1,r2,#28
 498:D:/School/diseratie/SEMS/xmc4800_evaluation_kit/xmc4800_iot_kit/common/Libraries/XMCLib/src\xmc_dma.c ****     }
 1375              	 .loc 1 498 0
 1376 0020 48BF     	 it mi
 1377 0022 C0F82833 	 strmi r3,[r0,#808]
 496:D:/School/diseratie/SEMS/xmc4800_evaluation_kit/xmc4800_iot_kit/common/Libraries/XMCLib/src\xmc_dma.c ****     {
 1378              	 .loc 1 496 0
 1379 0026 D206     	 lsls r2,r2,#27
 1380              	.LVL140:
 498:D:/School/diseratie/SEMS/xmc4800_evaluation_kit/xmc4800_iot_kit/common/Libraries/XMCLib/src\xmc_dma.c ****     }
 1381              	 .loc 1 498 0
 1382 0028 48BF     	 it mi
 1383 002a C0F83033 	 strmi r3,[r0,#816]
 1384              	.LVL141:
 1385 002e 7047     	 bx lr
 1386              	 .cfi_endproc
 1387              	.LFE202:
 1389              	 .section .text.XMC_DMA_CH_ClearEventStatus,"ax",%progbits
 1390              	 .align 2
 1391              	 .global XMC_DMA_CH_ClearEventStatus
 1392              	 .thumb
 1393              	 .thumb_func
 1395              	XMC_DMA_CH_ClearEventStatus:
 1396              	.LFB203:
 505:D:/School/diseratie/SEMS/xmc4800_evaluation_kit/xmc4800_iot_kit/common/Libraries/XMCLib/src\xmc_dma.c ****   uint32_t event_idx;
 1397              	 .loc 1 505 0
 1398              	 .cfi_startproc
 1399              	 
 1400              	 
 1401              	 
 1402              	.LVL142:
 1403              	 .loc 1 512 0
 1404 0000 0123     	 movs r3,#1
 1405 0002 8B40     	 lsls r3,r3,r1
 1406              	.LVL143:
 510:D:/School/diseratie/SEMS/xmc4800_evaluation_kit/xmc4800_iot_kit/common/Libraries/XMCLib/src\xmc_dma.c ****     {
 1407              	 .loc 1 510 0
 1408 0004 D107     	 lsls r1,r2,#31
 1409              	.LVL144:
 1410              	 .loc 1 512 0
 1411 0006 48BF     	 it mi
 1412 0008 C0F83833 	 strmi r3,[r0,#824]
 510:D:/School/diseratie/SEMS/xmc4800_evaluation_kit/xmc4800_iot_kit/common/Libraries/XMCLib/src\xmc_dma.c ****     {
 1413              	 .loc 1 510 0
 1414 000c 9107     	 lsls r1,r2,#30
 1415              	 .loc 1 512 0
 1416 000e 48BF     	 it mi
 1417 0010 C0F84033 	 strmi r3,[r0,#832]
 510:D:/School/diseratie/SEMS/xmc4800_evaluation_kit/xmc4800_iot_kit/common/Libraries/XMCLib/src\xmc_dma.c ****     {
 1418              	 .loc 1 510 0
 1419 0014 5107     	 lsls r1,r2,#29
 1420              	 .loc 1 512 0
 1421 0016 48BF     	 it mi
 1422 0018 C0F84833 	 strmi r3,[r0,#840]
 510:D:/School/diseratie/SEMS/xmc4800_evaluation_kit/xmc4800_iot_kit/common/Libraries/XMCLib/src\xmc_dma.c ****     {
 1423              	 .loc 1 510 0
 1424 001c 1107     	 lsls r1,r2,#28
 1425              	 .loc 1 512 0
 1426 001e 48BF     	 it mi
 1427 0020 C0F85033 	 strmi r3,[r0,#848]
 510:D:/School/diseratie/SEMS/xmc4800_evaluation_kit/xmc4800_iot_kit/common/Libraries/XMCLib/src\xmc_dma.c ****     {
 1428              	 .loc 1 510 0
 1429 0024 D206     	 lsls r2,r2,#27
 1430              	.LVL145:
 1431              	 .loc 1 512 0
 1432 0026 48BF     	 it mi
 1433 0028 C0F85833 	 strmi r3,[r0,#856]
 1434              	.LVL146:
 1435 002c 7047     	 bx lr
 1436              	 .cfi_endproc
 1437              	.LFE203:
 1439 002e 00BF     	 .section .text.XMC_DMA_CH_GetEventStatus,"ax",%progbits
 1440              	 .align 2
 1441              	 .global XMC_DMA_CH_GetEventStatus
 1442              	 .thumb
 1443              	 .thumb_func
 1445              	XMC_DMA_CH_GetEventStatus:
 1446              	.LFB204:
 513:D:/School/diseratie/SEMS/xmc4800_evaluation_kit/xmc4800_iot_kit/common/Libraries/XMCLib/src\xmc_dma.c ****     }
 514:D:/School/diseratie/SEMS/xmc4800_evaluation_kit/xmc4800_iot_kit/common/Libraries/XMCLib/src\xmc_dma.c ****   }
 515:D:/School/diseratie/SEMS/xmc4800_evaluation_kit/xmc4800_iot_kit/common/Libraries/XMCLib/src\xmc_dma.c **** 
 516:D:/School/diseratie/SEMS/xmc4800_evaluation_kit/xmc4800_iot_kit/common/Libraries/XMCLib/src\xmc_dma.c **** }
 517:D:/School/diseratie/SEMS/xmc4800_evaluation_kit/xmc4800_iot_kit/common/Libraries/XMCLib/src\xmc_dma.c **** 
 518:D:/School/diseratie/SEMS/xmc4800_evaluation_kit/xmc4800_iot_kit/common/Libraries/XMCLib/src\xmc_dma.c **** /* Get GPDMA event status */
 519:D:/School/diseratie/SEMS/xmc4800_evaluation_kit/xmc4800_iot_kit/common/Libraries/XMCLib/src\xmc_dma.c **** uint32_t XMC_DMA_CH_GetEventStatus(XMC_DMA_t *const dma, const uint8_t channel)
 520:D:/School/diseratie/SEMS/xmc4800_evaluation_kit/xmc4800_iot_kit/common/Libraries/XMCLib/src\xmc_dma.c **** {
 1447              	 .loc 1 520 0
 1448              	 .cfi_startproc
 1449              	 
 1450              	 
 1451              	 
 1452              	.LVL147:
 1453 0000 F0B4     	 push {r4,r5,r6,r7}
 1454              	.LCFI12:
 1455              	 .cfi_def_cfa_offset 16
 1456              	 .cfi_offset 4,-16
 1457              	 .cfi_offset 5,-12
 1458              	 .cfi_offset 6,-8
 1459              	 .cfi_offset 7,-4
 1460 0002 0123     	 movs r3,#1
 521:D:/School/diseratie/SEMS/xmc4800_evaluation_kit/xmc4800_iot_kit/common/Libraries/XMCLib/src\xmc_dma.c ****   uint32_t event_idx;
 522:D:/School/diseratie/SEMS/xmc4800_evaluation_kit/xmc4800_iot_kit/common/Libraries/XMCLib/src\xmc_dma.c ****   uint32_t status = 0UL;
 523:D:/School/diseratie/SEMS/xmc4800_evaluation_kit/xmc4800_iot_kit/common/Libraries/XMCLib/src\xmc_dma.c **** 
 524:D:/School/diseratie/SEMS/xmc4800_evaluation_kit/xmc4800_iot_kit/common/Libraries/XMCLib/src\xmc_dma.c ****   for(event_idx = 0UL; event_idx < DMA_EVENT_MAX; ++event_idx)
 525:D:/School/diseratie/SEMS/xmc4800_evaluation_kit/xmc4800_iot_kit/common/Libraries/XMCLib/src\xmc_dma.c ****   {
 526:D:/School/diseratie/SEMS/xmc4800_evaluation_kit/xmc4800_iot_kit/common/Libraries/XMCLib/src\xmc_dma.c ****     status |= (uint32_t)((dma->STATUSCHEV[event_idx * 2UL] & (uint32_t)((uint32_t)0x1UL << (uint32_
 1461              	 .loc 1 526 0
 1462 0004 D0F8E872 	 ldr r7,[r0,#744]
 1463 0008 D0F8F022 	 ldr r2,[r0,#752]
 1464 000c D0F8F862 	 ldr r6,[r0,#760]
 1465 0010 D0F80053 	 ldr r5,[r0,#768]
 1466 0014 D0F80843 	 ldr r4,[r0,#776]
 1467 0018 8B40     	 lsls r3,r3,r1
 1468              	.LVL148:
 1469 001a 3B42     	 tst r3,r7
 1470 001c 14BF     	 ite ne
 1471 001e 0120     	 movne r0,#1
 1472              	.LVL149:
 1473 0020 0020     	 moveq r0,#0
 1474 0022 1342     	 tst r3,r2
 1475 0024 14BF     	 ite ne
 1476 0026 0222     	 movne r2,#2
 1477 0028 0022     	 moveq r2,#0
 1478 002a 3342     	 tst r3,r6
 1479 002c 40EA0200 	 orr r0,r0,r2
 1480 0030 14BF     	 ite ne
 1481 0032 0422     	 movne r2,#4
 1482 0034 0022     	 moveq r2,#0
 1483 0036 1D42     	 tst r5,r3
 1484 0038 40EA0200 	 orr r0,r0,r2
 1485 003c 14BF     	 ite ne
 1486 003e 0822     	 movne r2,#8
 1487 0040 0022     	 moveq r2,#0
 1488 0042 1C42     	 tst r4,r3
 1489 0044 40EA0203 	 orr r3,r0,r2
 1490              	.LVL150:
 1491 0048 14BF     	 ite ne
 1492 004a 1020     	 movne r0,#16
 1493 004c 0020     	 moveq r0,#0
 527:D:/School/diseratie/SEMS/xmc4800_evaluation_kit/xmc4800_iot_kit/common/Libraries/XMCLib/src\xmc_dma.c ****                          ((uint32_t)0x1UL << event_idx) : (uint32_t)0UL);
 528:D:/School/diseratie/SEMS/xmc4800_evaluation_kit/xmc4800_iot_kit/common/Libraries/XMCLib/src\xmc_dma.c ****   }
 529:D:/School/diseratie/SEMS/xmc4800_evaluation_kit/xmc4800_iot_kit/common/Libraries/XMCLib/src\xmc_dma.c **** 
 530:D:/School/diseratie/SEMS/xmc4800_evaluation_kit/xmc4800_iot_kit/common/Libraries/XMCLib/src\xmc_dma.c ****   return status;
 531:D:/School/diseratie/SEMS/xmc4800_evaluation_kit/xmc4800_iot_kit/common/Libraries/XMCLib/src\xmc_dma.c **** }
 1494              	 .loc 1 531 0
 1495 004e 1843     	 orrs r0,r0,r3
 1496 0050 F0BC     	 pop {r4,r5,r6,r7}
 1497              	.LCFI13:
 1498              	 .cfi_restore 7
 1499              	 .cfi_restore 6
 1500              	 .cfi_restore 5
 1501              	 .cfi_restore 4
 1502              	 .cfi_def_cfa_offset 0
 1503              	.LVL151:
 1504 0052 7047     	 bx lr
 1505              	 .cfi_endproc
 1506              	.LFE204:
 1508              	 .section .text.XMC_DMA_CH_EnableSourceGather,"ax",%progbits
 1509              	 .align 2
 1510              	 .global XMC_DMA_CH_EnableSourceGather
 1511              	 .thumb
 1512              	 .thumb_func
 1514              	XMC_DMA_CH_EnableSourceGather:
 1515              	.LFB205:
 532:D:/School/diseratie/SEMS/xmc4800_evaluation_kit/xmc4800_iot_kit/common/Libraries/XMCLib/src\xmc_dma.c **** 
 533:D:/School/diseratie/SEMS/xmc4800_evaluation_kit/xmc4800_iot_kit/common/Libraries/XMCLib/src\xmc_dma.c **** /* Enable source gather */
 534:D:/School/diseratie/SEMS/xmc4800_evaluation_kit/xmc4800_iot_kit/common/Libraries/XMCLib/src\xmc_dma.c **** void XMC_DMA_CH_EnableSourceGather(XMC_DMA_t *const dma, const uint8_t channel, uint32_t interval, 
 535:D:/School/diseratie/SEMS/xmc4800_evaluation_kit/xmc4800_iot_kit/common/Libraries/XMCLib/src\xmc_dma.c **** {
 1516              	 .loc 1 535 0
 1517              	 .cfi_startproc
 1518              	 
 1519              	 
 1520              	 
 1521              	.LVL152:
 1522 0000 10B4     	 push {r4}
 1523              	.LCFI14:
 1524              	 .cfi_def_cfa_offset 4
 1525              	 .cfi_offset 4,-4
 536:D:/School/diseratie/SEMS/xmc4800_evaluation_kit/xmc4800_iot_kit/common/Libraries/XMCLib/src\xmc_dma.c ****   dma->CH[channel].CTLL |= (uint32_t)GPDMA0_CH_CTLL_SRC_GATHER_EN_Msk;
 1526              	 .loc 1 536 0
 1527 0002 5824     	 movs r4,#88
 1528 0004 04FB0101 	 mla r1,r4,r1,r0
 1529              	.LVL153:
 537:D:/School/diseratie/SEMS/xmc4800_evaluation_kit/xmc4800_iot_kit/common/Libraries/XMCLib/src\xmc_dma.c ****   dma->CH[channel].SGR = ((uint32_t)interval << GPDMA0_CH_SGR_SGI_Pos) | ((uint32_t)count << GPDMA0
 1530              	 .loc 1 537 0
 1531 0008 42EA0353 	 orr r3,r2,r3,lsl#20
 1532              	.LVL154:
 536:D:/School/diseratie/SEMS/xmc4800_evaluation_kit/xmc4800_iot_kit/common/Libraries/XMCLib/src\xmc_dma.c ****   dma->CH[channel].CTLL |= (uint32_t)GPDMA0_CH_CTLL_SRC_GATHER_EN_Msk;
 1533              	 .loc 1 536 0
 1534 000c 8869     	 ldr r0,[r1,#24]
 1535              	.LVL155:
 538:D:/School/diseratie/SEMS/xmc4800_evaluation_kit/xmc4800_iot_kit/common/Libraries/XMCLib/src\xmc_dma.c **** }
 1536              	 .loc 1 538 0
 1537 000e 5DF8044B 	 ldr r4,[sp],#4
 1538              	.LCFI15:
 1539              	 .cfi_restore 4
 1540              	 .cfi_def_cfa_offset 0
 536:D:/School/diseratie/SEMS/xmc4800_evaluation_kit/xmc4800_iot_kit/common/Libraries/XMCLib/src\xmc_dma.c ****   dma->CH[channel].CTLL |= (uint32_t)GPDMA0_CH_CTLL_SRC_GATHER_EN_Msk;
 1541              	 .loc 1 536 0
 1542 0012 40F40030 	 orr r0,r0,#131072
 1543 0016 8861     	 str r0,[r1,#24]
 537:D:/School/diseratie/SEMS/xmc4800_evaluation_kit/xmc4800_iot_kit/common/Libraries/XMCLib/src\xmc_dma.c ****   dma->CH[channel].SGR = ((uint32_t)interval << GPDMA0_CH_SGR_SGI_Pos) | ((uint32_t)count << GPDMA0
 1544              	 .loc 1 537 0
 1545 0018 8B64     	 str r3,[r1,#72]
 1546              	 .loc 1 538 0
 1547 001a 7047     	 bx lr
 1548              	 .cfi_endproc
 1549              	.LFE205:
 1551              	 .section .text.XMC_DMA_CH_DisableSourceGather,"ax",%progbits
 1552              	 .align 2
 1553              	 .global XMC_DMA_CH_DisableSourceGather
 1554              	 .thumb
 1555              	 .thumb_func
 1557              	XMC_DMA_CH_DisableSourceGather:
 1558              	.LFB206:
 539:D:/School/diseratie/SEMS/xmc4800_evaluation_kit/xmc4800_iot_kit/common/Libraries/XMCLib/src\xmc_dma.c **** 
 540:D:/School/diseratie/SEMS/xmc4800_evaluation_kit/xmc4800_iot_kit/common/Libraries/XMCLib/src\xmc_dma.c **** /* Disable source gather */
 541:D:/School/diseratie/SEMS/xmc4800_evaluation_kit/xmc4800_iot_kit/common/Libraries/XMCLib/src\xmc_dma.c **** void XMC_DMA_CH_DisableSourceGather(XMC_DMA_t *const dma, const uint8_t channel)
 542:D:/School/diseratie/SEMS/xmc4800_evaluation_kit/xmc4800_iot_kit/common/Libraries/XMCLib/src\xmc_dma.c **** {
 1559              	 .loc 1 542 0
 1560              	 .cfi_startproc
 1561              	 
 1562              	 
 1563              	 
 1564              	.LVL156:
 543:D:/School/diseratie/SEMS/xmc4800_evaluation_kit/xmc4800_iot_kit/common/Libraries/XMCLib/src\xmc_dma.c ****   dma->CH[channel].CTLL &= (uint32_t)~GPDMA0_CH_CTLL_SRC_GATHER_EN_Msk;
 1565              	 .loc 1 543 0
 1566 0000 5823     	 movs r3,#88
 1567 0002 03FB0101 	 mla r1,r3,r1,r0
 1568              	.LVL157:
 1569 0006 8B69     	 ldr r3,[r1,#24]
 1570 0008 23F40033 	 bic r3,r3,#131072
 1571 000c 8B61     	 str r3,[r1,#24]
 1572 000e 7047     	 bx lr
 1573              	 .cfi_endproc
 1574              	.LFE206:
 1576              	 .section .text.XMC_DMA_CH_EnableDestinationScatter,"ax",%progbits
 1577              	 .align 2
 1578              	 .global XMC_DMA_CH_EnableDestinationScatter
 1579              	 .thumb
 1580              	 .thumb_func
 1582              	XMC_DMA_CH_EnableDestinationScatter:
 1583              	.LFB207:
 544:D:/School/diseratie/SEMS/xmc4800_evaluation_kit/xmc4800_iot_kit/common/Libraries/XMCLib/src\xmc_dma.c **** }
 545:D:/School/diseratie/SEMS/xmc4800_evaluation_kit/xmc4800_iot_kit/common/Libraries/XMCLib/src\xmc_dma.c **** 
 546:D:/School/diseratie/SEMS/xmc4800_evaluation_kit/xmc4800_iot_kit/common/Libraries/XMCLib/src\xmc_dma.c **** /* Enable destination scatter */
 547:D:/School/diseratie/SEMS/xmc4800_evaluation_kit/xmc4800_iot_kit/common/Libraries/XMCLib/src\xmc_dma.c **** void XMC_DMA_CH_EnableDestinationScatter(XMC_DMA_t *const dma, const uint8_t channel, uint32_t inte
 548:D:/School/diseratie/SEMS/xmc4800_evaluation_kit/xmc4800_iot_kit/common/Libraries/XMCLib/src\xmc_dma.c **** {
 1584              	 .loc 1 548 0
 1585              	 .cfi_startproc
 1586              	 
 1587              	 
 1588              	 
 1589              	.LVL158:
 1590 0000 10B4     	 push {r4}
 1591              	.LCFI16:
 1592              	 .cfi_def_cfa_offset 4
 1593              	 .cfi_offset 4,-4
 549:D:/School/diseratie/SEMS/xmc4800_evaluation_kit/xmc4800_iot_kit/common/Libraries/XMCLib/src\xmc_dma.c ****   dma->CH[channel].CTLL |= (uint32_t)GPDMA0_CH_CTLL_DST_SCATTER_EN_Msk;
 1594              	 .loc 1 549 0
 1595 0002 5824     	 movs r4,#88
 1596 0004 04FB0101 	 mla r1,r4,r1,r0
 1597              	.LVL159:
 550:D:/School/diseratie/SEMS/xmc4800_evaluation_kit/xmc4800_iot_kit/common/Libraries/XMCLib/src\xmc_dma.c ****   dma->CH[channel].DSR = ((uint32_t)interval << GPDMA0_CH_DSR_DSI_Pos) | ((uint32_t)count << GPDMA0
 1598              	 .loc 1 550 0
 1599 0008 42EA0353 	 orr r3,r2,r3,lsl#20
 1600              	.LVL160:
 549:D:/School/diseratie/SEMS/xmc4800_evaluation_kit/xmc4800_iot_kit/common/Libraries/XMCLib/src\xmc_dma.c ****   dma->CH[channel].CTLL |= (uint32_t)GPDMA0_CH_CTLL_DST_SCATTER_EN_Msk;
 1601              	 .loc 1 549 0
 1602 000c 8869     	 ldr r0,[r1,#24]
 1603              	.LVL161:
 551:D:/School/diseratie/SEMS/xmc4800_evaluation_kit/xmc4800_iot_kit/common/Libraries/XMCLib/src\xmc_dma.c **** }
 1604              	 .loc 1 551 0
 1605 000e 5DF8044B 	 ldr r4,[sp],#4
 1606              	.LCFI17:
 1607              	 .cfi_restore 4
 1608              	 .cfi_def_cfa_offset 0
 549:D:/School/diseratie/SEMS/xmc4800_evaluation_kit/xmc4800_iot_kit/common/Libraries/XMCLib/src\xmc_dma.c ****   dma->CH[channel].CTLL |= (uint32_t)GPDMA0_CH_CTLL_DST_SCATTER_EN_Msk;
 1609              	 .loc 1 549 0
 1610 0012 40F48020 	 orr r0,r0,#262144
 1611 0016 8861     	 str r0,[r1,#24]
 550:D:/School/diseratie/SEMS/xmc4800_evaluation_kit/xmc4800_iot_kit/common/Libraries/XMCLib/src\xmc_dma.c ****   dma->CH[channel].DSR = ((uint32_t)interval << GPDMA0_CH_DSR_DSI_Pos) | ((uint32_t)count << GPDMA0
 1612              	 .loc 1 550 0
 1613 0018 0B65     	 str r3,[r1,#80]
 1614              	 .loc 1 551 0
 1615 001a 7047     	 bx lr
 1616              	 .cfi_endproc
 1617              	.LFE207:
 1619              	 .section .text.XMC_DMA_CH_DisableDestinationScatter,"ax",%progbits
 1620              	 .align 2
 1621              	 .global XMC_DMA_CH_DisableDestinationScatter
 1622              	 .thumb
 1623              	 .thumb_func
 1625              	XMC_DMA_CH_DisableDestinationScatter:
 1626              	.LFB208:
 552:D:/School/diseratie/SEMS/xmc4800_evaluation_kit/xmc4800_iot_kit/common/Libraries/XMCLib/src\xmc_dma.c **** 
 553:D:/School/diseratie/SEMS/xmc4800_evaluation_kit/xmc4800_iot_kit/common/Libraries/XMCLib/src\xmc_dma.c **** /* Disable destination scatter */
 554:D:/School/diseratie/SEMS/xmc4800_evaluation_kit/xmc4800_iot_kit/common/Libraries/XMCLib/src\xmc_dma.c **** void XMC_DMA_CH_DisableDestinationScatter(XMC_DMA_t *const dma, const uint8_t channel)
 555:D:/School/diseratie/SEMS/xmc4800_evaluation_kit/xmc4800_iot_kit/common/Libraries/XMCLib/src\xmc_dma.c **** {
 1627              	 .loc 1 555 0
 1628              	 .cfi_startproc
 1629              	 
 1630              	 
 1631              	 
 1632              	.LVL162:
 556:D:/School/diseratie/SEMS/xmc4800_evaluation_kit/xmc4800_iot_kit/common/Libraries/XMCLib/src\xmc_dma.c ****   dma->CH[channel].CTLL &= (uint32_t)~GPDMA0_CH_CTLL_DST_SCATTER_EN_Msk;
 1633              	 .loc 1 556 0
 1634 0000 5823     	 movs r3,#88
 1635 0002 03FB0101 	 mla r1,r3,r1,r0
 1636              	.LVL163:
 1637 0006 8B69     	 ldr r3,[r1,#24]
 1638 0008 23F48023 	 bic r3,r3,#262144
 1639 000c 8B61     	 str r3,[r1,#24]
 1640 000e 7047     	 bx lr
 1641              	 .cfi_endproc
 1642              	.LFE208:
 1644              	 .section .text.XMC_DMA_CH_TriggerSourceRequest,"ax",%progbits
 1645              	 .align 2
 1646              	 .global XMC_DMA_CH_TriggerSourceRequest
 1647              	 .thumb
 1648              	 .thumb_func
 1650              	XMC_DMA_CH_TriggerSourceRequest:
 1651              	.LFB209:
 557:D:/School/diseratie/SEMS/xmc4800_evaluation_kit/xmc4800_iot_kit/common/Libraries/XMCLib/src\xmc_dma.c **** }
 558:D:/School/diseratie/SEMS/xmc4800_evaluation_kit/xmc4800_iot_kit/common/Libraries/XMCLib/src\xmc_dma.c **** 
 559:D:/School/diseratie/SEMS/xmc4800_evaluation_kit/xmc4800_iot_kit/common/Libraries/XMCLib/src\xmc_dma.c **** /* Trigger source request */
 560:D:/School/diseratie/SEMS/xmc4800_evaluation_kit/xmc4800_iot_kit/common/Libraries/XMCLib/src\xmc_dma.c **** void XMC_DMA_CH_TriggerSourceRequest(XMC_DMA_t *const dma, const uint8_t channel, const XMC_DMA_CH_
 561:D:/School/diseratie/SEMS/xmc4800_evaluation_kit/xmc4800_iot_kit/common/Libraries/XMCLib/src\xmc_dma.c **** {
 1652              	 .loc 1 561 0
 1653              	 .cfi_startproc
 1654              	 
 1655              	 
 1656              	 
 1657              	.LVL164:
 562:D:/School/diseratie/SEMS/xmc4800_evaluation_kit/xmc4800_iot_kit/common/Libraries/XMCLib/src\xmc_dma.c ****   if ((uint32_t)type == (uint32_t)XMC_DMA_CH_TRANSACTION_TYPE_SINGLE)
 1658              	 .loc 1 562 0
 1659 0000 42B1     	 cbz r2,.L187
 1660 0002 40F20112 	 movw r2,#257
 1661              	.LVL165:
 1662 0006 8A40     	 lsls r2,r2,r1
 1663              	.L188:
 563:D:/School/diseratie/SEMS/xmc4800_evaluation_kit/xmc4800_iot_kit/common/Libraries/XMCLib/src\xmc_dma.c ****   {  
 564:D:/School/diseratie/SEMS/xmc4800_evaluation_kit/xmc4800_iot_kit/common/Libraries/XMCLib/src\xmc_dma.c ****     dma->SGLREQSRCREG = ((uint32_t)0x101UL << channel);
 565:D:/School/diseratie/SEMS/xmc4800_evaluation_kit/xmc4800_iot_kit/common/Libraries/XMCLib/src\xmc_dma.c ****   }
 566:D:/School/diseratie/SEMS/xmc4800_evaluation_kit/xmc4800_iot_kit/common/Libraries/XMCLib/src\xmc_dma.c **** 
 567:D:/School/diseratie/SEMS/xmc4800_evaluation_kit/xmc4800_iot_kit/common/Libraries/XMCLib/src\xmc_dma.c ****   if (last == true)
 1664              	 .loc 1 567 0
 1665 0008 0BB1     	 cbz r3,.L189
 568:D:/School/diseratie/SEMS/xmc4800_evaluation_kit/xmc4800_iot_kit/common/Libraries/XMCLib/src\xmc_dma.c ****   {
 569:D:/School/diseratie/SEMS/xmc4800_evaluation_kit/xmc4800_iot_kit/common/Libraries/XMCLib/src\xmc_dma.c ****   dma->LSTSRCREG = (uint32_t)0x101UL << channel;
 1666              	 .loc 1 569 0
 1667 000a C0F88823 	 str r2,[r0,#904]
 1668              	.L189:
 570:D:/School/diseratie/SEMS/xmc4800_evaluation_kit/xmc4800_iot_kit/common/Libraries/XMCLib/src\xmc_dma.c ****   }
 571:D:/School/diseratie/SEMS/xmc4800_evaluation_kit/xmc4800_iot_kit/common/Libraries/XMCLib/src\xmc_dma.c ****   
 572:D:/School/diseratie/SEMS/xmc4800_evaluation_kit/xmc4800_iot_kit/common/Libraries/XMCLib/src\xmc_dma.c ****   dma->REQSRCREG = (uint32_t)0x101UL << channel;
 1669              	 .loc 1 572 0
 1670 000e C0F86823 	 str r2,[r0,#872]
 1671 0012 7047     	 bx lr
 1672              	.LVL166:
 1673              	.L187:
 564:D:/School/diseratie/SEMS/xmc4800_evaluation_kit/xmc4800_iot_kit/common/Libraries/XMCLib/src\xmc_dma.c ****   }
 1674              	 .loc 1 564 0
 1675 0014 40F20112 	 movw r2,#257
 1676              	.LVL167:
 1677 0018 8A40     	 lsls r2,r2,r1
 1678 001a C0F87823 	 str r2,[r0,#888]
 1679 001e F3E7     	 b .L188
 1680              	 .cfi_endproc
 1681              	.LFE209:
 1683              	 .section .text.XMC_DMA_CH_TriggerDestinationRequest,"ax",%progbits
 1684              	 .align 2
 1685              	 .global XMC_DMA_CH_TriggerDestinationRequest
 1686              	 .thumb
 1687              	 .thumb_func
 1689              	XMC_DMA_CH_TriggerDestinationRequest:
 1690              	.LFB210:
 573:D:/School/diseratie/SEMS/xmc4800_evaluation_kit/xmc4800_iot_kit/common/Libraries/XMCLib/src\xmc_dma.c **** }
 574:D:/School/diseratie/SEMS/xmc4800_evaluation_kit/xmc4800_iot_kit/common/Libraries/XMCLib/src\xmc_dma.c **** 
 575:D:/School/diseratie/SEMS/xmc4800_evaluation_kit/xmc4800_iot_kit/common/Libraries/XMCLib/src\xmc_dma.c **** /* Trigger destination request */
 576:D:/School/diseratie/SEMS/xmc4800_evaluation_kit/xmc4800_iot_kit/common/Libraries/XMCLib/src\xmc_dma.c **** void XMC_DMA_CH_TriggerDestinationRequest(XMC_DMA_t *const dma, const uint8_t channel, const XMC_DM
 577:D:/School/diseratie/SEMS/xmc4800_evaluation_kit/xmc4800_iot_kit/common/Libraries/XMCLib/src\xmc_dma.c **** {
 1691              	 .loc 1 577 0
 1692              	 .cfi_startproc
 1693              	 
 1694              	 
 1695              	 
 1696              	.LVL168:
 578:D:/School/diseratie/SEMS/xmc4800_evaluation_kit/xmc4800_iot_kit/common/Libraries/XMCLib/src\xmc_dma.c ****   if(type == XMC_DMA_CH_TRANSACTION_TYPE_SINGLE)
 1697              	 .loc 1 578 0
 1698 0000 42B1     	 cbz r2,.L194
 1699 0002 40F20112 	 movw r2,#257
 1700              	.LVL169:
 1701 0006 8A40     	 lsls r2,r2,r1
 1702              	.L195:
 579:D:/School/diseratie/SEMS/xmc4800_evaluation_kit/xmc4800_iot_kit/common/Libraries/XMCLib/src\xmc_dma.c ****   {  
 580:D:/School/diseratie/SEMS/xmc4800_evaluation_kit/xmc4800_iot_kit/common/Libraries/XMCLib/src\xmc_dma.c ****     dma->SGLREQDSTREG = (uint32_t)0x101UL << channel;
 581:D:/School/diseratie/SEMS/xmc4800_evaluation_kit/xmc4800_iot_kit/common/Libraries/XMCLib/src\xmc_dma.c ****   }
 582:D:/School/diseratie/SEMS/xmc4800_evaluation_kit/xmc4800_iot_kit/common/Libraries/XMCLib/src\xmc_dma.c **** 
 583:D:/School/diseratie/SEMS/xmc4800_evaluation_kit/xmc4800_iot_kit/common/Libraries/XMCLib/src\xmc_dma.c ****   if (last == true)
 1703              	 .loc 1 583 0
 1704 0008 0BB1     	 cbz r3,.L196
 584:D:/School/diseratie/SEMS/xmc4800_evaluation_kit/xmc4800_iot_kit/common/Libraries/XMCLib/src\xmc_dma.c ****   {
 585:D:/School/diseratie/SEMS/xmc4800_evaluation_kit/xmc4800_iot_kit/common/Libraries/XMCLib/src\xmc_dma.c ****     dma->LSTDSTREG = (uint32_t)0x101UL << channel;
 1705              	 .loc 1 585 0
 1706 000a C0F89023 	 str r2,[r0,#912]
 1707              	.L196:
 586:D:/School/diseratie/SEMS/xmc4800_evaluation_kit/xmc4800_iot_kit/common/Libraries/XMCLib/src\xmc_dma.c ****   }
 587:D:/School/diseratie/SEMS/xmc4800_evaluation_kit/xmc4800_iot_kit/common/Libraries/XMCLib/src\xmc_dma.c **** 
 588:D:/School/diseratie/SEMS/xmc4800_evaluation_kit/xmc4800_iot_kit/common/Libraries/XMCLib/src\xmc_dma.c ****   dma->REQDSTREG = (uint32_t)0x101UL << channel;
 1708              	 .loc 1 588 0
 1709 000e C0F87023 	 str r2,[r0,#880]
 1710 0012 7047     	 bx lr
 1711              	.LVL170:
 1712              	.L194:
 580:D:/School/diseratie/SEMS/xmc4800_evaluation_kit/xmc4800_iot_kit/common/Libraries/XMCLib/src\xmc_dma.c ****   }
 1713              	 .loc 1 580 0
 1714 0014 40F20112 	 movw r2,#257
 1715              	.LVL171:
 1716 0018 8A40     	 lsls r2,r2,r1
 1717 001a C0F88023 	 str r2,[r0,#896]
 1718 001e F3E7     	 b .L195
 1719              	 .cfi_endproc
 1720              	.LFE210:
 1722              	 .section .text.XMC_DMA_CH_EnableSourceAddressReload,"ax",%progbits
 1723              	 .align 2
 1724              	 .global XMC_DMA_CH_EnableSourceAddressReload
 1725              	 .thumb
 1726              	 .thumb_func
 1728              	XMC_DMA_CH_EnableSourceAddressReload:
 1729              	.LFB211:
 589:D:/School/diseratie/SEMS/xmc4800_evaluation_kit/xmc4800_iot_kit/common/Libraries/XMCLib/src\xmc_dma.c **** }
 590:D:/School/diseratie/SEMS/xmc4800_evaluation_kit/xmc4800_iot_kit/common/Libraries/XMCLib/src\xmc_dma.c **** 
 591:D:/School/diseratie/SEMS/xmc4800_evaluation_kit/xmc4800_iot_kit/common/Libraries/XMCLib/src\xmc_dma.c **** /* Enable source address reload */
 592:D:/School/diseratie/SEMS/xmc4800_evaluation_kit/xmc4800_iot_kit/common/Libraries/XMCLib/src\xmc_dma.c **** void XMC_DMA_CH_EnableSourceAddressReload(XMC_DMA_t *const dma, const uint8_t channel)
 593:D:/School/diseratie/SEMS/xmc4800_evaluation_kit/xmc4800_iot_kit/common/Libraries/XMCLib/src\xmc_dma.c **** {
 1730              	 .loc 1 593 0
 1731              	 .cfi_startproc
 1732              	 
 1733              	 
 1734              	 
 1735              	.LVL172:
 594:D:/School/diseratie/SEMS/xmc4800_evaluation_kit/xmc4800_iot_kit/common/Libraries/XMCLib/src\xmc_dma.c ****   dma->CH[channel].CFGL |= (uint32_t)GPDMA0_CH_CFGL_RELOAD_SRC_Msk;
 1736              	 .loc 1 594 0
 1737 0000 5823     	 movs r3,#88
 1738 0002 03FB0101 	 mla r1,r3,r1,r0
 1739              	.LVL173:
 1740 0006 0B6C     	 ldr r3,[r1,#64]
 1741 0008 43F08043 	 orr r3,r3,#1073741824
 1742 000c 0B64     	 str r3,[r1,#64]
 1743 000e 7047     	 bx lr
 1744              	 .cfi_endproc
 1745              	.LFE211:
 1747              	 .section .text.XMC_DMA_CH_DisableSourceAddressReload,"ax",%progbits
 1748              	 .align 2
 1749              	 .global XMC_DMA_CH_DisableSourceAddressReload
 1750              	 .thumb
 1751              	 .thumb_func
 1753              	XMC_DMA_CH_DisableSourceAddressReload:
 1754              	.LFB212:
 595:D:/School/diseratie/SEMS/xmc4800_evaluation_kit/xmc4800_iot_kit/common/Libraries/XMCLib/src\xmc_dma.c **** }
 596:D:/School/diseratie/SEMS/xmc4800_evaluation_kit/xmc4800_iot_kit/common/Libraries/XMCLib/src\xmc_dma.c **** 
 597:D:/School/diseratie/SEMS/xmc4800_evaluation_kit/xmc4800_iot_kit/common/Libraries/XMCLib/src\xmc_dma.c **** /* Disable source address reload */
 598:D:/School/diseratie/SEMS/xmc4800_evaluation_kit/xmc4800_iot_kit/common/Libraries/XMCLib/src\xmc_dma.c **** void XMC_DMA_CH_DisableSourceAddressReload(XMC_DMA_t *const dma, const uint8_t channel)
 599:D:/School/diseratie/SEMS/xmc4800_evaluation_kit/xmc4800_iot_kit/common/Libraries/XMCLib/src\xmc_dma.c **** {
 1755              	 .loc 1 599 0
 1756              	 .cfi_startproc
 1757              	 
 1758              	 
 1759              	 
 1760              	.LVL174:
 600:D:/School/diseratie/SEMS/xmc4800_evaluation_kit/xmc4800_iot_kit/common/Libraries/XMCLib/src\xmc_dma.c ****   dma->CH[channel].CFGL &= (uint32_t)~GPDMA0_CH_CFGL_RELOAD_SRC_Msk;
 1761              	 .loc 1 600 0
 1762 0000 5823     	 movs r3,#88
 1763 0002 03FB0101 	 mla r1,r3,r1,r0
 1764              	.LVL175:
 1765 0006 0B6C     	 ldr r3,[r1,#64]
 1766 0008 23F08043 	 bic r3,r3,#1073741824
 1767 000c 0B64     	 str r3,[r1,#64]
 1768 000e 7047     	 bx lr
 1769              	 .cfi_endproc
 1770              	.LFE212:
 1772              	 .section .text.XMC_DMA_CH_EnableDestinationAddressReload,"ax",%progbits
 1773              	 .align 2
 1774              	 .global XMC_DMA_CH_EnableDestinationAddressReload
 1775              	 .thumb
 1776              	 .thumb_func
 1778              	XMC_DMA_CH_EnableDestinationAddressReload:
 1779              	.LFB213:
 601:D:/School/diseratie/SEMS/xmc4800_evaluation_kit/xmc4800_iot_kit/common/Libraries/XMCLib/src\xmc_dma.c **** }
 602:D:/School/diseratie/SEMS/xmc4800_evaluation_kit/xmc4800_iot_kit/common/Libraries/XMCLib/src\xmc_dma.c **** 
 603:D:/School/diseratie/SEMS/xmc4800_evaluation_kit/xmc4800_iot_kit/common/Libraries/XMCLib/src\xmc_dma.c **** /* Enable destination address reload */
 604:D:/School/diseratie/SEMS/xmc4800_evaluation_kit/xmc4800_iot_kit/common/Libraries/XMCLib/src\xmc_dma.c **** void XMC_DMA_CH_EnableDestinationAddressReload(XMC_DMA_t *const dma, const uint8_t channel)
 605:D:/School/diseratie/SEMS/xmc4800_evaluation_kit/xmc4800_iot_kit/common/Libraries/XMCLib/src\xmc_dma.c **** {
 1780              	 .loc 1 605 0
 1781              	 .cfi_startproc
 1782              	 
 1783              	 
 1784              	 
 1785              	.LVL176:
 606:D:/School/diseratie/SEMS/xmc4800_evaluation_kit/xmc4800_iot_kit/common/Libraries/XMCLib/src\xmc_dma.c ****   dma->CH[channel].CFGL |= (uint32_t)GPDMA0_CH_CFGL_RELOAD_DST_Msk;
 1786              	 .loc 1 606 0
 1787 0000 5823     	 movs r3,#88
 1788 0002 03FB0101 	 mla r1,r3,r1,r0
 1789              	.LVL177:
 1790 0006 0B6C     	 ldr r3,[r1,#64]
 1791 0008 43F00043 	 orr r3,r3,#-2147483648
 1792 000c 0B64     	 str r3,[r1,#64]
 1793 000e 7047     	 bx lr
 1794              	 .cfi_endproc
 1795              	.LFE213:
 1797              	 .section .text.XMC_DMA_CH_DisableDestinationAddressReload,"ax",%progbits
 1798              	 .align 2
 1799              	 .global XMC_DMA_CH_DisableDestinationAddressReload
 1800              	 .thumb
 1801              	 .thumb_func
 1803              	XMC_DMA_CH_DisableDestinationAddressReload:
 1804              	.LFB214:
 607:D:/School/diseratie/SEMS/xmc4800_evaluation_kit/xmc4800_iot_kit/common/Libraries/XMCLib/src\xmc_dma.c **** }
 608:D:/School/diseratie/SEMS/xmc4800_evaluation_kit/xmc4800_iot_kit/common/Libraries/XMCLib/src\xmc_dma.c **** 
 609:D:/School/diseratie/SEMS/xmc4800_evaluation_kit/xmc4800_iot_kit/common/Libraries/XMCLib/src\xmc_dma.c **** /* Disable destination address reload */
 610:D:/School/diseratie/SEMS/xmc4800_evaluation_kit/xmc4800_iot_kit/common/Libraries/XMCLib/src\xmc_dma.c **** void XMC_DMA_CH_DisableDestinationAddressReload(XMC_DMA_t *const dma, const uint8_t channel)
 611:D:/School/diseratie/SEMS/xmc4800_evaluation_kit/xmc4800_iot_kit/common/Libraries/XMCLib/src\xmc_dma.c **** {
 1805              	 .loc 1 611 0
 1806              	 .cfi_startproc
 1807              	 
 1808              	 
 1809              	 
 1810              	.LVL178:
 612:D:/School/diseratie/SEMS/xmc4800_evaluation_kit/xmc4800_iot_kit/common/Libraries/XMCLib/src\xmc_dma.c ****   dma->CH[channel].CFGL &= (uint32_t)~GPDMA0_CH_CFGL_RELOAD_DST_Msk;
 1811              	 .loc 1 612 0
 1812 0000 5823     	 movs r3,#88
 1813 0002 03FB0101 	 mla r1,r3,r1,r0
 1814              	.LVL179:
 1815 0006 0B6C     	 ldr r3,[r1,#64]
 1816 0008 23F00043 	 bic r3,r3,#-2147483648
 1817 000c 0B64     	 str r3,[r1,#64]
 1818 000e 7047     	 bx lr
 1819              	 .cfi_endproc
 1820              	.LFE214:
 1822              	 .section .text.XMC_DMA_CH_RequestLastMultiblockTransfer,"ax",%progbits
 1823              	 .align 2
 1824              	 .global XMC_DMA_CH_RequestLastMultiblockTransfer
 1825              	 .thumb
 1826              	 .thumb_func
 1828              	XMC_DMA_CH_RequestLastMultiblockTransfer:
 1829              	.LFB215:
 613:D:/School/diseratie/SEMS/xmc4800_evaluation_kit/xmc4800_iot_kit/common/Libraries/XMCLib/src\xmc_dma.c **** }
 614:D:/School/diseratie/SEMS/xmc4800_evaluation_kit/xmc4800_iot_kit/common/Libraries/XMCLib/src\xmc_dma.c **** 
 615:D:/School/diseratie/SEMS/xmc4800_evaluation_kit/xmc4800_iot_kit/common/Libraries/XMCLib/src\xmc_dma.c **** /* Request last multi-block transfer */
 616:D:/School/diseratie/SEMS/xmc4800_evaluation_kit/xmc4800_iot_kit/common/Libraries/XMCLib/src\xmc_dma.c **** void XMC_DMA_CH_RequestLastMultiblockTransfer(XMC_DMA_t *const dma, const uint8_t channel)
 617:D:/School/diseratie/SEMS/xmc4800_evaluation_kit/xmc4800_iot_kit/common/Libraries/XMCLib/src\xmc_dma.c **** {
 1830              	 .loc 1 617 0
 1831              	 .cfi_startproc
 1832              	 
 1833              	 
 1834              	 
 1835              	.LVL180:
 618:D:/School/diseratie/SEMS/xmc4800_evaluation_kit/xmc4800_iot_kit/common/Libraries/XMCLib/src\xmc_dma.c ****   dma->CH[channel].CFGL &= (uint32_t)~(GPDMA0_CH_CFGL_RELOAD_SRC_Msk | GPDMA0_CH_CFGL_RELOAD_DST_Ms
 1836              	 .loc 1 618 0
 1837 0000 5823     	 movs r3,#88
 1838 0002 03FB0101 	 mla r1,r3,r1,r0
 1839              	.LVL181:
 1840 0006 0B6C     	 ldr r3,[r1,#64]
 1841 0008 23F04043 	 bic r3,r3,#-1073741824
 1842 000c 0B64     	 str r3,[r1,#64]
 619:D:/School/diseratie/SEMS/xmc4800_evaluation_kit/xmc4800_iot_kit/common/Libraries/XMCLib/src\xmc_dma.c ****   dma->CH[channel].CTLL &= (uint32_t)~(GPDMA0_CH_CTLL_LLP_SRC_EN_Msk | GPDMA0_CH_CTLL_LLP_DST_EN_Ms
 1843              	 .loc 1 619 0
 1844 000e 8B69     	 ldr r3,[r1,#24]
 1845 0010 23F0C053 	 bic r3,r3,#402653184
 1846 0014 8B61     	 str r3,[r1,#24]
 1847 0016 7047     	 bx lr
 1848              	 .cfi_endproc
 1849              	.LFE215:
 1851              	 .section .text.XMC_DMA_CH_SetEventHandler,"ax",%progbits
 1852              	 .align 2
 1853              	 .global XMC_DMA_CH_SetEventHandler
 1854              	 .thumb
 1855              	 .thumb_func
 1857              	XMC_DMA_CH_SetEventHandler:
 1858              	.LFB216:
 620:D:/School/diseratie/SEMS/xmc4800_evaluation_kit/xmc4800_iot_kit/common/Libraries/XMCLib/src\xmc_dma.c **** }
 621:D:/School/diseratie/SEMS/xmc4800_evaluation_kit/xmc4800_iot_kit/common/Libraries/XMCLib/src\xmc_dma.c **** 
 622:D:/School/diseratie/SEMS/xmc4800_evaluation_kit/xmc4800_iot_kit/common/Libraries/XMCLib/src\xmc_dma.c **** /* Set event handler */
 623:D:/School/diseratie/SEMS/xmc4800_evaluation_kit/xmc4800_iot_kit/common/Libraries/XMCLib/src\xmc_dma.c **** void XMC_DMA_CH_SetEventHandler(XMC_DMA_t *const dma, const uint8_t channel, XMC_DMA_CH_EVENT_HANDL
 624:D:/School/diseratie/SEMS/xmc4800_evaluation_kit/xmc4800_iot_kit/common/Libraries/XMCLib/src\xmc_dma.c **** {
 1859              	 .loc 1 624 0
 1860              	 .cfi_startproc
 1861              	 
 1862              	 
 1863              	 
 1864              	.LVL182:
 625:D:/School/diseratie/SEMS/xmc4800_evaluation_kit/xmc4800_iot_kit/common/Libraries/XMCLib/src\xmc_dma.c **** #if defined(GPDMA1)
 626:D:/School/diseratie/SEMS/xmc4800_evaluation_kit/xmc4800_iot_kit/common/Libraries/XMCLib/src\xmc_dma.c ****   if (dma == XMC_DMA0)
 1865              	 .loc 1 626 0
 1866 0000 034B     	 ldr r3,.L208
 1867 0002 9842     	 cmp r0,r3
 627:D:/School/diseratie/SEMS/xmc4800_evaluation_kit/xmc4800_iot_kit/common/Libraries/XMCLib/src\xmc_dma.c ****   {
 628:D:/School/diseratie/SEMS/xmc4800_evaluation_kit/xmc4800_iot_kit/common/Libraries/XMCLib/src\xmc_dma.c **** #endif
 629:D:/School/diseratie/SEMS/xmc4800_evaluation_kit/xmc4800_iot_kit/common/Libraries/XMCLib/src\xmc_dma.c ****     dma0_event_handlers[channel] = event_handler;
 1868              	 .loc 1 629 0
 1869 0004 0CBF     	 ite eq
 1870 0006 034B     	 ldreq r3,.L208+4
 630:D:/School/diseratie/SEMS/xmc4800_evaluation_kit/xmc4800_iot_kit/common/Libraries/XMCLib/src\xmc_dma.c **** #if defined(GPDMA1)
 631:D:/School/diseratie/SEMS/xmc4800_evaluation_kit/xmc4800_iot_kit/common/Libraries/XMCLib/src\xmc_dma.c ****   }
 632:D:/School/diseratie/SEMS/xmc4800_evaluation_kit/xmc4800_iot_kit/common/Libraries/XMCLib/src\xmc_dma.c ****   else
 633:D:/School/diseratie/SEMS/xmc4800_evaluation_kit/xmc4800_iot_kit/common/Libraries/XMCLib/src\xmc_dma.c ****   {
 634:D:/School/diseratie/SEMS/xmc4800_evaluation_kit/xmc4800_iot_kit/common/Libraries/XMCLib/src\xmc_dma.c ****     dma1_event_handlers[channel] = event_handler;
 1871              	 .loc 1 634 0
 1872 0008 034B     	 ldrne r3,.L208+8
 1873 000a 43F82120 	 str r2,[r3,r1,lsl#2]
 1874 000e 7047     	 bx lr
 1875              	.L209:
 1876              	 .align 2
 1877              	.L208:
 1878 0010 00400150 	 .word 1342259200
 1879 0014 00000000 	 .word dma0_event_handlers
 1880 0018 00000000 	 .word dma1_event_handlers
 1881              	 .cfi_endproc
 1882              	.LFE216:
 1884              	 .section .text.XMC_DMA_CH_ClearSourcePeripheralRequest,"ax",%progbits
 1885              	 .align 2
 1886              	 .global XMC_DMA_CH_ClearSourcePeripheralRequest
 1887              	 .thumb
 1888              	 .thumb_func
 1890              	XMC_DMA_CH_ClearSourcePeripheralRequest:
 1891              	.LFB217:
 635:D:/School/diseratie/SEMS/xmc4800_evaluation_kit/xmc4800_iot_kit/common/Libraries/XMCLib/src\xmc_dma.c ****   }
 636:D:/School/diseratie/SEMS/xmc4800_evaluation_kit/xmc4800_iot_kit/common/Libraries/XMCLib/src\xmc_dma.c **** #endif
 637:D:/School/diseratie/SEMS/xmc4800_evaluation_kit/xmc4800_iot_kit/common/Libraries/XMCLib/src\xmc_dma.c **** }
 638:D:/School/diseratie/SEMS/xmc4800_evaluation_kit/xmc4800_iot_kit/common/Libraries/XMCLib/src\xmc_dma.c **** 
 639:D:/School/diseratie/SEMS/xmc4800_evaluation_kit/xmc4800_iot_kit/common/Libraries/XMCLib/src\xmc_dma.c **** void XMC_DMA_CH_ClearSourcePeripheralRequest(XMC_DMA_t *const dma, uint8_t channel)
 640:D:/School/diseratie/SEMS/xmc4800_evaluation_kit/xmc4800_iot_kit/common/Libraries/XMCLib/src\xmc_dma.c **** {
 1892              	 .loc 1 640 0
 1893              	 .cfi_startproc
 1894              	 
 1895              	 
 1896              	 
 1897              	.LVL183:
 641:D:/School/diseratie/SEMS/xmc4800_evaluation_kit/xmc4800_iot_kit/common/Libraries/XMCLib/src\xmc_dma.c ****   uint32_t line;
 642:D:/School/diseratie/SEMS/xmc4800_evaluation_kit/xmc4800_iot_kit/common/Libraries/XMCLib/src\xmc_dma.c ****   line = (dma->CH[channel].CFGH & GPDMA0_CH_CFGH_SRC_PER_Msk) >> GPDMA0_CH_CFGH_SRC_PER_Pos;
 1898              	 .loc 1 642 0
 1899 0000 5823     	 movs r3,#88
 1900 0002 03FB0101 	 mla r1,r3,r1,r0
 1901              	.LVL184:
 1902              	.LBB96:
 1903              	.LBB97:
 241:D:/School/diseratie/SEMS/xmc4800_evaluation_kit/xmc4800_iot_kit/common/Libraries/XMCLib/src\xmc_dma.c ****   {
 1904              	 .loc 1 241 0
 1905 0006 0A4A     	 ldr r2,.L214
 1906              	.LBE97:
 1907              	.LBE96:
 1908              	 .loc 1 642 0
 1909 0008 4B6C     	 ldr r3,[r1,#68]
 1910 000a C3F3C311 	 ubfx r1,r3,#7,#4
 1911              	.LVL185:
 1912              	.LBB103:
 1913              	.LBB102:
 1914              	.LBB98:
 1915              	.LBB99:
 244:D:/School/diseratie/SEMS/xmc4800_evaluation_kit/xmc4800_iot_kit/common/Libraries/XMCLib/src\xmc_dma.c **** 	DLR->LNEN |= 0x1UL << line;
 1916              	 .loc 1 244 0
 1917 000e 094B     	 ldr r3,.L214+4
 1918              	.LBE99:
 1919              	.LBE98:
 241:D:/School/diseratie/SEMS/xmc4800_evaluation_kit/xmc4800_iot_kit/common/Libraries/XMCLib/src\xmc_dma.c ****   {
 1920              	 .loc 1 241 0
 1921 0010 9042     	 cmp r0,r2
 1922              	.LBB101:
 1923              	.LBB100:
 244:D:/School/diseratie/SEMS/xmc4800_evaluation_kit/xmc4800_iot_kit/common/Libraries/XMCLib/src\xmc_dma.c **** 	DLR->LNEN |= 0x1UL << line;
 1924              	 .loc 1 244 0
 1925 0012 08BF     	 it eq
 1926 0014 0122     	 moveq r2,#1
 1927              	.LBE100:
 1928              	.LBE101:
 250:D:/School/diseratie/SEMS/xmc4800_evaluation_kit/xmc4800_iot_kit/common/Libraries/XMCLib/src\xmc_dma.c **** 	DLR->LNEN |= 0x100UL << line;
 1929              	 .loc 1 250 0
 1930 0016 1869     	 ldr r0,[r3,#16]
 1931              	.LVL186:
 1932 0018 18BF     	 it ne
 1933 001a 4FF48072 	 movne r2,#256
 1934 001e 8A40     	 lsls r2,r2,r1
 1935 0020 20EA0201 	 bic r1,r0,r2
 1936              	.LVL187:
 1937 0024 1961     	 str r1,[r3,#16]
 251:D:/School/diseratie/SEMS/xmc4800_evaluation_kit/xmc4800_iot_kit/common/Libraries/XMCLib/src\xmc_dma.c ****   }
 1938              	 .loc 1 251 0
 1939 0026 1969     	 ldr r1,[r3,#16]
 1940 0028 0A43     	 orrs r2,r2,r1
 1941 002a 1A61     	 str r2,[r3,#16]
 1942 002c 7047     	 bx lr
 1943              	.L215:
 1944 002e 00BF     	 .align 2
 1945              	.L214:
 1946 0030 00400150 	 .word 1342259200
 1947 0034 00490050 	 .word 1342195968
 1948              	.LBE102:
 1949              	.LBE103:
 1950              	 .cfi_endproc
 1951              	.LFE217:
 1953              	 .section .text.XMC_DMA_CH_ClearDestinationPeripheralRequest,"ax",%progbits
 1954              	 .align 2
 1955              	 .global XMC_DMA_CH_ClearDestinationPeripheralRequest
 1956              	 .thumb
 1957              	 .thumb_func
 1959              	XMC_DMA_CH_ClearDestinationPeripheralRequest:
 1960              	.LFB218:
 643:D:/School/diseratie/SEMS/xmc4800_evaluation_kit/xmc4800_iot_kit/common/Libraries/XMCLib/src\xmc_dma.c **** 
 644:D:/School/diseratie/SEMS/xmc4800_evaluation_kit/xmc4800_iot_kit/common/Libraries/XMCLib/src\xmc_dma.c ****   XMC_DMA_ClearRequestLine(dma, (uint8_t)line);
 645:D:/School/diseratie/SEMS/xmc4800_evaluation_kit/xmc4800_iot_kit/common/Libraries/XMCLib/src\xmc_dma.c **** }
 646:D:/School/diseratie/SEMS/xmc4800_evaluation_kit/xmc4800_iot_kit/common/Libraries/XMCLib/src\xmc_dma.c **** 
 647:D:/School/diseratie/SEMS/xmc4800_evaluation_kit/xmc4800_iot_kit/common/Libraries/XMCLib/src\xmc_dma.c **** void XMC_DMA_CH_ClearDestinationPeripheralRequest(XMC_DMA_t *const dma, uint8_t channel)
 648:D:/School/diseratie/SEMS/xmc4800_evaluation_kit/xmc4800_iot_kit/common/Libraries/XMCLib/src\xmc_dma.c **** {
 1961              	 .loc 1 648 0
 1962              	 .cfi_startproc
 1963              	 
 1964              	 
 1965              	 
 1966              	.LVL188:
 649:D:/School/diseratie/SEMS/xmc4800_evaluation_kit/xmc4800_iot_kit/common/Libraries/XMCLib/src\xmc_dma.c ****   uint32_t line;
 650:D:/School/diseratie/SEMS/xmc4800_evaluation_kit/xmc4800_iot_kit/common/Libraries/XMCLib/src\xmc_dma.c ****   line = (dma->CH[channel].CFGH & GPDMA0_CH_CFGH_DEST_PER_Msk) >> GPDMA0_CH_CFGH_DEST_PER_Pos;
 1967              	 .loc 1 650 0
 1968 0000 5823     	 movs r3,#88
 1969 0002 03FB0101 	 mla r1,r3,r1,r0
 1970              	.LVL189:
 1971              	.LBB108:
 1972              	.LBB109:
 241:D:/School/diseratie/SEMS/xmc4800_evaluation_kit/xmc4800_iot_kit/common/Libraries/XMCLib/src\xmc_dma.c ****   {
 1973              	 .loc 1 241 0
 1974 0006 0A4A     	 ldr r2,.L220
 1975              	.LBE109:
 1976              	.LBE108:
 1977              	 .loc 1 650 0
 1978 0008 4B6C     	 ldr r3,[r1,#68]
 1979 000a C3F3C321 	 ubfx r1,r3,#11,#4
 1980              	.LVL190:
 1981              	.LBB115:
 1982              	.LBB114:
 1983              	.LBB110:
 1984              	.LBB111:
 244:D:/School/diseratie/SEMS/xmc4800_evaluation_kit/xmc4800_iot_kit/common/Libraries/XMCLib/src\xmc_dma.c **** 	DLR->LNEN |= 0x1UL << line;
 1985              	 .loc 1 244 0
 1986 000e 094B     	 ldr r3,.L220+4
 1987              	.LBE111:
 1988              	.LBE110:
 241:D:/School/diseratie/SEMS/xmc4800_evaluation_kit/xmc4800_iot_kit/common/Libraries/XMCLib/src\xmc_dma.c ****   {
 1989              	 .loc 1 241 0
 1990 0010 9042     	 cmp r0,r2
 1991              	.LBB113:
 1992              	.LBB112:
 244:D:/School/diseratie/SEMS/xmc4800_evaluation_kit/xmc4800_iot_kit/common/Libraries/XMCLib/src\xmc_dma.c **** 	DLR->LNEN |= 0x1UL << line;
 1993              	 .loc 1 244 0
 1994 0012 08BF     	 it eq
 1995 0014 0122     	 moveq r2,#1
 1996              	.LBE112:
 1997              	.LBE113:
 250:D:/School/diseratie/SEMS/xmc4800_evaluation_kit/xmc4800_iot_kit/common/Libraries/XMCLib/src\xmc_dma.c **** 	DLR->LNEN |= 0x100UL << line;
 1998              	 .loc 1 250 0
 1999 0016 1869     	 ldr r0,[r3,#16]
 2000              	.LVL191:
 2001 0018 18BF     	 it ne
 2002 001a 4FF48072 	 movne r2,#256
 2003 001e 8A40     	 lsls r2,r2,r1
 2004 0020 20EA0201 	 bic r1,r0,r2
 2005              	.LVL192:
 2006 0024 1961     	 str r1,[r3,#16]
 251:D:/School/diseratie/SEMS/xmc4800_evaluation_kit/xmc4800_iot_kit/common/Libraries/XMCLib/src\xmc_dma.c ****   }
 2007              	 .loc 1 251 0
 2008 0026 1969     	 ldr r1,[r3,#16]
 2009 0028 0A43     	 orrs r2,r2,r1
 2010 002a 1A61     	 str r2,[r3,#16]
 2011 002c 7047     	 bx lr
 2012              	.L221:
 2013 002e 00BF     	 .align 2
 2014              	.L220:
 2015 0030 00400150 	 .word 1342259200
 2016 0034 00490050 	 .word 1342195968
 2017              	.LBE114:
 2018              	.LBE115:
 2019              	 .cfi_endproc
 2020              	.LFE218:
 2022              	 .section .text.XMC_DMA_IRQHandler,"ax",%progbits
 2023              	 .align 2
 2024              	 .global XMC_DMA_IRQHandler
 2025              	 .thumb
 2026              	 .thumb_func
 2028              	XMC_DMA_IRQHandler:
 2029              	.LFB219:
 651:D:/School/diseratie/SEMS/xmc4800_evaluation_kit/xmc4800_iot_kit/common/Libraries/XMCLib/src\xmc_dma.c **** 
 652:D:/School/diseratie/SEMS/xmc4800_evaluation_kit/xmc4800_iot_kit/common/Libraries/XMCLib/src\xmc_dma.c ****   XMC_DMA_ClearRequestLine(dma, (uint8_t)line);
 653:D:/School/diseratie/SEMS/xmc4800_evaluation_kit/xmc4800_iot_kit/common/Libraries/XMCLib/src\xmc_dma.c **** }
 654:D:/School/diseratie/SEMS/xmc4800_evaluation_kit/xmc4800_iot_kit/common/Libraries/XMCLib/src\xmc_dma.c **** 
 655:D:/School/diseratie/SEMS/xmc4800_evaluation_kit/xmc4800_iot_kit/common/Libraries/XMCLib/src\xmc_dma.c **** /* Default DMA IRQ handler */
 656:D:/School/diseratie/SEMS/xmc4800_evaluation_kit/xmc4800_iot_kit/common/Libraries/XMCLib/src\xmc_dma.c **** void XMC_DMA_IRQHandler(XMC_DMA_t *const dma)
 657:D:/School/diseratie/SEMS/xmc4800_evaluation_kit/xmc4800_iot_kit/common/Libraries/XMCLib/src\xmc_dma.c **** {
 2030              	 .loc 1 657 0
 2031              	 .cfi_startproc
 2032              	 
 2033              	 
 2034              	 
 2035              	.LVL193:
 658:D:/School/diseratie/SEMS/xmc4800_evaluation_kit/xmc4800_iot_kit/common/Libraries/XMCLib/src\xmc_dma.c ****   uint32_t event;
 659:D:/School/diseratie/SEMS/xmc4800_evaluation_kit/xmc4800_iot_kit/common/Libraries/XMCLib/src\xmc_dma.c ****   int32_t channel;
 660:D:/School/diseratie/SEMS/xmc4800_evaluation_kit/xmc4800_iot_kit/common/Libraries/XMCLib/src\xmc_dma.c ****   uint32_t mask;
 661:D:/School/diseratie/SEMS/xmc4800_evaluation_kit/xmc4800_iot_kit/common/Libraries/XMCLib/src\xmc_dma.c ****   XMC_DMA_CH_EVENT_HANDLER_t *dma_event_handlers;
 662:D:/School/diseratie/SEMS/xmc4800_evaluation_kit/xmc4800_iot_kit/common/Libraries/XMCLib/src\xmc_dma.c ****   XMC_DMA_CH_EVENT_HANDLER_t event_handler;
 663:D:/School/diseratie/SEMS/xmc4800_evaluation_kit/xmc4800_iot_kit/common/Libraries/XMCLib/src\xmc_dma.c **** 
 664:D:/School/diseratie/SEMS/xmc4800_evaluation_kit/xmc4800_iot_kit/common/Libraries/XMCLib/src\xmc_dma.c **** #if defined(GPDMA1)
 665:D:/School/diseratie/SEMS/xmc4800_evaluation_kit/xmc4800_iot_kit/common/Libraries/XMCLib/src\xmc_dma.c ****   if (dma == XMC_DMA0)
 666:D:/School/diseratie/SEMS/xmc4800_evaluation_kit/xmc4800_iot_kit/common/Libraries/XMCLib/src\xmc_dma.c ****   {
 667:D:/School/diseratie/SEMS/xmc4800_evaluation_kit/xmc4800_iot_kit/common/Libraries/XMCLib/src\xmc_dma.c **** #endif
 668:D:/School/diseratie/SEMS/xmc4800_evaluation_kit/xmc4800_iot_kit/common/Libraries/XMCLib/src\xmc_dma.c ****     dma_event_handlers = dma0_event_handlers;
 669:D:/School/diseratie/SEMS/xmc4800_evaluation_kit/xmc4800_iot_kit/common/Libraries/XMCLib/src\xmc_dma.c **** #if defined(GPDMA1)
 670:D:/School/diseratie/SEMS/xmc4800_evaluation_kit/xmc4800_iot_kit/common/Libraries/XMCLib/src\xmc_dma.c ****   }
 671:D:/School/diseratie/SEMS/xmc4800_evaluation_kit/xmc4800_iot_kit/common/Libraries/XMCLib/src\xmc_dma.c ****   else
 672:D:/School/diseratie/SEMS/xmc4800_evaluation_kit/xmc4800_iot_kit/common/Libraries/XMCLib/src\xmc_dma.c ****   {
 673:D:/School/diseratie/SEMS/xmc4800_evaluation_kit/xmc4800_iot_kit/common/Libraries/XMCLib/src\xmc_dma.c ****     dma_event_handlers = dma1_event_handlers;
 2036              	 .loc 1 673 0
 2037 0000 5A4A     	 ldr r2,.L275
 2038 0002 5B49     	 ldr r1,.L275+4
 2039              	.LBB116:
 2040              	.LBB117:
 2041              	 .file 2 "D:/School/diseratie/SEMS/xmc4800_evaluation_kit/xmc4800_iot_kit/common/Libraries/XMCLib/inc/xmc_dma.h"
   1:D:/School/diseratie/SEMS/xmc4800_evaluation_kit/xmc4800_iot_kit/common/Libraries/XMCLib/inc\xmc_dma.h **** /**
   2:D:/School/diseratie/SEMS/xmc4800_evaluation_kit/xmc4800_iot_kit/common/Libraries/XMCLib/inc\xmc_dma.h ****  * @file xmc_dma.h
   3:D:/School/diseratie/SEMS/xmc4800_evaluation_kit/xmc4800_iot_kit/common/Libraries/XMCLib/inc\xmc_dma.h ****  * @date 2018-09-18
   4:D:/School/diseratie/SEMS/xmc4800_evaluation_kit/xmc4800_iot_kit/common/Libraries/XMCLib/inc\xmc_dma.h ****  *
   5:D:/School/diseratie/SEMS/xmc4800_evaluation_kit/xmc4800_iot_kit/common/Libraries/XMCLib/inc\xmc_dma.h ****  * @cond
   6:D:/School/diseratie/SEMS/xmc4800_evaluation_kit/xmc4800_iot_kit/common/Libraries/XMCLib/inc\xmc_dma.h ****  **************************************************************************************************
   7:D:/School/diseratie/SEMS/xmc4800_evaluation_kit/xmc4800_iot_kit/common/Libraries/XMCLib/inc\xmc_dma.h ****  * XMClib v2.1.20 - XMC Peripheral Driver Library
   8:D:/School/diseratie/SEMS/xmc4800_evaluation_kit/xmc4800_iot_kit/common/Libraries/XMCLib/inc\xmc_dma.h ****  *
   9:D:/School/diseratie/SEMS/xmc4800_evaluation_kit/xmc4800_iot_kit/common/Libraries/XMCLib/inc\xmc_dma.h ****  * Copyright (c) 2015-2018, Infineon Technologies AG
  10:D:/School/diseratie/SEMS/xmc4800_evaluation_kit/xmc4800_iot_kit/common/Libraries/XMCLib/inc\xmc_dma.h ****  * All rights reserved.                        
  11:D:/School/diseratie/SEMS/xmc4800_evaluation_kit/xmc4800_iot_kit/common/Libraries/XMCLib/inc\xmc_dma.h ****  *                                             
  12:D:/School/diseratie/SEMS/xmc4800_evaluation_kit/xmc4800_iot_kit/common/Libraries/XMCLib/inc\xmc_dma.h ****  * Redistribution and use in source and binary forms, with or without modification,are permitted pr
  13:D:/School/diseratie/SEMS/xmc4800_evaluation_kit/xmc4800_iot_kit/common/Libraries/XMCLib/inc\xmc_dma.h ****  * following conditions are met:   
  14:D:/School/diseratie/SEMS/xmc4800_evaluation_kit/xmc4800_iot_kit/common/Libraries/XMCLib/inc\xmc_dma.h ****  *                                                                              
  15:D:/School/diseratie/SEMS/xmc4800_evaluation_kit/xmc4800_iot_kit/common/Libraries/XMCLib/inc\xmc_dma.h ****  * Redistributions of source code must retain the above copyright notice, this list of conditions a
  16:D:/School/diseratie/SEMS/xmc4800_evaluation_kit/xmc4800_iot_kit/common/Libraries/XMCLib/inc\xmc_dma.h ****  * disclaimer.                        
  17:D:/School/diseratie/SEMS/xmc4800_evaluation_kit/xmc4800_iot_kit/common/Libraries/XMCLib/inc\xmc_dma.h ****  * 
  18:D:/School/diseratie/SEMS/xmc4800_evaluation_kit/xmc4800_iot_kit/common/Libraries/XMCLib/inc\xmc_dma.h ****  * Redistributions in binary form must reproduce the above copyright notice, this list of condition
  19:D:/School/diseratie/SEMS/xmc4800_evaluation_kit/xmc4800_iot_kit/common/Libraries/XMCLib/inc\xmc_dma.h ****  * disclaimer in the documentation and/or other materials provided with the distribution.          
  20:D:/School/diseratie/SEMS/xmc4800_evaluation_kit/xmc4800_iot_kit/common/Libraries/XMCLib/inc\xmc_dma.h ****  * 
  21:D:/School/diseratie/SEMS/xmc4800_evaluation_kit/xmc4800_iot_kit/common/Libraries/XMCLib/inc\xmc_dma.h ****  * Neither the name of the copyright holders nor the names of its contributors may be used to endor
  22:D:/School/diseratie/SEMS/xmc4800_evaluation_kit/xmc4800_iot_kit/common/Libraries/XMCLib/inc\xmc_dma.h ****  * products derived from this software without specific prior written permission.                  
  23:D:/School/diseratie/SEMS/xmc4800_evaluation_kit/xmc4800_iot_kit/common/Libraries/XMCLib/inc\xmc_dma.h ****  *                                                                              
  24:D:/School/diseratie/SEMS/xmc4800_evaluation_kit/xmc4800_iot_kit/common/Libraries/XMCLib/inc\xmc_dma.h ****  * THIS SOFTWARE IS PROVIDED BY THE COPYRIGHT HOLDERS AND CONTRIBUTORS "AS IS" AND ANY EXPRESS OR I
  25:D:/School/diseratie/SEMS/xmc4800_evaluation_kit/xmc4800_iot_kit/common/Libraries/XMCLib/inc\xmc_dma.h ****  * INCLUDING, BUT NOT LIMITED TO, THE IMPLIED WARRANTIES OF MERCHANTABILITY AND FITNESS FOR A PARTI
  26:D:/School/diseratie/SEMS/xmc4800_evaluation_kit/xmc4800_iot_kit/common/Libraries/XMCLib/inc\xmc_dma.h ****  * DISCLAIMED. IN NO EVENT SHALL THE COPYRIGHT HOLDER OR CONTRIBUTORS BE LIABLE  FOR ANY DIRECT, IN
  27:D:/School/diseratie/SEMS/xmc4800_evaluation_kit/xmc4800_iot_kit/common/Libraries/XMCLib/inc\xmc_dma.h ****  * SPECIAL, EXEMPLARY, OR CONSEQUENTIAL DAMAGES (INCLUDING, BUT NOT LIMITED TO, PROCUREMENT OF SUBS
  28:D:/School/diseratie/SEMS/xmc4800_evaluation_kit/xmc4800_iot_kit/common/Libraries/XMCLib/inc\xmc_dma.h ****  * SERVICES; LOSS OF USE, DATA, OR PROFITS; OR BUSINESS INTERRUPTION) HOWEVER CAUSED AND ON ANY THE
  29:D:/School/diseratie/SEMS/xmc4800_evaluation_kit/xmc4800_iot_kit/common/Libraries/XMCLib/inc\xmc_dma.h ****  * WHETHER IN CONTRACT, STRICT LIABILITY,OR TORT (INCLUDING NEGLIGENCE OR OTHERWISE) ARISING IN ANY
  30:D:/School/diseratie/SEMS/xmc4800_evaluation_kit/xmc4800_iot_kit/common/Libraries/XMCLib/inc\xmc_dma.h ****  * OF THIS SOFTWARE, EVEN IF ADVISED OF THE POSSIBILITY OF SUCH DAMAGE.                            
  31:D:/School/diseratie/SEMS/xmc4800_evaluation_kit/xmc4800_iot_kit/common/Libraries/XMCLib/inc\xmc_dma.h ****  *                                                                              
  32:D:/School/diseratie/SEMS/xmc4800_evaluation_kit/xmc4800_iot_kit/common/Libraries/XMCLib/inc\xmc_dma.h ****  * To improve the quality of the software, users are encouraged to share modifications, enhancement
  33:D:/School/diseratie/SEMS/xmc4800_evaluation_kit/xmc4800_iot_kit/common/Libraries/XMCLib/inc\xmc_dma.h ****  * Infineon Technologies AG dave@infineon.com).                                                    
  34:D:/School/diseratie/SEMS/xmc4800_evaluation_kit/xmc4800_iot_kit/common/Libraries/XMCLib/inc\xmc_dma.h ****  **************************************************************************************************
  35:D:/School/diseratie/SEMS/xmc4800_evaluation_kit/xmc4800_iot_kit/common/Libraries/XMCLib/inc\xmc_dma.h ****  *
  36:D:/School/diseratie/SEMS/xmc4800_evaluation_kit/xmc4800_iot_kit/common/Libraries/XMCLib/inc\xmc_dma.h ****  * Change History
  37:D:/School/diseratie/SEMS/xmc4800_evaluation_kit/xmc4800_iot_kit/common/Libraries/XMCLib/inc\xmc_dma.h ****  * --------------
  38:D:/School/diseratie/SEMS/xmc4800_evaluation_kit/xmc4800_iot_kit/common/Libraries/XMCLib/inc\xmc_dma.h ****  *
  39:D:/School/diseratie/SEMS/xmc4800_evaluation_kit/xmc4800_iot_kit/common/Libraries/XMCLib/inc\xmc_dma.h ****  * 2015-02-20:
  40:D:/School/diseratie/SEMS/xmc4800_evaluation_kit/xmc4800_iot_kit/common/Libraries/XMCLib/inc\xmc_dma.h ****  *     - Initial <br>
  41:D:/School/diseratie/SEMS/xmc4800_evaluation_kit/xmc4800_iot_kit/common/Libraries/XMCLib/inc\xmc_dma.h ****  *
  42:D:/School/diseratie/SEMS/xmc4800_evaluation_kit/xmc4800_iot_kit/common/Libraries/XMCLib/inc\xmc_dma.h ****  * 2015-06-20:
  43:D:/School/diseratie/SEMS/xmc4800_evaluation_kit/xmc4800_iot_kit/common/Libraries/XMCLib/inc\xmc_dma.h ****  *     - Add the declarations for the following APIs: <br>
  44:D:/School/diseratie/SEMS/xmc4800_evaluation_kit/xmc4800_iot_kit/common/Libraries/XMCLib/inc\xmc_dma.h ****  *       XMC_DMA_DisableRequestLine, XMC_DMA_ClearRequestLine, <br>
  45:D:/School/diseratie/SEMS/xmc4800_evaluation_kit/xmc4800_iot_kit/common/Libraries/XMCLib/inc\xmc_dma.h ****  *       XMC_DMA_CH_ClearSourcePeripheralRequest, <br>
  46:D:/School/diseratie/SEMS/xmc4800_evaluation_kit/xmc4800_iot_kit/common/Libraries/XMCLib/inc\xmc_dma.h ****  *       XMC_DMA_CH_ClearDestinationPeripheralRequest <br>
  47:D:/School/diseratie/SEMS/xmc4800_evaluation_kit/xmc4800_iot_kit/common/Libraries/XMCLib/inc\xmc_dma.h ****  *     - Documentation updates <br>
  48:D:/School/diseratie/SEMS/xmc4800_evaluation_kit/xmc4800_iot_kit/common/Libraries/XMCLib/inc\xmc_dma.h ****  *     - Removed version macros and declaration of GetDriverVersion API <br>
  49:D:/School/diseratie/SEMS/xmc4800_evaluation_kit/xmc4800_iot_kit/common/Libraries/XMCLib/inc\xmc_dma.h ****  *
  50:D:/School/diseratie/SEMS/xmc4800_evaluation_kit/xmc4800_iot_kit/common/Libraries/XMCLib/inc\xmc_dma.h ****  * 2016-10-28:
  51:D:/School/diseratie/SEMS/xmc4800_evaluation_kit/xmc4800_iot_kit/common/Libraries/XMCLib/inc\xmc_dma.h ****  *     - Fix documentation on maximum block size
  52:D:/School/diseratie/SEMS/xmc4800_evaluation_kit/xmc4800_iot_kit/common/Libraries/XMCLib/inc\xmc_dma.h ****  *
  53:D:/School/diseratie/SEMS/xmc4800_evaluation_kit/xmc4800_iot_kit/common/Libraries/XMCLib/inc\xmc_dma.h ****  * 2017-09-28:
  54:D:/School/diseratie/SEMS/xmc4800_evaluation_kit/xmc4800_iot_kit/common/Libraries/XMCLib/inc\xmc_dma.h ****  *     - Improved documentation and added XMC_DMA_CH_EnableFifo() and XMC_DMA_CH_DisableFifo()
  55:D:/School/diseratie/SEMS/xmc4800_evaluation_kit/xmc4800_iot_kit/common/Libraries/XMCLib/inc\xmc_dma.h ****  *
  56:D:/School/diseratie/SEMS/xmc4800_evaluation_kit/xmc4800_iot_kit/common/Libraries/XMCLib/inc\xmc_dma.h ****  * 2018-09-18:
  57:D:/School/diseratie/SEMS/xmc4800_evaluation_kit/xmc4800_iot_kit/common/Libraries/XMCLib/inc\xmc_dma.h ****  *     - Added XMC_DMA_CH_GetTransferredData()
  58:D:/School/diseratie/SEMS/xmc4800_evaluation_kit/xmc4800_iot_kit/common/Libraries/XMCLib/inc\xmc_dma.h ****  *
  59:D:/School/diseratie/SEMS/xmc4800_evaluation_kit/xmc4800_iot_kit/common/Libraries/XMCLib/inc\xmc_dma.h ****  * @endcond
  60:D:/School/diseratie/SEMS/xmc4800_evaluation_kit/xmc4800_iot_kit/common/Libraries/XMCLib/inc\xmc_dma.h ****  */
  61:D:/School/diseratie/SEMS/xmc4800_evaluation_kit/xmc4800_iot_kit/common/Libraries/XMCLib/inc\xmc_dma.h **** 
  62:D:/School/diseratie/SEMS/xmc4800_evaluation_kit/xmc4800_iot_kit/common/Libraries/XMCLib/inc\xmc_dma.h **** #ifndef XMC_DMA_H
  63:D:/School/diseratie/SEMS/xmc4800_evaluation_kit/xmc4800_iot_kit/common/Libraries/XMCLib/inc\xmc_dma.h **** #define XMC_DMA_H
  64:D:/School/diseratie/SEMS/xmc4800_evaluation_kit/xmc4800_iot_kit/common/Libraries/XMCLib/inc\xmc_dma.h **** 
  65:D:/School/diseratie/SEMS/xmc4800_evaluation_kit/xmc4800_iot_kit/common/Libraries/XMCLib/inc\xmc_dma.h **** /*******************************************************************************
  66:D:/School/diseratie/SEMS/xmc4800_evaluation_kit/xmc4800_iot_kit/common/Libraries/XMCLib/inc\xmc_dma.h ****  * HEADER FILES
  67:D:/School/diseratie/SEMS/xmc4800_evaluation_kit/xmc4800_iot_kit/common/Libraries/XMCLib/inc\xmc_dma.h ****  *******************************************************************************/
  68:D:/School/diseratie/SEMS/xmc4800_evaluation_kit/xmc4800_iot_kit/common/Libraries/XMCLib/inc\xmc_dma.h **** 
  69:D:/School/diseratie/SEMS/xmc4800_evaluation_kit/xmc4800_iot_kit/common/Libraries/XMCLib/inc\xmc_dma.h **** #include "xmc_common.h"
  70:D:/School/diseratie/SEMS/xmc4800_evaluation_kit/xmc4800_iot_kit/common/Libraries/XMCLib/inc\xmc_dma.h **** 
  71:D:/School/diseratie/SEMS/xmc4800_evaluation_kit/xmc4800_iot_kit/common/Libraries/XMCLib/inc\xmc_dma.h **** #if defined (GPDMA0)
  72:D:/School/diseratie/SEMS/xmc4800_evaluation_kit/xmc4800_iot_kit/common/Libraries/XMCLib/inc\xmc_dma.h **** 
  73:D:/School/diseratie/SEMS/xmc4800_evaluation_kit/xmc4800_iot_kit/common/Libraries/XMCLib/inc\xmc_dma.h **** #include "xmc_dma_map.h"
  74:D:/School/diseratie/SEMS/xmc4800_evaluation_kit/xmc4800_iot_kit/common/Libraries/XMCLib/inc\xmc_dma.h **** 
  75:D:/School/diseratie/SEMS/xmc4800_evaluation_kit/xmc4800_iot_kit/common/Libraries/XMCLib/inc\xmc_dma.h **** /**
  76:D:/School/diseratie/SEMS/xmc4800_evaluation_kit/xmc4800_iot_kit/common/Libraries/XMCLib/inc\xmc_dma.h ****  * @addtogroup XMClib XMC Peripheral Library
  77:D:/School/diseratie/SEMS/xmc4800_evaluation_kit/xmc4800_iot_kit/common/Libraries/XMCLib/inc\xmc_dma.h ****  * @{
  78:D:/School/diseratie/SEMS/xmc4800_evaluation_kit/xmc4800_iot_kit/common/Libraries/XMCLib/inc\xmc_dma.h ****  */
  79:D:/School/diseratie/SEMS/xmc4800_evaluation_kit/xmc4800_iot_kit/common/Libraries/XMCLib/inc\xmc_dma.h **** 
  80:D:/School/diseratie/SEMS/xmc4800_evaluation_kit/xmc4800_iot_kit/common/Libraries/XMCLib/inc\xmc_dma.h **** /**
  81:D:/School/diseratie/SEMS/xmc4800_evaluation_kit/xmc4800_iot_kit/common/Libraries/XMCLib/inc\xmc_dma.h ****  * @addtogroup DMA
  82:D:/School/diseratie/SEMS/xmc4800_evaluation_kit/xmc4800_iot_kit/common/Libraries/XMCLib/inc\xmc_dma.h ****  * @brief General purpose DMA (GPDMA) driver for the XMC4000 microcontroller family
  83:D:/School/diseratie/SEMS/xmc4800_evaluation_kit/xmc4800_iot_kit/common/Libraries/XMCLib/inc\xmc_dma.h ****  *
  84:D:/School/diseratie/SEMS/xmc4800_evaluation_kit/xmc4800_iot_kit/common/Libraries/XMCLib/inc\xmc_dma.h ****  * The GPDMA is a highly configurable DMA controller that allows high-speed data transfers
  85:D:/School/diseratie/SEMS/xmc4800_evaluation_kit/xmc4800_iot_kit/common/Libraries/XMCLib/inc\xmc_dma.h ****  * between peripherals and memories. Complex data transfers can be done with minimal
  86:D:/School/diseratie/SEMS/xmc4800_evaluation_kit/xmc4800_iot_kit/common/Libraries/XMCLib/inc\xmc_dma.h ****  * intervention of the processor, making CPU available for other operations.
  87:D:/School/diseratie/SEMS/xmc4800_evaluation_kit/xmc4800_iot_kit/common/Libraries/XMCLib/inc\xmc_dma.h ****  *
  88:D:/School/diseratie/SEMS/xmc4800_evaluation_kit/xmc4800_iot_kit/common/Libraries/XMCLib/inc\xmc_dma.h ****  * GPDMA provides extensive support for XMC microcontroller peripherals like A/D, D/A
  89:D:/School/diseratie/SEMS/xmc4800_evaluation_kit/xmc4800_iot_kit/common/Libraries/XMCLib/inc\xmc_dma.h ****  * converters and timers. Data transfers through communication interfaces (USIC) using the
  90:D:/School/diseratie/SEMS/xmc4800_evaluation_kit/xmc4800_iot_kit/common/Libraries/XMCLib/inc\xmc_dma.h ****  * GPDMA increase efficiency and parallelism for real-time applications.
  91:D:/School/diseratie/SEMS/xmc4800_evaluation_kit/xmc4800_iot_kit/common/Libraries/XMCLib/inc\xmc_dma.h ****  *
  92:D:/School/diseratie/SEMS/xmc4800_evaluation_kit/xmc4800_iot_kit/common/Libraries/XMCLib/inc\xmc_dma.h ****  * The DMA low level driver provides functions to configure and initialize the GPDMA
  93:D:/School/diseratie/SEMS/xmc4800_evaluation_kit/xmc4800_iot_kit/common/Libraries/XMCLib/inc\xmc_dma.h ****  * hardware peripheral.
  94:D:/School/diseratie/SEMS/xmc4800_evaluation_kit/xmc4800_iot_kit/common/Libraries/XMCLib/inc\xmc_dma.h ****  * @{
  95:D:/School/diseratie/SEMS/xmc4800_evaluation_kit/xmc4800_iot_kit/common/Libraries/XMCLib/inc\xmc_dma.h ****  */
  96:D:/School/diseratie/SEMS/xmc4800_evaluation_kit/xmc4800_iot_kit/common/Libraries/XMCLib/inc\xmc_dma.h **** 
  97:D:/School/diseratie/SEMS/xmc4800_evaluation_kit/xmc4800_iot_kit/common/Libraries/XMCLib/inc\xmc_dma.h **** /*******************************************************************************
  98:D:/School/diseratie/SEMS/xmc4800_evaluation_kit/xmc4800_iot_kit/common/Libraries/XMCLib/inc\xmc_dma.h ****  * MACROS
  99:D:/School/diseratie/SEMS/xmc4800_evaluation_kit/xmc4800_iot_kit/common/Libraries/XMCLib/inc\xmc_dma.h ****  *******************************************************************************/
 100:D:/School/diseratie/SEMS/xmc4800_evaluation_kit/xmc4800_iot_kit/common/Libraries/XMCLib/inc\xmc_dma.h **** 
 101:D:/School/diseratie/SEMS/xmc4800_evaluation_kit/xmc4800_iot_kit/common/Libraries/XMCLib/inc\xmc_dma.h **** #if defined (GPDMA0)
 102:D:/School/diseratie/SEMS/xmc4800_evaluation_kit/xmc4800_iot_kit/common/Libraries/XMCLib/inc\xmc_dma.h **** #define XMC_DMA0 ((XMC_DMA_t *)GPDMA0_CH0_BASE) /**< DMA module 0 */
 103:D:/School/diseratie/SEMS/xmc4800_evaluation_kit/xmc4800_iot_kit/common/Libraries/XMCLib/inc\xmc_dma.h **** #define XMC_DMA0_NUM_CHANNELS 8
 104:D:/School/diseratie/SEMS/xmc4800_evaluation_kit/xmc4800_iot_kit/common/Libraries/XMCLib/inc\xmc_dma.h **** #endif
 105:D:/School/diseratie/SEMS/xmc4800_evaluation_kit/xmc4800_iot_kit/common/Libraries/XMCLib/inc\xmc_dma.h **** 
 106:D:/School/diseratie/SEMS/xmc4800_evaluation_kit/xmc4800_iot_kit/common/Libraries/XMCLib/inc\xmc_dma.h **** #if defined (GPDMA1)
 107:D:/School/diseratie/SEMS/xmc4800_evaluation_kit/xmc4800_iot_kit/common/Libraries/XMCLib/inc\xmc_dma.h **** #define XMC_DMA1 ((XMC_DMA_t *)GPDMA1_CH0_BASE) /**< DMA module 1, only available in XMC45xx series
 108:D:/School/diseratie/SEMS/xmc4800_evaluation_kit/xmc4800_iot_kit/common/Libraries/XMCLib/inc\xmc_dma.h **** #define XMC_DMA1_NUM_CHANNELS 4
 109:D:/School/diseratie/SEMS/xmc4800_evaluation_kit/xmc4800_iot_kit/common/Libraries/XMCLib/inc\xmc_dma.h **** #endif
 110:D:/School/diseratie/SEMS/xmc4800_evaluation_kit/xmc4800_iot_kit/common/Libraries/XMCLib/inc\xmc_dma.h **** 
 111:D:/School/diseratie/SEMS/xmc4800_evaluation_kit/xmc4800_iot_kit/common/Libraries/XMCLib/inc\xmc_dma.h **** /*******************************************************************************
 112:D:/School/diseratie/SEMS/xmc4800_evaluation_kit/xmc4800_iot_kit/common/Libraries/XMCLib/inc\xmc_dma.h ****  * ENUMS
 113:D:/School/diseratie/SEMS/xmc4800_evaluation_kit/xmc4800_iot_kit/common/Libraries/XMCLib/inc\xmc_dma.h ****  *******************************************************************************/
 114:D:/School/diseratie/SEMS/xmc4800_evaluation_kit/xmc4800_iot_kit/common/Libraries/XMCLib/inc\xmc_dma.h **** 
 115:D:/School/diseratie/SEMS/xmc4800_evaluation_kit/xmc4800_iot_kit/common/Libraries/XMCLib/inc\xmc_dma.h **** /**
 116:D:/School/diseratie/SEMS/xmc4800_evaluation_kit/xmc4800_iot_kit/common/Libraries/XMCLib/inc\xmc_dma.h ****  * DMA transfer types
 117:D:/School/diseratie/SEMS/xmc4800_evaluation_kit/xmc4800_iot_kit/common/Libraries/XMCLib/inc\xmc_dma.h ****  */
 118:D:/School/diseratie/SEMS/xmc4800_evaluation_kit/xmc4800_iot_kit/common/Libraries/XMCLib/inc\xmc_dma.h **** typedef enum XMC_DMA_CH_TRANSFER_TYPE
 119:D:/School/diseratie/SEMS/xmc4800_evaluation_kit/xmc4800_iot_kit/common/Libraries/XMCLib/inc\xmc_dma.h **** {
 120:D:/School/diseratie/SEMS/xmc4800_evaluation_kit/xmc4800_iot_kit/common/Libraries/XMCLib/inc\xmc_dma.h ****   XMC_DMA_CH_TRANSFER_TYPE_SINGLE_BLOCK,                                /**< Single block */
 121:D:/School/diseratie/SEMS/xmc4800_evaluation_kit/xmc4800_iot_kit/common/Libraries/XMCLib/inc\xmc_dma.h ****   XMC_DMA_CH_TRANSFER_TYPE_MULTI_BLOCK_SRCADR_CONTIGUOUS_DSTADR_RELOAD, /**< Multi-block: src addre
 122:D:/School/diseratie/SEMS/xmc4800_evaluation_kit/xmc4800_iot_kit/common/Libraries/XMCLib/inc\xmc_dma.h ****   XMC_DMA_CH_TRANSFER_TYPE_MULTI_BLOCK_SRCADR_RELOAD_DSTADR_CONTIGUOUS, /**< Multi-block: src addre
 123:D:/School/diseratie/SEMS/xmc4800_evaluation_kit/xmc4800_iot_kit/common/Libraries/XMCLib/inc\xmc_dma.h ****   XMC_DMA_CH_TRANSFER_TYPE_MULTI_BLOCK_SRCADR_RELOAD_DSTADR_RELOAD,     /**< Multi-block: src addre
 124:D:/School/diseratie/SEMS/xmc4800_evaluation_kit/xmc4800_iot_kit/common/Libraries/XMCLib/inc\xmc_dma.h ****   XMC_DMA_CH_TRANSFER_TYPE_MULTI_BLOCK_SRCADR_CONTIGUOUS_DSTADR_LINKED, /**< Multi-block: src addre
 125:D:/School/diseratie/SEMS/xmc4800_evaluation_kit/xmc4800_iot_kit/common/Libraries/XMCLib/inc\xmc_dma.h ****   XMC_DMA_CH_TRANSFER_TYPE_MULTI_BLOCK_SRCADR_RELOAD_DSTADR_LINKED,     /**< Multi-block: src addre
 126:D:/School/diseratie/SEMS/xmc4800_evaluation_kit/xmc4800_iot_kit/common/Libraries/XMCLib/inc\xmc_dma.h ****   XMC_DMA_CH_TRANSFER_TYPE_MULTI_BLOCK_SRCADR_LINKED_DSTADR_CONTIGUOUS, /**< Multi-block: src addre
 127:D:/School/diseratie/SEMS/xmc4800_evaluation_kit/xmc4800_iot_kit/common/Libraries/XMCLib/inc\xmc_dma.h ****   XMC_DMA_CH_TRANSFER_TYPE_MULTI_BLOCK_SRCADR_LINKED_DSTADR_RELOAD,     /**< Multi-block: src addre
 128:D:/School/diseratie/SEMS/xmc4800_evaluation_kit/xmc4800_iot_kit/common/Libraries/XMCLib/inc\xmc_dma.h ****   XMC_DMA_CH_TRANSFER_TYPE_MULTI_BLOCK_SRCADR_LINKED_DSTADR_LINKED      /**< Multi-block: src addre
 129:D:/School/diseratie/SEMS/xmc4800_evaluation_kit/xmc4800_iot_kit/common/Libraries/XMCLib/inc\xmc_dma.h **** } XMC_DMA_CH_TRANSFER_TYPE_t;
 130:D:/School/diseratie/SEMS/xmc4800_evaluation_kit/xmc4800_iot_kit/common/Libraries/XMCLib/inc\xmc_dma.h **** 
 131:D:/School/diseratie/SEMS/xmc4800_evaluation_kit/xmc4800_iot_kit/common/Libraries/XMCLib/inc\xmc_dma.h **** /**
 132:D:/School/diseratie/SEMS/xmc4800_evaluation_kit/xmc4800_iot_kit/common/Libraries/XMCLib/inc\xmc_dma.h ****  * DMA transfer flow modes
 133:D:/School/diseratie/SEMS/xmc4800_evaluation_kit/xmc4800_iot_kit/common/Libraries/XMCLib/inc\xmc_dma.h ****  */
 134:D:/School/diseratie/SEMS/xmc4800_evaluation_kit/xmc4800_iot_kit/common/Libraries/XMCLib/inc\xmc_dma.h **** typedef enum XMC_DMA_CH_TRANSFER_FLOW
 135:D:/School/diseratie/SEMS/xmc4800_evaluation_kit/xmc4800_iot_kit/common/Libraries/XMCLib/inc\xmc_dma.h **** {
 136:D:/School/diseratie/SEMS/xmc4800_evaluation_kit/xmc4800_iot_kit/common/Libraries/XMCLib/inc\xmc_dma.h ****   XMC_DMA_CH_TRANSFER_FLOW_M2M_DMA    = 0x0UL, /**< Memory to memory (DMA flow controller) */
 137:D:/School/diseratie/SEMS/xmc4800_evaluation_kit/xmc4800_iot_kit/common/Libraries/XMCLib/inc\xmc_dma.h ****   XMC_DMA_CH_TRANSFER_FLOW_M2P_DMA    = 0x1UL, /**< Memory to peripheral (DMA flow controller) */
 138:D:/School/diseratie/SEMS/xmc4800_evaluation_kit/xmc4800_iot_kit/common/Libraries/XMCLib/inc\xmc_dma.h ****   XMC_DMA_CH_TRANSFER_FLOW_P2M_DMA    = 0x2UL, /**< Peripheral to memory (DMA flow controller) */
 139:D:/School/diseratie/SEMS/xmc4800_evaluation_kit/xmc4800_iot_kit/common/Libraries/XMCLib/inc\xmc_dma.h ****   XMC_DMA_CH_TRANSFER_FLOW_P2P_DMA    = 0x3UL, /**< Peripheral to peripheral (DMA flow controller) 
 140:D:/School/diseratie/SEMS/xmc4800_evaluation_kit/xmc4800_iot_kit/common/Libraries/XMCLib/inc\xmc_dma.h ****   XMC_DMA_CH_TRANSFER_FLOW_P2M_PER    = 0x4UL, /**< Peripheral to memory (Peripheral flow controlle
 141:D:/School/diseratie/SEMS/xmc4800_evaluation_kit/xmc4800_iot_kit/common/Libraries/XMCLib/inc\xmc_dma.h ****   XMC_DMA_CH_TRANSFER_FLOW_P2P_SRCPER = 0x5UL, /**< Peripheral to peripheral (Source peripheral flo
 142:D:/School/diseratie/SEMS/xmc4800_evaluation_kit/xmc4800_iot_kit/common/Libraries/XMCLib/inc\xmc_dma.h ****   XMC_DMA_CH_TRANSFER_FLOW_M2P_PER    = 0x6UL, /**< Memory to peripheral (Peripheral flow controlle
 143:D:/School/diseratie/SEMS/xmc4800_evaluation_kit/xmc4800_iot_kit/common/Libraries/XMCLib/inc\xmc_dma.h ****   XMC_DMA_CH_TRANSFER_FLOW_P2P_DSTPER = 0x7UL  /**< Peripheral to peripheral (Destination periphera
 144:D:/School/diseratie/SEMS/xmc4800_evaluation_kit/xmc4800_iot_kit/common/Libraries/XMCLib/inc\xmc_dma.h **** } XMC_DMA_CH_TRANSFER_FLOW_t;
 145:D:/School/diseratie/SEMS/xmc4800_evaluation_kit/xmc4800_iot_kit/common/Libraries/XMCLib/inc\xmc_dma.h **** 
 146:D:/School/diseratie/SEMS/xmc4800_evaluation_kit/xmc4800_iot_kit/common/Libraries/XMCLib/inc\xmc_dma.h **** /**
 147:D:/School/diseratie/SEMS/xmc4800_evaluation_kit/xmc4800_iot_kit/common/Libraries/XMCLib/inc\xmc_dma.h ****  * Valid burst length values
 148:D:/School/diseratie/SEMS/xmc4800_evaluation_kit/xmc4800_iot_kit/common/Libraries/XMCLib/inc\xmc_dma.h ****  */
 149:D:/School/diseratie/SEMS/xmc4800_evaluation_kit/xmc4800_iot_kit/common/Libraries/XMCLib/inc\xmc_dma.h **** typedef enum XMC_DMA_CH_BURST_LENGTH
 150:D:/School/diseratie/SEMS/xmc4800_evaluation_kit/xmc4800_iot_kit/common/Libraries/XMCLib/inc\xmc_dma.h **** {
 151:D:/School/diseratie/SEMS/xmc4800_evaluation_kit/xmc4800_iot_kit/common/Libraries/XMCLib/inc\xmc_dma.h ****   XMC_DMA_CH_BURST_LENGTH_1 = 0x0UL, /**< Burst length: 1 word */
 152:D:/School/diseratie/SEMS/xmc4800_evaluation_kit/xmc4800_iot_kit/common/Libraries/XMCLib/inc\xmc_dma.h ****   XMC_DMA_CH_BURST_LENGTH_4 = 0x1UL, /**< Burst length: 4 words */
 153:D:/School/diseratie/SEMS/xmc4800_evaluation_kit/xmc4800_iot_kit/common/Libraries/XMCLib/inc\xmc_dma.h ****   XMC_DMA_CH_BURST_LENGTH_8 = 0x2UL  /**< Burst length: 8 words */
 154:D:/School/diseratie/SEMS/xmc4800_evaluation_kit/xmc4800_iot_kit/common/Libraries/XMCLib/inc\xmc_dma.h **** } XMC_DMA_CH_BURST_LENGTH_t;
 155:D:/School/diseratie/SEMS/xmc4800_evaluation_kit/xmc4800_iot_kit/common/Libraries/XMCLib/inc\xmc_dma.h **** 
 156:D:/School/diseratie/SEMS/xmc4800_evaluation_kit/xmc4800_iot_kit/common/Libraries/XMCLib/inc\xmc_dma.h **** /**
 157:D:/School/diseratie/SEMS/xmc4800_evaluation_kit/xmc4800_iot_kit/common/Libraries/XMCLib/inc\xmc_dma.h ****  * Valid transfer width values
 158:D:/School/diseratie/SEMS/xmc4800_evaluation_kit/xmc4800_iot_kit/common/Libraries/XMCLib/inc\xmc_dma.h ****  */
 159:D:/School/diseratie/SEMS/xmc4800_evaluation_kit/xmc4800_iot_kit/common/Libraries/XMCLib/inc\xmc_dma.h **** typedef enum XMC_DMA_CH_TRANSFER_WIDTH
 160:D:/School/diseratie/SEMS/xmc4800_evaluation_kit/xmc4800_iot_kit/common/Libraries/XMCLib/inc\xmc_dma.h **** {
 161:D:/School/diseratie/SEMS/xmc4800_evaluation_kit/xmc4800_iot_kit/common/Libraries/XMCLib/inc\xmc_dma.h ****   XMC_DMA_CH_TRANSFER_WIDTH_8  = 0x0UL, /**< 8-bit transfer width */
 162:D:/School/diseratie/SEMS/xmc4800_evaluation_kit/xmc4800_iot_kit/common/Libraries/XMCLib/inc\xmc_dma.h ****   XMC_DMA_CH_TRANSFER_WIDTH_16 = 0x1UL, /**< 16-bit transfer width */
 163:D:/School/diseratie/SEMS/xmc4800_evaluation_kit/xmc4800_iot_kit/common/Libraries/XMCLib/inc\xmc_dma.h ****   XMC_DMA_CH_TRANSFER_WIDTH_32 = 0x2UL  /**< 32-bit transfer width */
 164:D:/School/diseratie/SEMS/xmc4800_evaluation_kit/xmc4800_iot_kit/common/Libraries/XMCLib/inc\xmc_dma.h **** } XMC_DMA_CH_TRANSFER_WIDTH_t;
 165:D:/School/diseratie/SEMS/xmc4800_evaluation_kit/xmc4800_iot_kit/common/Libraries/XMCLib/inc\xmc_dma.h **** 
 166:D:/School/diseratie/SEMS/xmc4800_evaluation_kit/xmc4800_iot_kit/common/Libraries/XMCLib/inc\xmc_dma.h **** /**
 167:D:/School/diseratie/SEMS/xmc4800_evaluation_kit/xmc4800_iot_kit/common/Libraries/XMCLib/inc\xmc_dma.h ****  * DMA address count mode
 168:D:/School/diseratie/SEMS/xmc4800_evaluation_kit/xmc4800_iot_kit/common/Libraries/XMCLib/inc\xmc_dma.h ****  */
 169:D:/School/diseratie/SEMS/xmc4800_evaluation_kit/xmc4800_iot_kit/common/Libraries/XMCLib/inc\xmc_dma.h **** typedef enum XMC_DMA_CH_ADDRESS_COUNT_MODE
 170:D:/School/diseratie/SEMS/xmc4800_evaluation_kit/xmc4800_iot_kit/common/Libraries/XMCLib/inc\xmc_dma.h **** {
 171:D:/School/diseratie/SEMS/xmc4800_evaluation_kit/xmc4800_iot_kit/common/Libraries/XMCLib/inc\xmc_dma.h ****   XMC_DMA_CH_ADDRESS_COUNT_MODE_INCREMENT = 0x0UL, /**< Address count mode: increment */
 172:D:/School/diseratie/SEMS/xmc4800_evaluation_kit/xmc4800_iot_kit/common/Libraries/XMCLib/inc\xmc_dma.h ****   XMC_DMA_CH_ADDRESS_COUNT_MODE_DECREMENT = 0x1UL, /**< Address count mode: decrement */
 173:D:/School/diseratie/SEMS/xmc4800_evaluation_kit/xmc4800_iot_kit/common/Libraries/XMCLib/inc\xmc_dma.h ****   XMC_DMA_CH_ADDRESS_COUNT_MODE_NO_CHANGE = 0x2UL  /**< Address count mode: no change */
 174:D:/School/diseratie/SEMS/xmc4800_evaluation_kit/xmc4800_iot_kit/common/Libraries/XMCLib/inc\xmc_dma.h **** } XMC_DMA_CH_ADDRESS_COUNT_MODE_t;
 175:D:/School/diseratie/SEMS/xmc4800_evaluation_kit/xmc4800_iot_kit/common/Libraries/XMCLib/inc\xmc_dma.h **** 
 176:D:/School/diseratie/SEMS/xmc4800_evaluation_kit/xmc4800_iot_kit/common/Libraries/XMCLib/inc\xmc_dma.h **** /**
 177:D:/School/diseratie/SEMS/xmc4800_evaluation_kit/xmc4800_iot_kit/common/Libraries/XMCLib/inc\xmc_dma.h ****  * DMA channel priorities
 178:D:/School/diseratie/SEMS/xmc4800_evaluation_kit/xmc4800_iot_kit/common/Libraries/XMCLib/inc\xmc_dma.h ****  */
 179:D:/School/diseratie/SEMS/xmc4800_evaluation_kit/xmc4800_iot_kit/common/Libraries/XMCLib/inc\xmc_dma.h **** typedef enum XMC_DMA_CH_PRIORITY
 180:D:/School/diseratie/SEMS/xmc4800_evaluation_kit/xmc4800_iot_kit/common/Libraries/XMCLib/inc\xmc_dma.h **** {
 181:D:/School/diseratie/SEMS/xmc4800_evaluation_kit/xmc4800_iot_kit/common/Libraries/XMCLib/inc\xmc_dma.h ****   XMC_DMA_CH_PRIORITY_0 = 0x0UL << GPDMA0_CH_CFGL_CH_PRIOR_Pos, /**< DMA channel priority 0 (low) *
 182:D:/School/diseratie/SEMS/xmc4800_evaluation_kit/xmc4800_iot_kit/common/Libraries/XMCLib/inc\xmc_dma.h ****   XMC_DMA_CH_PRIORITY_1 = 0x1UL << GPDMA0_CH_CFGL_CH_PRIOR_Pos, /**< DMA channel priority 1 */
 183:D:/School/diseratie/SEMS/xmc4800_evaluation_kit/xmc4800_iot_kit/common/Libraries/XMCLib/inc\xmc_dma.h ****   XMC_DMA_CH_PRIORITY_2 = 0x2UL << GPDMA0_CH_CFGL_CH_PRIOR_Pos, /**< DMA channel priority 2 */
 184:D:/School/diseratie/SEMS/xmc4800_evaluation_kit/xmc4800_iot_kit/common/Libraries/XMCLib/inc\xmc_dma.h ****   XMC_DMA_CH_PRIORITY_3 = 0x3UL << GPDMA0_CH_CFGL_CH_PRIOR_Pos, /**< DMA channel priority 3 */
 185:D:/School/diseratie/SEMS/xmc4800_evaluation_kit/xmc4800_iot_kit/common/Libraries/XMCLib/inc\xmc_dma.h ****   XMC_DMA_CH_PRIORITY_4 = 0x4UL << GPDMA0_CH_CFGL_CH_PRIOR_Pos, /**< DMA channel priority 4 */
 186:D:/School/diseratie/SEMS/xmc4800_evaluation_kit/xmc4800_iot_kit/common/Libraries/XMCLib/inc\xmc_dma.h ****   XMC_DMA_CH_PRIORITY_5 = 0x5UL << GPDMA0_CH_CFGL_CH_PRIOR_Pos, /**< DMA channel priority 5 */
 187:D:/School/diseratie/SEMS/xmc4800_evaluation_kit/xmc4800_iot_kit/common/Libraries/XMCLib/inc\xmc_dma.h ****   XMC_DMA_CH_PRIORITY_6 = 0x6UL << GPDMA0_CH_CFGL_CH_PRIOR_Pos, /**< DMA channel priority 6 */
 188:D:/School/diseratie/SEMS/xmc4800_evaluation_kit/xmc4800_iot_kit/common/Libraries/XMCLib/inc\xmc_dma.h ****   XMC_DMA_CH_PRIORITY_7 = 0x7UL << GPDMA0_CH_CFGL_CH_PRIOR_Pos  /**< DMA channel priority 7 (high) 
 189:D:/School/diseratie/SEMS/xmc4800_evaluation_kit/xmc4800_iot_kit/common/Libraries/XMCLib/inc\xmc_dma.h **** } XMC_DMA_CH_PRIORITY_t;
 190:D:/School/diseratie/SEMS/xmc4800_evaluation_kit/xmc4800_iot_kit/common/Libraries/XMCLib/inc\xmc_dma.h **** 
 191:D:/School/diseratie/SEMS/xmc4800_evaluation_kit/xmc4800_iot_kit/common/Libraries/XMCLib/inc\xmc_dma.h **** /**
 192:D:/School/diseratie/SEMS/xmc4800_evaluation_kit/xmc4800_iot_kit/common/Libraries/XMCLib/inc\xmc_dma.h ****  * Source handshake interface
 193:D:/School/diseratie/SEMS/xmc4800_evaluation_kit/xmc4800_iot_kit/common/Libraries/XMCLib/inc\xmc_dma.h ****  */
 194:D:/School/diseratie/SEMS/xmc4800_evaluation_kit/xmc4800_iot_kit/common/Libraries/XMCLib/inc\xmc_dma.h **** typedef enum XMC_DMA_CH_SRC_HANDSHAKING
 195:D:/School/diseratie/SEMS/xmc4800_evaluation_kit/xmc4800_iot_kit/common/Libraries/XMCLib/inc\xmc_dma.h **** {
 196:D:/School/diseratie/SEMS/xmc4800_evaluation_kit/xmc4800_iot_kit/common/Libraries/XMCLib/inc\xmc_dma.h ****   XMC_DMA_CH_SRC_HANDSHAKING_HARDWARE = 0x0UL << GPDMA0_CH_CFGL_HS_SEL_SRC_Pos, /**< Source: hardwa
 197:D:/School/diseratie/SEMS/xmc4800_evaluation_kit/xmc4800_iot_kit/common/Libraries/XMCLib/inc\xmc_dma.h ****   XMC_DMA_CH_SRC_HANDSHAKING_SOFTWARE = 0x1UL << GPDMA0_CH_CFGL_HS_SEL_SRC_Pos  /**< Source: softwa
 198:D:/School/diseratie/SEMS/xmc4800_evaluation_kit/xmc4800_iot_kit/common/Libraries/XMCLib/inc\xmc_dma.h **** } XMC_DMA_CH_SRC_HANDSHAKING_t;
 199:D:/School/diseratie/SEMS/xmc4800_evaluation_kit/xmc4800_iot_kit/common/Libraries/XMCLib/inc\xmc_dma.h **** 
 200:D:/School/diseratie/SEMS/xmc4800_evaluation_kit/xmc4800_iot_kit/common/Libraries/XMCLib/inc\xmc_dma.h **** /**
 201:D:/School/diseratie/SEMS/xmc4800_evaluation_kit/xmc4800_iot_kit/common/Libraries/XMCLib/inc\xmc_dma.h ****  * Destination handshake interface
 202:D:/School/diseratie/SEMS/xmc4800_evaluation_kit/xmc4800_iot_kit/common/Libraries/XMCLib/inc\xmc_dma.h ****  */
 203:D:/School/diseratie/SEMS/xmc4800_evaluation_kit/xmc4800_iot_kit/common/Libraries/XMCLib/inc\xmc_dma.h **** typedef enum XMC_DMA_CH_DST_HANDSHAKING
 204:D:/School/diseratie/SEMS/xmc4800_evaluation_kit/xmc4800_iot_kit/common/Libraries/XMCLib/inc\xmc_dma.h **** {
 205:D:/School/diseratie/SEMS/xmc4800_evaluation_kit/xmc4800_iot_kit/common/Libraries/XMCLib/inc\xmc_dma.h ****   XMC_DMA_CH_DST_HANDSHAKING_HARDWARE = 0x0UL << GPDMA0_CH_CFGL_HS_SEL_DST_Pos, /**< Destination: h
 206:D:/School/diseratie/SEMS/xmc4800_evaluation_kit/xmc4800_iot_kit/common/Libraries/XMCLib/inc\xmc_dma.h ****   XMC_DMA_CH_DST_HANDSHAKING_SOFTWARE = 0x1UL << GPDMA0_CH_CFGL_HS_SEL_DST_Pos  /**< Destination: s
 207:D:/School/diseratie/SEMS/xmc4800_evaluation_kit/xmc4800_iot_kit/common/Libraries/XMCLib/inc\xmc_dma.h **** } XMC_DMA_CH_DST_HANDSHAKING_t;
 208:D:/School/diseratie/SEMS/xmc4800_evaluation_kit/xmc4800_iot_kit/common/Libraries/XMCLib/inc\xmc_dma.h **** 
 209:D:/School/diseratie/SEMS/xmc4800_evaluation_kit/xmc4800_iot_kit/common/Libraries/XMCLib/inc\xmc_dma.h **** /**
 210:D:/School/diseratie/SEMS/xmc4800_evaluation_kit/xmc4800_iot_kit/common/Libraries/XMCLib/inc\xmc_dma.h ****  * DMA hardware handshaking interface
 211:D:/School/diseratie/SEMS/xmc4800_evaluation_kit/xmc4800_iot_kit/common/Libraries/XMCLib/inc\xmc_dma.h ****  * Hardware handshaking available only if DMA is flow controller
 212:D:/School/diseratie/SEMS/xmc4800_evaluation_kit/xmc4800_iot_kit/common/Libraries/XMCLib/inc\xmc_dma.h ****  */
 213:D:/School/diseratie/SEMS/xmc4800_evaluation_kit/xmc4800_iot_kit/common/Libraries/XMCLib/inc\xmc_dma.h **** typedef enum XMC_DMA_CH_HARDWARE_HANDSHAKING_IF
 214:D:/School/diseratie/SEMS/xmc4800_evaluation_kit/xmc4800_iot_kit/common/Libraries/XMCLib/inc\xmc_dma.h **** {
 215:D:/School/diseratie/SEMS/xmc4800_evaluation_kit/xmc4800_iot_kit/common/Libraries/XMCLib/inc\xmc_dma.h ****   XMC_DMA_CH_HARDWARE_HANDSHAKING_IF_0 = 0x0UL, /**< Hardware handshaking interface 0 */
 216:D:/School/diseratie/SEMS/xmc4800_evaluation_kit/xmc4800_iot_kit/common/Libraries/XMCLib/inc\xmc_dma.h ****   XMC_DMA_CH_HARDWARE_HANDSHAKING_IF_1 = 0x1UL, /**< Hardware handshaking interface 1 */
 217:D:/School/diseratie/SEMS/xmc4800_evaluation_kit/xmc4800_iot_kit/common/Libraries/XMCLib/inc\xmc_dma.h ****   XMC_DMA_CH_HARDWARE_HANDSHAKING_IF_2 = 0x2UL, /**< Hardware handshaking interface 2 */
 218:D:/School/diseratie/SEMS/xmc4800_evaluation_kit/xmc4800_iot_kit/common/Libraries/XMCLib/inc\xmc_dma.h ****   XMC_DMA_CH_HARDWARE_HANDSHAKING_IF_3 = 0x3UL, /**< Hardware handshaking interface 3 */
 219:D:/School/diseratie/SEMS/xmc4800_evaluation_kit/xmc4800_iot_kit/common/Libraries/XMCLib/inc\xmc_dma.h ****   XMC_DMA_CH_HARDWARE_HANDSHAKING_IF_4 = 0x4UL, /**< Hardware handshaking interface 4 */
 220:D:/School/diseratie/SEMS/xmc4800_evaluation_kit/xmc4800_iot_kit/common/Libraries/XMCLib/inc\xmc_dma.h ****   XMC_DMA_CH_HARDWARE_HANDSHAKING_IF_5 = 0x5UL, /**< Hardware handshaking interface 5 */
 221:D:/School/diseratie/SEMS/xmc4800_evaluation_kit/xmc4800_iot_kit/common/Libraries/XMCLib/inc\xmc_dma.h ****   XMC_DMA_CH_HARDWARE_HANDSHAKING_IF_6 = 0x6UL, /**< Hardware handshaking interface 6 */
 222:D:/School/diseratie/SEMS/xmc4800_evaluation_kit/xmc4800_iot_kit/common/Libraries/XMCLib/inc\xmc_dma.h ****   XMC_DMA_CH_HARDWARE_HANDSHAKING_IF_7 = 0x7UL  /**< Hardware handshaking interface 7 */
 223:D:/School/diseratie/SEMS/xmc4800_evaluation_kit/xmc4800_iot_kit/common/Libraries/XMCLib/inc\xmc_dma.h **** } XMC_DMA_CH_HARDWARE_HANDSHAKING_IF_t;
 224:D:/School/diseratie/SEMS/xmc4800_evaluation_kit/xmc4800_iot_kit/common/Libraries/XMCLib/inc\xmc_dma.h **** 
 225:D:/School/diseratie/SEMS/xmc4800_evaluation_kit/xmc4800_iot_kit/common/Libraries/XMCLib/inc\xmc_dma.h **** /**
 226:D:/School/diseratie/SEMS/xmc4800_evaluation_kit/xmc4800_iot_kit/common/Libraries/XMCLib/inc\xmc_dma.h ****  * DMA events
 227:D:/School/diseratie/SEMS/xmc4800_evaluation_kit/xmc4800_iot_kit/common/Libraries/XMCLib/inc\xmc_dma.h ****  */
 228:D:/School/diseratie/SEMS/xmc4800_evaluation_kit/xmc4800_iot_kit/common/Libraries/XMCLib/inc\xmc_dma.h **** typedef enum XMC_DMA_CH_EVENT
 229:D:/School/diseratie/SEMS/xmc4800_evaluation_kit/xmc4800_iot_kit/common/Libraries/XMCLib/inc\xmc_dma.h **** {
 230:D:/School/diseratie/SEMS/xmc4800_evaluation_kit/xmc4800_iot_kit/common/Libraries/XMCLib/inc\xmc_dma.h ****   XMC_DMA_CH_EVENT_TRANSFER_COMPLETE        = 0x1UL, /**< Transfer complete event */
 231:D:/School/diseratie/SEMS/xmc4800_evaluation_kit/xmc4800_iot_kit/common/Libraries/XMCLib/inc\xmc_dma.h ****   XMC_DMA_CH_EVENT_BLOCK_TRANSFER_COMPLETE  = 0x2UL, /**< Block transfer complete event */
 232:D:/School/diseratie/SEMS/xmc4800_evaluation_kit/xmc4800_iot_kit/common/Libraries/XMCLib/inc\xmc_dma.h ****   XMC_DMA_CH_EVENT_SRC_TRANSACTION_COMPLETE = 0x4UL, /**< Source transaction complete event */
 233:D:/School/diseratie/SEMS/xmc4800_evaluation_kit/xmc4800_iot_kit/common/Libraries/XMCLib/inc\xmc_dma.h ****   XMC_DMA_CH_EVENT_DST_TRANSACTION_COMPLETE = 0x8UL, /**< Destination transaction complete event */
 234:D:/School/diseratie/SEMS/xmc4800_evaluation_kit/xmc4800_iot_kit/common/Libraries/XMCLib/inc\xmc_dma.h ****   XMC_DMA_CH_EVENT_ERROR                    = 0x10UL /**< DMA error event */
 235:D:/School/diseratie/SEMS/xmc4800_evaluation_kit/xmc4800_iot_kit/common/Libraries/XMCLib/inc\xmc_dma.h **** } XMC_DMA_CH_EVENT_t;
 236:D:/School/diseratie/SEMS/xmc4800_evaluation_kit/xmc4800_iot_kit/common/Libraries/XMCLib/inc\xmc_dma.h **** 
 237:D:/School/diseratie/SEMS/xmc4800_evaluation_kit/xmc4800_iot_kit/common/Libraries/XMCLib/inc\xmc_dma.h **** /**
 238:D:/School/diseratie/SEMS/xmc4800_evaluation_kit/xmc4800_iot_kit/common/Libraries/XMCLib/inc\xmc_dma.h ****  * Transaction types
 239:D:/School/diseratie/SEMS/xmc4800_evaluation_kit/xmc4800_iot_kit/common/Libraries/XMCLib/inc\xmc_dma.h ****  */
 240:D:/School/diseratie/SEMS/xmc4800_evaluation_kit/xmc4800_iot_kit/common/Libraries/XMCLib/inc\xmc_dma.h **** typedef enum XMC_DMA_CH_TRANSACTION_TYPE
 241:D:/School/diseratie/SEMS/xmc4800_evaluation_kit/xmc4800_iot_kit/common/Libraries/XMCLib/inc\xmc_dma.h **** {
 242:D:/School/diseratie/SEMS/xmc4800_evaluation_kit/xmc4800_iot_kit/common/Libraries/XMCLib/inc\xmc_dma.h ****   XMC_DMA_CH_TRANSACTION_TYPE_SINGLE, /**< Single DMA transaction */
 243:D:/School/diseratie/SEMS/xmc4800_evaluation_kit/xmc4800_iot_kit/common/Libraries/XMCLib/inc\xmc_dma.h ****   XMC_DMA_CH_TRANSACTION_TYPE_BURST   /**< Burst transaction */
 244:D:/School/diseratie/SEMS/xmc4800_evaluation_kit/xmc4800_iot_kit/common/Libraries/XMCLib/inc\xmc_dma.h **** } XMC_DMA_CH_TRANSACTION_TYPE_t;
 245:D:/School/diseratie/SEMS/xmc4800_evaluation_kit/xmc4800_iot_kit/common/Libraries/XMCLib/inc\xmc_dma.h **** 
 246:D:/School/diseratie/SEMS/xmc4800_evaluation_kit/xmc4800_iot_kit/common/Libraries/XMCLib/inc\xmc_dma.h **** /**
 247:D:/School/diseratie/SEMS/xmc4800_evaluation_kit/xmc4800_iot_kit/common/Libraries/XMCLib/inc\xmc_dma.h ****  * DMA channel status values
 248:D:/School/diseratie/SEMS/xmc4800_evaluation_kit/xmc4800_iot_kit/common/Libraries/XMCLib/inc\xmc_dma.h ****  */
 249:D:/School/diseratie/SEMS/xmc4800_evaluation_kit/xmc4800_iot_kit/common/Libraries/XMCLib/inc\xmc_dma.h **** typedef enum XMC_DMA_CH_STATUS
 250:D:/School/diseratie/SEMS/xmc4800_evaluation_kit/xmc4800_iot_kit/common/Libraries/XMCLib/inc\xmc_dma.h **** {
 251:D:/School/diseratie/SEMS/xmc4800_evaluation_kit/xmc4800_iot_kit/common/Libraries/XMCLib/inc\xmc_dma.h ****   XMC_DMA_CH_STATUS_OK,    /**< DMA status OK */
 252:D:/School/diseratie/SEMS/xmc4800_evaluation_kit/xmc4800_iot_kit/common/Libraries/XMCLib/inc\xmc_dma.h ****   XMC_DMA_CH_STATUS_ERROR, /**< DMA status error */
 253:D:/School/diseratie/SEMS/xmc4800_evaluation_kit/xmc4800_iot_kit/common/Libraries/XMCLib/inc\xmc_dma.h ****   XMC_DMA_CH_STATUS_BUSY   /**< DMA is busy */
 254:D:/School/diseratie/SEMS/xmc4800_evaluation_kit/xmc4800_iot_kit/common/Libraries/XMCLib/inc\xmc_dma.h **** } XMC_DMA_CH_STATUS_t;
 255:D:/School/diseratie/SEMS/xmc4800_evaluation_kit/xmc4800_iot_kit/common/Libraries/XMCLib/inc\xmc_dma.h **** 
 256:D:/School/diseratie/SEMS/xmc4800_evaluation_kit/xmc4800_iot_kit/common/Libraries/XMCLib/inc\xmc_dma.h **** /*******************************************************************************
 257:D:/School/diseratie/SEMS/xmc4800_evaluation_kit/xmc4800_iot_kit/common/Libraries/XMCLib/inc\xmc_dma.h ****  * DATA STRUCTURES
 258:D:/School/diseratie/SEMS/xmc4800_evaluation_kit/xmc4800_iot_kit/common/Libraries/XMCLib/inc\xmc_dma.h ****  *******************************************************************************/
 259:D:/School/diseratie/SEMS/xmc4800_evaluation_kit/xmc4800_iot_kit/common/Libraries/XMCLib/inc\xmc_dma.h **** 
 260:D:/School/diseratie/SEMS/xmc4800_evaluation_kit/xmc4800_iot_kit/common/Libraries/XMCLib/inc\xmc_dma.h **** /**
 261:D:/School/diseratie/SEMS/xmc4800_evaluation_kit/xmc4800_iot_kit/common/Libraries/XMCLib/inc\xmc_dma.h ****  * DMA channel configuration structure <br>
 262:D:/School/diseratie/SEMS/xmc4800_evaluation_kit/xmc4800_iot_kit/common/Libraries/XMCLib/inc\xmc_dma.h ****  *
 263:D:/School/diseratie/SEMS/xmc4800_evaluation_kit/xmc4800_iot_kit/common/Libraries/XMCLib/inc\xmc_dma.h ****  * The structure represents a collection of all hardware registers used
 264:D:/School/diseratie/SEMS/xmc4800_evaluation_kit/xmc4800_iot_kit/common/Libraries/XMCLib/inc\xmc_dma.h ****  * to configure the DMA channel. It is contained within the ::XMC_DMA_t
 265:D:/School/diseratie/SEMS/xmc4800_evaluation_kit/xmc4800_iot_kit/common/Libraries/XMCLib/inc\xmc_dma.h ****  * structure. It's registers can be used to configure DMA transfer details
 266:D:/School/diseratie/SEMS/xmc4800_evaluation_kit/xmc4800_iot_kit/common/Libraries/XMCLib/inc\xmc_dma.h ****  * like source address, destination address, block size, incrementation
 267:D:/School/diseratie/SEMS/xmc4800_evaluation_kit/xmc4800_iot_kit/common/Libraries/XMCLib/inc\xmc_dma.h ****  * modes and the like.
 268:D:/School/diseratie/SEMS/xmc4800_evaluation_kit/xmc4800_iot_kit/common/Libraries/XMCLib/inc\xmc_dma.h ****  */
 269:D:/School/diseratie/SEMS/xmc4800_evaluation_kit/xmc4800_iot_kit/common/Libraries/XMCLib/inc\xmc_dma.h ****  
 270:D:/School/diseratie/SEMS/xmc4800_evaluation_kit/xmc4800_iot_kit/common/Libraries/XMCLib/inc\xmc_dma.h **** typedef struct {
 271:D:/School/diseratie/SEMS/xmc4800_evaluation_kit/xmc4800_iot_kit/common/Libraries/XMCLib/inc\xmc_dma.h ****   __IO uint32_t  SAR;
 272:D:/School/diseratie/SEMS/xmc4800_evaluation_kit/xmc4800_iot_kit/common/Libraries/XMCLib/inc\xmc_dma.h ****   __I  uint32_t  RESERVED0;
 273:D:/School/diseratie/SEMS/xmc4800_evaluation_kit/xmc4800_iot_kit/common/Libraries/XMCLib/inc\xmc_dma.h ****   __IO uint32_t  DAR;
 274:D:/School/diseratie/SEMS/xmc4800_evaluation_kit/xmc4800_iot_kit/common/Libraries/XMCLib/inc\xmc_dma.h ****   __I  uint32_t  RESERVED1;
 275:D:/School/diseratie/SEMS/xmc4800_evaluation_kit/xmc4800_iot_kit/common/Libraries/XMCLib/inc\xmc_dma.h ****   __IO uint32_t  LLP;
 276:D:/School/diseratie/SEMS/xmc4800_evaluation_kit/xmc4800_iot_kit/common/Libraries/XMCLib/inc\xmc_dma.h ****   __I  uint32_t  RESERVED2;
 277:D:/School/diseratie/SEMS/xmc4800_evaluation_kit/xmc4800_iot_kit/common/Libraries/XMCLib/inc\xmc_dma.h ****   __IO uint32_t  CTLL;
 278:D:/School/diseratie/SEMS/xmc4800_evaluation_kit/xmc4800_iot_kit/common/Libraries/XMCLib/inc\xmc_dma.h ****   __IO uint32_t  CTLH;
 279:D:/School/diseratie/SEMS/xmc4800_evaluation_kit/xmc4800_iot_kit/common/Libraries/XMCLib/inc\xmc_dma.h ****   __IO uint32_t  SSTAT;
 280:D:/School/diseratie/SEMS/xmc4800_evaluation_kit/xmc4800_iot_kit/common/Libraries/XMCLib/inc\xmc_dma.h ****   __I  uint32_t  RESERVED3;
 281:D:/School/diseratie/SEMS/xmc4800_evaluation_kit/xmc4800_iot_kit/common/Libraries/XMCLib/inc\xmc_dma.h ****   __IO uint32_t  DSTAT;
 282:D:/School/diseratie/SEMS/xmc4800_evaluation_kit/xmc4800_iot_kit/common/Libraries/XMCLib/inc\xmc_dma.h ****   __I  uint32_t  RESERVED4;
 283:D:/School/diseratie/SEMS/xmc4800_evaluation_kit/xmc4800_iot_kit/common/Libraries/XMCLib/inc\xmc_dma.h ****   __IO uint32_t  SSTATAR;
 284:D:/School/diseratie/SEMS/xmc4800_evaluation_kit/xmc4800_iot_kit/common/Libraries/XMCLib/inc\xmc_dma.h ****   __I  uint32_t  RESERVED5;
 285:D:/School/diseratie/SEMS/xmc4800_evaluation_kit/xmc4800_iot_kit/common/Libraries/XMCLib/inc\xmc_dma.h ****   __IO uint32_t  DSTATAR;
 286:D:/School/diseratie/SEMS/xmc4800_evaluation_kit/xmc4800_iot_kit/common/Libraries/XMCLib/inc\xmc_dma.h ****   __I  uint32_t  RESERVED6;
 287:D:/School/diseratie/SEMS/xmc4800_evaluation_kit/xmc4800_iot_kit/common/Libraries/XMCLib/inc\xmc_dma.h ****   __IO uint32_t  CFGL;
 288:D:/School/diseratie/SEMS/xmc4800_evaluation_kit/xmc4800_iot_kit/common/Libraries/XMCLib/inc\xmc_dma.h ****   __IO uint32_t  CFGH;
 289:D:/School/diseratie/SEMS/xmc4800_evaluation_kit/xmc4800_iot_kit/common/Libraries/XMCLib/inc\xmc_dma.h ****   __IO uint32_t  SGR;
 290:D:/School/diseratie/SEMS/xmc4800_evaluation_kit/xmc4800_iot_kit/common/Libraries/XMCLib/inc\xmc_dma.h ****   __I  uint32_t  RESERVED7;
 291:D:/School/diseratie/SEMS/xmc4800_evaluation_kit/xmc4800_iot_kit/common/Libraries/XMCLib/inc\xmc_dma.h ****   __IO uint32_t  DSR;
 292:D:/School/diseratie/SEMS/xmc4800_evaluation_kit/xmc4800_iot_kit/common/Libraries/XMCLib/inc\xmc_dma.h ****   __I  uint32_t  RESERVED8;
 293:D:/School/diseratie/SEMS/xmc4800_evaluation_kit/xmc4800_iot_kit/common/Libraries/XMCLib/inc\xmc_dma.h **** } GPDMA_CH_t;
 294:D:/School/diseratie/SEMS/xmc4800_evaluation_kit/xmc4800_iot_kit/common/Libraries/XMCLib/inc\xmc_dma.h **** 
 295:D:/School/diseratie/SEMS/xmc4800_evaluation_kit/xmc4800_iot_kit/common/Libraries/XMCLib/inc\xmc_dma.h **** /**
 296:D:/School/diseratie/SEMS/xmc4800_evaluation_kit/xmc4800_iot_kit/common/Libraries/XMCLib/inc\xmc_dma.h ****  * DMA device structure <br>
 297:D:/School/diseratie/SEMS/xmc4800_evaluation_kit/xmc4800_iot_kit/common/Libraries/XMCLib/inc\xmc_dma.h ****  *
 298:D:/School/diseratie/SEMS/xmc4800_evaluation_kit/xmc4800_iot_kit/common/Libraries/XMCLib/inc\xmc_dma.h ****  * The structure represents a collection of all hardware registers used
 299:D:/School/diseratie/SEMS/xmc4800_evaluation_kit/xmc4800_iot_kit/common/Libraries/XMCLib/inc\xmc_dma.h ****  * to configure the GPDMA peripheral on the XMC4000 series of microcontrollers.
 300:D:/School/diseratie/SEMS/xmc4800_evaluation_kit/xmc4800_iot_kit/common/Libraries/XMCLib/inc\xmc_dma.h ****  * The registers can be accessed with ::XMC_DMA0 and ::XMC_DMA1.
 301:D:/School/diseratie/SEMS/xmc4800_evaluation_kit/xmc4800_iot_kit/common/Libraries/XMCLib/inc\xmc_dma.h ****  */
 302:D:/School/diseratie/SEMS/xmc4800_evaluation_kit/xmc4800_iot_kit/common/Libraries/XMCLib/inc\xmc_dma.h **** typedef struct {
 303:D:/School/diseratie/SEMS/xmc4800_evaluation_kit/xmc4800_iot_kit/common/Libraries/XMCLib/inc\xmc_dma.h ****   GPDMA_CH_t CH[8];
 304:D:/School/diseratie/SEMS/xmc4800_evaluation_kit/xmc4800_iot_kit/common/Libraries/XMCLib/inc\xmc_dma.h **** 
 305:D:/School/diseratie/SEMS/xmc4800_evaluation_kit/xmc4800_iot_kit/common/Libraries/XMCLib/inc\xmc_dma.h ****   __IO uint32_t  RAWCHEV[10];
 306:D:/School/diseratie/SEMS/xmc4800_evaluation_kit/xmc4800_iot_kit/common/Libraries/XMCLib/inc\xmc_dma.h ****   __I  uint32_t  STATUSCHEV[10];
 307:D:/School/diseratie/SEMS/xmc4800_evaluation_kit/xmc4800_iot_kit/common/Libraries/XMCLib/inc\xmc_dma.h ****   __IO uint32_t  MASKCHEV[10];
 308:D:/School/diseratie/SEMS/xmc4800_evaluation_kit/xmc4800_iot_kit/common/Libraries/XMCLib/inc\xmc_dma.h ****   __O  uint32_t  CLEARCHEV[10];
 309:D:/School/diseratie/SEMS/xmc4800_evaluation_kit/xmc4800_iot_kit/common/Libraries/XMCLib/inc\xmc_dma.h ****   __I  uint32_t  STATUSGLEV;
 310:D:/School/diseratie/SEMS/xmc4800_evaluation_kit/xmc4800_iot_kit/common/Libraries/XMCLib/inc\xmc_dma.h ****   __I  uint32_t  RESERVED20;
 311:D:/School/diseratie/SEMS/xmc4800_evaluation_kit/xmc4800_iot_kit/common/Libraries/XMCLib/inc\xmc_dma.h ****   __IO uint32_t  REQSRCREG;
 312:D:/School/diseratie/SEMS/xmc4800_evaluation_kit/xmc4800_iot_kit/common/Libraries/XMCLib/inc\xmc_dma.h ****   __I  uint32_t  RESERVED21;
 313:D:/School/diseratie/SEMS/xmc4800_evaluation_kit/xmc4800_iot_kit/common/Libraries/XMCLib/inc\xmc_dma.h ****   __IO uint32_t  REQDSTREG;
 314:D:/School/diseratie/SEMS/xmc4800_evaluation_kit/xmc4800_iot_kit/common/Libraries/XMCLib/inc\xmc_dma.h ****   __I  uint32_t  RESERVED22;
 315:D:/School/diseratie/SEMS/xmc4800_evaluation_kit/xmc4800_iot_kit/common/Libraries/XMCLib/inc\xmc_dma.h ****   __IO uint32_t  SGLREQSRCREG;
 316:D:/School/diseratie/SEMS/xmc4800_evaluation_kit/xmc4800_iot_kit/common/Libraries/XMCLib/inc\xmc_dma.h ****   __I  uint32_t  RESERVED23;
 317:D:/School/diseratie/SEMS/xmc4800_evaluation_kit/xmc4800_iot_kit/common/Libraries/XMCLib/inc\xmc_dma.h ****   __IO uint32_t  SGLREQDSTREG;
 318:D:/School/diseratie/SEMS/xmc4800_evaluation_kit/xmc4800_iot_kit/common/Libraries/XMCLib/inc\xmc_dma.h ****   __I  uint32_t  RESERVED24;
 319:D:/School/diseratie/SEMS/xmc4800_evaluation_kit/xmc4800_iot_kit/common/Libraries/XMCLib/inc\xmc_dma.h ****   __IO uint32_t  LSTSRCREG;
 320:D:/School/diseratie/SEMS/xmc4800_evaluation_kit/xmc4800_iot_kit/common/Libraries/XMCLib/inc\xmc_dma.h ****   __I  uint32_t  RESERVED25;
 321:D:/School/diseratie/SEMS/xmc4800_evaluation_kit/xmc4800_iot_kit/common/Libraries/XMCLib/inc\xmc_dma.h ****   __IO uint32_t  LSTDSTREG;
 322:D:/School/diseratie/SEMS/xmc4800_evaluation_kit/xmc4800_iot_kit/common/Libraries/XMCLib/inc\xmc_dma.h ****   __I  uint32_t  RESERVED26;
 323:D:/School/diseratie/SEMS/xmc4800_evaluation_kit/xmc4800_iot_kit/common/Libraries/XMCLib/inc\xmc_dma.h ****   __IO uint32_t  DMACFGREG;
 324:D:/School/diseratie/SEMS/xmc4800_evaluation_kit/xmc4800_iot_kit/common/Libraries/XMCLib/inc\xmc_dma.h ****   __I  uint32_t  RESERVED27;
 325:D:/School/diseratie/SEMS/xmc4800_evaluation_kit/xmc4800_iot_kit/common/Libraries/XMCLib/inc\xmc_dma.h ****   __IO uint32_t  CHENREG;
 326:D:/School/diseratie/SEMS/xmc4800_evaluation_kit/xmc4800_iot_kit/common/Libraries/XMCLib/inc\xmc_dma.h ****   __I  uint32_t  RESERVED28;
 327:D:/School/diseratie/SEMS/xmc4800_evaluation_kit/xmc4800_iot_kit/common/Libraries/XMCLib/inc\xmc_dma.h ****   __I  uint32_t  ID;
 328:D:/School/diseratie/SEMS/xmc4800_evaluation_kit/xmc4800_iot_kit/common/Libraries/XMCLib/inc\xmc_dma.h ****   __I  uint32_t  RESERVED29[19];
 329:D:/School/diseratie/SEMS/xmc4800_evaluation_kit/xmc4800_iot_kit/common/Libraries/XMCLib/inc\xmc_dma.h ****   __I  uint32_t  TYPE;
 330:D:/School/diseratie/SEMS/xmc4800_evaluation_kit/xmc4800_iot_kit/common/Libraries/XMCLib/inc\xmc_dma.h ****   __I  uint32_t  VERSION;
 331:D:/School/diseratie/SEMS/xmc4800_evaluation_kit/xmc4800_iot_kit/common/Libraries/XMCLib/inc\xmc_dma.h **** } XMC_DMA_t;
 332:D:/School/diseratie/SEMS/xmc4800_evaluation_kit/xmc4800_iot_kit/common/Libraries/XMCLib/inc\xmc_dma.h **** 
 333:D:/School/diseratie/SEMS/xmc4800_evaluation_kit/xmc4800_iot_kit/common/Libraries/XMCLib/inc\xmc_dma.h **** /* Anonymous structure/union guard start */
 334:D:/School/diseratie/SEMS/xmc4800_evaluation_kit/xmc4800_iot_kit/common/Libraries/XMCLib/inc\xmc_dma.h **** #if defined (__CC_ARM)
 335:D:/School/diseratie/SEMS/xmc4800_evaluation_kit/xmc4800_iot_kit/common/Libraries/XMCLib/inc\xmc_dma.h ****   #pragma push
 336:D:/School/diseratie/SEMS/xmc4800_evaluation_kit/xmc4800_iot_kit/common/Libraries/XMCLib/inc\xmc_dma.h ****   #pragma anon_unions
 337:D:/School/diseratie/SEMS/xmc4800_evaluation_kit/xmc4800_iot_kit/common/Libraries/XMCLib/inc\xmc_dma.h **** #elif defined (__TASKING__)
 338:D:/School/diseratie/SEMS/xmc4800_evaluation_kit/xmc4800_iot_kit/common/Libraries/XMCLib/inc\xmc_dma.h ****   #pragma warning 586
 339:D:/School/diseratie/SEMS/xmc4800_evaluation_kit/xmc4800_iot_kit/common/Libraries/XMCLib/inc\xmc_dma.h **** #endif
 340:D:/School/diseratie/SEMS/xmc4800_evaluation_kit/xmc4800_iot_kit/common/Libraries/XMCLib/inc\xmc_dma.h **** 
 341:D:/School/diseratie/SEMS/xmc4800_evaluation_kit/xmc4800_iot_kit/common/Libraries/XMCLib/inc\xmc_dma.h **** /**
 342:D:/School/diseratie/SEMS/xmc4800_evaluation_kit/xmc4800_iot_kit/common/Libraries/XMCLib/inc\xmc_dma.h ****  * DMA channel linked list item.
 343:D:/School/diseratie/SEMS/xmc4800_evaluation_kit/xmc4800_iot_kit/common/Libraries/XMCLib/inc\xmc_dma.h ****  * Note: Needs to be word aligned
 344:D:/School/diseratie/SEMS/xmc4800_evaluation_kit/xmc4800_iot_kit/common/Libraries/XMCLib/inc\xmc_dma.h ****  */
 345:D:/School/diseratie/SEMS/xmc4800_evaluation_kit/xmc4800_iot_kit/common/Libraries/XMCLib/inc\xmc_dma.h **** typedef struct XMC_DMA_LLI
 346:D:/School/diseratie/SEMS/xmc4800_evaluation_kit/xmc4800_iot_kit/common/Libraries/XMCLib/inc\xmc_dma.h **** {
 347:D:/School/diseratie/SEMS/xmc4800_evaluation_kit/xmc4800_iot_kit/common/Libraries/XMCLib/inc\xmc_dma.h ****   uint32_t src_addr;                            /**< Source address */
 348:D:/School/diseratie/SEMS/xmc4800_evaluation_kit/xmc4800_iot_kit/common/Libraries/XMCLib/inc\xmc_dma.h ****   uint32_t dst_addr;                            /**< Destination address */
 349:D:/School/diseratie/SEMS/xmc4800_evaluation_kit/xmc4800_iot_kit/common/Libraries/XMCLib/inc\xmc_dma.h ****   struct XMC_DMA_LLI *llp;                      /**< Linked list pointer of type XMC_DMA_LLI_t */
 350:D:/School/diseratie/SEMS/xmc4800_evaluation_kit/xmc4800_iot_kit/common/Libraries/XMCLib/inc\xmc_dma.h ****   union
 351:D:/School/diseratie/SEMS/xmc4800_evaluation_kit/xmc4800_iot_kit/common/Libraries/XMCLib/inc\xmc_dma.h ****   {
 352:D:/School/diseratie/SEMS/xmc4800_evaluation_kit/xmc4800_iot_kit/common/Libraries/XMCLib/inc\xmc_dma.h ****     struct
 353:D:/School/diseratie/SEMS/xmc4800_evaluation_kit/xmc4800_iot_kit/common/Libraries/XMCLib/inc\xmc_dma.h ****     {
 354:D:/School/diseratie/SEMS/xmc4800_evaluation_kit/xmc4800_iot_kit/common/Libraries/XMCLib/inc\xmc_dma.h ****       uint32_t enable_interrupt: 1;             /**< Enable interrupts? */
 355:D:/School/diseratie/SEMS/xmc4800_evaluation_kit/xmc4800_iot_kit/common/Libraries/XMCLib/inc\xmc_dma.h ****       uint32_t dst_transfer_width: 3;           /**< Destination transfer width (:: XMC_DMA_CH_TRAN
 356:D:/School/diseratie/SEMS/xmc4800_evaluation_kit/xmc4800_iot_kit/common/Libraries/XMCLib/inc\xmc_dma.h ****       uint32_t src_transfer_width: 3;           /**< Source transfer width (:: XMC_DMA_CH_TRANSFER_
 357:D:/School/diseratie/SEMS/xmc4800_evaluation_kit/xmc4800_iot_kit/common/Libraries/XMCLib/inc\xmc_dma.h ****       uint32_t dst_address_count_mode: 2;       /**< Destination address count mode (:: XMC_DMA_CH_
 358:D:/School/diseratie/SEMS/xmc4800_evaluation_kit/xmc4800_iot_kit/common/Libraries/XMCLib/inc\xmc_dma.h ****       uint32_t src_address_count_mode: 2;       /**< Source address count mode (:: XMC_DMA_CH_ADDRE
 359:D:/School/diseratie/SEMS/xmc4800_evaluation_kit/xmc4800_iot_kit/common/Libraries/XMCLib/inc\xmc_dma.h ****       uint32_t dst_burst_length: 3;             /**< Destination burst length (:: XMC_DMA_CH_BURST_
 360:D:/School/diseratie/SEMS/xmc4800_evaluation_kit/xmc4800_iot_kit/common/Libraries/XMCLib/inc\xmc_dma.h ****       uint32_t src_burst_length: 3;             /**< Source burst length (:: XMC_DMA_CH_BURST_LENGT
 361:D:/School/diseratie/SEMS/xmc4800_evaluation_kit/xmc4800_iot_kit/common/Libraries/XMCLib/inc\xmc_dma.h ****       uint32_t enable_src_gather: 1;            /**< Enable source gather? */
 362:D:/School/diseratie/SEMS/xmc4800_evaluation_kit/xmc4800_iot_kit/common/Libraries/XMCLib/inc\xmc_dma.h ****       uint32_t enable_dst_scatter: 1;           /**< Enable destination scatter? */
 363:D:/School/diseratie/SEMS/xmc4800_evaluation_kit/xmc4800_iot_kit/common/Libraries/XMCLib/inc\xmc_dma.h ****       uint32_t : 1;                             /**< Reserved bits */
 364:D:/School/diseratie/SEMS/xmc4800_evaluation_kit/xmc4800_iot_kit/common/Libraries/XMCLib/inc\xmc_dma.h ****       uint32_t transfer_flow: 3;                /**< DMA transfer flow (:: XMC_DMA_CH_TRANSFER_FLOW
 365:D:/School/diseratie/SEMS/xmc4800_evaluation_kit/xmc4800_iot_kit/common/Libraries/XMCLib/inc\xmc_dma.h ****       uint32_t : 4;                             /**< Reserved bits */
 366:D:/School/diseratie/SEMS/xmc4800_evaluation_kit/xmc4800_iot_kit/common/Libraries/XMCLib/inc\xmc_dma.h ****       uint32_t enable_dst_linked_list: 1;       /**< Enable destination linked list? */
 367:D:/School/diseratie/SEMS/xmc4800_evaluation_kit/xmc4800_iot_kit/common/Libraries/XMCLib/inc\xmc_dma.h ****       uint32_t enable_src_linked_list: 1;       /**< Enable source linked list? */
 368:D:/School/diseratie/SEMS/xmc4800_evaluation_kit/xmc4800_iot_kit/common/Libraries/XMCLib/inc\xmc_dma.h ****       uint32_t : 3;                             /**< Reserved bits */
 369:D:/School/diseratie/SEMS/xmc4800_evaluation_kit/xmc4800_iot_kit/common/Libraries/XMCLib/inc\xmc_dma.h ****     };
 370:D:/School/diseratie/SEMS/xmc4800_evaluation_kit/xmc4800_iot_kit/common/Libraries/XMCLib/inc\xmc_dma.h ****     uint32_t control;
 371:D:/School/diseratie/SEMS/xmc4800_evaluation_kit/xmc4800_iot_kit/common/Libraries/XMCLib/inc\xmc_dma.h ****   };
