   1              	 .syntax unified
   2              	 .cpu cortex-m4
   3              	 .eabi_attribute 27,3
   4              	 .fpu fpv4-sp-d16
   5              	 .eabi_attribute 20,1
   6              	 .eabi_attribute 21,1
   7              	 .eabi_attribute 23,3
   8              	 .eabi_attribute 24,1
   9              	 .eabi_attribute 25,1
  10              	 .eabi_attribute 26,1
  11              	 .eabi_attribute 30,2
  12              	 .eabi_attribute 34,1
  13              	 .eabi_attribute 18,4
  14              	 .thumb
  15              	 .file "Constructor.c"
  16              	 .text
  17              	.Ltext0:
  18              	 .cfi_sections .debug_frame
  19              	 .section .text.optiga_crypt_callback,"ax",%progbits
  20              	 .align 2
  21              	 .thumb
  22              	 .thumb_func
  24              	optiga_crypt_callback:
  25              	.LFB454:
  26              	 .file 1 "../SEMS_Sources/Constructor.c"
   1:../SEMS_Sources/Constructor.c **** #include "../SEMS_Headers/Constructor.h"
   2:../SEMS_Sources/Constructor.c **** #include "../SEMS_Headers/Config.h"
   3:../SEMS_Sources/Constructor.c **** 
   4:../SEMS_Sources/Constructor.c **** // in Util.h: extern volatile optiga_lib_status_t optiga_lib_status;
   5:../SEMS_Sources/Constructor.c **** volatile optiga_lib_status_t optiga_lib_status;
   6:../SEMS_Sources/Constructor.c **** 
   7:../SEMS_Sources/Constructor.c **** 
   8:../SEMS_Sources/Constructor.c **** static void optiga_crypt_callback(void * const context, optiga_lib_status_t return_status)
   9:../SEMS_Sources/Constructor.c **** {
  27              	 .loc 1 9 0
  28              	 .cfi_startproc
  29              	 
  30              	 
  31              	 
  32              	.LVL0:
  10:../SEMS_Sources/Constructor.c ****     optiga_lib_status = return_status;
  33              	 .loc 1 10 0
  34 0000 014B     	 ldr r3,.L2
  35 0002 1980     	 strh r1,[r3]
  36 0004 7047     	 bx lr
  37              	.L3:
  38 0006 00BF     	 .align 2
  39              	.L2:
  40 0008 00000000 	 .word optiga_lib_status
  41              	 .cfi_endproc
  42              	.LFE454:
  44              	 .section .text.optiga_util_callback,"ax",%progbits
  45              	 .align 2
  46              	 .thumb
  47              	 .thumb_func
  49              	optiga_util_callback:
  50              	.LFB455:
  11:../SEMS_Sources/Constructor.c ****     if (NULL != context)
  12:../SEMS_Sources/Constructor.c ****     {
  13:../SEMS_Sources/Constructor.c ****         // callback to upper layer here
  14:../SEMS_Sources/Constructor.c ****     }
  15:../SEMS_Sources/Constructor.c **** }
  16:../SEMS_Sources/Constructor.c **** 
  17:../SEMS_Sources/Constructor.c **** 
  18:../SEMS_Sources/Constructor.c **** static void optiga_util_callback(void * const context, optiga_lib_status_t return_status)
  19:../SEMS_Sources/Constructor.c **** {
  51              	 .loc 1 19 0
  52              	 .cfi_startproc
  53              	 
  54              	 
  55              	 
  56              	.LVL1:
  20:../SEMS_Sources/Constructor.c ****     optiga_lib_status = return_status;
  57              	 .loc 1 20 0
  58 0000 014B     	 ldr r3,.L5
  59 0002 1980     	 strh r1,[r3]
  60 0004 7047     	 bx lr
  61              	.L6:
  62 0006 00BF     	 .align 2
  63              	.L5:
  64 0008 00000000 	 .word optiga_lib_status
  65              	 .cfi_endproc
  66              	.LFE455:
  68              	 .section .text.optiga_crypt_create_wrapper,"ax",%progbits
  69              	 .align 2
  70              	 .global optiga_crypt_create_wrapper
  71              	 .thumb
  72              	 .thumb_func
  74              	optiga_crypt_create_wrapper:
  75              	.LFB456:
  21:../SEMS_Sources/Constructor.c ****     if (NULL != context)
  22:../SEMS_Sources/Constructor.c ****     {
  23:../SEMS_Sources/Constructor.c ****         // callback to upper layer here
  24:../SEMS_Sources/Constructor.c ****     }
  25:../SEMS_Sources/Constructor.c **** }
  26:../SEMS_Sources/Constructor.c **** 
  27:../SEMS_Sources/Constructor.c **** 
  28:../SEMS_Sources/Constructor.c **** 
  29:../SEMS_Sources/Constructor.c **** optiga_crypt_t * optiga_crypt_create_wrapper(void)
  30:../SEMS_Sources/Constructor.c **** {
  76              	 .loc 1 30 0
  77              	 .cfi_startproc
  78              	 
  79              	 
  31:../SEMS_Sources/Constructor.c **** 	optiga_crypt_t * me;
  32:../SEMS_Sources/Constructor.c **** 	me = optiga_crypt_create(0, optiga_crypt_callback, NULL);
  80              	 .loc 1 32 0
  81 0000 0020     	 movs r0,#0
  30:../SEMS_Sources/Constructor.c **** 	optiga_crypt_t * me;
  82              	 .loc 1 30 0
  83 0002 10B5     	 push {r4,lr}
  84              	.LCFI0:
  85              	 .cfi_def_cfa_offset 8
  86              	 .cfi_offset 4,-8
  87              	 .cfi_offset 14,-4
  88              	 .loc 1 32 0
  89 0004 0246     	 mov r2,r0
  90 0006 0549     	 ldr r1,.L9
  91 0008 FFF7FEFF 	 bl optiga_crypt_create
  92              	.LVL2:
  33:../SEMS_Sources/Constructor.c **** #if LIFECYCLE==PRODUCTION
  34:../SEMS_Sources/Constructor.c **** 	OPTIGA_CRYPT_SET_COMMS_PROTECTION_LEVEL(me, OPTIGA_COMMS_FULL_PROTECTION);
  35:../SEMS_Sources/Constructor.c **** #else
  36:../SEMS_Sources/Constructor.c **** 	OPTIGA_CRYPT_SET_COMMS_PROTECTION_LEVEL(me, OPTIGA_COMMS_NO_PROTECTION);
  93              	 .loc 1 36 0
  94 000c 0121     	 movs r1,#1
  32:../SEMS_Sources/Constructor.c **** #if LIFECYCLE==PRODUCTION
  95              	 .loc 1 32 0
  96 000e 0446     	 mov r4,r0
  97              	.LVL3:
  98              	 .loc 1 36 0
  99 0010 0022     	 movs r2,#0
 100 0012 FFF7FEFF 	 bl optiga_crypt_set_comms_params
 101              	.LVL4:
  37:../SEMS_Sources/Constructor.c **** #endif
  38:../SEMS_Sources/Constructor.c **** 
  39:../SEMS_Sources/Constructor.c **** 	return me;
  40:../SEMS_Sources/Constructor.c **** }
 102              	 .loc 1 40 0
 103 0016 2046     	 mov r0,r4
 104 0018 10BD     	 pop {r4,pc}
 105              	.LVL5:
 106              	.L10:
 107 001a 00BF     	 .align 2
 108              	.L9:
 109 001c 00000000 	 .word optiga_crypt_callback
 110              	 .cfi_endproc
 111              	.LFE456:
 113              	 .section .text.optiga_util_create_wrapper,"ax",%progbits
 114              	 .align 2
 115              	 .global optiga_util_create_wrapper
 116              	 .thumb
 117              	 .thumb_func
 119              	optiga_util_create_wrapper:
 120              	.LFB457:
  41:../SEMS_Sources/Constructor.c **** 
  42:../SEMS_Sources/Constructor.c **** 
  43:../SEMS_Sources/Constructor.c **** optiga_util_t * optiga_util_create_wrapper(void)
  44:../SEMS_Sources/Constructor.c **** {
 121              	 .loc 1 44 0
 122              	 .cfi_startproc
 123              	 
 124              	 
  45:../SEMS_Sources/Constructor.c **** 	optiga_util_t * me;
  46:../SEMS_Sources/Constructor.c **** 	me = optiga_util_create(0, optiga_util_callback, NULL);
 125              	 .loc 1 46 0
 126 0000 0020     	 movs r0,#0
  44:../SEMS_Sources/Constructor.c **** 	optiga_util_t * me;
 127              	 .loc 1 44 0
 128 0002 10B5     	 push {r4,lr}
 129              	.LCFI1:
 130              	 .cfi_def_cfa_offset 8
 131              	 .cfi_offset 4,-8
 132              	 .cfi_offset 14,-4
 133              	 .loc 1 46 0
 134 0004 0246     	 mov r2,r0
 135 0006 0549     	 ldr r1,.L13
 136 0008 FFF7FEFF 	 bl optiga_util_create
 137              	.LVL6:
  47:../SEMS_Sources/Constructor.c **** 
  48:../SEMS_Sources/Constructor.c **** #if LIFECYCLE==PRODUCTION
  49:../SEMS_Sources/Constructor.c **** 	OPTIGA_UTIL_SET_COMMS_PROTECTION_LEVEL(me, OPTIGA_COMMS_FULL_PROTECTION);
  50:../SEMS_Sources/Constructor.c **** #else
  51:../SEMS_Sources/Constructor.c **** 	OPTIGA_UTIL_SET_COMMS_PROTECTION_LEVEL(me, OPTIGA_COMMS_NO_PROTECTION);
 138              	 .loc 1 51 0
 139 000c 0121     	 movs r1,#1
  46:../SEMS_Sources/Constructor.c **** 
 140              	 .loc 1 46 0
 141 000e 0446     	 mov r4,r0
 142              	.LVL7:
 143              	 .loc 1 51 0
 144 0010 0022     	 movs r2,#0
 145 0012 FFF7FEFF 	 bl optiga_util_set_comms_params
 146              	.LVL8:
  52:../SEMS_Sources/Constructor.c **** #endif
  53:../SEMS_Sources/Constructor.c **** 
  54:../SEMS_Sources/Constructor.c **** 	return me;
  55:../SEMS_Sources/Constructor.c **** }
 147              	 .loc 1 55 0
 148 0016 2046     	 mov r0,r4
 149 0018 10BD     	 pop {r4,pc}
 150              	.LVL9:
 151              	.L14:
 152 001a 00BF     	 .align 2
 153              	.L13:
 154 001c 00000000 	 .word optiga_util_callback
 155              	 .cfi_endproc
 156              	.LFE457:
 158              	 .comm optiga_lib_status,2,2
 159              	 .text
 160              	.Letext0:
 161              	 .file 2 "c:\\infineon\\tools\\dave ide\\4.5.0.202105191637\\eclipse\\arm-gcc-49\\arm-none-eabi\\include\\machine\\_default_types.h"
 162              	 .file 3 "c:\\infineon\\tools\\dave ide\\4.5.0.202105191637\\eclipse\\arm-gcc-49\\arm-none-eabi\\include\\stdint.h"
 163              	 .file 4 "D:/School/diseratie/SEMS/xmc4800_evaluation_kit/xmc4800_iot_kit/common/Libraries/CMSIS/Infineon/XMC4800_series/Include/XMC4800.h"
 164              	 .file 5 "D:/School/diseratie/SEMS/xmc4800_evaluation_kit/xmc4800_iot_kit/common/Libraries/XMCLib/inc/xmc_usic.h"
 165              	 .file 6 "D:/School/diseratie/SEMS/xmc4800_evaluation_kit/xmc4800_iot_kit/common/Libraries/XMCLib/inc/xmc_usbd_regs.h"
 166              	 .file 7 "D:/School/diseratie/SEMS/xmc4800_evaluation_kit/xmc4800_iot_kit/common/Libraries/XMCLib/inc/xmc_usbd.h"
 167              	 .file 8 "D:/School/diseratie/SEMS/xmc4800_evaluation_kit/xmc4800_iot_kit/common/Dave/Generated/USBD/usbd.h"
 168              	 .file 9 "D:/School/diseratie/SEMS/xmc4800_evaluation_kit/optiga-trust-m/optiga/include/optiga/common/optiga_lib_types.h"
 169              	 .file 10 "D:/School/diseratie/SEMS/xmc4800_evaluation_kit/optiga-trust-m/optiga/include/optiga/common/optiga_lib_common.h"
 170              	 .file 11 "D:/School/diseratie/SEMS/xmc4800_evaluation_kit/optiga-trust-m/optiga/include/optiga/cmd/optiga_cmd.h"
 171              	 .file 12 "D:/School/diseratie/SEMS/xmc4800_evaluation_kit/optiga-trust-m/optiga/include/optiga/optiga_crypt.h"
 172              	 .file 13 "D:/School/diseratie/SEMS/xmc4800_evaluation_kit/optiga-trust-m/optiga/include/optiga/optiga_util.h"
 173              	 .file 14 "D:/School/diseratie/SEMS/xmc4800_evaluation_kit/xmc4800_iot_kit/common/Libraries/CMSIS/Include/core_cm4.h"
 174              	 .file 15 "D:/School/diseratie/SEMS/xmc4800_evaluation_kit/xmc4800_iot_kit/common/Libraries/CMSIS/Infineon/XMC4800_series/Include/system_XMC4800.h"
 175              	 .file 16 "D:/School/diseratie/SEMS/xmc4800_evaluation_kit/xmc4800_iot_kit/common/Dave/Generated/USBD/usbd_extern.h"