   1              	 .syntax unified
   2              	 .cpu cortex-m4
   3              	 .eabi_attribute 27,3
   4              	 .fpu fpv4-sp-d16
   5              	 .eabi_attribute 20,1
   6              	 .eabi_attribute 21,1
   7              	 .eabi_attribute 23,3
   8              	 .eabi_attribute 24,1
   9              	 .eabi_attribute 25,1
  10              	 .eabi_attribute 26,1
  11              	 .eabi_attribute 30,2
  12              	 .eabi_attribute 34,1
  13              	 .eabi_attribute 18,4
  14              	 .thumb
  15              	 .file "Random.c"
  16              	 .text
  17              	.Ltext0:
  18              	 .cfi_sections .debug_frame
  19              	 .section .text.optiga_crypt_random_wrapper,"ax",%progbits
  20              	 .align 2
  21              	 .global optiga_crypt_random_wrapper
  22              	 .thumb
  23              	 .thumb_func
  25              	optiga_crypt_random_wrapper:
  26              	.LFB479:
  27              	 .file 1 "../SEMS_Sources/Random.c"
   1:../SEMS_Sources/Random.c **** #include "../SEMS_Headers/Random.h"
   2:../SEMS_Sources/Random.c **** #include "../SEMS_Headers/Constructor.h"
   3:../SEMS_Sources/Random.c **** 
   4:../SEMS_Sources/Random.c **** 
   5:../SEMS_Sources/Random.c **** #include "../SEMS_Headers/Util.h"
   6:../SEMS_Sources/Random.c **** 
   7:../SEMS_Sources/Random.c **** 
   8:../SEMS_Sources/Random.c **** 
   9:../SEMS_Sources/Random.c **** 
  10:../SEMS_Sources/Random.c **** void optiga_crypt_random_wrapper(uint8_t random_buff[], uint8_t size)
  11:../SEMS_Sources/Random.c **** {
  28              	 .loc 1 11 0
  29              	 .cfi_startproc
  30              	 
  31              	 
  32              	.LVL0:
  33 0000 F8B5     	 push {r3,r4,r5,r6,r7,lr}
  34              	.LCFI0:
  35              	 .cfi_def_cfa_offset 24
  36              	 .cfi_offset 3,-24
  37              	 .cfi_offset 4,-20
  38              	 .cfi_offset 5,-16
  39              	 .cfi_offset 6,-12
  40              	 .cfi_offset 7,-8
  41              	 .cfi_offset 14,-4
  42              	 .loc 1 11 0
  43 0002 0746     	 mov r7,r0
  44 0004 0E46     	 mov r6,r1
  12:../SEMS_Sources/Random.c **** 	optiga_crypt_t * me = NULL;
  13:../SEMS_Sources/Random.c **** 	optiga_lib_status_t return_status = !OPTIGA_LIB_SUCCESS;
  14:../SEMS_Sources/Random.c **** 
  15:../SEMS_Sources/Random.c **** 	do
  16:../SEMS_Sources/Random.c **** 	{
  17:../SEMS_Sources/Random.c **** 		example_optiga_init();
  45              	 .loc 1 17 0
  46 0006 FFF7FEFF 	 bl example_optiga_init
  47              	.LVL1:
  18:../SEMS_Sources/Random.c **** 
  19:../SEMS_Sources/Random.c **** 		me = optiga_crypt_create_wrapper();
  48              	 .loc 1 19 0
  49 000a FFF7FEFF 	 bl optiga_crypt_create_wrapper
  50              	.LVL2:
  20:../SEMS_Sources/Random.c **** 		if (NULL == me)
  51              	 .loc 1 20 0
  52 000e 08B3     	 cbz r0,.L2
  21:../SEMS_Sources/Random.c **** 		{
  22:../SEMS_Sources/Random.c **** 			break;
  23:../SEMS_Sources/Random.c **** 		}
  24:../SEMS_Sources/Random.c **** 
  25:../SEMS_Sources/Random.c **** 		optiga_lib_status = OPTIGA_LIB_BUSY;
  53              	 .loc 1 25 0
  54 0010 124C     	 ldr r4,.L12
  26:../SEMS_Sources/Random.c **** 		return_status = optiga_crypt_random(me,
  55              	 .loc 1 26 0
  56 0012 3346     	 mov r3,r6
  57 0014 3A46     	 mov r2,r7
  25:../SEMS_Sources/Random.c **** 		return_status = optiga_crypt_random(me,
  58              	 .loc 1 25 0
  59 0016 0126     	 movs r6,#1
  60              	 .loc 1 26 0
  61 0018 0021     	 movs r1,#0
  62 001a 0546     	 mov r5,r0
  25:../SEMS_Sources/Random.c **** 		return_status = optiga_crypt_random(me,
  63              	 .loc 1 25 0
  64 001c 2680     	 strh r6,[r4]
  65              	 .loc 1 26 0
  66 001e FFF7FEFF 	 bl optiga_crypt_random
  67              	.LVL3:
  27:../SEMS_Sources/Random.c **** 											OPTIGA_RNG_TYPE_TRNG,
  28:../SEMS_Sources/Random.c **** 											random_buff,
  29:../SEMS_Sources/Random.c **** 											size);
  30:../SEMS_Sources/Random.c **** 
  31:../SEMS_Sources/Random.c **** 		WAIT_AND_CHECK_STATUS(return_status, optiga_lib_status);
  68              	 .loc 1 31 0
  69 0022 30B1     	 cbz r0,.L4
  70              	.L3:
  32:../SEMS_Sources/Random.c **** 
  33:../SEMS_Sources/Random.c **** 	} while (FALSE);
  34:../SEMS_Sources/Random.c **** 
  35:../SEMS_Sources/Random.c **** 	example_optiga_deinit();
  71              	 .loc 1 35 0
  72 0024 FFF7FEFF 	 bl example_optiga_deinit
  73              	.LVL4:
  36:../SEMS_Sources/Random.c **** 
  37:../SEMS_Sources/Random.c **** 	if (NULL != me)
  38:../SEMS_Sources/Random.c **** 	{
  39:../SEMS_Sources/Random.c **** 		optiga_crypt_destroy(me);
  74              	 .loc 1 39 0
  75 0028 2846     	 mov r0,r5
  40:../SEMS_Sources/Random.c **** 	}
  41:../SEMS_Sources/Random.c **** }
  76              	 .loc 1 41 0
  77 002a BDE8F840 	 pop {r3,r4,r5,r6,r7,lr}
  78              	.LCFI1:
  79              	 .cfi_remember_state
  80              	 .cfi_restore 14
  81              	 .cfi_restore 7
  82              	 .cfi_restore 6
  83              	 .cfi_restore 5
  84              	 .cfi_restore 4
  85              	 .cfi_restore 3
  86              	 .cfi_def_cfa_offset 0
  87              	.LVL5:
  39:../SEMS_Sources/Random.c **** 	}
  88              	 .loc 1 39 0
  89 002e FFF7FEBF 	 b optiga_crypt_destroy
  90              	.LVL6:
  91              	.L4:
  92              	.LCFI2:
  93              	 .cfi_restore_state
  31:../SEMS_Sources/Random.c **** 
  94              	 .loc 1 31 0 discriminator 1
  95 0032 2388     	 ldrh r3,[r4]
  96 0034 094A     	 ldr r2,.L12
  97 0036 9BB2     	 uxth r3,r3
  98 0038 012B     	 cmp r3,#1
  99 003a FAD0     	 beq .L4
  31:../SEMS_Sources/Random.c **** 
 100              	 .loc 1 31 0 is_stmt 0 discriminator 2
 101 003c 1388     	 ldrh r3,[r2]
 102 003e 9BB2     	 uxth r3,r3
 103 0040 002B     	 cmp r3,#0
 104 0042 EFD0     	 beq .L3
  31:../SEMS_Sources/Random.c **** 
 105              	 .loc 1 31 0 discriminator 3
 106 0044 1388     	 ldrh r3,[r2]
 107              	.LVL7:
  35:../SEMS_Sources/Random.c **** 
 108              	 .loc 1 35 0 is_stmt 1 discriminator 3
 109 0046 FFF7FEFF 	 bl example_optiga_deinit
 110              	.LVL8:
  39:../SEMS_Sources/Random.c **** 	}
 111              	 .loc 1 39 0 discriminator 3
 112 004a 2846     	 mov r0,r5
 113              	 .loc 1 41 0 discriminator 3
 114 004c BDE8F840 	 pop {r3,r4,r5,r6,r7,lr}
 115              	.LCFI3:
 116              	 .cfi_remember_state
 117              	 .cfi_restore 3
 118              	 .cfi_restore 4
 119              	 .cfi_restore 5
 120              	 .cfi_restore 6
 121              	 .cfi_restore 7
 122              	 .cfi_restore 14
 123              	 .cfi_def_cfa_offset 0
 124              	.LVL9:
  39:../SEMS_Sources/Random.c **** 	}
 125              	 .loc 1 39 0 discriminator 3
 126 0050 FFF7FEBF 	 b optiga_crypt_destroy
 127              	.LVL10:
 128              	.L2:
 129              	.LCFI4:
 130              	 .cfi_restore_state
 131              	 .loc 1 41 0
 132 0054 BDE8F840 	 pop {r3,r4,r5,r6,r7,lr}
 133              	.LCFI5:
 134              	 .cfi_restore 14
 135              	 .cfi_restore 7
 136              	 .cfi_restore 6
 137              	 .cfi_restore 5
 138              	 .cfi_restore 4
 139              	 .cfi_restore 3
 140              	 .cfi_def_cfa_offset 0
 141              	.LVL11:
  35:../SEMS_Sources/Random.c **** 
 142              	 .loc 1 35 0
 143 0058 FFF7FEBF 	 b example_optiga_deinit
 144              	.LVL12:
 145              	.L13:
 146              	 .align 2
 147              	.L12:
 148 005c 00000000 	 .word optiga_lib_status
 149              	 .cfi_endproc
 150              	.LFE479:
 152              	 .text
 153              	.Letext0:
 154              	 .file 2 "c:\\infineon\\tools\\dave ide\\4.5.0.202105191637\\eclipse\\arm-gcc-49\\arm-none-eabi\\include\\machine\\_default_types.h"
 155              	 .file 3 "c:\\infineon\\tools\\dave ide\\4.5.0.202105191637\\eclipse\\arm-gcc-49\\arm-none-eabi\\include\\stdint.h"
 156              	 .file 4 "D:/School/diseratie/SEMS/xmc4800_evaluation_kit/xmc4800_iot_kit/common/Libraries/CMSIS/Infineon/XMC4800_series/Include/XMC4800.h"
 157              	 .file 5 "D:/School/diseratie/SEMS/xmc4800_evaluation_kit/xmc4800_iot_kit/common/Libraries/XMCLib/inc/xmc_usbd_regs.h"
 158              	 .file 6 "D:/School/diseratie/SEMS/xmc4800_evaluation_kit/xmc4800_iot_kit/common/Libraries/XMCLib/inc/xmc_usbd.h"
 159              	 .file 7 "D:/School/diseratie/SEMS/xmc4800_evaluation_kit/xmc4800_iot_kit/common/Dave/Generated/USBD/usbd.h"
 160              	 .file 8 "D:/School/diseratie/SEMS/xmc4800_evaluation_kit/optiga-trust-m/optiga/include/optiga/common/optiga_lib_types.h"
 161              	 .file 9 "D:/School/diseratie/SEMS/xmc4800_evaluation_kit/optiga-trust-m/optiga/include/optiga/common/optiga_lib_common.h"
 162              	 .file 10 "D:/School/diseratie/SEMS/xmc4800_evaluation_kit/optiga-trust-m/optiga/include/optiga/cmd/optiga_cmd.h"
 163              	 .file 11 "D:/School/diseratie/SEMS/xmc4800_evaluation_kit/optiga-trust-m/optiga/include/optiga/optiga_crypt.h"
 164              	 .file 12 "D:/School/diseratie/SEMS/xmc4800_evaluation_kit/xmc4800_iot_kit/common/Libraries/CMSIS/Include/core_cm4.h"
 165              	 .file 13 "D:/School/diseratie/SEMS/xmc4800_evaluation_kit/xmc4800_iot_kit/common/Libraries/CMSIS/Infineon/XMC4800_series/Include/system_XMC4800.h"
 166              	 .file 14 "D:/School/diseratie/SEMS/xmc4800_evaluation_kit/xmc4800_iot_kit/common/Dave/Generated/USBD/usbd_extern.h"
 167              	 .file 15 "../SEMS_Sources/../SEMS_Headers/Util.h"
 168              	 .file 16 "../SEMS_Sources/../SEMS_Headers/Constructor.h"