   1              	 .syntax unified
   2              	 .cpu cortex-m4
   3              	 .eabi_attribute 27,3
   4              	 .fpu fpv4-sp-d16
   5              	 .eabi_attribute 20,1
   6              	 .eabi_attribute 21,1
   7              	 .eabi_attribute 23,3
   8              	 .eabi_attribute 24,1
   9              	 .eabi_attribute 25,1
  10              	 .eabi_attribute 26,1
  11              	 .eabi_attribute 30,2
  12              	 .eabi_attribute 34,1
  13              	 .eabi_attribute 18,4
  14              	 .thumb
  15              	 .file "RSA.c"
  16              	 .text
  17              	.Ltext0:
  18              	 .cfi_sections .debug_frame
  19              	 .section .text.optiga_crypt_rsa_encrypt_message_wrapper,"ax",%progbits
  20              	 .align 2
  21              	 .global optiga_crypt_rsa_encrypt_message_wrapper
  22              	 .thumb
  23              	 .thumb_func
  25              	optiga_crypt_rsa_encrypt_message_wrapper:
  26              	.LFB454:
  27              	 .file 1 "../SEMS_Sources/RSA.c"
   1:../SEMS_Sources/RSA.c **** #include "../SEMS_Headers/RSA.h"
   2:../SEMS_Sources/RSA.c **** #include "../SEMS_Headers/Hash.h"
   3:../SEMS_Sources/RSA.c **** #include "../SEMS_Headers/Constructor.h"
   4:../SEMS_Sources/RSA.c **** 
   5:../SEMS_Sources/RSA.c **** #include "../SEMS_Headers/Util.h"
   6:../SEMS_Sources/RSA.c **** 
   7:../SEMS_Sources/RSA.c **** 
   8:../SEMS_Sources/RSA.c **** 
   9:../SEMS_Sources/RSA.c **** void example_util_encode_rsa_public_key_in_bit_string_format(const uint8_t * n_buffer,
  10:../SEMS_Sources/RSA.c ****                                                         uint16_t n_length,
  11:../SEMS_Sources/RSA.c ****                                                         const uint8_t * e_buffer,
  12:../SEMS_Sources/RSA.c ****                                                         uint16_t e_length,
  13:../SEMS_Sources/RSA.c ****                                                         uint8_t * pub_key_buffer,
  14:../SEMS_Sources/RSA.c ****                                                         uint16_t * pub_key_length);
  15:../SEMS_Sources/RSA.c **** 
  16:../SEMS_Sources/RSA.c **** 
  17:../SEMS_Sources/RSA.c **** // RSA 1024 public key
  18:../SEMS_Sources/RSA.c **** static const uint8_t rsa_public_key_modulus [] =
  19:../SEMS_Sources/RSA.c **** {
  20:../SEMS_Sources/RSA.c ****     //Public key modulus
  21:../SEMS_Sources/RSA.c **** 	0xD6, 0x79, 0x78, 0x52, 0xFD, 0x1C, 0x66, 0x01, 0x20, 0x6A, 0x4A, 0x7F, 0x24, 0x54, 0xF1, 0xC2,
  22:../SEMS_Sources/RSA.c **** 	0x86, 0xEB, 0x1A, 0xC5, 0xFF, 0xC2, 0xEB, 0x29, 0xE6, 0x2A, 0x8F, 0x3E, 0xFF, 0xF1, 0x92, 0x62,
  23:../SEMS_Sources/RSA.c **** 	0xFD, 0x20, 0xEB, 0x8C, 0xCC, 0xA3, 0x13, 0x4E, 0x15, 0x28, 0x1D, 0xE3, 0x0A, 0x1A, 0x7B, 0x85,
  24:../SEMS_Sources/RSA.c **** 	0x16, 0xC4, 0xEA, 0x69, 0x6F, 0x75, 0x60, 0x43, 0x62, 0x85, 0x2B, 0x3C, 0xB1, 0x4A, 0xBF, 0xDF,
  25:../SEMS_Sources/RSA.c **** 	0xB5, 0x33, 0x00, 0x6F, 0x4D, 0xF7, 0x87, 0x34, 0xB9, 0x4A, 0xF3, 0x07, 0xD6, 0x84, 0x3E, 0x4A,
  26:../SEMS_Sources/RSA.c **** 	0x9B, 0x16, 0xDD, 0x39, 0xFA, 0x32, 0x7F, 0xAA, 0x13, 0x6A, 0xDB, 0x0D, 0x69, 0x42, 0x16, 0xF4,
  27:../SEMS_Sources/RSA.c **** 	0x63, 0xEF, 0xD4, 0xA4, 0xB2, 0x0E, 0x1E, 0xD6, 0x29, 0x11, 0xFF, 0xAF, 0xAC, 0x72, 0xF6, 0x3E,
  28:../SEMS_Sources/RSA.c **** 	0x4C, 0xDB, 0x0D, 0xBC, 0x62, 0x09, 0xE7, 0xF6, 0xD7, 0x44, 0x10, 0x1B, 0x56, 0xB9, 0x42, 0x21,
  29:../SEMS_Sources/RSA.c **** };
  30:../SEMS_Sources/RSA.c **** 
  31:../SEMS_Sources/RSA.c **** // RSA 1024 public key
  32:../SEMS_Sources/RSA.c **** static const uint8_t rsa_public_key_exponent [] =
  33:../SEMS_Sources/RSA.c **** {
  34:../SEMS_Sources/RSA.c ****     //Public Exponent
  35:../SEMS_Sources/RSA.c ****     0x00, 0x01, 0x00, 0x01
  36:../SEMS_Sources/RSA.c **** };
  37:../SEMS_Sources/RSA.c **** 
  38:../SEMS_Sources/RSA.c **** static uint8_t rsa_public_key[150] = {0x00};
  39:../SEMS_Sources/RSA.c **** static uint16_t rsa_public_key_length = 0;
  40:../SEMS_Sources/RSA.c **** 
  41:../SEMS_Sources/RSA.c **** 
  42:../SEMS_Sources/RSA.c **** void optiga_crypt_rsa_encrypt_message_wrapper(uint8_t message[], uint8_t message_length, uint8_t en
  43:../SEMS_Sources/RSA.c **** {
  28              	 .loc 1 43 0
  29              	 .cfi_startproc
  30              	 
  31              	 
  32              	.LVL0:
  33 0000 2DE9F04F 	 push {r4,r5,r6,r7,r8,r9,r10,fp,lr}
  34              	.LCFI0:
  35              	 .cfi_def_cfa_offset 36
  36              	 .cfi_offset 4,-36
  37              	 .cfi_offset 5,-32
  38              	 .cfi_offset 6,-28
  39              	 .cfi_offset 7,-24
  40              	 .cfi_offset 8,-20
  41              	 .cfi_offset 9,-16
  42              	 .cfi_offset 10,-12
  43              	 .cfi_offset 11,-8
  44              	 .cfi_offset 14,-4
  45 0004 89B0     	 sub sp,sp,#36
  46              	.LCFI1:
  47              	 .cfi_def_cfa_offset 72
  44:../SEMS_Sources/RSA.c ****     optiga_crypt_t * me = NULL;
  45:../SEMS_Sources/RSA.c ****     optiga_lib_status_t return_status = !OPTIGA_LIB_SUCCESS;
  46:../SEMS_Sources/RSA.c **** 
  47:../SEMS_Sources/RSA.c ****     optiga_rsa_encryption_scheme_t encryption_scheme;
  48:../SEMS_Sources/RSA.c ****     public_key_from_host_t public_key_from_host;
  49:../SEMS_Sources/RSA.c **** 
  50:../SEMS_Sources/RSA.c ****     example_util_encode_rsa_public_key_in_bit_string_format(rsa_public_key_modulus,
  48              	 .loc 1 50 0
  49 0006 244D     	 ldr r5,.L13
  50 0008 244E     	 ldr r6,.L13+4
  51 000a 0095     	 str r5,[sp]
  43:../SEMS_Sources/RSA.c ****     optiga_crypt_t * me = NULL;
  52              	 .loc 1 43 0
  53 000c 8046     	 mov r8,r0
  54 000e 0F46     	 mov r7,r1
  55              	 .loc 1 50 0
  56 0010 2348     	 ldr r0,.L13+8
  57              	.LVL1:
  58 0012 0196     	 str r6,[sp,#4]
  59 0014 8021     	 movs r1,#128
  60              	.LVL2:
  43:../SEMS_Sources/RSA.c ****     optiga_crypt_t * me = NULL;
  61              	 .loc 1 43 0
  62 0016 9246     	 mov r10,r2
  63 0018 9946     	 mov r9,r3
  64              	 .loc 1 50 0
  65 001a 224A     	 ldr r2,.L13+12
  66              	.LVL3:
  51:../SEMS_Sources/RSA.c ****                                                                sizeof(rsa_public_key_modulus),
  52:../SEMS_Sources/RSA.c ****                                                                rsa_public_key_exponent,
  53:../SEMS_Sources/RSA.c ****                                                                sizeof(rsa_public_key_exponent),
  54:../SEMS_Sources/RSA.c ****                                                                rsa_public_key,
  55:../SEMS_Sources/RSA.c ****                                                                &rsa_public_key_length);
  56:../SEMS_Sources/RSA.c **** 
  57:../SEMS_Sources/RSA.c **** 	encryption_scheme = OPTIGA_RSAES_PKCS1_V15;
  58:../SEMS_Sources/RSA.c **** 	public_key_from_host.public_key = rsa_public_key;
  59:../SEMS_Sources/RSA.c **** 	public_key_from_host.length = rsa_public_key_length;
  60:../SEMS_Sources/RSA.c **** 	public_key_from_host.key_type = (uint8_t)OPTIGA_RSA_KEY_1024_BIT_EXPONENTIAL;
  61:../SEMS_Sources/RSA.c **** 	optiga_lib_status = OPTIGA_LIB_BUSY;
  67              	 .loc 1 61 0
  68 001c 224C     	 ldr r4,.L13+16
  50:../SEMS_Sources/RSA.c ****                                                                sizeof(rsa_public_key_modulus),
  69              	 .loc 1 50 0
  70 001e 0423     	 movs r3,#4
  71              	.LVL4:
  72 0020 FFF7FEFF 	 bl example_util_encode_rsa_public_key_in_bit_string_format
  73              	.LVL5:
  59:../SEMS_Sources/RSA.c **** 	public_key_from_host.key_type = (uint8_t)OPTIGA_RSA_KEY_1024_BIT_EXPONENTIAL;
  74              	 .loc 1 59 0
  75 0024 3388     	 ldrh r3,[r6]
  76 0026 ADF81C30 	 strh r3,[sp,#28]
  77              	 .loc 1 61 0
  78 002a 4FF0010B 	 mov fp,#1
  60:../SEMS_Sources/RSA.c **** 	optiga_lib_status = OPTIGA_LIB_BUSY;
  79              	 .loc 1 60 0
  80 002e 4123     	 movs r3,#65
  81 0030 8DF81E30 	 strb r3,[sp,#30]
  58:../SEMS_Sources/RSA.c **** 	public_key_from_host.length = rsa_public_key_length;
  82              	 .loc 1 58 0
  83 0034 0695     	 str r5,[sp,#24]
  84              	 .loc 1 61 0
  85 0036 A4F800B0 	 strh fp,[r4]
  62:../SEMS_Sources/RSA.c **** 
  63:../SEMS_Sources/RSA.c **** 
  64:../SEMS_Sources/RSA.c ****     do
  65:../SEMS_Sources/RSA.c ****     {
  66:../SEMS_Sources/RSA.c ****         example_optiga_init();
  86              	 .loc 1 66 0
  87 003a FFF7FEFF 	 bl example_optiga_init
  88              	.LVL6:
  67:../SEMS_Sources/RSA.c **** 
  68:../SEMS_Sources/RSA.c ****         me = optiga_crypt_create_wrapper();
  89              	 .loc 1 68 0
  90 003e FFF7FEFF 	 bl optiga_crypt_create_wrapper
  91              	.LVL7:
  69:../SEMS_Sources/RSA.c ****         if (NULL == me)
  92              	 .loc 1 69 0
  93 0042 20B3     	 cbz r0,.L2
  70:../SEMS_Sources/RSA.c ****         {
  71:../SEMS_Sources/RSA.c ****             break;
  72:../SEMS_Sources/RSA.c ****         }
  73:../SEMS_Sources/RSA.c **** 
  74:../SEMS_Sources/RSA.c ****         return_status = optiga_crypt_rsa_encrypt_message(me,
  94              	 .loc 1 74 0
  95 0044 0021     	 movs r1,#0
  96 0046 06AE     	 add r6,sp,#24
  97 0048 0091     	 str r1,[sp]
  98 004a 0191     	 str r1,[sp,#4]
  99 004c CDF808B0 	 str fp,[sp,#8]
 100 0050 CDF810A0 	 str r10,[sp,#16]
 101 0054 CDF81490 	 str r9,[sp,#20]
 102 0058 4246     	 mov r2,r8
 103 005a 3B46     	 mov r3,r7
 104 005c 0396     	 str r6,[sp,#12]
 105 005e 1121     	 movs r1,#17
 106 0060 0546     	 mov r5,r0
 107 0062 FFF7FEFF 	 bl optiga_crypt_rsa_encrypt_message
 108              	.LVL8:
  75:../SEMS_Sources/RSA.c ****                                                             encryption_scheme,
  76:../SEMS_Sources/RSA.c ****                                                             message,
  77:../SEMS_Sources/RSA.c **** 															message_length,
  78:../SEMS_Sources/RSA.c ****                                                             NULL,
  79:../SEMS_Sources/RSA.c ****                                                             0,
  80:../SEMS_Sources/RSA.c ****                                                             OPTIGA_CRYPT_HOST_DATA,
  81:../SEMS_Sources/RSA.c ****                                                             &public_key_from_host,
  82:../SEMS_Sources/RSA.c ****                                                             encrypted_message,
  83:../SEMS_Sources/RSA.c ****                                                             encrypted_message_length);
  84:../SEMS_Sources/RSA.c **** 
  85:../SEMS_Sources/RSA.c ****         WAIT_AND_CHECK_STATUS(return_status, optiga_lib_status);
 109              	 .loc 1 85 0
 110 0066 38B1     	 cbz r0,.L4
 111              	.LVL9:
 112              	.L3:
  86:../SEMS_Sources/RSA.c **** 
  87:../SEMS_Sources/RSA.c ****         return_status = OPTIGA_LIB_SUCCESS;
  88:../SEMS_Sources/RSA.c **** 
  89:../SEMS_Sources/RSA.c ****     } while (FALSE);
  90:../SEMS_Sources/RSA.c **** 
  91:../SEMS_Sources/RSA.c ****     example_optiga_deinit();
 113              	 .loc 1 91 0
 114 0068 FFF7FEFF 	 bl example_optiga_deinit
 115              	.LVL10:
  92:../SEMS_Sources/RSA.c **** 
  93:../SEMS_Sources/RSA.c **** 
  94:../SEMS_Sources/RSA.c ****     if (me)
  95:../SEMS_Sources/RSA.c ****     {
  96:../SEMS_Sources/RSA.c ****         return_status = optiga_crypt_destroy(me);
 116              	 .loc 1 96 0
 117 006c 2846     	 mov r0,r5
 118 006e FFF7FEFF 	 bl optiga_crypt_destroy
 119              	.LVL11:
  97:../SEMS_Sources/RSA.c ****     }
  98:../SEMS_Sources/RSA.c **** }
 120              	 .loc 1 98 0
 121 0072 09B0     	 add sp,sp,#36
 122              	.LCFI2:
 123              	 .cfi_remember_state
 124              	 .cfi_def_cfa_offset 36
 125              	 
 126 0074 BDE8F08F 	 pop {r4,r5,r6,r7,r8,r9,r10,fp,pc}
 127              	.LVL12:
 128              	.L4:
 129              	.LCFI3:
 130              	 .cfi_restore_state
  85:../SEMS_Sources/RSA.c **** 
 131              	 .loc 1 85 0 discriminator 1
 132 0078 2388     	 ldrh r3,[r4]
 133 007a 0B4A     	 ldr r2,.L13+16
 134 007c 9BB2     	 uxth r3,r3
 135 007e 012B     	 cmp r3,#1
 136 0080 FAD0     	 beq .L4
  85:../SEMS_Sources/RSA.c **** 
 137              	 .loc 1 85 0 is_stmt 0 discriminator 2
 138 0082 1388     	 ldrh r3,[r2]
 139 0084 9BB2     	 uxth r3,r3
 140 0086 002B     	 cmp r3,#0
 141 0088 EED0     	 beq .L3
  85:../SEMS_Sources/RSA.c **** 
 142              	 .loc 1 85 0 discriminator 3
 143 008a 1388     	 ldrh r3,[r2]
 144              	.LVL13:
 145 008c ECE7     	 b .L3
 146              	.LVL14:
 147              	.L2:
  91:../SEMS_Sources/RSA.c **** 
 148              	 .loc 1 91 0 is_stmt 1
 149 008e FFF7FEFF 	 bl example_optiga_deinit
 150              	.LVL15:
 151              	 .loc 1 98 0
 152 0092 09B0     	 add sp,sp,#36
 153              	.LCFI4:
 154              	 .cfi_def_cfa_offset 36
 155              	 
 156 0094 BDE8F08F 	 pop {r4,r5,r6,r7,r8,r9,r10,fp,pc}
 157              	.LVL16:
 158              	.L14:
 159              	 .align 2
 160              	.L13:
 161 0098 00000000 	 .word .LANCHOR2
 162 009c 00000000 	 .word .LANCHOR3
 163 00a0 00000000 	 .word .LANCHOR0
 164 00a4 00000000 	 .word .LANCHOR1
 165 00a8 00000000 	 .word optiga_lib_status
 166              	 .cfi_endproc
 167              	.LFE454:
 169              	 .section .text.optiga_crypt_rsa_verify_wrapper,"ax",%progbits
 170              	 .align 2
 171              	 .global optiga_crypt_rsa_verify_wrapper
 172              	 .thumb
 173              	 .thumb_func
 175              	optiga_crypt_rsa_verify_wrapper:
 176              	.LFB455:
  99:../SEMS_Sources/RSA.c **** 
 100:../SEMS_Sources/RSA.c **** 
 101:../SEMS_Sources/RSA.c **** 
 102:../SEMS_Sources/RSA.c **** 
 103:../SEMS_Sources/RSA.c **** uint8_t optiga_crypt_rsa_verify_wrapper(uint8_t message[], uint8_t message_length, uint8_t signatur
 104:../SEMS_Sources/RSA.c **** {
 177              	 .loc 1 104 0
 178              	 .cfi_startproc
 179              	 
 180              	 
 181              	.LVL17:
 182 0000 2DE9F041 	 push {r4,r5,r6,r7,r8,lr}
 183              	.LCFI5:
 184              	 .cfi_def_cfa_offset 24
 185              	 .cfi_offset 4,-24
 186              	 .cfi_offset 5,-20
 187              	 .cfi_offset 6,-16
 188              	 .cfi_offset 7,-12
 189              	 .cfi_offset 8,-8
 190              	 .cfi_offset 14,-4
 105:../SEMS_Sources/RSA.c **** 	uint8_t succes = false;
 106:../SEMS_Sources/RSA.c **** 	uint8_t hashed_digest[32];
 107:../SEMS_Sources/RSA.c **** 
 108:../SEMS_Sources/RSA.c **** 	optiga_crypt_hash_data_wrapper(message, message_length, hashed_digest);
 109:../SEMS_Sources/RSA.c **** //	hashed_digest[5] = 5; Pentru a verifica ca si cazul negativ
 110:../SEMS_Sources/RSA.c **** 
 111:../SEMS_Sources/RSA.c ****     optiga_lib_status_t return_status = !OPTIGA_LIB_SUCCESS;
 112:../SEMS_Sources/RSA.c ****     optiga_crypt_t * me = NULL;
 113:../SEMS_Sources/RSA.c **** 
 114:../SEMS_Sources/RSA.c **** 
 115:../SEMS_Sources/RSA.c ****     // Form rsa public key in bit string format
 116:../SEMS_Sources/RSA.c ****     example_util_encode_rsa_public_key_in_bit_string_format(rsa_public_key_modulus,
 191              	 .loc 1 116 0
 192 0004 254C     	 ldr r4,.L27
 193 0006 264D     	 ldr r5,.L27+4
 104:../SEMS_Sources/RSA.c **** 	uint8_t succes = false;
 194              	 .loc 1 104 0
 195 0008 90B0     	 sub sp,sp,#64
 196              	.LCFI6:
 197              	 .cfi_def_cfa_offset 88
 104:../SEMS_Sources/RSA.c **** 	uint8_t succes = false;
 198              	 .loc 1 104 0
 199 000a 1646     	 mov r6,r2
 108:../SEMS_Sources/RSA.c **** //	hashed_digest[5] = 5; Pentru a verifica ca si cazul negativ
 200              	 .loc 1 108 0
 201 000c 08AA     	 add r2,sp,#32
 202              	.LVL18:
 104:../SEMS_Sources/RSA.c **** 	uint8_t succes = false;
 203              	 .loc 1 104 0
 204 000e 9846     	 mov r8,r3
 108:../SEMS_Sources/RSA.c **** //	hashed_digest[5] = 5; Pentru a verifica ca si cazul negativ
 205              	 .loc 1 108 0
 206 0010 FFF7FEFF 	 bl optiga_crypt_hash_data_wrapper
 207              	.LVL19:
 208              	 .loc 1 116 0
 209 0014 2348     	 ldr r0,.L27+8
 210 0016 244A     	 ldr r2,.L27+12
 211 0018 8021     	 movs r1,#128
 212 001a 0423     	 movs r3,#4
 213 001c 8DE83000 	 stmia sp,{r4,r5}
 214 0020 FFF7FEFF 	 bl example_util_encode_rsa_public_key_in_bit_string_format
 215              	.LVL20:
 117:../SEMS_Sources/RSA.c ****                                                        sizeof(rsa_public_key_modulus),
 118:../SEMS_Sources/RSA.c ****                                                        rsa_public_key_exponent,
 119:../SEMS_Sources/RSA.c ****                                                        sizeof(rsa_public_key_exponent),
 120:../SEMS_Sources/RSA.c ****                                                        rsa_public_key,
 121:../SEMS_Sources/RSA.c ****                                                        &rsa_public_key_length);
 122:../SEMS_Sources/RSA.c **** 
 123:../SEMS_Sources/RSA.c ****     public_key_from_host_t public_key_details =
 216              	 .loc 1 123 0
 217 0024 2B88     	 ldrh r3,[r5]
 218 0026 ADF81C30 	 strh r3,[sp,#28]
 219 002a 4123     	 movs r3,#65
 220 002c 8DF81E30 	 strb r3,[sp,#30]
 221 0030 0694     	 str r4,[sp,#24]
 124:../SEMS_Sources/RSA.c ****     {
 125:../SEMS_Sources/RSA.c ****          rsa_public_key,
 126:../SEMS_Sources/RSA.c ****          rsa_public_key_length,
 127:../SEMS_Sources/RSA.c ****          (uint8_t)OPTIGA_RSA_KEY_1024_BIT_EXPONENTIAL
 128:../SEMS_Sources/RSA.c ****     };
 129:../SEMS_Sources/RSA.c **** 
 130:../SEMS_Sources/RSA.c ****     do
 131:../SEMS_Sources/RSA.c ****     {
 132:../SEMS_Sources/RSA.c **** 
 133:../SEMS_Sources/RSA.c ****         example_optiga_init();
 222              	 .loc 1 133 0
 223 0032 FFF7FEFF 	 bl example_optiga_init
 224              	.LVL21:
 134:../SEMS_Sources/RSA.c **** 
 135:../SEMS_Sources/RSA.c ****         me = optiga_crypt_create_wrapper();
 225              	 .loc 1 135 0
 226 0036 FFF7FEFF 	 bl optiga_crypt_create_wrapper
 227              	.LVL22:
 136:../SEMS_Sources/RSA.c ****         if (NULL == me)
 228              	 .loc 1 136 0
 229 003a 0746     	 mov r7,r0
 230 003c 20B3     	 cbz r0,.L16
 137:../SEMS_Sources/RSA.c ****         {
 138:../SEMS_Sources/RSA.c ****             break;
 139:../SEMS_Sources/RSA.c ****         }
 140:../SEMS_Sources/RSA.c **** 
 141:../SEMS_Sources/RSA.c ****         optiga_lib_status = OPTIGA_LIB_BUSY;
 231              	 .loc 1 141 0
 232 003e 1B4C     	 ldr r4,.L27+16
 142:../SEMS_Sources/RSA.c **** 
 143:../SEMS_Sources/RSA.c **** 
 144:../SEMS_Sources/RSA.c ****         return_status = optiga_crypt_rsa_verify (me,
 233              	 .loc 1 144 0
 234 0040 0096     	 str r6,[sp]
 235 0042 06AB     	 add r3,sp,#24
 141:../SEMS_Sources/RSA.c **** 
 236              	 .loc 1 141 0
 237 0044 0126     	 movs r6,#1
 238              	.LVL23:
 239              	 .loc 1 144 0
 240 0046 0025     	 movs r5,#0
 241 0048 0393     	 str r3,[sp,#12]
 242 004a CDF80480 	 str r8,[sp,#4]
 243 004e 0296     	 str r6,[sp,#8]
 244 0050 0495     	 str r5,[sp,#16]
 245 0052 08AA     	 add r2,sp,#32
 246 0054 3146     	 mov r1,r6
 247 0056 2023     	 movs r3,#32
 141:../SEMS_Sources/RSA.c **** 
 248              	 .loc 1 141 0
 249 0058 2680     	 strh r6,[r4]
 250              	 .loc 1 144 0
 251 005a FFF7FEFF 	 bl optiga_crypt_rsa_verify
 252              	.LVL24:
 145:../SEMS_Sources/RSA.c ****                                                  OPTIGA_RSASSA_PKCS1_V15_SHA256,
 146:../SEMS_Sources/RSA.c **** 												 hashed_digest,
 147:../SEMS_Sources/RSA.c ****                                                  sizeof(hashed_digest),
 148:../SEMS_Sources/RSA.c **** 												 signature,
 149:../SEMS_Sources/RSA.c **** 												 signature_length,
 150:../SEMS_Sources/RSA.c ****                                                  OPTIGA_CRYPT_HOST_DATA,
 151:../SEMS_Sources/RSA.c ****                                                  &public_key_details,
 152:../SEMS_Sources/RSA.c ****                                                  0x0000);
 153:../SEMS_Sources/RSA.c **** 
 154:../SEMS_Sources/RSA.c ****         WAIT_AND_CHECK_STATUS(return_status, optiga_lib_status);
 253              	 .loc 1 154 0
 254 005e 48B1     	 cbz r0,.L18
 255              	.L26:
 256              	.LVL25:
 105:../SEMS_Sources/RSA.c **** 	uint8_t hashed_digest[32];
 257              	 .loc 1 105 0 discriminator 3
 258 0060 0024     	 movs r4,#0
 259              	.L17:
 260              	.LVL26:
 155:../SEMS_Sources/RSA.c **** 
 156:../SEMS_Sources/RSA.c ****         // 0 -> succes
 157:../SEMS_Sources/RSA.c ****         // 082c -> failed
 158:../SEMS_Sources/RSA.c ****         succes = !return_status;
 159:../SEMS_Sources/RSA.c **** 
 160:../SEMS_Sources/RSA.c ****         return_status = OPTIGA_LIB_SUCCESS;
 161:../SEMS_Sources/RSA.c ****     } while (FALSE);
 162:../SEMS_Sources/RSA.c **** 
 163:../SEMS_Sources/RSA.c ****     example_optiga_deinit();
 261              	 .loc 1 163 0
 262 0062 FFF7FEFF 	 bl example_optiga_deinit
 263              	.LVL27:
 164:../SEMS_Sources/RSA.c **** 
 165:../SEMS_Sources/RSA.c ****     if (me)
 166:../SEMS_Sources/RSA.c ****     {
 167:../SEMS_Sources/RSA.c ****          return_status = optiga_crypt_destroy(me);
 264              	 .loc 1 167 0
 265 0066 3846     	 mov r0,r7
 266 0068 FFF7FEFF 	 bl optiga_crypt_destroy
 267              	.LVL28:
 168:../SEMS_Sources/RSA.c ****     }
 169:../SEMS_Sources/RSA.c **** 
 170:../SEMS_Sources/RSA.c ****     return succes;
 171:../SEMS_Sources/RSA.c **** }
 268              	 .loc 1 171 0
 269 006c 2046     	 mov r0,r4
 270 006e 10B0     	 add sp,sp,#64
 271              	.LCFI7:
 272              	 .cfi_remember_state
 273              	 .cfi_def_cfa_offset 24
 274              	 
 275 0070 BDE8F081 	 pop {r4,r5,r6,r7,r8,pc}
 276              	.LVL29:
 277              	.L18:
 278              	.LCFI8:
 279              	 .cfi_restore_state
 154:../SEMS_Sources/RSA.c **** 
 280              	 .loc 1 154 0 discriminator 1
 281 0074 2388     	 ldrh r3,[r4]
 282 0076 0D4A     	 ldr r2,.L27+16
 283 0078 9BB2     	 uxth r3,r3
 284 007a 012B     	 cmp r3,#1
 285 007c FAD0     	 beq .L18
 154:../SEMS_Sources/RSA.c **** 
 286              	 .loc 1 154 0 is_stmt 0 discriminator 2
 287 007e 1388     	 ldrh r3,[r2]
 288 0080 9BB2     	 uxth r3,r3
 289 0082 43B1     	 cbz r3,.L21
 154:../SEMS_Sources/RSA.c **** 
 290              	 .loc 1 154 0 discriminator 3
 291 0084 1388     	 ldrh r3,[r2]
 292 0086 EBE7     	 b .L26
 293              	.LVL30:
 294              	.L16:
 163:../SEMS_Sources/RSA.c **** 
 295              	 .loc 1 163 0 is_stmt 1
 296 0088 FFF7FEFF 	 bl example_optiga_deinit
 297              	.LVL31:
 105:../SEMS_Sources/RSA.c **** 	uint8_t hashed_digest[32];
 298              	 .loc 1 105 0
 299 008c 3C46     	 mov r4,r7
 300              	 .loc 1 171 0
 301 008e 2046     	 mov r0,r4
 302 0090 10B0     	 add sp,sp,#64
 303              	.LCFI9:
 304              	 .cfi_remember_state
 305              	 .cfi_def_cfa_offset 24
 306              	 
 307 0092 BDE8F081 	 pop {r4,r5,r6,r7,r8,pc}
 308              	.LVL32:
 309              	.L21:
 310              	.LCFI10:
 311              	 .cfi_restore_state
 158:../SEMS_Sources/RSA.c **** 
 312              	 .loc 1 158 0
 313 0096 0124     	 movs r4,#1
 314 0098 E3E7     	 b .L17
 315              	.L28:
 316 009a 00BF     	 .align 2
 317              	.L27:
 318 009c 00000000 	 .word .LANCHOR2
 319 00a0 00000000 	 .word .LANCHOR3
 320 00a4 00000000 	 .word .LANCHOR0
 321 00a8 00000000 	 .word .LANCHOR1
 322 00ac 00000000 	 .word optiga_lib_status
 323              	 .cfi_endproc
 324              	.LFE455:
 326              	 .section .bss.rsa_public_key,"aw",%nobits
 327              	 .align 2
 328              	 .set .LANCHOR2,.+0
 331              	rsa_public_key:
 332 0000 00000000 	 .space 150
 332      00000000 
 332      00000000 
 332      00000000 
 332      00000000 
 333 0096 0000     	 .section .rodata.rsa_public_key_exponent,"a",%progbits
 334              	 .align 2
 335              	 .set .LANCHOR1,.+0
 338              	rsa_public_key_exponent:
 339 0000 00       	 .byte 0
 340 0001 01       	 .byte 1
 341 0002 00       	 .byte 0
 342 0003 01       	 .byte 1
 343              	 .section .bss.rsa_public_key_length,"aw",%nobits
 344              	 .align 1
 345              	 .set .LANCHOR3,.+0
 348              	rsa_public_key_length:
 349 0000 0000     	 .space 2
 350              	 .section .rodata.rsa_public_key_modulus,"a",%progbits
 351              	 .align 2
 352              	 .set .LANCHOR0,.+0
 355              	rsa_public_key_modulus:
 356 0000 D6       	 .byte -42
 357 0001 79       	 .byte 121
 358 0002 78       	 .byte 120
 359 0003 52       	 .byte 82
 360 0004 FD       	 .byte -3
 361 0005 1C       	 .byte 28
 362 0006 66       	 .byte 102
 363 0007 01       	 .byte 1
 364 0008 20       	 .byte 32
 365 0009 6A       	 .byte 106
 366 000a 4A       	 .byte 74
 367 000b 7F       	 .byte 127
 368 000c 24       	 .byte 36
 369 000d 54       	 .byte 84
 370 000e F1       	 .byte -15
 371 000f C2       	 .byte -62
 372 0010 86       	 .byte -122
 373 0011 EB       	 .byte -21
 374 0012 1A       	 .byte 26
 375 0013 C5       	 .byte -59
 376 0014 FF       	 .byte -1
 377 0015 C2       	 .byte -62
 378 0016 EB       	 .byte -21
 379 0017 29       	 .byte 41
 380 0018 E6       	 .byte -26
 381 0019 2A       	 .byte 42
 382 001a 8F       	 .byte -113
 383 001b 3E       	 .byte 62
 384 001c FF       	 .byte -1
 385 001d F1       	 .byte -15
 386 001e 92       	 .byte -110
 387 001f 62       	 .byte 98
 388 0020 FD       	 .byte -3
 389 0021 20       	 .byte 32
 390 0022 EB       	 .byte -21
 391 0023 8C       	 .byte -116
 392 0024 CC       	 .byte -52
 393 0025 A3       	 .byte -93
 394 0026 13       	 .byte 19
 395 0027 4E       	 .byte 78
 396 0028 15       	 .byte 21
 397 0029 28       	 .byte 40
 398 002a 1D       	 .byte 29
 399 002b E3       	 .byte -29
 400 002c 0A       	 .byte 10
 401 002d 1A       	 .byte 26
 402 002e 7B       	 .byte 123
 403 002f 85       	 .byte -123
 404 0030 16       	 .byte 22
 405 0031 C4       	 .byte -60
 406 0032 EA       	 .byte -22
 407 0033 69       	 .byte 105
 408 0034 6F       	 .byte 111
 409 0035 75       	 .byte 117
 410 0036 60       	 .byte 96
 411 0037 43       	 .byte 67
 412 0038 62       	 .byte 98
 413 0039 85       	 .byte -123
 414 003a 2B       	 .byte 43
 415 003b 3C       	 .byte 60
 416 003c B1       	 .byte -79
 417 003d 4A       	 .byte 74
 418 003e BF       	 .byte -65
 419 003f DF       	 .byte -33
 420 0040 B5       	 .byte -75
 421 0041 33       	 .byte 51
 422 0042 00       	 .byte 0
 423 0043 6F       	 .byte 111
 424 0044 4D       	 .byte 77
 425 0045 F7       	 .byte -9
 426 0046 87       	 .byte -121
 427 0047 34       	 .byte 52
 428 0048 B9       	 .byte -71
 429 0049 4A       	 .byte 74
 430 004a F3       	 .byte -13
 431 004b 07       	 .byte 7
 432 004c D6       	 .byte -42
 433 004d 84       	 .byte -124
 434 004e 3E       	 .byte 62
 435 004f 4A       	 .byte 74
 436 0050 9B       	 .byte -101
 437 0051 16       	 .byte 22
 438 0052 DD       	 .byte -35
 439 0053 39       	 .byte 57
 440 0054 FA       	 .byte -6
 441 0055 32       	 .byte 50
 442 0056 7F       	 .byte 127
 443 0057 AA       	 .byte -86
 444 0058 13       	 .byte 19
 445 0059 6A       	 .byte 106
 446 005a DB       	 .byte -37
 447 005b 0D       	 .byte 13
 448 005c 69       	 .byte 105
 449 005d 42       	 .byte 66
 450 005e 16       	 .byte 22
 451 005f F4       	 .byte -12
 452 0060 63       	 .byte 99
 453 0061 EF       	 .byte -17
 454 0062 D4       	 .byte -44
 455 0063 A4       	 .byte -92
 456 0064 B2       	 .byte -78
 457 0065 0E       	 .byte 14
 458 0066 1E       	 .byte 30
 459 0067 D6       	 .byte -42
 460 0068 29       	 .byte 41
 461 0069 11       	 .byte 17
 462 006a FF       	 .byte -1
 463 006b AF       	 .byte -81
 464 006c AC       	 .byte -84
 465 006d 72       	 .byte 114
 466 006e F6       	 .byte -10
 467 006f 3E       	 .byte 62
 468 0070 4C       	 .byte 76
 469 0071 DB       	 .byte -37
 470 0072 0D       	 .byte 13
 471 0073 BC       	 .byte -68
 472 0074 62       	 .byte 98
 473 0075 09       	 .byte 9
 474 0076 E7       	 .byte -25
 475 0077 F6       	 .byte -10
 476 0078 D7       	 .byte -41
 477 0079 44       	 .byte 68
 478 007a 10       	 .byte 16
 479 007b 1B       	 .byte 27
 480 007c 56       	 .byte 86
 481 007d B9       	 .byte -71
 482 007e 42       	 .byte 66
 483 007f 21       	 .byte 33
 484              	 .text
 485              	.Letext0:
 486              	 .file 2 "c:\\infineon\\tools\\dave ide\\4.5.0.202105191637\\eclipse\\arm-gcc-49\\arm-none-eabi\\include\\machine\\_default_types.h"
 487              	 .file 3 "c:\\infineon\\tools\\dave ide\\4.5.0.202105191637\\eclipse\\arm-gcc-49\\arm-none-eabi\\include\\stdint.h"
 488              	 .file 4 "D:/School/diseratie/SEMS/xmc4800_evaluation_kit/xmc4800_iot_kit/common/Libraries/CMSIS/Infineon/XMC4800_series/Include/XMC4800.h"
 489              	 .file 5 "D:/School/diseratie/SEMS/xmc4800_evaluation_kit/xmc4800_iot_kit/common/Libraries/XMCLib/inc/xmc_usic.h"
 490              	 .file 6 "D:/School/diseratie/SEMS/xmc4800_evaluation_kit/xmc4800_iot_kit/common/Libraries/XMCLib/inc/xmc_usbd_regs.h"
 491              	 .file 7 "D:/School/diseratie/SEMS/xmc4800_evaluation_kit/xmc4800_iot_kit/common/Libraries/XMCLib/inc/xmc_usbd.h"
 492              	 .file 8 "D:/School/diseratie/SEMS/xmc4800_evaluation_kit/xmc4800_iot_kit/common/Dave/Generated/USBD/usbd.h"
 493              	 .file 9 "D:/School/diseratie/SEMS/xmc4800_evaluation_kit/optiga-trust-m/optiga/include/optiga/common/optiga_lib_types.h"
 494              	 .file 10 "D:/School/diseratie/SEMS/xmc4800_evaluation_kit/optiga-trust-m/optiga/include/optiga/common/optiga_lib_common.h"
 495              	 .file 11 "D:/School/diseratie/SEMS/xmc4800_evaluation_kit/optiga-trust-m/optiga/include/optiga/cmd/optiga_cmd.h"
 496              	 .file 12 "D:/School/diseratie/SEMS/xmc4800_evaluation_kit/optiga-trust-m/optiga/include/optiga/optiga_crypt.h"
 497              	 .file 13 "D:/School/diseratie/SEMS/xmc4800_evaluation_kit/xmc4800_iot_kit/common/Libraries/CMSIS/Include/core_cm4.h"
 498              	 .file 14 "D:/School/diseratie/SEMS/xmc4800_evaluation_kit/xmc4800_iot_kit/common/Libraries/CMSIS/Infineon/XMC4800_series/Include/system_XMC4800.h"
 499              	 .file 15 "D:/School/diseratie/SEMS/xmc4800_evaluation_kit/xmc4800_iot_kit/common/Dave/Generated/USBD/usbd_extern.h"
 500              	 .file 16 "../SEMS_Sources/../SEMS_Headers/Util.h"
 501              	 .file 17 "../SEMS_Sources/../SEMS_Headers/Constructor.h"
 502              	 .file 18 "../SEMS_Sources/../SEMS_Headers/Hash.h"