   1              	 .syntax unified
   2              	 .cpu cortex-m4
   3              	 .eabi_attribute 27,3
   4              	 .fpu fpv4-sp-d16
   5              	 .eabi_attribute 20,1
   6              	 .eabi_attribute 21,1
   7              	 .eabi_attribute 23,3
   8              	 .eabi_attribute 24,1
   9              	 .eabi_attribute 25,1
  10              	 .eabi_attribute 26,1
  11              	 .eabi_attribute 30,2
  12              	 .eabi_attribute 34,1
  13              	 .eabi_attribute 18,4
  14              	 .thumb
  15              	 .file "Test.c"
  16              	 .text
  17              	.Ltext0:
  18              	 .cfi_sections .debug_frame
  19              	 .section .text.test_write_read,"ax",%progbits
  20              	 .align 2
  21              	 .global test_write_read
  22              	 .thumb
  23              	 .thumb_func
  25              	test_write_read:
  26              	.LFB449:
  27              	 .file 1 "../SEMS_Sources/Test.c"
   1:../SEMS_Sources/Test.c **** #include <DAVE.h>
   2:../SEMS_Sources/Test.c **** #include "optiga/optiga_crypt.h"
   3:../SEMS_Sources/Test.c **** #include "optiga/optiga_util.h"
   4:../SEMS_Sources/Test.c **** #include "optiga/common/optiga_lib_logger.h"
   5:../SEMS_Sources/Test.c **** #include "optiga/pal/pal_os_event.h"
   6:../SEMS_Sources/Test.c **** #include "optiga/pal/pal.h"
   7:../SEMS_Sources/Test.c **** #include "optiga/pal/pal_os_timer.h"
   8:../SEMS_Sources/Test.c **** #include "optiga_example.h"
   9:../SEMS_Sources/Test.c **** #include "optiga/pal/pal_logger.h"
  10:../SEMS_Sources/Test.c **** 
  11:../SEMS_Sources/Test.c **** #include "optiga_example.h"
  12:../SEMS_Sources/Test.c **** #include "optiga/optiga_util.h"
  13:../SEMS_Sources/Test.c **** 
  14:../SEMS_Sources/Test.c **** #include "../SEMS_Headers/Nonce.h"
  15:../SEMS_Sources/Test.c **** #include "../SEMS_Headers/SymEncrypt.h"
  16:../SEMS_Sources/Test.c **** #include "../SEMS_Headers/RSA.h"
  17:../SEMS_Sources/Test.c **** #include "../SEMS_Headers/Timer.h"
  18:../SEMS_Sources/Test.c **** #include "../SEMS_Headers/Random.h"
  19:../SEMS_Sources/Test.c **** #include "../SEMS_Headers/SymEncrypt.h"
  20:../SEMS_Sources/Test.c **** #include "../SEMS_Headers/Unlock.h"
  21:../SEMS_Sources/Test.c **** #include "../SEMS_Headers/Com.h"
  22:../SEMS_Sources/Test.c **** #include "../SEMS_Headers/Hash.h"
  23:../SEMS_Sources/Test.c **** #include "../SEMS_Headers/Patcher.h"
  24:../SEMS_Sources/Test.c **** #include "../SEMS_Headers/Config.h"
  25:../SEMS_Sources/Test.c **** #include "../SEMS_Headers/Init.h"
  26:../SEMS_Sources/Test.c **** #include "../SEMS_Headers/Test.h"
  27:../SEMS_Sources/Test.c **** #include "../SEMS_Headers/Skey.h"
  28:../SEMS_Sources/Test.c **** #include "../SEMS_Headers/Util.h"
  29:../SEMS_Sources/Test.c **** 
  30:../SEMS_Sources/Test.c **** 
  31:../SEMS_Sources/Test.c **** 
  32:../SEMS_Sources/Test.c **** uint8_t test_write_read(void)
  33:../SEMS_Sources/Test.c **** {
  28              	 .loc 1 33 0
  29              	 .cfi_startproc
  30              	 
  31              	 
  32 0000 10B5     	 push {r4,lr}
  33              	.LCFI0:
  34              	 .cfi_def_cfa_offset 8
  35              	 .cfi_offset 4,-8
  36              	 .cfi_offset 14,-4
  37 0002 92B0     	 sub sp,sp,#72
  38              	.LCFI1:
  39              	 .cfi_def_cfa_offset 80
  34:../SEMS_Sources/Test.c **** 	uint8_t passed = true;
  35:../SEMS_Sources/Test.c **** 	uint8_t key_written[32] = {0};
  40              	 .loc 1 35 0
  41 0004 0023     	 movs r3,#0
  34:../SEMS_Sources/Test.c **** 	uint8_t passed = true;
  42              	 .loc 1 34 0
  43 0006 0122     	 movs r2,#1
  44 0008 02A9     	 add r1,sp,#8
  45 000a 8DF80720 	 strb r2,[sp,#7]
  46              	 .loc 1 35 0
  47 000e 0293     	 str r3,[sp,#8]
  48 0010 0393     	 str r3,[sp,#12]
  49 0012 0493     	 str r3,[sp,#16]
  50 0014 0593     	 str r3,[sp,#20]
  51 0016 0693     	 str r3,[sp,#24]
  52 0018 0793     	 str r3,[sp,#28]
  53 001a 0893     	 str r3,[sp,#32]
  54 001c 0993     	 str r3,[sp,#36]
  36:../SEMS_Sources/Test.c **** 	uint8_t key_read[32] = {0};
  55              	 .loc 1 36 0
  56 001e 0A93     	 str r3,[sp,#40]
  57 0020 0B93     	 str r3,[sp,#44]
  58 0022 0C93     	 str r3,[sp,#48]
  59 0024 0D93     	 str r3,[sp,#52]
  60 0026 0E93     	 str r3,[sp,#56]
  61 0028 0F93     	 str r3,[sp,#60]
  62 002a 1093     	 str r3,[sp,#64]
  63 002c 1193     	 str r3,[sp,#68]
  64              	.LVL0:
  65 002e 0C46     	 mov r4,r1
  66 0030 0AAA     	 add r2,sp,#40
  67              	.LVL1:
  68              	.L2:
  69 0032 631A     	 subs r3,r4,r1
  37:../SEMS_Sources/Test.c **** 	uint16_t i = 0;
  38:../SEMS_Sources/Test.c **** 
  39:../SEMS_Sources/Test.c **** 	for(i = 0u; i < sizeof(key_written); i++)
  40:../SEMS_Sources/Test.c **** 	{
  41:../SEMS_Sources/Test.c **** 		key_written[i] = i;
  70              	 .loc 1 41 0 discriminator 3
  71 0034 04F8013B 	 strb r3,[r4],#1
  72              	.LVL2:
  39:../SEMS_Sources/Test.c **** 	{
  73              	 .loc 1 39 0 discriminator 3
  74 0038 9442     	 cmp r4,r2
  75 003a FAD1     	 bne .L2
  42:../SEMS_Sources/Test.c **** 	}
  43:../SEMS_Sources/Test.c **** 
  44:../SEMS_Sources/Test.c **** 	// Write key
  45:../SEMS_Sources/Test.c **** 	optiga_util_write_shared_key(OPTIGA_SESKEY_OID, key_written, sizeof(key_written));
  76              	 .loc 1 45 0
  77 003c 4FF2D610 	 movw r0,#61910
  78 0040 2022     	 movs r2,#32
  79 0042 FFF7FEFF 	 bl optiga_util_write_shared_key
  80              	.LVL3:
  46:../SEMS_Sources/Test.c **** 	// Read key
  47:../SEMS_Sources/Test.c **** 	optiga_util_read_shared_key(OPTIGA_SESKEY_OID, key_read, sizeof(key_read));
  81              	 .loc 1 47 0
  82 0046 2146     	 mov r1,r4
  83 0048 2022     	 movs r2,#32
  84 004a 4FF2D610 	 movw r0,#61910
  85 004e FFF7FEFF 	 bl optiga_util_read_shared_key
  86              	.LVL4:
  87 0052 0DF12702 	 add r2,sp,#39
  88 0056 0DF10703 	 add r3,sp,#7
  89 005a 1446     	 mov r4,r2
  90 005c 01E0     	 b .L5
  91              	.LVL5:
  92              	.L3:
  48:../SEMS_Sources/Test.c **** 
  49:../SEMS_Sources/Test.c **** 	for(i = 0; i < sizeof(key_written); i++)
  93              	 .loc 1 49 0 discriminator 2
  94 005e A342     	 cmp r3,r4
  95 0060 08D0     	 beq .L4
  96              	.LVL6:
  97              	.L5:
  50:../SEMS_Sources/Test.c **** 	{
  51:../SEMS_Sources/Test.c **** 		if(key_written[i] != key_read[i])
  98              	 .loc 1 51 0
  99 0062 13F8010F 	 ldrb r0,[r3,#1]!
 100              	.LVL7:
 101 0066 12F8011F 	 ldrb r1,[r2,#1]!
 102 006a 8842     	 cmp r0,r1
 103 006c F7D0     	 beq .L3
  52:../SEMS_Sources/Test.c **** 		{
  53:../SEMS_Sources/Test.c **** 			passed = false;
 104              	 .loc 1 53 0
 105 006e 0023     	 movs r3,#0
 106              	.LVL8:
 107 0070 8DF80730 	 strb r3,[sp,#7]
 108              	.L4:
  54:../SEMS_Sources/Test.c **** 			break;
  55:../SEMS_Sources/Test.c **** 		}
  56:../SEMS_Sources/Test.c **** 	}
  57:../SEMS_Sources/Test.c **** 	optiga_lib_print_bytes(&passed, 1);
 109              	 .loc 1 57 0
 110 0074 0DF10700 	 add r0,sp,#7
 111 0078 0121     	 movs r1,#1
 112 007a FFF7FEFF 	 bl optiga_lib_print_bytes
 113              	.LVL9:
  58:../SEMS_Sources/Test.c **** 
  59:../SEMS_Sources/Test.c **** 	return passed;
  60:../SEMS_Sources/Test.c **** }
 114              	 .loc 1 60 0
 115 007e 9DF80700 	 ldrb r0,[sp,#7]
 116 0082 12B0     	 add sp,sp,#72
 117              	.LCFI2:
 118              	 .cfi_def_cfa_offset 8
 119              	 
 120 0084 10BD     	 pop {r4,pc}
 121              	 .cfi_endproc
 122              	.LFE449:
 124 0086 00BF     	 .section .text.test_time_write_read,"ax",%progbits
 125              	 .align 2
 126              	 .global test_time_write_read
 127              	 .thumb
 128              	 .thumb_func
 130              	test_time_write_read:
 131              	.LFB450:
  61:../SEMS_Sources/Test.c **** 
  62:../SEMS_Sources/Test.c **** 
  63:../SEMS_Sources/Test.c **** volatile uint32_t one_time = 0; // volatile to avoid optimization
  64:../SEMS_Sources/Test.c **** volatile uint32_t n_times = 0; // volatile to avoid optimization
  65:../SEMS_Sources/Test.c **** uint8_t test_time_write_read(uint16_t n)
  66:../SEMS_Sources/Test.c **** {
 132              	 .loc 1 66 0
 133              	 .cfi_startproc
 134              	 
 135              	 
 136              	.LVL10:
 137 0000 F0B5     	 push {r4,r5,r6,r7,lr}
 138              	.LCFI3:
 139              	 .cfi_def_cfa_offset 20
 140              	 .cfi_offset 4,-20
 141              	 .cfi_offset 5,-16
 142              	 .cfi_offset 6,-12
 143              	 .cfi_offset 7,-8
 144              	 .cfi_offset 14,-4
 145 0002 93B0     	 sub sp,sp,#76
 146              	.LCFI4:
 147              	 .cfi_def_cfa_offset 96
  67:../SEMS_Sources/Test.c **** 	uint8_t passed = true;
  68:../SEMS_Sources/Test.c **** 	uint8_t key_written[32] = {0};
 148              	 .loc 1 68 0
 149 0004 0023     	 movs r3,#0
 150 0006 02AF     	 add r7,sp,#8
 151 0008 0293     	 str r3,[sp,#8]
 152 000a 0393     	 str r3,[sp,#12]
 153 000c 0493     	 str r3,[sp,#16]
 154 000e 0593     	 str r3,[sp,#20]
 155 0010 0693     	 str r3,[sp,#24]
 156 0012 0793     	 str r3,[sp,#28]
 157 0014 0893     	 str r3,[sp,#32]
 158 0016 0993     	 str r3,[sp,#36]
  69:../SEMS_Sources/Test.c **** 	uint8_t key_read[32] = {0};
 159              	 .loc 1 69 0
 160 0018 0A93     	 str r3,[sp,#40]
 161 001a 0B93     	 str r3,[sp,#44]
 162 001c 0C93     	 str r3,[sp,#48]
 163 001e 0D93     	 str r3,[sp,#52]
 164 0020 0E93     	 str r3,[sp,#56]
 165 0022 0F93     	 str r3,[sp,#60]
 166 0024 1093     	 str r3,[sp,#64]
 167 0026 1193     	 str r3,[sp,#68]
 168              	.LVL11:
  66:../SEMS_Sources/Test.c **** 	uint8_t passed = true;
 169              	 .loc 1 66 0
 170 0028 0646     	 mov r6,r0
 171              	 .loc 1 69 0
 172 002a 3B46     	 mov r3,r7
 173 002c 0AAD     	 add r5,sp,#40
 174              	.LVL12:
 175              	.L11:
 176 002e DA1B     	 subs r2,r3,r7
  70:../SEMS_Sources/Test.c **** 	uint16_t i = 0;
  71:../SEMS_Sources/Test.c **** 	uint32_t time_taken; // will be optimized
  72:../SEMS_Sources/Test.c **** 
  73:../SEMS_Sources/Test.c **** 	for(i = 0u; i < sizeof(key_written); i++)
  74:../SEMS_Sources/Test.c **** 	{
  75:../SEMS_Sources/Test.c **** 		key_written[i] = i;
 177              	 .loc 1 75 0 discriminator 3
 178 0030 03F8012B 	 strb r2,[r3],#1
 179              	.LVL13:
  73:../SEMS_Sources/Test.c **** 	{
 180              	 .loc 1 73 0 discriminator 3
 181 0034 AB42     	 cmp r3,r5
 182 0036 FAD1     	 bne .L11
  76:../SEMS_Sources/Test.c **** 	}
  77:../SEMS_Sources/Test.c **** 
  78:../SEMS_Sources/Test.c **** 	START_PERFORMANCE_MEASUREMENT(time_taken);
 183              	 .loc 1 78 0
 184 0038 01A8     	 add r0,sp,#4
 185              	.LVL14:
 186 003a 0121     	 movs r1,#1
 187 003c FFF7FEFF 	 bl example_performance_measurement
 188              	.LVL15:
  79:../SEMS_Sources/Test.c **** 	for(i = 0u; i < n; ++i)
 189              	 .loc 1 79 0
 190 0040 002E     	 cmp r6,#0
 191 0042 42D0     	 beq .L12
 192 0044 0024     	 movs r4,#0
 193              	.LVL16:
 194              	.L13:
 195              	 .loc 1 79 0 is_stmt 0 discriminator 3
 196 0046 0134     	 adds r4,r4,#1
 197              	.LVL17:
  80:../SEMS_Sources/Test.c **** 	{
  81:../SEMS_Sources/Test.c **** 		// Write key
  82:../SEMS_Sources/Test.c **** 		optiga_util_write_shared_key(OPTIGA_SESKEY_OID, key_written, sizeof(key_written));
 198              	 .loc 1 82 0 is_stmt 1 discriminator 3
 199 0048 4FF2D610 	 movw r0,#61910
 200 004c 3946     	 mov r1,r7
 201 004e 2022     	 movs r2,#32
  79:../SEMS_Sources/Test.c **** 	for(i = 0u; i < n; ++i)
 202              	 .loc 1 79 0 discriminator 3
 203 0050 A4B2     	 uxth r4,r4
 204              	 .loc 1 82 0 discriminator 3
 205 0052 FFF7FEFF 	 bl optiga_util_write_shared_key
 206              	.LVL18:
  79:../SEMS_Sources/Test.c **** 	for(i = 0u; i < n; ++i)
 207              	 .loc 1 79 0 discriminator 3
 208 0056 B442     	 cmp r4,r6
 209 0058 F5D1     	 bne .L13
  83:../SEMS_Sources/Test.c **** 	}
  84:../SEMS_Sources/Test.c **** 	READ_PERFORMANCE_MEASUREMENT(time_taken);
 210              	 .loc 1 84 0
 211 005a 01A8     	 add r0,sp,#4
 212 005c 0021     	 movs r1,#0
  85:../SEMS_Sources/Test.c **** 
  86:../SEMS_Sources/Test.c **** 	one_time = time_taken;
 213              	 .loc 1 86 0
 214 005e 234F     	 ldr r7,.L30
  84:../SEMS_Sources/Test.c **** 
 215              	 .loc 1 84 0
 216 0060 FFF7FEFF 	 bl example_performance_measurement
 217              	.LVL19:
 218              	 .loc 1 86 0
 219 0064 019B     	 ldr r3,[sp,#4]
 220 0066 3B60     	 str r3,[r7]
  87:../SEMS_Sources/Test.c **** 	optiga_lib_print_bytes((uint8_t *)&time_taken, 4);
 221              	 .loc 1 87 0
 222 0068 01A8     	 add r0,sp,#4
 223 006a 0421     	 movs r1,#4
 224 006c FFF7FEFF 	 bl optiga_lib_print_bytes
 225              	.LVL20:
  88:../SEMS_Sources/Test.c **** 
  89:../SEMS_Sources/Test.c **** 
  90:../SEMS_Sources/Test.c **** 	START_PERFORMANCE_MEASUREMENT(time_taken);
 226              	 .loc 1 90 0
 227 0070 01A8     	 add r0,sp,#4
 228 0072 0121     	 movs r1,#1
 229 0074 FFF7FEFF 	 bl example_performance_measurement
 230              	.LVL21:
 231 0078 0024     	 movs r4,#0
 232              	.LVL22:
 233              	.L15:
  91:../SEMS_Sources/Test.c **** 	for(i = 0u; i < n; ++i)
 234              	 .loc 1 91 0 discriminator 3
 235 007a 0134     	 adds r4,r4,#1
 236              	.LVL23:
  92:../SEMS_Sources/Test.c **** 	{
  93:../SEMS_Sources/Test.c **** 		// Read key
  94:../SEMS_Sources/Test.c **** 		optiga_util_read_shared_key(OPTIGA_SESKEY_OID, key_read, sizeof(key_read));
 237              	 .loc 1 94 0 discriminator 3
 238 007c 4FF2D610 	 movw r0,#61910
 239 0080 2946     	 mov r1,r5
 240 0082 2022     	 movs r2,#32
  91:../SEMS_Sources/Test.c **** 	for(i = 0u; i < n; ++i)
 241              	 .loc 1 91 0 discriminator 3
 242 0084 A4B2     	 uxth r4,r4
 243              	 .loc 1 94 0 discriminator 3
 244 0086 FFF7FEFF 	 bl optiga_util_read_shared_key
 245              	.LVL24:
  91:../SEMS_Sources/Test.c **** 	for(i = 0u; i < n; ++i)
 246              	 .loc 1 91 0 discriminator 3
 247 008a B442     	 cmp r4,r6
 248 008c F5D1     	 bne .L15
 249              	.LVL25:
 250              	.L18:
  95:../SEMS_Sources/Test.c **** 	}
  96:../SEMS_Sources/Test.c **** 	READ_PERFORMANCE_MEASUREMENT(time_taken);
 251              	 .loc 1 96 0
 252 008e 01A8     	 add r0,sp,#4
 253 0090 0021     	 movs r1,#0
 254 0092 FFF7FEFF 	 bl example_performance_measurement
 255              	.LVL26:
  97:../SEMS_Sources/Test.c **** 	one_time = time_taken;
 256              	 .loc 1 97 0
 257 0096 019B     	 ldr r3,[sp,#4]
 258 0098 3B60     	 str r3,[r7]
  98:../SEMS_Sources/Test.c **** 	optiga_lib_print_bytes((uint8_t *)&time_taken, 4);
 259              	 .loc 1 98 0
 260 009a 01A8     	 add r0,sp,#4
 261 009c 0421     	 movs r1,#4
 262 009e FFF7FEFF 	 bl optiga_lib_print_bytes
 263              	.LVL27:
 264 00a2 0DF12702 	 add r2,sp,#39
 265 00a6 1446     	 mov r4,r2
 266 00a8 0DF10703 	 add r3,sp,#7
 267 00ac 01E0     	 b .L17
 268              	.LVL28:
 269              	.L29:
  99:../SEMS_Sources/Test.c **** 
 100:../SEMS_Sources/Test.c **** 
 101:../SEMS_Sources/Test.c **** 	for(i = 0; i < sizeof(key_written); i++)
 270              	 .loc 1 101 0 discriminator 2
 271 00ae A342     	 cmp r3,r4
 272 00b0 08D0     	 beq .L28
 273              	.LVL29:
 274              	.L17:
 102:../SEMS_Sources/Test.c **** 	{
 103:../SEMS_Sources/Test.c **** 		if(key_written[i] != key_read[i])
 275              	 .loc 1 103 0
 276 00b2 13F8010F 	 ldrb r0,[r3,#1]!
 277              	.LVL30:
 278 00b6 12F8011F 	 ldrb r1,[r2,#1]!
 279 00ba 8842     	 cmp r0,r1
 280 00bc F7D0     	 beq .L29
 104:../SEMS_Sources/Test.c **** 		{
 105:../SEMS_Sources/Test.c **** 			passed = false;
 281              	 .loc 1 105 0
 282 00be 0020     	 movs r0,#0
 283              	.LVL31:
 106:../SEMS_Sources/Test.c **** 			break;
 107:../SEMS_Sources/Test.c **** 		}
 108:../SEMS_Sources/Test.c **** 	}
 109:../SEMS_Sources/Test.c **** 
 110:../SEMS_Sources/Test.c **** 	return passed;
 111:../SEMS_Sources/Test.c **** }
 284              	 .loc 1 111 0
 285 00c0 13B0     	 add sp,sp,#76
 286              	.LCFI5:
 287              	 .cfi_remember_state
 288              	 .cfi_def_cfa_offset 20
 289              	 
 290 00c2 F0BD     	 pop {r4,r5,r6,r7,pc}
 291              	.LVL32:
 292              	.L28:
 293              	.LCFI6:
 294              	 .cfi_restore_state
  67:../SEMS_Sources/Test.c **** 	uint8_t key_written[32] = {0};
 295              	 .loc 1 67 0
 296 00c4 0120     	 movs r0,#1
 297              	 .loc 1 111 0
 298 00c6 13B0     	 add sp,sp,#76
 299              	.LCFI7:
 300              	 .cfi_remember_state
 301              	 .cfi_def_cfa_offset 20
 302              	 
 303 00c8 F0BD     	 pop {r4,r5,r6,r7,pc}
 304              	.LVL33:
 305              	.L12:
 306              	.LCFI8:
 307              	 .cfi_restore_state
  84:../SEMS_Sources/Test.c **** 
 308              	 .loc 1 84 0
 309 00ca 3146     	 mov r1,r6
 310 00cc 01A8     	 add r0,sp,#4
  86:../SEMS_Sources/Test.c **** 	optiga_lib_print_bytes((uint8_t *)&time_taken, 4);
 311              	 .loc 1 86 0
 312 00ce 074F     	 ldr r7,.L30
  84:../SEMS_Sources/Test.c **** 
 313              	 .loc 1 84 0
 314 00d0 FFF7FEFF 	 bl example_performance_measurement
 315              	.LVL34:
  86:../SEMS_Sources/Test.c **** 	optiga_lib_print_bytes((uint8_t *)&time_taken, 4);
 316              	 .loc 1 86 0
 317 00d4 019B     	 ldr r3,[sp,#4]
 318 00d6 3B60     	 str r3,[r7]
  87:../SEMS_Sources/Test.c **** 
 319              	 .loc 1 87 0
 320 00d8 01A8     	 add r0,sp,#4
 321 00da 0421     	 movs r1,#4
 322 00dc FFF7FEFF 	 bl optiga_lib_print_bytes
 323              	.LVL35:
  90:../SEMS_Sources/Test.c **** 	for(i = 0u; i < n; ++i)
 324              	 .loc 1 90 0
 325 00e0 01A8     	 add r0,sp,#4
 326 00e2 0121     	 movs r1,#1
 327 00e4 FFF7FEFF 	 bl example_performance_measurement
 328              	.LVL36:
 329 00e8 D1E7     	 b .L18
 330              	.L31:
 331 00ea 00BF     	 .align 2
 332              	.L30:
 333 00ec 00000000 	 .word .LANCHOR0
 334              	 .cfi_endproc
 335              	.LFE450:
 337              	 .section .text.test_time_read_session_key,"ax",%progbits
 338              	 .align 2
 339              	 .global test_time_read_session_key
 340              	 .thumb
 341              	 .thumb_func
 343              	test_time_read_session_key:
 344              	.LFB451:
 112:../SEMS_Sources/Test.c **** 
 113:../SEMS_Sources/Test.c **** 
 114:../SEMS_Sources/Test.c **** uint32_t test_time_read_session_key(uint16_t n)
 115:../SEMS_Sources/Test.c **** {
 345              	 .loc 1 115 0
 346              	 .cfi_startproc
 347              	 
 348              	 
 349              	.LVL37:
 350 0000 30B5     	 push {r4,r5,lr}
 351              	.LCFI9:
 352              	 .cfi_def_cfa_offset 12
 353              	 .cfi_offset 4,-12
 354              	 .cfi_offset 5,-8
 355              	 .cfi_offset 14,-4
 356 0002 8BB0     	 sub sp,sp,#44
 357              	.LCFI10:
 358              	 .cfi_def_cfa_offset 56
 116:../SEMS_Sources/Test.c **** 	uint16_t i = 0;
 117:../SEMS_Sources/Test.c **** 	uint32_t time_taken;  // will be optimized out by compiler
 118:../SEMS_Sources/Test.c **** 	uint8_t key_read[32] = {0};
 359              	 .loc 1 118 0
 360 0004 0024     	 movs r4,#0
 115:../SEMS_Sources/Test.c **** 	uint16_t i = 0;
 361              	 .loc 1 115 0
 362 0006 0546     	 mov r5,r0
 119:../SEMS_Sources/Test.c **** 
 120:../SEMS_Sources/Test.c **** 	/* One call test */
 121:../SEMS_Sources/Test.c **** 	START_PERFORMANCE_MEASUREMENT(time_taken);
 363              	 .loc 1 121 0
 364 0008 0121     	 movs r1,#1
 365 000a 01A8     	 add r0,sp,#4
 366              	.LVL38:
 118:../SEMS_Sources/Test.c **** 
 367              	 .loc 1 118 0
 368 000c 0294     	 str r4,[sp,#8]
 369 000e 0394     	 str r4,[sp,#12]
 370 0010 0494     	 str r4,[sp,#16]
 371 0012 0594     	 str r4,[sp,#20]
 372 0014 0694     	 str r4,[sp,#24]
 373 0016 0794     	 str r4,[sp,#28]
 374 0018 0894     	 str r4,[sp,#32]
 375 001a 0994     	 str r4,[sp,#36]
 376              	 .loc 1 121 0
 377 001c FFF7FEFF 	 bl example_performance_measurement
 378              	.LVL39:
 122:../SEMS_Sources/Test.c **** 	optiga_util_read_shared_key(OPTIGA_SESKEY_OID, key_read, sizeof(key_read));
 379              	 .loc 1 122 0
 380 0020 2022     	 movs r2,#32
 381 0022 02A9     	 add r1,sp,#8
 382 0024 4FF2D610 	 movw r0,#61910
 383 0028 FFF7FEFF 	 bl optiga_util_read_shared_key
 384              	.LVL40:
 123:../SEMS_Sources/Test.c **** 	READ_PERFORMANCE_MEASUREMENT(time_taken);
 385              	 .loc 1 123 0
 386 002c 01A8     	 add r0,sp,#4
 387 002e 2146     	 mov r1,r4
 388 0030 FFF7FEFF 	 bl example_performance_measurement
 389              	.LVL41:
 124:../SEMS_Sources/Test.c **** 
 125:../SEMS_Sources/Test.c **** 	one_time = time_taken;  // to watch in debugger
 390              	 .loc 1 125 0
 391 0034 114B     	 ldr r3,.L39
 392 0036 019A     	 ldr r2,[sp,#4]
 393 0038 1A60     	 str r2,[r3]
 126:../SEMS_Sources/Test.c **** 	optiga_lib_print_bytes((uint8_t *)&time_taken, 4);
 394              	 .loc 1 126 0
 395 003a 01A8     	 add r0,sp,#4
 396 003c 0421     	 movs r1,#4
 397 003e FFF7FEFF 	 bl optiga_lib_print_bytes
 398              	.LVL42:
 127:../SEMS_Sources/Test.c **** 
 128:../SEMS_Sources/Test.c **** 	/* n calls test */
 129:../SEMS_Sources/Test.c **** 	START_PERFORMANCE_MEASUREMENT(time_taken);
 399              	 .loc 1 129 0
 400 0042 01A8     	 add r0,sp,#4
 401 0044 0121     	 movs r1,#1
 402 0046 FFF7FEFF 	 bl example_performance_measurement
 403              	.LVL43:
 130:../SEMS_Sources/Test.c **** 	for(i = 0u; i < n; ++i)
 404              	 .loc 1 130 0
 405 004a 4DB1     	 cbz r5,.L34
 406              	.LVL44:
 407              	.L33:
 408              	 .loc 1 130 0 is_stmt 0 discriminator 3
 409 004c 0134     	 adds r4,r4,#1
 410              	.LVL45:
 131:../SEMS_Sources/Test.c **** 	{
 132:../SEMS_Sources/Test.c **** 		// Optiga operation here
 133:../SEMS_Sources/Test.c **** 		optiga_util_read_shared_key(OPTIGA_SESKEY_OID, key_read, sizeof(key_read));
 411              	 .loc 1 133 0 is_stmt 1 discriminator 3
 412 004e 4FF2D610 	 movw r0,#61910
 413 0052 02A9     	 add r1,sp,#8
 414 0054 2022     	 movs r2,#32
 130:../SEMS_Sources/Test.c **** 	for(i = 0u; i < n; ++i)
 415              	 .loc 1 130 0 discriminator 3
 416 0056 A4B2     	 uxth r4,r4
 417              	 .loc 1 133 0 discriminator 3
 418 0058 FFF7FEFF 	 bl optiga_util_read_shared_key
 419              	.LVL46:
 130:../SEMS_Sources/Test.c **** 	for(i = 0u; i < n; ++i)
 420              	 .loc 1 130 0 discriminator 3
 421 005c AC42     	 cmp r4,r5
 422 005e F5D1     	 bne .L33
 423              	.LVL47:
 424              	.L34:
 134:../SEMS_Sources/Test.c **** 	}
 135:../SEMS_Sources/Test.c **** 	READ_PERFORMANCE_MEASUREMENT(time_taken);
 425              	 .loc 1 135 0
 426 0060 01A8     	 add r0,sp,#4
 427 0062 0021     	 movs r1,#0
 428 0064 FFF7FEFF 	 bl example_performance_measurement
 429              	.LVL48:
 136:../SEMS_Sources/Test.c **** 
 137:../SEMS_Sources/Test.c **** 	n_times = time_taken;  // to watch in debugger
 430              	 .loc 1 137 0
 431 0068 054B     	 ldr r3,.L39+4
 432 006a 019A     	 ldr r2,[sp,#4]
 433 006c 1A60     	 str r2,[r3]
 138:../SEMS_Sources/Test.c **** 	optiga_lib_print_bytes((uint8_t *)&time_taken, 4);
 434              	 .loc 1 138 0
 435 006e 01A8     	 add r0,sp,#4
 436 0070 0421     	 movs r1,#4
 437 0072 FFF7FEFF 	 bl optiga_lib_print_bytes
 438              	.LVL49:
 139:../SEMS_Sources/Test.c **** 
 140:../SEMS_Sources/Test.c **** 	return time_taken;
 439              	 .loc 1 140 0
 440 0076 0198     	 ldr r0,[sp,#4]
 141:../SEMS_Sources/Test.c **** }
 441              	 .loc 1 141 0
 442 0078 0BB0     	 add sp,sp,#44
 443              	.LCFI11:
 444              	 .cfi_def_cfa_offset 12
 445              	 
 446 007a 30BD     	 pop {r4,r5,pc}
 447              	.L40:
 448              	 .align 2
 449              	.L39:
 450 007c 00000000 	 .word .LANCHOR0
 451 0080 00000000 	 .word .LANCHOR1
 452              	 .cfi_endproc
 453              	.LFE451:
 455              	 .section .text.test_time_write_session_key,"ax",%progbits
 456              	 .align 2
 457              	 .global test_time_write_session_key
 458              	 .thumb
 459              	 .thumb_func
 461              	test_time_write_session_key:
 462              	.LFB452:
 142:../SEMS_Sources/Test.c **** 
 143:../SEMS_Sources/Test.c **** uint32_t test_time_write_session_key(uint16_t n)
 144:../SEMS_Sources/Test.c **** {
 463              	 .loc 1 144 0
 464              	 .cfi_startproc
 465              	 
 466              	 
 467              	.LVL50:
 468 0000 30B5     	 push {r4,r5,lr}
 469              	.LCFI12:
 470              	 .cfi_def_cfa_offset 12
 471              	 .cfi_offset 4,-12
 472              	 .cfi_offset 5,-8
 473              	 .cfi_offset 14,-4
 474 0002 8BB0     	 sub sp,sp,#44
 475              	.LCFI13:
 476              	 .cfi_def_cfa_offset 56
 145:../SEMS_Sources/Test.c **** 	uint16_t i = 0;
 146:../SEMS_Sources/Test.c **** 	uint32_t time_taken;  // will be optimized out by compiler
 147:../SEMS_Sources/Test.c **** 	uint8_t key_written[32] = {0};
 477              	 .loc 1 147 0
 478 0004 0024     	 movs r4,#0
 144:../SEMS_Sources/Test.c **** 	uint16_t i = 0;
 479              	 .loc 1 144 0
 480 0006 0546     	 mov r5,r0
 148:../SEMS_Sources/Test.c **** 
 149:../SEMS_Sources/Test.c **** 	/* One call test */
 150:../SEMS_Sources/Test.c **** 	START_PERFORMANCE_MEASUREMENT(time_taken);
 481              	 .loc 1 150 0
 482 0008 0121     	 movs r1,#1
 483 000a 01A8     	 add r0,sp,#4
 484              	.LVL51:
 147:../SEMS_Sources/Test.c **** 
 485              	 .loc 1 147 0
 486 000c 0294     	 str r4,[sp,#8]
 487 000e 0394     	 str r4,[sp,#12]
 488 0010 0494     	 str r4,[sp,#16]
 489 0012 0594     	 str r4,[sp,#20]
 490 0014 0694     	 str r4,[sp,#24]
 491 0016 0794     	 str r4,[sp,#28]
 492 0018 0894     	 str r4,[sp,#32]
 493 001a 0994     	 str r4,[sp,#36]
 494              	 .loc 1 150 0
 495 001c FFF7FEFF 	 bl example_performance_measurement
 496              	.LVL52:
 151:../SEMS_Sources/Test.c **** 	optiga_util_write_shared_key(OPTIGA_SESKEY_OID, key_written, sizeof(key_written));
 497              	 .loc 1 151 0
 498 0020 2022     	 movs r2,#32
 499 0022 02A9     	 add r1,sp,#8
 500 0024 4FF2D610 	 movw r0,#61910
 501 0028 FFF7FEFF 	 bl optiga_util_write_shared_key
 502              	.LVL53:
 152:../SEMS_Sources/Test.c **** 	READ_PERFORMANCE_MEASUREMENT(time_taken);
 503              	 .loc 1 152 0
 504 002c 01A8     	 add r0,sp,#4
 505 002e 2146     	 mov r1,r4
 506 0030 FFF7FEFF 	 bl example_performance_measurement
 507              	.LVL54:
 153:../SEMS_Sources/Test.c **** 
 154:../SEMS_Sources/Test.c **** 	one_time = time_taken;  // to watch in debugger
 508              	 .loc 1 154 0
 509 0034 114B     	 ldr r3,.L48
 510 0036 019A     	 ldr r2,[sp,#4]
 511 0038 1A60     	 str r2,[r3]
 155:../SEMS_Sources/Test.c **** 	optiga_lib_print_bytes((uint8_t *)&time_taken, 4);
 512              	 .loc 1 155 0
 513 003a 01A8     	 add r0,sp,#4
 514 003c 0421     	 movs r1,#4
 515 003e FFF7FEFF 	 bl optiga_lib_print_bytes
 516              	.LVL55:
 156:../SEMS_Sources/Test.c **** 
 157:../SEMS_Sources/Test.c **** 	/* n calls test */
 158:../SEMS_Sources/Test.c **** 	START_PERFORMANCE_MEASUREMENT(time_taken);
 517              	 .loc 1 158 0
 518 0042 01A8     	 add r0,sp,#4
 519 0044 0121     	 movs r1,#1
 520 0046 FFF7FEFF 	 bl example_performance_measurement
 521              	.LVL56:
 159:../SEMS_Sources/Test.c **** 	for(i = 0u; i < n; ++i)
 522              	 .loc 1 159 0
 523 004a 4DB1     	 cbz r5,.L43
 524              	.LVL57:
 525              	.L42:
 526              	 .loc 1 159 0 is_stmt 0 discriminator 3
 527 004c 0134     	 adds r4,r4,#1
 528              	.LVL58:
 160:../SEMS_Sources/Test.c **** 	{
 161:../SEMS_Sources/Test.c **** 		// Optiga operation here
 162:../SEMS_Sources/Test.c **** 		optiga_util_write_shared_key(OPTIGA_SESKEY_OID, key_written, sizeof(key_written));
 529              	 .loc 1 162 0 is_stmt 1 discriminator 3
 530 004e 4FF2D610 	 movw r0,#61910
 531 0052 02A9     	 add r1,sp,#8
 532 0054 2022     	 movs r2,#32
 159:../SEMS_Sources/Test.c **** 	for(i = 0u; i < n; ++i)
 533              	 .loc 1 159 0 discriminator 3
 534 0056 A4B2     	 uxth r4,r4
 535              	 .loc 1 162 0 discriminator 3
 536 0058 FFF7FEFF 	 bl optiga_util_write_shared_key
 537              	.LVL59:
 159:../SEMS_Sources/Test.c **** 	for(i = 0u; i < n; ++i)
 538              	 .loc 1 159 0 discriminator 3
 539 005c AC42     	 cmp r4,r5
 540 005e F5D1     	 bne .L42
 541              	.LVL60:
 542              	.L43:
 163:../SEMS_Sources/Test.c **** 	}
 164:../SEMS_Sources/Test.c **** 	READ_PERFORMANCE_MEASUREMENT(time_taken);
 543              	 .loc 1 164 0
 544 0060 01A8     	 add r0,sp,#4
 545 0062 0021     	 movs r1,#0
 546 0064 FFF7FEFF 	 bl example_performance_measurement
 547              	.LVL61:
 165:../SEMS_Sources/Test.c **** 
 166:../SEMS_Sources/Test.c **** 	n_times = time_taken;  // to watch in debugger
 548              	 .loc 1 166 0
 549 0068 054B     	 ldr r3,.L48+4
 550 006a 019A     	 ldr r2,[sp,#4]
 551 006c 1A60     	 str r2,[r3]
 167:../SEMS_Sources/Test.c **** 	optiga_lib_print_bytes((uint8_t *)&time_taken, 4);
 552              	 .loc 1 167 0
 553 006e 01A8     	 add r0,sp,#4
 554 0070 0421     	 movs r1,#4
 555 0072 FFF7FEFF 	 bl optiga_lib_print_bytes
 556              	.LVL62:
 168:../SEMS_Sources/Test.c **** 
 169:../SEMS_Sources/Test.c **** 	return time_taken;
 557              	 .loc 1 169 0
 558 0076 0198     	 ldr r0,[sp,#4]
 170:../SEMS_Sources/Test.c **** }
 559              	 .loc 1 170 0
 560 0078 0BB0     	 add sp,sp,#44
 561              	.LCFI14:
 562              	 .cfi_def_cfa_offset 12
 563              	 
 564 007a 30BD     	 pop {r4,r5,pc}
 565              	.L49:
 566              	 .align 2
 567              	.L48:
 568 007c 00000000 	 .word .LANCHOR0
 569 0080 00000000 	 .word .LANCHOR1
 570              	 .cfi_endproc
 571              	.LFE452:
 573              	 .section .text.test_time_random_generate,"ax",%progbits
 574              	 .align 2
 575              	 .global test_time_random_generate
 576              	 .thumb
 577              	 .thumb_func
 579              	test_time_random_generate:
 580              	.LFB453:
 171:../SEMS_Sources/Test.c **** 
 172:../SEMS_Sources/Test.c **** 
 173:../SEMS_Sources/Test.c **** 
 174:../SEMS_Sources/Test.c **** uint32_t test_time_random_generate(uint16_t n)
 175:../SEMS_Sources/Test.c **** {
 581              	 .loc 1 175 0
 582              	 .cfi_startproc
 583              	 
 584              	 
 585              	.LVL63:
 586 0000 30B5     	 push {r4,r5,lr}
 587              	.LCFI15:
 588              	 .cfi_def_cfa_offset 12
 589              	 .cfi_offset 4,-12
 590              	 .cfi_offset 5,-8
 591              	 .cfi_offset 14,-4
 592 0002 8BB0     	 sub sp,sp,#44
 593              	.LCFI16:
 594              	 .cfi_def_cfa_offset 56
 176:../SEMS_Sources/Test.c **** 	uint16_t i = 0;
 177:../SEMS_Sources/Test.c **** 	uint32_t time_taken;  // will be optimized out by compiler
 178:../SEMS_Sources/Test.c **** 	uint8_t buffer[32] = {0};
 595              	 .loc 1 178 0
 596 0004 0024     	 movs r4,#0
 175:../SEMS_Sources/Test.c **** 	uint16_t i = 0;
 597              	 .loc 1 175 0
 598 0006 0546     	 mov r5,r0
 179:../SEMS_Sources/Test.c **** 
 180:../SEMS_Sources/Test.c **** 	/* One call test */
 181:../SEMS_Sources/Test.c **** 	START_PERFORMANCE_MEASUREMENT(time_taken);
 599              	 .loc 1 181 0
 600 0008 0121     	 movs r1,#1
 601 000a 01A8     	 add r0,sp,#4
 602              	.LVL64:
 178:../SEMS_Sources/Test.c **** 
 603              	 .loc 1 178 0
 604 000c 0294     	 str r4,[sp,#8]
 605 000e 0394     	 str r4,[sp,#12]
 606 0010 0494     	 str r4,[sp,#16]
 607 0012 0594     	 str r4,[sp,#20]
 608 0014 0694     	 str r4,[sp,#24]
 609 0016 0794     	 str r4,[sp,#28]
 610 0018 0894     	 str r4,[sp,#32]
 611 001a 0994     	 str r4,[sp,#36]
 612              	 .loc 1 181 0
 613 001c FFF7FEFF 	 bl example_performance_measurement
 614              	.LVL65:
 182:../SEMS_Sources/Test.c **** 	optiga_crypt_random_wrapper(buffer, sizeof(buffer));
 615              	 .loc 1 182 0
 616 0020 02A8     	 add r0,sp,#8
 617 0022 2021     	 movs r1,#32
 618 0024 FFF7FEFF 	 bl optiga_crypt_random_wrapper
 619              	.LVL66:
 183:../SEMS_Sources/Test.c **** 	READ_PERFORMANCE_MEASUREMENT(time_taken);
 620              	 .loc 1 183 0
 621 0028 01A8     	 add r0,sp,#4
 622 002a 2146     	 mov r1,r4
 623 002c FFF7FEFF 	 bl example_performance_measurement
 624              	.LVL67:
 184:../SEMS_Sources/Test.c **** 
 185:../SEMS_Sources/Test.c **** 	one_time = time_taken;  // to watch in debugger
 625              	 .loc 1 185 0
 626 0030 104B     	 ldr r3,.L57
 627 0032 019A     	 ldr r2,[sp,#4]
 628 0034 1A60     	 str r2,[r3]
 186:../SEMS_Sources/Test.c **** 	optiga_lib_print_bytes((uint8_t *)&time_taken, 4);
 629              	 .loc 1 186 0
 630 0036 01A8     	 add r0,sp,#4
 631 0038 0421     	 movs r1,#4
 632 003a FFF7FEFF 	 bl optiga_lib_print_bytes
 633              	.LVL68:
 187:../SEMS_Sources/Test.c **** 
 188:../SEMS_Sources/Test.c **** 	/* n calls test */
 189:../SEMS_Sources/Test.c **** 	START_PERFORMANCE_MEASUREMENT(time_taken);
 634              	 .loc 1 189 0
 635 003e 01A8     	 add r0,sp,#4
 636 0040 0121     	 movs r1,#1
 637 0042 FFF7FEFF 	 bl example_performance_measurement
 638              	.LVL69:
 190:../SEMS_Sources/Test.c **** 	for(i = 0u; i < n; ++i)
 639              	 .loc 1 190 0
 640 0046 3DB1     	 cbz r5,.L52
 641              	.LVL70:
 642              	.L51:
 643              	 .loc 1 190 0 is_stmt 0 discriminator 3
 644 0048 0134     	 adds r4,r4,#1
 645              	.LVL71:
 191:../SEMS_Sources/Test.c **** 	{
 192:../SEMS_Sources/Test.c **** 		// Optiga operation here
 193:../SEMS_Sources/Test.c **** 		optiga_crypt_random_wrapper(buffer, sizeof(buffer));
 646              	 .loc 1 193 0 is_stmt 1 discriminator 3
 647 004a 02A8     	 add r0,sp,#8
 648 004c 2021     	 movs r1,#32
 190:../SEMS_Sources/Test.c **** 	for(i = 0u; i < n; ++i)
 649              	 .loc 1 190 0 discriminator 3
 650 004e A4B2     	 uxth r4,r4
 651              	 .loc 1 193 0 discriminator 3
 652 0050 FFF7FEFF 	 bl optiga_crypt_random_wrapper
 653              	.LVL72:
 190:../SEMS_Sources/Test.c **** 	for(i = 0u; i < n; ++i)
 654              	 .loc 1 190 0 discriminator 3
 655 0054 AC42     	 cmp r4,r5
 656 0056 F7D1     	 bne .L51
 657              	.LVL73:
 658              	.L52:
 194:../SEMS_Sources/Test.c **** 	}
 195:../SEMS_Sources/Test.c **** 	READ_PERFORMANCE_MEASUREMENT(time_taken);
 659              	 .loc 1 195 0
 660 0058 01A8     	 add r0,sp,#4
 661 005a 0021     	 movs r1,#0
 662 005c FFF7FEFF 	 bl example_performance_measurement
 663              	.LVL74:
 196:../SEMS_Sources/Test.c **** 
 197:../SEMS_Sources/Test.c **** 	n_times = time_taken;  // to watch in debugger
 664              	 .loc 1 197 0
 665 0060 054B     	 ldr r3,.L57+4
 666 0062 019A     	 ldr r2,[sp,#4]
 667 0064 1A60     	 str r2,[r3]
 198:../SEMS_Sources/Test.c **** 	optiga_lib_print_bytes((uint8_t *)&time_taken, 4);
 668              	 .loc 1 198 0
 669 0066 01A8     	 add r0,sp,#4
 670 0068 0421     	 movs r1,#4
 671 006a FFF7FEFF 	 bl optiga_lib_print_bytes
 672              	.LVL75:
 199:../SEMS_Sources/Test.c **** 
 200:../SEMS_Sources/Test.c **** 	return time_taken;
 673              	 .loc 1 200 0
 674 006e 0198     	 ldr r0,[sp,#4]
 201:../SEMS_Sources/Test.c **** }
 675              	 .loc 1 201 0
 676 0070 0BB0     	 add sp,sp,#44
 677              	.LCFI17:
 678              	 .cfi_def_cfa_offset 12
 679              	 
 680 0072 30BD     	 pop {r4,r5,pc}
 681              	.L58:
 682              	 .align 2
 683              	.L57:
 684 0074 00000000 	 .word .LANCHOR0
 685 0078 00000000 	 .word .LANCHOR1
 686              	 .cfi_endproc
 687              	.LFE453:
 689              	 .section .text.test_time_hash,"ax",%progbits
 690              	 .align 2
 691              	 .global test_time_hash
 692              	 .thumb
 693              	 .thumb_func
 695              	test_time_hash:
 696              	.LFB454:
 202:../SEMS_Sources/Test.c **** 
 203:../SEMS_Sources/Test.c **** 
 204:../SEMS_Sources/Test.c **** 
 205:../SEMS_Sources/Test.c **** uint32_t test_time_hash(uint16_t n)
 206:../SEMS_Sources/Test.c **** {
 697              	 .loc 1 206 0
 698              	 .cfi_startproc
 699              	 
 700              	 
 701              	.LVL76:
 702 0000 30B5     	 push {r4,r5,lr}
 703              	.LCFI18:
 704              	 .cfi_def_cfa_offset 12
 705              	 .cfi_offset 4,-12
 706              	 .cfi_offset 5,-8
 707              	 .cfi_offset 14,-4
 708 0002 93B0     	 sub sp,sp,#76
 709              	.LCFI19:
 710              	 .cfi_def_cfa_offset 88
 207:../SEMS_Sources/Test.c **** 	uint16_t i = 0;
 208:../SEMS_Sources/Test.c **** 	uint32_t time_taken;  // will be optimized out by compiler
 209:../SEMS_Sources/Test.c **** 	uint8_t buffer[32] = {0};
 711              	 .loc 1 209 0
 712 0004 0024     	 movs r4,#0
 206:../SEMS_Sources/Test.c **** 	uint16_t i = 0;
 713              	 .loc 1 206 0
 714 0006 0546     	 mov r5,r0
 210:../SEMS_Sources/Test.c **** 	uint8_t digest[32] = {0};
 211:../SEMS_Sources/Test.c **** 
 212:../SEMS_Sources/Test.c **** 	/* One call test */
 213:../SEMS_Sources/Test.c **** 	START_PERFORMANCE_MEASUREMENT(time_taken);
 715              	 .loc 1 213 0
 716 0008 0121     	 movs r1,#1
 717 000a 01A8     	 add r0,sp,#4
 718              	.LVL77:
 209:../SEMS_Sources/Test.c **** 	uint8_t digest[32] = {0};
 719              	 .loc 1 209 0
 720 000c 0294     	 str r4,[sp,#8]
 721 000e 0394     	 str r4,[sp,#12]
 722 0010 0494     	 str r4,[sp,#16]
 723 0012 0594     	 str r4,[sp,#20]
 724 0014 0694     	 str r4,[sp,#24]
 725 0016 0794     	 str r4,[sp,#28]
 726 0018 0894     	 str r4,[sp,#32]
 727 001a 0994     	 str r4,[sp,#36]
 210:../SEMS_Sources/Test.c **** 	uint8_t digest[32] = {0};
 728              	 .loc 1 210 0
 729 001c 0A94     	 str r4,[sp,#40]
 730 001e 0B94     	 str r4,[sp,#44]
 731 0020 0C94     	 str r4,[sp,#48]
 732 0022 0D94     	 str r4,[sp,#52]
 733 0024 0E94     	 str r4,[sp,#56]
 734 0026 0F94     	 str r4,[sp,#60]
 735 0028 1094     	 str r4,[sp,#64]
 736 002a 1194     	 str r4,[sp,#68]
 737              	 .loc 1 213 0
 738 002c FFF7FEFF 	 bl example_performance_measurement
 739              	.LVL78:
 214:../SEMS_Sources/Test.c **** 	optiga_crypt_hash_data_wrapper(buffer, sizeof(buffer), digest);
 740              	 .loc 1 214 0
 741 0030 0AAA     	 add r2,sp,#40
 742 0032 02A8     	 add r0,sp,#8
 743 0034 2021     	 movs r1,#32
 744 0036 FFF7FEFF 	 bl optiga_crypt_hash_data_wrapper
 745              	.LVL79:
 215:../SEMS_Sources/Test.c **** 	READ_PERFORMANCE_MEASUREMENT(time_taken);
 746              	 .loc 1 215 0
 747 003a 01A8     	 add r0,sp,#4
 748 003c 2146     	 mov r1,r4
 749 003e FFF7FEFF 	 bl example_performance_measurement
 750              	.LVL80:
 216:../SEMS_Sources/Test.c **** 
 217:../SEMS_Sources/Test.c **** 	one_time = time_taken;  // to watch in debugger
 751              	 .loc 1 217 0
 752 0042 114B     	 ldr r3,.L66
 753 0044 019A     	 ldr r2,[sp,#4]
 754 0046 1A60     	 str r2,[r3]
 218:../SEMS_Sources/Test.c **** 	optiga_lib_print_bytes((uint8_t *)&time_taken, 4);
 755              	 .loc 1 218 0
 756 0048 01A8     	 add r0,sp,#4
 757 004a 0421     	 movs r1,#4
 758 004c FFF7FEFF 	 bl optiga_lib_print_bytes
 759              	.LVL81:
 219:../SEMS_Sources/Test.c **** 
 220:../SEMS_Sources/Test.c **** 	/* n calls test */
 221:../SEMS_Sources/Test.c **** 	START_PERFORMANCE_MEASUREMENT(time_taken);
 760              	 .loc 1 221 0
 761 0050 01A8     	 add r0,sp,#4
 762 0052 0121     	 movs r1,#1
 763 0054 FFF7FEFF 	 bl example_performance_measurement
 764              	.LVL82:
 222:../SEMS_Sources/Test.c **** 	for(i = 0u; i < n; ++i)
 765              	 .loc 1 222 0
 766 0058 45B1     	 cbz r5,.L61
 767              	.LVL83:
 768              	.L60:
 769              	 .loc 1 222 0 is_stmt 0 discriminator 3
 770 005a 0134     	 adds r4,r4,#1
 771              	.LVL84:
 223:../SEMS_Sources/Test.c **** 	{
 224:../SEMS_Sources/Test.c **** 		// Optiga operation here
 225:../SEMS_Sources/Test.c **** 		optiga_crypt_hash_data_wrapper(buffer, sizeof(buffer), digest);
 772              	 .loc 1 225 0 is_stmt 1 discriminator 3
 773 005c 02A8     	 add r0,sp,#8
 774 005e 2021     	 movs r1,#32
 775 0060 0AAA     	 add r2,sp,#40
 222:../SEMS_Sources/Test.c **** 	for(i = 0u; i < n; ++i)
 776              	 .loc 1 222 0 discriminator 3
 777 0062 A4B2     	 uxth r4,r4
 778              	 .loc 1 225 0 discriminator 3
 779 0064 FFF7FEFF 	 bl optiga_crypt_hash_data_wrapper
 780              	.LVL85:
 222:../SEMS_Sources/Test.c **** 	for(i = 0u; i < n; ++i)
 781              	 .loc 1 222 0 discriminator 3
 782 0068 AC42     	 cmp r4,r5
 783 006a F6D1     	 bne .L60
 784              	.LVL86:
 785              	.L61:
 226:../SEMS_Sources/Test.c **** 	}
 227:../SEMS_Sources/Test.c **** 	READ_PERFORMANCE_MEASUREMENT(time_taken);
 786              	 .loc 1 227 0
 787 006c 01A8     	 add r0,sp,#4
 788 006e 0021     	 movs r1,#0
 789 0070 FFF7FEFF 	 bl example_performance_measurement
 790              	.LVL87:
 228:../SEMS_Sources/Test.c **** 
 229:../SEMS_Sources/Test.c **** 	n_times = time_taken;  // to watch in debugger
 791              	 .loc 1 229 0
 792 0074 054B     	 ldr r3,.L66+4
 793 0076 019A     	 ldr r2,[sp,#4]
 794 0078 1A60     	 str r2,[r3]
 230:../SEMS_Sources/Test.c **** 	optiga_lib_print_bytes((uint8_t *)&time_taken, 4);
 795              	 .loc 1 230 0
 796 007a 01A8     	 add r0,sp,#4
 797 007c 0421     	 movs r1,#4
 798 007e FFF7FEFF 	 bl optiga_lib_print_bytes
 799              	.LVL88:
 231:../SEMS_Sources/Test.c **** 
 232:../SEMS_Sources/Test.c **** 	return time_taken;
 800              	 .loc 1 232 0
 801 0082 0198     	 ldr r0,[sp,#4]
 233:../SEMS_Sources/Test.c **** }
 802              	 .loc 1 233 0
 803 0084 13B0     	 add sp,sp,#76
 804              	.LCFI20:
 805              	 .cfi_def_cfa_offset 12
 806              	 
 807 0086 30BD     	 pop {r4,r5,pc}
 808              	.L67:
 809              	 .align 2
 810              	.L66:
 811 0088 00000000 	 .word .LANCHOR0
 812 008c 00000000 	 .word .LANCHOR1
 813              	 .cfi_endproc
 814              	.LFE454:
 816              	 .section .text.test_time_stream_encrypt,"ax",%progbits
 817              	 .align 2
 818              	 .global test_time_stream_encrypt
 819              	 .thumb
 820              	 .thumb_func
 822              	test_time_stream_encrypt:
 823              	.LFB455:
 234:../SEMS_Sources/Test.c **** 
 235:../SEMS_Sources/Test.c **** 
 236:../SEMS_Sources/Test.c **** uint32_t test_time_stream_encrypt(uint16_t n)
 237:../SEMS_Sources/Test.c **** {
 824              	 .loc 1 237 0
 825              	 .cfi_startproc
 826              	 
 827              	 
 828              	.LVL89:
 829 0000 30B5     	 push {r4,r5,lr}
 830              	.LCFI21:
 831              	 .cfi_def_cfa_offset 12
 832              	 .cfi_offset 4,-12
 833              	 .cfi_offset 5,-8
 834              	 .cfi_offset 14,-4
 835 0002 93B0     	 sub sp,sp,#76
 836              	.LCFI22:
 837              	 .cfi_def_cfa_offset 88
 238:../SEMS_Sources/Test.c **** 	uint16_t i = 0;
 239:../SEMS_Sources/Test.c **** 	uint32_t time_taken;  // will be optimized out by compiler
 240:../SEMS_Sources/Test.c **** 	uint8_t buffer1[32] = {0};
 838              	 .loc 1 240 0
 839 0004 0024     	 movs r4,#0
 237:../SEMS_Sources/Test.c **** 	uint16_t i = 0;
 840              	 .loc 1 237 0
 841 0006 0546     	 mov r5,r0
 241:../SEMS_Sources/Test.c **** 	uint8_t buffer2[32] = {0};
 242:../SEMS_Sources/Test.c **** 
 243:../SEMS_Sources/Test.c **** 	/* One call test */
 244:../SEMS_Sources/Test.c **** 	START_PERFORMANCE_MEASUREMENT(time_taken);
 842              	 .loc 1 244 0
 843 0008 0121     	 movs r1,#1
 844 000a 01A8     	 add r0,sp,#4
 845              	.LVL90:
 240:../SEMS_Sources/Test.c **** 	uint8_t buffer2[32] = {0};
 846              	 .loc 1 240 0
 847 000c 0294     	 str r4,[sp,#8]
 848 000e 0394     	 str r4,[sp,#12]
 849 0010 0494     	 str r4,[sp,#16]
 850 0012 0594     	 str r4,[sp,#20]
 851 0014 0694     	 str r4,[sp,#24]
 852 0016 0794     	 str r4,[sp,#28]
 853 0018 0894     	 str r4,[sp,#32]
 854 001a 0994     	 str r4,[sp,#36]
 241:../SEMS_Sources/Test.c **** 	uint8_t buffer2[32] = {0};
 855              	 .loc 1 241 0
 856 001c 0A94     	 str r4,[sp,#40]
 857 001e 0B94     	 str r4,[sp,#44]
 858 0020 0C94     	 str r4,[sp,#48]
 859 0022 0D94     	 str r4,[sp,#52]
 860 0024 0E94     	 str r4,[sp,#56]
 861 0026 0F94     	 str r4,[sp,#60]
 862 0028 1094     	 str r4,[sp,#64]
 863 002a 1194     	 str r4,[sp,#68]
 864              	 .loc 1 244 0
 865 002c FFF7FEFF 	 bl example_performance_measurement
 866              	.LVL91:
 245:../SEMS_Sources/Test.c **** 	stream_enc(buffer1, buffer2, sizeof(buffer1));
 867              	 .loc 1 245 0
 868 0030 2022     	 movs r2,#32
 869 0032 02A8     	 add r0,sp,#8
 870 0034 0AA9     	 add r1,sp,#40
 871 0036 FFF7FEFF 	 bl stream_enc
 872              	.LVL92:
 246:../SEMS_Sources/Test.c **** 	READ_PERFORMANCE_MEASUREMENT(time_taken);
 873              	 .loc 1 246 0
 874 003a 01A8     	 add r0,sp,#4
 875 003c 2146     	 mov r1,r4
 876 003e FFF7FEFF 	 bl example_performance_measurement
 877              	.LVL93:
 247:../SEMS_Sources/Test.c **** 
 248:../SEMS_Sources/Test.c **** 	one_time = time_taken;  // to watch in debugger
 878              	 .loc 1 248 0
 879 0042 114B     	 ldr r3,.L75
 880 0044 019A     	 ldr r2,[sp,#4]
 881 0046 1A60     	 str r2,[r3]
 249:../SEMS_Sources/Test.c **** 	optiga_lib_print_bytes((uint8_t *)&time_taken, 4);
 882              	 .loc 1 249 0
 883 0048 01A8     	 add r0,sp,#4
 884 004a 0421     	 movs r1,#4
 885 004c FFF7FEFF 	 bl optiga_lib_print_bytes
 886              	.LVL94:
 250:../SEMS_Sources/Test.c **** 
 251:../SEMS_Sources/Test.c **** 	/* n calls test */
 252:../SEMS_Sources/Test.c **** 	START_PERFORMANCE_MEASUREMENT(time_taken);
 887              	 .loc 1 252 0
 888 0050 01A8     	 add r0,sp,#4
 889 0052 0121     	 movs r1,#1
 890 0054 FFF7FEFF 	 bl example_performance_measurement
 891              	.LVL95:
 253:../SEMS_Sources/Test.c **** 	for(i = 0u; i < n; ++i)
 892              	 .loc 1 253 0
 893 0058 45B1     	 cbz r5,.L70
 894              	.LVL96:
 895              	.L69:
 896              	 .loc 1 253 0 is_stmt 0 discriminator 3
 897 005a 0134     	 adds r4,r4,#1
 898              	.LVL97:
 254:../SEMS_Sources/Test.c **** 	{
 255:../SEMS_Sources/Test.c **** 		// Optiga operation here
 256:../SEMS_Sources/Test.c **** 		stream_enc(buffer1, buffer2, sizeof(buffer1));
 899              	 .loc 1 256 0 is_stmt 1 discriminator 3
 900 005c 02A8     	 add r0,sp,#8
 901 005e 0AA9     	 add r1,sp,#40
 902 0060 2022     	 movs r2,#32
 253:../SEMS_Sources/Test.c **** 	for(i = 0u; i < n; ++i)
 903              	 .loc 1 253 0 discriminator 3
 904 0062 A4B2     	 uxth r4,r4
 905              	 .loc 1 256 0 discriminator 3
 906 0064 FFF7FEFF 	 bl stream_enc
 907              	.LVL98:
 253:../SEMS_Sources/Test.c **** 	for(i = 0u; i < n; ++i)
 908              	 .loc 1 253 0 discriminator 3
 909 0068 AC42     	 cmp r4,r5
 910 006a F6D1     	 bne .L69
 911              	.LVL99:
 912              	.L70:
 257:../SEMS_Sources/Test.c **** 	}
 258:../SEMS_Sources/Test.c **** 	READ_PERFORMANCE_MEASUREMENT(time_taken);
 913              	 .loc 1 258 0
 914 006c 01A8     	 add r0,sp,#4
 915 006e 0021     	 movs r1,#0
 916 0070 FFF7FEFF 	 bl example_performance_measurement
 917              	.LVL100:
 259:../SEMS_Sources/Test.c **** 
 260:../SEMS_Sources/Test.c **** 	n_times = time_taken;  // to watch in debugger
 918              	 .loc 1 260 0
 919 0074 054B     	 ldr r3,.L75+4
 920 0076 019A     	 ldr r2,[sp,#4]
 921 0078 1A60     	 str r2,[r3]
 261:../SEMS_Sources/Test.c **** 	optiga_lib_print_bytes((uint8_t *)&time_taken, 4);
 922              	 .loc 1 261 0
 923 007a 01A8     	 add r0,sp,#4
 924 007c 0421     	 movs r1,#4
 925 007e FFF7FEFF 	 bl optiga_lib_print_bytes
 926              	.LVL101:
 262:../SEMS_Sources/Test.c **** 
 263:../SEMS_Sources/Test.c **** 	return time_taken;
 927              	 .loc 1 263 0
 928 0082 0198     	 ldr r0,[sp,#4]
 264:../SEMS_Sources/Test.c **** }
 929              	 .loc 1 264 0
 930 0084 13B0     	 add sp,sp,#76
 931              	.LCFI23:
 932              	 .cfi_def_cfa_offset 12
 933              	 
 934 0086 30BD     	 pop {r4,r5,pc}
 935              	.L76:
 936              	 .align 2
 937              	.L75:
 938 0088 00000000 	 .word .LANCHOR0
 939 008c 00000000 	 .word .LANCHOR1
 940              	 .cfi_endproc
 941              	.LFE455:
 943              	 .section .text.test_time_rsa_verify,"ax",%progbits
 944              	 .align 2
 945              	 .global test_time_rsa_verify
 946              	 .thumb
 947              	 .thumb_func
 949              	test_time_rsa_verify:
 950              	.LFB456:
 265:../SEMS_Sources/Test.c **** 
 266:../SEMS_Sources/Test.c **** 
 267:../SEMS_Sources/Test.c **** 
 268:../SEMS_Sources/Test.c **** uint32_t test_time_rsa_verify(uint16_t n)
 269:../SEMS_Sources/Test.c **** {
 951              	 .loc 1 269 0
 952              	 .cfi_startproc
 953              	 
 954              	 
 955              	.LVL102:
 956 0000 30B5     	 push {r4,r5,lr}
 957              	.LCFI24:
 958              	 .cfi_def_cfa_offset 12
 959              	 .cfi_offset 4,-12
 960              	 .cfi_offset 5,-8
 961              	 .cfi_offset 14,-4
 962 0002 BBB0     	 sub sp,sp,#236
 963              	.LCFI25:
 964              	 .cfi_def_cfa_offset 248
 965              	 .loc 1 269 0
 966 0004 0546     	 mov r5,r0
 270:../SEMS_Sources/Test.c **** 	uint16_t i = 0;
 271:../SEMS_Sources/Test.c **** 	uint32_t time_taken;  // will be optimized out by compiler
 272:../SEMS_Sources/Test.c **** 	uint8_t buffer1[100] = {0};
 967              	 .loc 1 272 0
 968 0006 0021     	 movs r1,#0
 969 0008 6422     	 movs r2,#100
 970 000a 01A8     	 add r0,sp,#4
 971              	.LVL103:
 972 000c FFF7FEFF 	 bl memset
 973              	.LVL104:
 273:../SEMS_Sources/Test.c **** 	uint8_t buffer2[128] = {0};
 974              	 .loc 1 273 0
 975 0010 8022     	 movs r2,#128
 976 0012 0021     	 movs r1,#0
 977 0014 1AA8     	 add r0,sp,#104
 978 0016 FFF7FEFF 	 bl memset
 979              	.LVL105:
 274:../SEMS_Sources/Test.c **** 
 275:../SEMS_Sources/Test.c **** 	/* One call test */
 276:../SEMS_Sources/Test.c **** 	START_PERFORMANCE_MEASUREMENT(time_taken);
 980              	 .loc 1 276 0
 981 001a 6846     	 mov r0,sp
 982 001c 0121     	 movs r1,#1
 983 001e FFF7FEFF 	 bl example_performance_measurement
 984              	.LVL106:
 277:../SEMS_Sources/Test.c **** 	optiga_crypt_rsa_verify_wrapper(buffer1, (uint8_t)sizeof(buffer1), buffer2, (uint16_t)sizeof(buffe
 985              	 .loc 1 277 0
 986 0022 1AAA     	 add r2,sp,#104
 987 0024 8023     	 movs r3,#128
 988 0026 6421     	 movs r1,#100
 989 0028 01A8     	 add r0,sp,#4
 990 002a FFF7FEFF 	 bl optiga_crypt_rsa_verify_wrapper
 991              	.LVL107:
 278:../SEMS_Sources/Test.c **** 	READ_PERFORMANCE_MEASUREMENT(time_taken);
 992              	 .loc 1 278 0
 993 002e 6846     	 mov r0,sp
 994 0030 0021     	 movs r1,#0
 995 0032 FFF7FEFF 	 bl example_performance_measurement
 996              	.LVL108:
 279:../SEMS_Sources/Test.c **** 
 280:../SEMS_Sources/Test.c **** 	one_time = time_taken;  // to watch in debugger
 997              	 .loc 1 280 0
 998 0036 124B     	 ldr r3,.L84
 999 0038 009A     	 ldr r2,[sp]
 1000 003a 1A60     	 str r2,[r3]
 281:../SEMS_Sources/Test.c **** 	optiga_lib_print_bytes((uint8_t *)&time_taken, 4);
 1001              	 .loc 1 281 0
 1002 003c 6846     	 mov r0,sp
 1003 003e 0421     	 movs r1,#4
 1004 0040 FFF7FEFF 	 bl optiga_lib_print_bytes
 1005              	.LVL109:
 282:../SEMS_Sources/Test.c **** 
 283:../SEMS_Sources/Test.c **** 	/* n calls test */
 284:../SEMS_Sources/Test.c **** 	START_PERFORMANCE_MEASUREMENT(time_taken);
 1006              	 .loc 1 284 0
 1007 0044 6846     	 mov r0,sp
 1008 0046 0121     	 movs r1,#1
 1009 0048 FFF7FEFF 	 bl example_performance_measurement
 1010              	.LVL110:
 285:../SEMS_Sources/Test.c **** 	for(i = 0u; i < n; ++i)
 1011              	 .loc 1 285 0
 1012 004c 55B1     	 cbz r5,.L79
 1013 004e 0024     	 movs r4,#0
 1014              	.LVL111:
 1015              	.L78:
 1016              	 .loc 1 285 0 is_stmt 0 discriminator 3
 1017 0050 0134     	 adds r4,r4,#1
 1018              	.LVL112:
 286:../SEMS_Sources/Test.c **** 	{
 287:../SEMS_Sources/Test.c **** 		// Optiga operation here
 288:../SEMS_Sources/Test.c **** 		optiga_crypt_rsa_verify_wrapper(buffer1, (uint8_t)sizeof(buffer1), buffer2, (uint16_t)sizeof(buff
 1019              	 .loc 1 288 0 is_stmt 1 discriminator 3
 1020 0052 01A8     	 add r0,sp,#4
 1021 0054 6421     	 movs r1,#100
 1022 0056 1AAA     	 add r2,sp,#104
 1023 0058 8023     	 movs r3,#128
 285:../SEMS_Sources/Test.c **** 	for(i = 0u; i < n; ++i)
 1024              	 .loc 1 285 0 discriminator 3
 1025 005a A4B2     	 uxth r4,r4
 1026              	 .loc 1 288 0 discriminator 3
 1027 005c FFF7FEFF 	 bl optiga_crypt_rsa_verify_wrapper
 1028              	.LVL113:
 285:../SEMS_Sources/Test.c **** 	for(i = 0u; i < n; ++i)
 1029              	 .loc 1 285 0 discriminator 3
 1030 0060 AC42     	 cmp r4,r5
 1031 0062 F5D1     	 bne .L78
 1032              	.LVL114:
 1033              	.L79:
 289:../SEMS_Sources/Test.c **** 	}
 290:../SEMS_Sources/Test.c **** 	READ_PERFORMANCE_MEASUREMENT(time_taken);
 1034              	 .loc 1 290 0
 1035 0064 6846     	 mov r0,sp
 1036 0066 0021     	 movs r1,#0
 1037 0068 FFF7FEFF 	 bl example_performance_measurement
 1038              	.LVL115:
 291:../SEMS_Sources/Test.c **** 
 292:../SEMS_Sources/Test.c **** 	n_times = time_taken;  // to watch in debugger
 1039              	 .loc 1 292 0
 1040 006c 054B     	 ldr r3,.L84+4
 1041 006e 009A     	 ldr r2,[sp]
 1042 0070 1A60     	 str r2,[r3]
 293:../SEMS_Sources/Test.c **** 	optiga_lib_print_bytes((uint8_t *)&time_taken, 4);
 1043              	 .loc 1 293 0
 1044 0072 6846     	 mov r0,sp
 1045 0074 0421     	 movs r1,#4
 1046 0076 FFF7FEFF 	 bl optiga_lib_print_bytes
 1047              	.LVL116:
 294:../SEMS_Sources/Test.c **** 
 295:../SEMS_Sources/Test.c **** 	return time_taken;
 1048              	 .loc 1 295 0
 1049 007a 0098     	 ldr r0,[sp]
 296:../SEMS_Sources/Test.c **** }
 1050              	 .loc 1 296 0
 1051 007c 3BB0     	 add sp,sp,#236
 1052              	.LCFI26:
 1053              	 .cfi_def_cfa_offset 12
 1054              	 
 1055 007e 30BD     	 pop {r4,r5,pc}
 1056              	.L85:
 1057              	 .align 2
 1058              	.L84:
 1059 0080 00000000 	 .word .LANCHOR0
 1060 0084 00000000 	 .word .LANCHOR1
 1061              	 .cfi_endproc
 1062              	.LFE456:
 1064              	 .section .text.test_time_rsa_encrypt,"ax",%progbits
 1065              	 .align 2
 1066              	 .global test_time_rsa_encrypt
 1067              	 .thumb
 1068              	 .thumb_func
 1070              	test_time_rsa_encrypt:
 1071              	.LFB457:
 297:../SEMS_Sources/Test.c **** 
 298:../SEMS_Sources/Test.c **** uint32_t test_time_rsa_encrypt(uint16_t n)
 299:../SEMS_Sources/Test.c **** {
 1072              	 .loc 1 299 0
 1073              	 .cfi_startproc
 1074              	 
 1075              	 
 1076              	.LVL117:
 1077 0000 70B5     	 push {r4,r5,r6,lr}
 1078              	.LCFI27:
 1079              	 .cfi_def_cfa_offset 16
 1080              	 .cfi_offset 4,-16
 1081              	 .cfi_offset 5,-12
 1082              	 .cfi_offset 6,-8
 1083              	 .cfi_offset 14,-4
 300:../SEMS_Sources/Test.c **** 	uint16_t i = 0;
 301:../SEMS_Sources/Test.c **** 	uint32_t time_taken;  // will be optimized out by compiler
 302:../SEMS_Sources/Test.c **** 	uint8_t buffer1[32] = {0};
 1084              	 .loc 1 302 0
 1085 0002 0024     	 movs r4,#0
 299:../SEMS_Sources/Test.c **** 	uint16_t i = 0;
 1086              	 .loc 1 299 0
 1087 0004 AAB0     	 sub sp,sp,#168
 1088              	.LCFI28:
 1089              	 .cfi_def_cfa_offset 184
 303:../SEMS_Sources/Test.c **** 	uint8_t buffer2[128] = {0};
 1090              	 .loc 1 303 0
 1091 0006 8026     	 movs r6,#128
 1092 0008 3246     	 mov r2,r6
 299:../SEMS_Sources/Test.c **** 	uint16_t i = 0;
 1093              	 .loc 1 299 0
 1094 000a 0546     	 mov r5,r0
 1095              	 .loc 1 303 0
 1096 000c 2146     	 mov r1,r4
 1097 000e 0AA8     	 add r0,sp,#40
 1098              	.LVL118:
 302:../SEMS_Sources/Test.c **** 	uint8_t buffer2[128] = {0};
 1099              	 .loc 1 302 0
 1100 0010 0294     	 str r4,[sp,#8]
 1101 0012 0394     	 str r4,[sp,#12]
 1102 0014 0494     	 str r4,[sp,#16]
 1103 0016 0594     	 str r4,[sp,#20]
 1104 0018 0694     	 str r4,[sp,#24]
 1105 001a 0794     	 str r4,[sp,#28]
 1106 001c 0894     	 str r4,[sp,#32]
 1107 001e 0994     	 str r4,[sp,#36]
 1108              	 .loc 1 303 0
 1109 0020 FFF7FEFF 	 bl memset
 1110              	.LVL119:
 304:../SEMS_Sources/Test.c **** 	uint16_t len = 128;
 305:../SEMS_Sources/Test.c **** 
 306:../SEMS_Sources/Test.c **** 	/* One call test */
 307:../SEMS_Sources/Test.c **** 	START_PERFORMANCE_MEASUREMENT(time_taken);
 1111              	 .loc 1 307 0
 1112 0024 01A8     	 add r0,sp,#4
 1113 0026 0121     	 movs r1,#1
 304:../SEMS_Sources/Test.c **** 	uint16_t len = 128;
 1114              	 .loc 1 304 0
 1115 0028 ADF80260 	 strh r6,[sp,#2]
 1116              	 .loc 1 307 0
 1117 002c FFF7FEFF 	 bl example_performance_measurement
 1118              	.LVL120:
 308:../SEMS_Sources/Test.c **** 	optiga_crypt_rsa_encrypt_message_wrapper(buffer1, sizeof(buffer1), buffer2, &len);
 1119              	 .loc 1 308 0
 1120 0030 0AAA     	 add r2,sp,#40
 1121 0032 0DF10203 	 add r3,sp,#2
 1122 0036 02A8     	 add r0,sp,#8
 1123 0038 2021     	 movs r1,#32
 1124 003a FFF7FEFF 	 bl optiga_crypt_rsa_encrypt_message_wrapper
 1125              	.LVL121:
 309:../SEMS_Sources/Test.c **** 	READ_PERFORMANCE_MEASUREMENT(time_taken);
 1126              	 .loc 1 309 0
 1127 003e 01A8     	 add r0,sp,#4
 1128 0040 2146     	 mov r1,r4
 1129 0042 FFF7FEFF 	 bl example_performance_measurement
 1130              	.LVL122:
 310:../SEMS_Sources/Test.c **** 
 311:../SEMS_Sources/Test.c **** 	one_time = time_taken;  // to watch in debugger
 1131              	 .loc 1 311 0
 1132 0046 124B     	 ldr r3,.L93
 1133 0048 019A     	 ldr r2,[sp,#4]
 1134 004a 1A60     	 str r2,[r3]
 312:../SEMS_Sources/Test.c **** 	optiga_lib_print_bytes((uint8_t *)&time_taken, 4);
 1135              	 .loc 1 312 0
 1136 004c 01A8     	 add r0,sp,#4
 1137 004e 0421     	 movs r1,#4
 1138 0050 FFF7FEFF 	 bl optiga_lib_print_bytes
 1139              	.LVL123:
 313:../SEMS_Sources/Test.c **** 
 314:../SEMS_Sources/Test.c **** 	/* n calls test */
 315:../SEMS_Sources/Test.c **** 	START_PERFORMANCE_MEASUREMENT(time_taken);
 1140              	 .loc 1 315 0
 1141 0054 01A8     	 add r0,sp,#4
 1142 0056 0121     	 movs r1,#1
 1143 0058 FFF7FEFF 	 bl example_performance_measurement
 1144              	.LVL124:
 316:../SEMS_Sources/Test.c **** 	for(i = 0u; i < n; ++i)
 1145              	 .loc 1 316 0
 1146 005c 55B1     	 cbz r5,.L88
 1147              	.LVL125:
 1148              	.L87:
 1149              	 .loc 1 316 0 is_stmt 0 discriminator 3
 1150 005e 0134     	 adds r4,r4,#1
 1151              	.LVL126:
 317:../SEMS_Sources/Test.c **** 	{
 318:../SEMS_Sources/Test.c **** 		// Optiga operation here
 319:../SEMS_Sources/Test.c **** 		optiga_crypt_rsa_encrypt_message_wrapper(buffer1, sizeof(buffer1), buffer2, &len);
 1152              	 .loc 1 319 0 is_stmt 1 discriminator 3
 1153 0060 02A8     	 add r0,sp,#8
 1154 0062 2021     	 movs r1,#32
 1155 0064 0AAA     	 add r2,sp,#40
 1156 0066 0DF10203 	 add r3,sp,#2
 316:../SEMS_Sources/Test.c **** 	for(i = 0u; i < n; ++i)
 1157              	 .loc 1 316 0 discriminator 3
 1158 006a A4B2     	 uxth r4,r4
 1159              	 .loc 1 319 0 discriminator 3
 1160 006c FFF7FEFF 	 bl optiga_crypt_rsa_encrypt_message_wrapper
 1161              	.LVL127:
 316:../SEMS_Sources/Test.c **** 	for(i = 0u; i < n; ++i)
 1162              	 .loc 1 316 0 discriminator 3
 1163 0070 AC42     	 cmp r4,r5
 1164 0072 F4D1     	 bne .L87
 1165              	.LVL128:
 1166              	.L88:
 320:../SEMS_Sources/Test.c **** 	}
 321:../SEMS_Sources/Test.c **** 	READ_PERFORMANCE_MEASUREMENT(time_taken);
 1167              	 .loc 1 321 0
 1168 0074 01A8     	 add r0,sp,#4
 1169 0076 0021     	 movs r1,#0
 1170 0078 FFF7FEFF 	 bl example_performance_measurement
 1171              	.LVL129:
 322:../SEMS_Sources/Test.c **** 
 323:../SEMS_Sources/Test.c **** 	n_times = time_taken;  // to watch in debugger
 1172              	 .loc 1 323 0
 1173 007c 054B     	 ldr r3,.L93+4
 1174 007e 019A     	 ldr r2,[sp,#4]
 1175 0080 1A60     	 str r2,[r3]
 324:../SEMS_Sources/Test.c **** 	optiga_lib_print_bytes((uint8_t *)&time_taken, 4);
 1176              	 .loc 1 324 0
 1177 0082 01A8     	 add r0,sp,#4
 1178 0084 0421     	 movs r1,#4
 1179 0086 FFF7FEFF 	 bl optiga_lib_print_bytes
 1180              	.LVL130:
 325:../SEMS_Sources/Test.c **** 
 326:../SEMS_Sources/Test.c **** 	return time_taken;
 1181              	 .loc 1 326 0
 1182 008a 0198     	 ldr r0,[sp,#4]
 327:../SEMS_Sources/Test.c **** }
 1183              	 .loc 1 327 0
 1184 008c 2AB0     	 add sp,sp,#168
 1185              	.LCFI29:
 1186              	 .cfi_def_cfa_offset 16
 1187              	 
 1188 008e 70BD     	 pop {r4,r5,r6,pc}
 1189              	.L94:
 1190              	 .align 2
 1191              	.L93:
 1192 0090 00000000 	 .word .LANCHOR0
 1193 0094 00000000 	 .word .LANCHOR1
 1194              	 .cfi_endproc
 1195              	.LFE457:
 1197              	 .section .text.test_time_read_nonce,"ax",%progbits
 1198              	 .align 2
 1199              	 .global test_time_read_nonce
 1200              	 .thumb
 1201              	 .thumb_func
 1203              	test_time_read_nonce:
 1204              	.LFB458:
 328:../SEMS_Sources/Test.c **** 
 329:../SEMS_Sources/Test.c **** 
 330:../SEMS_Sources/Test.c **** uint32_t test_time_read_nonce(uint16_t n)
 331:../SEMS_Sources/Test.c **** {
 1205              	 .loc 1 331 0
 1206              	 .cfi_startproc
 1207              	 
 1208              	 
 1209              	.LVL131:
 1210 0000 30B5     	 push {r4,r5,lr}
 1211              	.LCFI30:
 1212              	 .cfi_def_cfa_offset 12
 1213              	 .cfi_offset 4,-12
 1214              	 .cfi_offset 5,-8
 1215              	 .cfi_offset 14,-4
 1216 0002 83B0     	 sub sp,sp,#12
 1217              	.LCFI31:
 1218              	 .cfi_def_cfa_offset 24
 1219              	 .loc 1 331 0
 1220 0004 0546     	 mov r5,r0
 332:../SEMS_Sources/Test.c **** 	uint16_t i = 0;
 333:../SEMS_Sources/Test.c **** 	uint32_t time_taken;  // will be optimized out by compiler
 334:../SEMS_Sources/Test.c **** 	uint8_t buffer1[4] = {0};
 1221              	 .loc 1 334 0
 1222 0006 0024     	 movs r4,#0
 335:../SEMS_Sources/Test.c **** 
 336:../SEMS_Sources/Test.c **** 
 337:../SEMS_Sources/Test.c **** 	/* One call test */
 338:../SEMS_Sources/Test.c **** 	START_PERFORMANCE_MEASUREMENT(time_taken);
 1223              	 .loc 1 338 0
 1224 0008 6846     	 mov r0,sp
 1225              	.LVL132:
 1226 000a 0121     	 movs r1,#1
 334:../SEMS_Sources/Test.c **** 
 1227              	 .loc 1 334 0
 1228 000c 0194     	 str r4,[sp,#4]
 1229              	 .loc 1 338 0
 1230 000e FFF7FEFF 	 bl example_performance_measurement
 1231              	.LVL133:
 339:../SEMS_Sources/Test.c **** 	optiga_util_read_nonce(OPTIGA_NONCE_OID, buffer1, sizeof(buffer1));
 1232              	 .loc 1 339 0
 1233 0012 0422     	 movs r2,#4
 1234 0014 01A9     	 add r1,sp,#4
 1235 0016 4EF22010 	 movw r0,#57632
 1236 001a FFF7FEFF 	 bl optiga_util_read_nonce
 1237              	.LVL134:
 340:../SEMS_Sources/Test.c **** 	READ_PERFORMANCE_MEASUREMENT(time_taken);
 1238              	 .loc 1 340 0
 1239 001e 6846     	 mov r0,sp
 1240 0020 2146     	 mov r1,r4
 1241 0022 FFF7FEFF 	 bl example_performance_measurement
 1242              	.LVL135:
 341:../SEMS_Sources/Test.c **** 
 342:../SEMS_Sources/Test.c **** 	one_time = time_taken;  // to watch in debugger
 1243              	 .loc 1 342 0
 1244 0026 124B     	 ldr r3,.L102
 1245 0028 009A     	 ldr r2,[sp]
 1246 002a 1A60     	 str r2,[r3]
 343:../SEMS_Sources/Test.c **** 	optiga_lib_print_bytes((uint8_t *)&time_taken, 4);
 1247              	 .loc 1 343 0
 1248 002c 6846     	 mov r0,sp
 1249 002e 0421     	 movs r1,#4
 1250 0030 FFF7FEFF 	 bl optiga_lib_print_bytes
 1251              	.LVL136:
 344:../SEMS_Sources/Test.c **** 
 345:../SEMS_Sources/Test.c **** 	/* n calls test */
 346:../SEMS_Sources/Test.c **** 	START_PERFORMANCE_MEASUREMENT(time_taken);
 1252              	 .loc 1 346 0
 1253 0034 6846     	 mov r0,sp
 1254 0036 0121     	 movs r1,#1
 1255 0038 FFF7FEFF 	 bl example_performance_measurement
 1256              	.LVL137:
 347:../SEMS_Sources/Test.c **** 	for(i = 0u; i < n; ++i)
 1257              	 .loc 1 347 0
 1258 003c 4DB1     	 cbz r5,.L97
 1259              	.LVL138:
 1260              	.L96:
 1261              	 .loc 1 347 0 is_stmt 0 discriminator 3
 1262 003e 0134     	 adds r4,r4,#1
 1263              	.LVL139:
 348:../SEMS_Sources/Test.c **** 	{
 349:../SEMS_Sources/Test.c **** 		// Optiga operation here
 350:../SEMS_Sources/Test.c **** 		optiga_util_read_nonce(OPTIGA_NONCE_OID, buffer1, sizeof(buffer1));
 1264              	 .loc 1 350 0 is_stmt 1 discriminator 3
 1265 0040 4EF22010 	 movw r0,#57632
 1266 0044 01A9     	 add r1,sp,#4
 1267 0046 0422     	 movs r2,#4
 347:../SEMS_Sources/Test.c **** 	for(i = 0u; i < n; ++i)
 1268              	 .loc 1 347 0 discriminator 3
 1269 0048 A4B2     	 uxth r4,r4
 1270              	 .loc 1 350 0 discriminator 3
 1271 004a FFF7FEFF 	 bl optiga_util_read_nonce
 1272              	.LVL140:
 347:../SEMS_Sources/Test.c **** 	for(i = 0u; i < n; ++i)
 1273              	 .loc 1 347 0 discriminator 3
 1274 004e AC42     	 cmp r4,r5
 1275 0050 F5D1     	 bne .L96
 1276              	.LVL141:
 1277              	.L97:
 351:../SEMS_Sources/Test.c **** 	}
 352:../SEMS_Sources/Test.c **** 	READ_PERFORMANCE_MEASUREMENT(time_taken);
 1278              	 .loc 1 352 0
 1279 0052 6846     	 mov r0,sp
 1280 0054 0021     	 movs r1,#0
 1281 0056 FFF7FEFF 	 bl example_performance_measurement
 1282              	.LVL142:
 353:../SEMS_Sources/Test.c **** 
 354:../SEMS_Sources/Test.c **** 	n_times = time_taken;  // to watch in debugger
 1283              	 .loc 1 354 0
 1284 005a 064B     	 ldr r3,.L102+4
 1285 005c 009A     	 ldr r2,[sp]
 1286 005e 1A60     	 str r2,[r3]
 355:../SEMS_Sources/Test.c **** 	optiga_lib_print_bytes((uint8_t *)&time_taken, 4);
 1287              	 .loc 1 355 0
 1288 0060 6846     	 mov r0,sp
 1289 0062 0421     	 movs r1,#4
 1290 0064 FFF7FEFF 	 bl optiga_lib_print_bytes
 1291              	.LVL143:
 356:../SEMS_Sources/Test.c **** 
 357:../SEMS_Sources/Test.c **** 	return time_taken;
 1292              	 .loc 1 357 0
 1293 0068 0098     	 ldr r0,[sp]
 358:../SEMS_Sources/Test.c **** }
 1294              	 .loc 1 358 0
 1295 006a 03B0     	 add sp,sp,#12
 1296              	.LCFI32:
 1297              	 .cfi_def_cfa_offset 12
 1298              	 
 1299 006c 30BD     	 pop {r4,r5,pc}
 1300              	.L103:
 1301 006e 00BF     	 .align 2
 1302              	.L102:
 1303 0070 00000000 	 .word .LANCHOR0
 1304 0074 00000000 	 .word .LANCHOR1
 1305              	 .cfi_endproc
 1306              	.LFE458:
 1308              	 .section .text.test_time_update_nonce,"ax",%progbits
 1309              	 .align 2
 1310              	 .global test_time_update_nonce
 1311              	 .thumb
 1312              	 .thumb_func
 1314              	test_time_update_nonce:
 1315              	.LFB459:
 359:../SEMS_Sources/Test.c **** 
 360:../SEMS_Sources/Test.c **** 
 361:../SEMS_Sources/Test.c **** uint32_t test_time_update_nonce(uint16_t n)
 362:../SEMS_Sources/Test.c **** {
 1316              	 .loc 1 362 0
 1317              	 .cfi_startproc
 1318              	 
 1319              	 
 1320              	.LVL144:
 1321 0000 30B5     	 push {r4,r5,lr}
 1322              	.LCFI33:
 1323              	 .cfi_def_cfa_offset 12
 1324              	 .cfi_offset 4,-12
 1325              	 .cfi_offset 5,-8
 1326              	 .cfi_offset 14,-4
 1327 0002 83B0     	 sub sp,sp,#12
 1328              	.LCFI34:
 1329              	 .cfi_def_cfa_offset 24
 1330              	 .loc 1 362 0
 1331 0004 0546     	 mov r5,r0
 363:../SEMS_Sources/Test.c **** 	uint16_t i = 0;
 364:../SEMS_Sources/Test.c **** 	uint32_t time_taken;  // will be optimized out by compiler
 365:../SEMS_Sources/Test.c **** 
 366:../SEMS_Sources/Test.c **** 
 367:../SEMS_Sources/Test.c **** 	/* One call test */
 368:../SEMS_Sources/Test.c **** 	START_PERFORMANCE_MEASUREMENT(time_taken);
 1332              	 .loc 1 368 0
 1333 0006 0121     	 movs r1,#1
 1334 0008 01A8     	 add r0,sp,#4
 1335              	.LVL145:
 1336 000a FFF7FEFF 	 bl example_performance_measurement
 1337              	.LVL146:
 369:../SEMS_Sources/Test.c **** 	optiga_util_update_count_wrapper(OPTIGA_NONCE_OID, 1);
 1338              	 .loc 1 369 0
 1339 000e 4EF22010 	 movw r0,#57632
 1340 0012 0121     	 movs r1,#1
 1341 0014 FFF7FEFF 	 bl optiga_util_update_count_wrapper
 1342              	.LVL147:
 370:../SEMS_Sources/Test.c **** 	READ_PERFORMANCE_MEASUREMENT(time_taken);
 1343              	 .loc 1 370 0
 1344 0018 01A8     	 add r0,sp,#4
 1345 001a 0021     	 movs r1,#0
 1346 001c FFF7FEFF 	 bl example_performance_measurement
 1347              	.LVL148:
 371:../SEMS_Sources/Test.c **** 
 372:../SEMS_Sources/Test.c **** 	one_time = time_taken;  // to watch in debugger
 1348              	 .loc 1 372 0
 1349 0020 114B     	 ldr r3,.L111
 1350 0022 019A     	 ldr r2,[sp,#4]
 1351 0024 1A60     	 str r2,[r3]
 373:../SEMS_Sources/Test.c **** 	optiga_lib_print_bytes((uint8_t *)&time_taken, 4);
 1352              	 .loc 1 373 0
 1353 0026 01A8     	 add r0,sp,#4
 1354 0028 0421     	 movs r1,#4
 1355 002a FFF7FEFF 	 bl optiga_lib_print_bytes
 1356              	.LVL149:
 374:../SEMS_Sources/Test.c **** 
 375:../SEMS_Sources/Test.c **** 	/* n calls test */
 376:../SEMS_Sources/Test.c **** 	START_PERFORMANCE_MEASUREMENT(time_taken);
 1357              	 .loc 1 376 0
 1358 002e 01A8     	 add r0,sp,#4
 1359 0030 0121     	 movs r1,#1
 1360 0032 FFF7FEFF 	 bl example_performance_measurement
 1361              	.LVL150:
 377:../SEMS_Sources/Test.c **** 	for(i = 0u; i < n; ++i)
 1362              	 .loc 1 377 0
 1363 0036 4DB1     	 cbz r5,.L106
 1364 0038 0024     	 movs r4,#0
 1365              	.LVL151:
 1366              	.L105:
 1367              	 .loc 1 377 0 is_stmt 0 discriminator 3
 1368 003a 0134     	 adds r4,r4,#1
 1369              	.LVL152:
 378:../SEMS_Sources/Test.c **** 	{
 379:../SEMS_Sources/Test.c **** 		// Optiga operation here
 380:../SEMS_Sources/Test.c **** 		optiga_util_update_count_wrapper(OPTIGA_NONCE_OID, 1);
 1370              	 .loc 1 380 0 is_stmt 1 discriminator 3
 1371 003c 4EF22010 	 movw r0,#57632
 1372 0040 0121     	 movs r1,#1
 377:../SEMS_Sources/Test.c **** 	for(i = 0u; i < n; ++i)
 1373              	 .loc 1 377 0 discriminator 3
 1374 0042 A4B2     	 uxth r4,r4
 1375              	 .loc 1 380 0 discriminator 3
 1376 0044 FFF7FEFF 	 bl optiga_util_update_count_wrapper
 1377              	.LVL153:
 377:../SEMS_Sources/Test.c **** 	for(i = 0u; i < n; ++i)
 1378              	 .loc 1 377 0 discriminator 3
 1379 0048 AC42     	 cmp r4,r5
 1380 004a F6D1     	 bne .L105
 1381              	.LVL154:
 1382              	.L106:
 381:../SEMS_Sources/Test.c **** 	}
 382:../SEMS_Sources/Test.c **** 	READ_PERFORMANCE_MEASUREMENT(time_taken);
 1383              	 .loc 1 382 0
 1384 004c 01A8     	 add r0,sp,#4
 1385 004e 0021     	 movs r1,#0
 1386 0050 FFF7FEFF 	 bl example_performance_measurement
 1387              	.LVL155:
 383:../SEMS_Sources/Test.c **** 
 384:../SEMS_Sources/Test.c **** 	n_times = time_taken;  // to watch in debugger
 1388              	 .loc 1 384 0
 1389 0054 054B     	 ldr r3,.L111+4
 1390 0056 019A     	 ldr r2,[sp,#4]
 1391 0058 1A60     	 str r2,[r3]
 385:../SEMS_Sources/Test.c **** 	optiga_lib_print_bytes((uint8_t *)&time_taken, 4);
 1392              	 .loc 1 385 0
 1393 005a 01A8     	 add r0,sp,#4
 1394 005c 0421     	 movs r1,#4
 1395 005e FFF7FEFF 	 bl optiga_lib_print_bytes
 1396              	.LVL156:
 386:../SEMS_Sources/Test.c **** 
 387:../SEMS_Sources/Test.c **** 	return time_taken;
 1397              	 .loc 1 387 0
 1398 0062 0198     	 ldr r0,[sp,#4]
 388:../SEMS_Sources/Test.c **** }
 1399              	 .loc 1 388 0
 1400 0064 03B0     	 add sp,sp,#12
 1401              	.LCFI35:
 1402              	 .cfi_def_cfa_offset 12
 1403              	 
 1404 0066 30BD     	 pop {r4,r5,pc}
 1405              	.L112:
 1406              	 .align 2
 1407              	.L111:
 1408 0068 00000000 	 .word .LANCHOR0
 1409 006c 00000000 	 .word .LANCHOR1
 1410              	 .cfi_endproc
 1411              	.LFE459:
 1413              	 .section .text.test_time_init,"ax",%progbits
 1414              	 .align 2
 1415              	 .global test_time_init
 1416              	 .thumb
 1417              	 .thumb_func
 1419              	test_time_init:
 1420              	.LFB460:
 389:../SEMS_Sources/Test.c **** 
 390:../SEMS_Sources/Test.c **** 
 391:../SEMS_Sources/Test.c **** uint32_t test_time_init(uint16_t n)
 392:../SEMS_Sources/Test.c **** {
 1421              	 .loc 1 392 0
 1422              	 .cfi_startproc
 1423              	 
 1424              	 
 1425              	.LVL157:
 1426 0000 30B5     	 push {r4,r5,lr}
 1427              	.LCFI36:
 1428              	 .cfi_def_cfa_offset 12
 1429              	 .cfi_offset 4,-12
 1430              	 .cfi_offset 5,-8
 1431              	 .cfi_offset 14,-4
 1432 0002 83B0     	 sub sp,sp,#12
 1433              	.LCFI37:
 1434              	 .cfi_def_cfa_offset 24
 393:../SEMS_Sources/Test.c **** 	uint16_t i = 0;
 394:../SEMS_Sources/Test.c **** 	uint32_t time_taken;  // will be optimized out by compiler
 395:../SEMS_Sources/Test.c **** 
 396:../SEMS_Sources/Test.c **** 
 397:../SEMS_Sources/Test.c **** 	/* One call test */
 398:../SEMS_Sources/Test.c **** 	START_PERFORMANCE_MEASUREMENT(time_taken);
 1435              	 .loc 1 398 0
 1436 0004 0121     	 movs r1,#1
 392:../SEMS_Sources/Test.c **** 	uint16_t i = 0;
 1437              	 .loc 1 392 0
 1438 0006 0546     	 mov r5,r0
 1439              	 .loc 1 398 0
 1440 0008 01A8     	 add r0,sp,#4
 1441              	.LVL158:
 1442 000a FFF7FEFF 	 bl example_performance_measurement
 1443              	.LVL159:
 399:../SEMS_Sources/Test.c **** 	example_optiga_init_true();
 1444              	 .loc 1 399 0
 1445 000e FFF7FEFF 	 bl example_optiga_init_true
 1446              	.LVL160:
 400:../SEMS_Sources/Test.c **** 	READ_PERFORMANCE_MEASUREMENT(time_taken);
 1447              	 .loc 1 400 0
 1448 0012 01A8     	 add r0,sp,#4
 1449 0014 0021     	 movs r1,#0
 1450 0016 FFF7FEFF 	 bl example_performance_measurement
 1451              	.LVL161:
 401:../SEMS_Sources/Test.c **** 
 402:../SEMS_Sources/Test.c **** 	one_time = time_taken;  // to watch in debugger
 1452              	 .loc 1 402 0
 1453 001a 104B     	 ldr r3,.L120
 1454 001c 019A     	 ldr r2,[sp,#4]
 1455 001e 1A60     	 str r2,[r3]
 403:../SEMS_Sources/Test.c **** 	optiga_lib_print_bytes((uint8_t *)&time_taken, 4);
 1456              	 .loc 1 403 0
 1457 0020 01A8     	 add r0,sp,#4
 1458 0022 0421     	 movs r1,#4
 1459 0024 FFF7FEFF 	 bl optiga_lib_print_bytes
 1460              	.LVL162:
 404:../SEMS_Sources/Test.c **** 
 405:../SEMS_Sources/Test.c **** 	/* n calls test */
 406:../SEMS_Sources/Test.c **** 	START_PERFORMANCE_MEASUREMENT(time_taken);
 1461              	 .loc 1 406 0
 1462 0028 01A8     	 add r0,sp,#4
 1463 002a 0121     	 movs r1,#1
 1464 002c FFF7FEFF 	 bl example_performance_measurement
 1465              	.LVL163:
 407:../SEMS_Sources/Test.c **** 	for(i = 0u; i < n; ++i)
 1466              	 .loc 1 407 0
 1467 0030 35B1     	 cbz r5,.L115
 1468 0032 0024     	 movs r4,#0
 1469              	.LVL164:
 1470              	.L114:
 1471              	 .loc 1 407 0 is_stmt 0 discriminator 3
 1472 0034 0134     	 adds r4,r4,#1
 1473              	.LVL165:
 1474 0036 A4B2     	 uxth r4,r4
 408:../SEMS_Sources/Test.c **** 	{
 409:../SEMS_Sources/Test.c **** 		// Optiga operation here
 410:../SEMS_Sources/Test.c **** 		example_optiga_init_true();
 1475              	 .loc 1 410 0 is_stmt 1 discriminator 3
 1476 0038 FFF7FEFF 	 bl example_optiga_init_true
 1477              	.LVL166:
 407:../SEMS_Sources/Test.c **** 	for(i = 0u; i < n; ++i)
 1478              	 .loc 1 407 0 discriminator 3
 1479 003c AC42     	 cmp r4,r5
 1480 003e F9D1     	 bne .L114
 1481              	.LVL167:
 1482              	.L115:
 411:../SEMS_Sources/Test.c **** 	}
 412:../SEMS_Sources/Test.c **** 	READ_PERFORMANCE_MEASUREMENT(time_taken);
 1483              	 .loc 1 412 0
 1484 0040 01A8     	 add r0,sp,#4
 1485 0042 0021     	 movs r1,#0
 1486 0044 FFF7FEFF 	 bl example_performance_measurement
 1487              	.LVL168:
 413:../SEMS_Sources/Test.c **** 
 414:../SEMS_Sources/Test.c **** 	n_times = time_taken;  // to watch in debugger
 1488              	 .loc 1 414 0
 1489 0048 054B     	 ldr r3,.L120+4
 1490 004a 019A     	 ldr r2,[sp,#4]
 1491 004c 1A60     	 str r2,[r3]
 415:../SEMS_Sources/Test.c **** 	optiga_lib_print_bytes((uint8_t *)&time_taken, 4);
 1492              	 .loc 1 415 0
 1493 004e 01A8     	 add r0,sp,#4
 1494 0050 0421     	 movs r1,#4
 1495 0052 FFF7FEFF 	 bl optiga_lib_print_bytes
 1496              	.LVL169:
 416:../SEMS_Sources/Test.c **** 
 417:../SEMS_Sources/Test.c **** 	return time_taken;
 1497              	 .loc 1 417 0
 1498 0056 0198     	 ldr r0,[sp,#4]
 418:../SEMS_Sources/Test.c **** }
 1499              	 .loc 1 418 0
 1500 0058 03B0     	 add sp,sp,#12
 1501              	.LCFI38:
 1502              	 .cfi_def_cfa_offset 12
 1503              	 
 1504 005a 30BD     	 pop {r4,r5,pc}
 1505              	.L121:
 1506              	 .align 2
 1507              	.L120:
 1508 005c 00000000 	 .word .LANCHOR0
 1509 0060 00000000 	 .word .LANCHOR1
 1510              	 .cfi_endproc
 1511              	.LFE460:
 1513              	 .section .text.test_time,"ax",%progbits
 1514              	 .align 2
 1515              	 .global test_time
 1516              	 .thumb
 1517              	 .thumb_func
 1519              	test_time:
 1520              	.LFB461:
 419:../SEMS_Sources/Test.c **** 
 420:../SEMS_Sources/Test.c **** void test_time(void)
 421:../SEMS_Sources/Test.c **** {
 1521              	 .loc 1 421 0
 1522              	 .cfi_startproc
 1523              	 
 1524              	 
 1525              	.LVL170:
 1526 0000 30B5     	 push {r4,r5,lr}
 1527              	.LCFI39:
 1528              	 .cfi_def_cfa_offset 12
 1529              	 .cfi_offset 4,-12
 1530              	 .cfi_offset 5,-8
 1531              	 .cfi_offset 14,-4
 1532 0002 93B0     	 sub sp,sp,#76
 1533              	.LCFI40:
 1534              	 .cfi_def_cfa_offset 88
 1535              	.LBB4:
 1536              	.LBB5:
 209:../SEMS_Sources/Test.c **** 	uint8_t digest[32] = {0};
 1537              	 .loc 1 209 0
 1538 0004 0024     	 movs r4,#0
 213:../SEMS_Sources/Test.c **** 	optiga_crypt_hash_data_wrapper(buffer, sizeof(buffer), digest);
 1539              	 .loc 1 213 0
 1540 0006 01A8     	 add r0,sp,#4
 1541 0008 0121     	 movs r1,#1
 209:../SEMS_Sources/Test.c **** 	uint8_t digest[32] = {0};
 1542              	 .loc 1 209 0
 1543 000a 0294     	 str r4,[sp,#8]
 1544 000c 0394     	 str r4,[sp,#12]
 1545 000e 0494     	 str r4,[sp,#16]
 1546 0010 0594     	 str r4,[sp,#20]
 1547 0012 0694     	 str r4,[sp,#24]
 1548 0014 0794     	 str r4,[sp,#28]
 1549 0016 0894     	 str r4,[sp,#32]
 1550 0018 0994     	 str r4,[sp,#36]
 210:../SEMS_Sources/Test.c **** 
 1551              	 .loc 1 210 0
 1552 001a 0A94     	 str r4,[sp,#40]
 1553 001c 0B94     	 str r4,[sp,#44]
 1554 001e 0C94     	 str r4,[sp,#48]
 1555 0020 0D94     	 str r4,[sp,#52]
 1556 0022 0E94     	 str r4,[sp,#56]
 1557 0024 0F94     	 str r4,[sp,#60]
 1558 0026 1094     	 str r4,[sp,#64]
 1559 0028 1194     	 str r4,[sp,#68]
 213:../SEMS_Sources/Test.c **** 	optiga_crypt_hash_data_wrapper(buffer, sizeof(buffer), digest);
 1560              	 .loc 1 213 0
 1561 002a FFF7FEFF 	 bl example_performance_measurement
 1562              	.LVL171:
 214:../SEMS_Sources/Test.c **** 	READ_PERFORMANCE_MEASUREMENT(time_taken);
 1563              	 .loc 1 214 0
 1564 002e 0AAA     	 add r2,sp,#40
 1565 0030 02A8     	 add r0,sp,#8
 1566 0032 2021     	 movs r1,#32
 1567 0034 FFF7FEFF 	 bl optiga_crypt_hash_data_wrapper
 1568              	.LVL172:
 215:../SEMS_Sources/Test.c **** 
 1569              	 .loc 1 215 0
 1570 0038 2146     	 mov r1,r4
 1571 003a 01A8     	 add r0,sp,#4
 1572 003c FFF7FEFF 	 bl example_performance_measurement
 1573              	.LVL173:
 217:../SEMS_Sources/Test.c **** 	optiga_lib_print_bytes((uint8_t *)&time_taken, 4);
 1574              	 .loc 1 217 0
 1575 0040 114B     	 ldr r3,.L126
 1576 0042 019A     	 ldr r2,[sp,#4]
 1577 0044 1A60     	 str r2,[r3]
 218:../SEMS_Sources/Test.c **** 
 1578              	 .loc 1 218 0
 1579 0046 01A8     	 add r0,sp,#4
 1580 0048 0421     	 movs r1,#4
 1581 004a FFF7FEFF 	 bl optiga_lib_print_bytes
 1582              	.LVL174:
 221:../SEMS_Sources/Test.c **** 	for(i = 0u; i < n; ++i)
 1583              	 .loc 1 221 0
 1584 004e 01A8     	 add r0,sp,#4
 1585 0050 0121     	 movs r1,#1
 1586 0052 FFF7FEFF 	 bl example_performance_measurement
 1587              	.LVL175:
 1588 0056 42F21074 	 movw r4,#10000
 1589              	.LVL176:
 1590              	.L123:
 1591 005a 013C     	 subs r4,r4,#1
 225:../SEMS_Sources/Test.c **** 	}
 1592              	 .loc 1 225 0
 1593 005c 02A8     	 add r0,sp,#8
 1594 005e 2021     	 movs r1,#32
 1595 0060 0AAA     	 add r2,sp,#40
 1596 0062 A4B2     	 uxth r4,r4
 1597 0064 FFF7FEFF 	 bl optiga_crypt_hash_data_wrapper
 1598              	.LVL177:
 222:../SEMS_Sources/Test.c **** 	{
 1599              	 .loc 1 222 0
 1600 0068 002C     	 cmp r4,#0
 1601 006a F6D1     	 bne .L123
 227:../SEMS_Sources/Test.c **** 
 1602              	 .loc 1 227 0
 1603 006c 01A8     	 add r0,sp,#4
 1604 006e 2146     	 mov r1,r4
 229:../SEMS_Sources/Test.c **** 	optiga_lib_print_bytes((uint8_t *)&time_taken, 4);
 1605              	 .loc 1 229 0
 1606 0070 064D     	 ldr r5,.L126+4
 227:../SEMS_Sources/Test.c **** 
 1607              	 .loc 1 227 0
 1608 0072 FFF7FEFF 	 bl example_performance_measurement
 1609              	.LVL178:
 229:../SEMS_Sources/Test.c **** 	optiga_lib_print_bytes((uint8_t *)&time_taken, 4);
 1610              	 .loc 1 229 0
 1611 0076 019B     	 ldr r3,[sp,#4]
 1612 0078 2B60     	 str r3,[r5]
 230:../SEMS_Sources/Test.c **** 
 1613              	 .loc 1 230 0
 1614 007a 01A8     	 add r0,sp,#4
 1615 007c 0421     	 movs r1,#4
 1616 007e FFF7FEFF 	 bl optiga_lib_print_bytes
 1617              	.LVL179:
 1618              	.LBE5:
 1619              	.LBE4:
 422:../SEMS_Sources/Test.c **** //	test_time_write_read(1000);
 423:../SEMS_Sources/Test.c **** //	test_time_write_session_key(1000);
 424:../SEMS_Sources/Test.c **** //	test_time_random_generate(1000);
 425:../SEMS_Sources/Test.c **** 	test_time_hash(10000);
 426:../SEMS_Sources/Test.c **** //	test_time_stream_encrypt(2000);
 427:../SEMS_Sources/Test.c **** //	test_time_rsa_verify(1000);
 428:../SEMS_Sources/Test.c **** //	test_time_rsa_encrypt(1000);
 429:../SEMS_Sources/Test.c **** //	test_time_read_nonce(1000);
 430:../SEMS_Sources/Test.c **** //	test_time_update_nonce(1000);
 431:../SEMS_Sources/Test.c **** //	test_time_init(1000);
 432:../SEMS_Sources/Test.c **** 	n_times = 0;
 1620              	 .loc 1 432 0
 1621 0082 2C60     	 str r4,[r5]
 433:../SEMS_Sources/Test.c **** }
 1622              	 .loc 1 433 0
 1623 0084 13B0     	 add sp,sp,#76
 1624              	.LCFI41:
 1625              	 .cfi_def_cfa_offset 12
 1626              	 
 1627 0086 30BD     	 pop {r4,r5,pc}
 1628              	.L127:
 1629              	 .align 2
 1630              	.L126:
 1631 0088 00000000 	 .word .LANCHOR0
 1632 008c 00000000 	 .word .LANCHOR1
 1633              	 .cfi_endproc
 1634              	.LFE461:
 1636              	 .section .text.testing0,"ax",%progbits
 1637              	 .align 2
 1638              	 .global testing0
 1639              	 .thumb
 1640              	 .thumb_func
 1642              	testing0:
 1643              	.LFB462:
 434:../SEMS_Sources/Test.c **** 
 435:../SEMS_Sources/Test.c **** void testing0(void)
 436:../SEMS_Sources/Test.c **** {
 1644              	 .loc 1 436 0
 1645              	 .cfi_startproc
 1646              	 
 1647              	 
 1648              	.LVL180:
 1649 0000 00B5     	 push {lr}
 1650              	.LCFI42:
 1651              	 .cfi_def_cfa_offset 4
 1652              	 .cfi_offset 14,-4
 1653 0002 91B0     	 sub sp,sp,#68
 1654              	.LCFI43:
 1655              	 .cfi_def_cfa_offset 72
 437:../SEMS_Sources/Test.c **** 	uint16_t i = 0;
 438:../SEMS_Sources/Test.c **** 	uint8_t data_to_hash[32] = {0};
 1656              	 .loc 1 438 0
 1657 0004 0023     	 movs r3,#0
 1658 0006 6846     	 mov r0,sp
 1659 0008 0093     	 str r3,[sp]
 1660 000a 0193     	 str r3,[sp,#4]
 1661 000c 0293     	 str r3,[sp,#8]
 1662 000e 0393     	 str r3,[sp,#12]
 1663 0010 0493     	 str r3,[sp,#16]
 1664 0012 0593     	 str r3,[sp,#20]
 1665 0014 0693     	 str r3,[sp,#24]
 1666 0016 0793     	 str r3,[sp,#28]
 439:../SEMS_Sources/Test.c **** 	uint8_t digest[32] = {0};
 1667              	 .loc 1 439 0
 1668 0018 0893     	 str r3,[sp,#32]
 1669 001a 0993     	 str r3,[sp,#36]
 1670 001c 0A93     	 str r3,[sp,#40]
 1671 001e 0B93     	 str r3,[sp,#44]
 1672 0020 0C93     	 str r3,[sp,#48]
 1673 0022 0D93     	 str r3,[sp,#52]
 1674 0024 0E93     	 str r3,[sp,#56]
 1675 0026 0F93     	 str r3,[sp,#60]
 1676 0028 6A46     	 mov r2,sp
 1677 002a 08A9     	 add r1,sp,#32
 1678              	.LVL181:
 1679              	.L129:
 1680 002c 131A     	 subs r3,r2,r0
 440:../SEMS_Sources/Test.c **** 	uint8_t res;
 441:../SEMS_Sources/Test.c **** 	for(i = 0; i < sizeof(data_to_hash); ++i)
 442:../SEMS_Sources/Test.c **** 	{
 443:../SEMS_Sources/Test.c **** 		data_to_hash[i] = i;
 1681              	 .loc 1 443 0 discriminator 3
 1682 002e 02F8013B 	 strb r3,[r2],#1
 1683              	.LVL182:
 441:../SEMS_Sources/Test.c **** 	{
 1684              	 .loc 1 441 0 discriminator 3
 1685 0032 8A42     	 cmp r2,r1
 1686 0034 FAD1     	 bne .L129
 444:../SEMS_Sources/Test.c **** 	}
 445:../SEMS_Sources/Test.c **** 	optiga_crypt_hash_data_wrapper(data_to_hash, sizeof(data_to_hash), digest);
 1687              	 .loc 1 445 0
 1688 0036 2021     	 movs r1,#32
 1689 0038 FFF7FEFF 	 bl optiga_crypt_hash_data_wrapper
 1690              	.LVL183:
 446:../SEMS_Sources/Test.c **** 	res = digest[1];
 447:../SEMS_Sources/Test.c **** 	digest[1] = res;
 448:../SEMS_Sources/Test.c **** }
 1691              	 .loc 1 448 0
 1692 003c 11B0     	 add sp,sp,#68
 1693              	.LCFI44:
 1694              	 .cfi_def_cfa_offset 4
 1695              	 
 1696 003e 5DF804FB 	 ldr pc,[sp],#4
 1697              	 .cfi_endproc
 1698              	.LFE462:
 1700              	 .global n_times
 1701              	 .global one_time
 1702 0042 00BF     	 .section .bss.n_times,"aw",%nobits
 1703              	 .align 2
 1704              	 .set .LANCHOR1,.+0
 1707              	n_times:
 1708 0000 00000000 	 .space 4
 1709              	 .section .bss.one_time,"aw",%nobits
 1710              	 .align 2
 1711              	 .set .LANCHOR0,.+0
 1714              	one_time:
 1715 0000 00000000 	 .space 4
 1716              	 .text
 1717              	.Letext0:
 1718              	 .file 2 "c:\\infineon\\tools\\dave ide\\4.5.0.202105191637\\eclipse\\arm-gcc-49\\arm-none-eabi\\include\\machine\\_default_types.h"
 1719              	 .file 3 "c:\\infineon\\tools\\dave ide\\4.5.0.202105191637\\eclipse\\arm-gcc-49\\arm-none-eabi\\include\\stdint.h"
 1720              	 .file 4 "D:/School/diseratie/SEMS/xmc4800_evaluation_kit/xmc4800_iot_kit/common/Libraries/CMSIS/Infineon/XMC4800_series/Include/XMC4800.h"
 1721              	 .file 5 "D:/School/diseratie/SEMS/xmc4800_evaluation_kit/xmc4800_iot_kit/common/Libraries/XMCLib/inc/xmc_usic.h"
 1722              	 .file 6 "D:/School/diseratie/SEMS/xmc4800_evaluation_kit/xmc4800_iot_kit/common/Libraries/XMCLib/inc/xmc_usbd_regs.h"
 1723              	 .file 7 "D:/School/diseratie/SEMS/xmc4800_evaluation_kit/xmc4800_iot_kit/common/Libraries/XMCLib/inc/xmc_usbd.h"
 1724              	 .file 8 "D:/School/diseratie/SEMS/xmc4800_evaluation_kit/xmc4800_iot_kit/common/Dave/Generated/USBD/usbd.h"
 1725              	 .file 9 "D:/School/diseratie/SEMS/xmc4800_evaluation_kit/xmc4800_iot_kit/common/Libraries/CMSIS/Include/core_cm4.h"
 1726              	 .file 10 "D:/School/diseratie/SEMS/xmc4800_evaluation_kit/xmc4800_iot_kit/common/Libraries/CMSIS/Infineon/XMC4800_series/Include/system_XMC4800.h"
 1727              	 .file 11 "D:/School/diseratie/SEMS/xmc4800_evaluation_kit/xmc4800_iot_kit/common/Dave/Generated/USBD/usbd_extern.h"
 1728              	 .file 12 "../SEMS_Sources/../SEMS_Headers/Skey.h"
 1729              	 .file 13 "D:/School/diseratie/SEMS/xmc4800_evaluation_kit/optiga-trust-m/optiga/include/optiga/common/optiga_lib_logger.h"
 1730              	 .file 14 "D:/School/diseratie/SEMS/xmc4800_evaluation_kit/optiga-trust-m/examples/optiga/include/optiga_example.h"
 1731              	 .file 15 "../SEMS_Sources/../SEMS_Headers/Random.h"
 1732              	 .file 16 "../SEMS_Sources/../SEMS_Headers/Hash.h"
 1733              	 .file 17 "../SEMS_Sources/../SEMS_Headers/SymEncrypt.h"
 1734              	 .file 18 "../SEMS_Sources/../SEMS_Headers/RSA.h"
 1735              	 .file 19 "../SEMS_Sources/../SEMS_Headers/Nonce.h"
 1736              	 .file 20 "../SEMS_Sources/../SEMS_Headers/Util.h"
DEFINED SYMBOLS
                            *ABS*:00000000 Test.c
    {standard input}:20     .text.test_write_read:00000000 $t
    {standard input}:25     .text.test_write_read:00000000 test_write_read
    {standard input}:125    .text.test_time_write_read:00000000 $t
    {standard input}:130    .text.test_time_write_read:00000000 test_time_write_read
    {standard input}:333    .text.test_time_write_read:000000ec $d
    {standard input}:338    .text.test_time_read_session_key:00000000 $t
    {standard input}:343    .text.test_time_read_session_key:00000000 test_time_read_session_key
    {standard input}:450    .text.test_time_read_session_key:0000007c $d
    {standard input}:456    .text.test_time_write_session_key:00000000 $t
    {standard input}:461    .text.test_time_write_session_key:00000000 test_time_write_session_key
    {standard input}:568    .text.test_time_write_session_key:0000007c $d
    {standard input}:574    .text.test_time_random_generate:00000000 $t
    {standard input}:579    .text.test_time_random_generate:00000000 test_time_random_generate
    {standard input}:684    .text.test_time_random_generate:00000074 $d
    {standard input}:690    .text.test_time_hash:00000000 $t
    {standard input}:695    .text.test_time_hash:00000000 test_time_hash
    {standard input}:811    .text.test_time_hash:00000088 $d
    {standard input}:817    .text.test_time_stream_encrypt:00000000 $t
    {standard input}:822    .text.test_time_stream_encrypt:00000000 test_time_stream_encrypt
    {standard input}:938    .text.test_time_stream_encrypt:00000088 $d
    {standard input}:944    .text.test_time_rsa_verify:00000000 $t
    {standard input}:949    .text.test_time_rsa_verify:00000000 test_time_rsa_verify
    {standard input}:1059   .text.test_time_rsa_verify:00000080 $d
    {standard input}:1065   .text.test_time_rsa_encrypt:00000000 $t
    {standard input}:1070   .text.test_time_rsa_encrypt:00000000 test_time_rsa_encrypt
    {standard input}:1192   .text.test_time_rsa_encrypt:00000090 $d
    {standard input}:1198   .text.test_time_read_nonce:00000000 $t
    {standard input}:1203   .text.test_time_read_nonce:00000000 test_time_read_nonce
    {standard input}:1303   .text.test_time_read_nonce:00000070 $d
    {standard input}:1309   .text.test_time_update_nonce:00000000 $t
    {standard input}:1314   .text.test_time_update_nonce:00000000 test_time_update_nonce
    {standard input}:1408   .text.test_time_update_nonce:00000068 $d
    {standard input}:1414   .text.test_time_init:00000000 $t
    {standard input}:1419   .text.test_time_init:00000000 test_time_init
    {standard input}:1508   .text.test_time_init:0000005c $d
    {standard input}:1514   .text.test_time:00000000 $t
    {standard input}:1519   .text.test_time:00000000 test_time
    {standard input}:1631   .text.test_time:00000088 $d
    {standard input}:1637   .text.testing0:00000000 $t
    {standard input}:1642   .text.testing0:00000000 testing0
    {standard input}:1707   .bss.n_times:00000000 n_times
    {standard input}:1714   .bss.one_time:00000000 one_time
    {standard input}:1703   .bss.n_times:00000000 $d
    {standard input}:1710   .bss.one_time:00000000 $d
                     .debug_frame:00000010 $d

UNDEFINED SYMBOLS
optiga_util_write_shared_key
optiga_util_read_shared_key
optiga_lib_print_bytes
example_performance_measurement
optiga_crypt_random_wrapper
optiga_crypt_hash_data_wrapper
stream_enc
memset
optiga_crypt_rsa_verify_wrapper
optiga_crypt_rsa_encrypt_message_wrapper
optiga_util_read_nonce
optiga_util_update_count_wrapper
example_optiga_init_true
