   1              	 .syntax unified
   2              	 .cpu cortex-m4
   3              	 .eabi_attribute 27,3
   4              	 .fpu fpv4-sp-d16
   5              	 .eabi_attribute 20,1
   6              	 .eabi_attribute 21,1
   7              	 .eabi_attribute 23,3
   8              	 .eabi_attribute 24,1
   9              	 .eabi_attribute 25,1
  10              	 .eabi_attribute 26,1
  11              	 .eabi_attribute 30,2
  12              	 .eabi_attribute 34,1
  13              	 .eabi_attribute 18,4
  14              	 .thumb
  15              	 .file "ifx_i2c_data_link_layer.c"
  16              	 .text
  17              	.Ltext0:
  18              	 .cfi_sections .debug_frame
  19              	 .section .text.ifx_i2c_pl_event_handler,"ax",%progbits
  20              	 .align 2
  21              	 .thumb
  22              	 .thumb_func
  24              	ifx_i2c_pl_event_handler:
  25              	.LFB8:
  26              	 .file 1 "D:/School/diseratie/SEMS/xmc4800_evaluation_kit/optiga-trust-m/optiga/comms/ifx_i2c/ifx_i2c_data_link_layer.c"
   1:D:/School/diseratie/SEMS/xmc4800_evaluation_kit/optiga-trust-m/optiga/comms/ifx_i2c\ifx_i2c_data_link_layer.c **** /**
   2:D:/School/diseratie/SEMS/xmc4800_evaluation_kit/optiga-trust-m/optiga/comms/ifx_i2c\ifx_i2c_data_link_layer.c **** * \copyright
   3:D:/School/diseratie/SEMS/xmc4800_evaluation_kit/optiga-trust-m/optiga/comms/ifx_i2c\ifx_i2c_data_link_layer.c **** * MIT License
   4:D:/School/diseratie/SEMS/xmc4800_evaluation_kit/optiga-trust-m/optiga/comms/ifx_i2c\ifx_i2c_data_link_layer.c **** *
   5:D:/School/diseratie/SEMS/xmc4800_evaluation_kit/optiga-trust-m/optiga/comms/ifx_i2c\ifx_i2c_data_link_layer.c **** * Copyright (c) 2020 Infineon Technologies AG
   6:D:/School/diseratie/SEMS/xmc4800_evaluation_kit/optiga-trust-m/optiga/comms/ifx_i2c\ifx_i2c_data_link_layer.c **** *
   7:D:/School/diseratie/SEMS/xmc4800_evaluation_kit/optiga-trust-m/optiga/comms/ifx_i2c\ifx_i2c_data_link_layer.c **** * Permission is hereby granted, free of charge, to any person obtaining a copy
   8:D:/School/diseratie/SEMS/xmc4800_evaluation_kit/optiga-trust-m/optiga/comms/ifx_i2c\ifx_i2c_data_link_layer.c **** * of this software and associated documentation files (the "Software"), to deal
   9:D:/School/diseratie/SEMS/xmc4800_evaluation_kit/optiga-trust-m/optiga/comms/ifx_i2c\ifx_i2c_data_link_layer.c **** * in the Software without restriction, including without limitation the rights
  10:D:/School/diseratie/SEMS/xmc4800_evaluation_kit/optiga-trust-m/optiga/comms/ifx_i2c\ifx_i2c_data_link_layer.c **** * to use, copy, modify, merge, publish, distribute, sublicense, and/or sell
  11:D:/School/diseratie/SEMS/xmc4800_evaluation_kit/optiga-trust-m/optiga/comms/ifx_i2c\ifx_i2c_data_link_layer.c **** * copies of the Software, and to permit persons to whom the Software is
  12:D:/School/diseratie/SEMS/xmc4800_evaluation_kit/optiga-trust-m/optiga/comms/ifx_i2c\ifx_i2c_data_link_layer.c **** * furnished to do so, subject to the following conditions:
  13:D:/School/diseratie/SEMS/xmc4800_evaluation_kit/optiga-trust-m/optiga/comms/ifx_i2c\ifx_i2c_data_link_layer.c **** *
  14:D:/School/diseratie/SEMS/xmc4800_evaluation_kit/optiga-trust-m/optiga/comms/ifx_i2c\ifx_i2c_data_link_layer.c **** * The above copyright notice and this permission notice shall be included in all
  15:D:/School/diseratie/SEMS/xmc4800_evaluation_kit/optiga-trust-m/optiga/comms/ifx_i2c\ifx_i2c_data_link_layer.c **** * copies or substantial portions of the Software.
  16:D:/School/diseratie/SEMS/xmc4800_evaluation_kit/optiga-trust-m/optiga/comms/ifx_i2c\ifx_i2c_data_link_layer.c **** *
  17:D:/School/diseratie/SEMS/xmc4800_evaluation_kit/optiga-trust-m/optiga/comms/ifx_i2c\ifx_i2c_data_link_layer.c **** * THE SOFTWARE IS PROVIDED "AS IS", WITHOUT WARRANTY OF ANY KIND, EXPRESS OR
  18:D:/School/diseratie/SEMS/xmc4800_evaluation_kit/optiga-trust-m/optiga/comms/ifx_i2c\ifx_i2c_data_link_layer.c **** * IMPLIED, INCLUDING BUT NOT LIMITED TO THE WARRANTIES OF MERCHANTABILITY,
  19:D:/School/diseratie/SEMS/xmc4800_evaluation_kit/optiga-trust-m/optiga/comms/ifx_i2c\ifx_i2c_data_link_layer.c **** * FITNESS FOR A PARTICULAR PURPOSE AND NONINFRINGEMENT. IN NO EVENT SHALL THE
  20:D:/School/diseratie/SEMS/xmc4800_evaluation_kit/optiga-trust-m/optiga/comms/ifx_i2c\ifx_i2c_data_link_layer.c **** * AUTHORS OR COPYRIGHT HOLDERS BE LIABLE FOR ANY CLAIM, DAMAGES OR OTHER
  21:D:/School/diseratie/SEMS/xmc4800_evaluation_kit/optiga-trust-m/optiga/comms/ifx_i2c\ifx_i2c_data_link_layer.c **** * LIABILITY, WHETHER IN AN ACTION OF CONTRACT, TORT OR OTHERWISE, ARISING FROM,
  22:D:/School/diseratie/SEMS/xmc4800_evaluation_kit/optiga-trust-m/optiga/comms/ifx_i2c\ifx_i2c_data_link_layer.c **** * OUT OF OR IN CONNECTION WITH THE SOFTWARE OR THE USE OR OTHER DEALINGS IN THE
  23:D:/School/diseratie/SEMS/xmc4800_evaluation_kit/optiga-trust-m/optiga/comms/ifx_i2c\ifx_i2c_data_link_layer.c **** * SOFTWARE
  24:D:/School/diseratie/SEMS/xmc4800_evaluation_kit/optiga-trust-m/optiga/comms/ifx_i2c\ifx_i2c_data_link_layer.c **** *
  25:D:/School/diseratie/SEMS/xmc4800_evaluation_kit/optiga-trust-m/optiga/comms/ifx_i2c\ifx_i2c_data_link_layer.c **** * \endcopyright
  26:D:/School/diseratie/SEMS/xmc4800_evaluation_kit/optiga-trust-m/optiga/comms/ifx_i2c\ifx_i2c_data_link_layer.c **** *
  27:D:/School/diseratie/SEMS/xmc4800_evaluation_kit/optiga-trust-m/optiga/comms/ifx_i2c\ifx_i2c_data_link_layer.c **** * \author Infineon Technologies AG
  28:D:/School/diseratie/SEMS/xmc4800_evaluation_kit/optiga-trust-m/optiga/comms/ifx_i2c\ifx_i2c_data_link_layer.c **** *
  29:D:/School/diseratie/SEMS/xmc4800_evaluation_kit/optiga-trust-m/optiga/comms/ifx_i2c\ifx_i2c_data_link_layer.c **** * \file ifx_i2c_data_link_layer.c
  30:D:/School/diseratie/SEMS/xmc4800_evaluation_kit/optiga-trust-m/optiga/comms/ifx_i2c\ifx_i2c_data_link_layer.c **** *
  31:D:/School/diseratie/SEMS/xmc4800_evaluation_kit/optiga-trust-m/optiga/comms/ifx_i2c\ifx_i2c_data_link_layer.c **** * \brief   This file implements the APIs for data link layer of the Infineon I2C Protocol Stack lib
  32:D:/School/diseratie/SEMS/xmc4800_evaluation_kit/optiga-trust-m/optiga/comms/ifx_i2c\ifx_i2c_data_link_layer.c **** *
  33:D:/School/diseratie/SEMS/xmc4800_evaluation_kit/optiga-trust-m/optiga/comms/ifx_i2c\ifx_i2c_data_link_layer.c **** * \ingroup  grIFXI2C
  34:D:/School/diseratie/SEMS/xmc4800_evaluation_kit/optiga-trust-m/optiga/comms/ifx_i2c\ifx_i2c_data_link_layer.c **** *
  35:D:/School/diseratie/SEMS/xmc4800_evaluation_kit/optiga-trust-m/optiga/comms/ifx_i2c\ifx_i2c_data_link_layer.c **** * @{
  36:D:/School/diseratie/SEMS/xmc4800_evaluation_kit/optiga-trust-m/optiga/comms/ifx_i2c\ifx_i2c_data_link_layer.c **** */
  37:D:/School/diseratie/SEMS/xmc4800_evaluation_kit/optiga-trust-m/optiga/comms/ifx_i2c\ifx_i2c_data_link_layer.c **** 
  38:D:/School/diseratie/SEMS/xmc4800_evaluation_kit/optiga-trust-m/optiga/comms/ifx_i2c\ifx_i2c_data_link_layer.c **** #include "optiga/ifx_i2c/ifx_i2c_data_link_layer.h"
  39:D:/School/diseratie/SEMS/xmc4800_evaluation_kit/optiga-trust-m/optiga/comms/ifx_i2c\ifx_i2c_data_link_layer.c **** #include "optiga/ifx_i2c/ifx_i2c_physical_layer.h"
  40:D:/School/diseratie/SEMS/xmc4800_evaluation_kit/optiga-trust-m/optiga/comms/ifx_i2c\ifx_i2c_data_link_layer.c **** 
  41:D:/School/diseratie/SEMS/xmc4800_evaluation_kit/optiga-trust-m/optiga/comms/ifx_i2c\ifx_i2c_data_link_layer.c **** /// @cond hidden
  42:D:/School/diseratie/SEMS/xmc4800_evaluation_kit/optiga-trust-m/optiga/comms/ifx_i2c\ifx_i2c_data_link_layer.c **** 
  43:D:/School/diseratie/SEMS/xmc4800_evaluation_kit/optiga-trust-m/optiga/comms/ifx_i2c\ifx_i2c_data_link_layer.c **** // Data Link layer internal states
  44:D:/School/diseratie/SEMS/xmc4800_evaluation_kit/optiga-trust-m/optiga/comms/ifx_i2c\ifx_i2c_data_link_layer.c **** #define DL_STATE_UNINIT                 (0x00)
  45:D:/School/diseratie/SEMS/xmc4800_evaluation_kit/optiga-trust-m/optiga/comms/ifx_i2c\ifx_i2c_data_link_layer.c **** #define DL_STATE_IDLE                   (0x01)
  46:D:/School/diseratie/SEMS/xmc4800_evaluation_kit/optiga-trust-m/optiga/comms/ifx_i2c\ifx_i2c_data_link_layer.c **** #define DL_STATE_TX                     (0x02)
  47:D:/School/diseratie/SEMS/xmc4800_evaluation_kit/optiga-trust-m/optiga/comms/ifx_i2c\ifx_i2c_data_link_layer.c **** #define DL_STATE_RX                     (0x03)
  48:D:/School/diseratie/SEMS/xmc4800_evaluation_kit/optiga-trust-m/optiga/comms/ifx_i2c\ifx_i2c_data_link_layer.c **** #define DL_STATE_ACK                    (0x04)
  49:D:/School/diseratie/SEMS/xmc4800_evaluation_kit/optiga-trust-m/optiga/comms/ifx_i2c\ifx_i2c_data_link_layer.c **** #define DL_STATE_RESEND                 (0x05)
  50:D:/School/diseratie/SEMS/xmc4800_evaluation_kit/optiga-trust-m/optiga/comms/ifx_i2c\ifx_i2c_data_link_layer.c **** #define DL_STATE_NACK                   (0x06)
  51:D:/School/diseratie/SEMS/xmc4800_evaluation_kit/optiga-trust-m/optiga/comms/ifx_i2c\ifx_i2c_data_link_layer.c **** #define DL_STATE_ERROR                  (0x08)
  52:D:/School/diseratie/SEMS/xmc4800_evaluation_kit/optiga-trust-m/optiga/comms/ifx_i2c\ifx_i2c_data_link_layer.c **** #define DL_STATE_DISCARD                (0x09)
  53:D:/School/diseratie/SEMS/xmc4800_evaluation_kit/optiga-trust-m/optiga/comms/ifx_i2c\ifx_i2c_data_link_layer.c **** #define DL_STATE_RX_DF                  (0x0A)
  54:D:/School/diseratie/SEMS/xmc4800_evaluation_kit/optiga-trust-m/optiga/comms/ifx_i2c\ifx_i2c_data_link_layer.c **** #define DL_STATE_RX_CF                  (0x0B)
  55:D:/School/diseratie/SEMS/xmc4800_evaluation_kit/optiga-trust-m/optiga/comms/ifx_i2c\ifx_i2c_data_link_layer.c **** 
  56:D:/School/diseratie/SEMS/xmc4800_evaluation_kit/optiga-trust-m/optiga/comms/ifx_i2c\ifx_i2c_data_link_layer.c **** // Data Link Layer Frame Control Constants
  57:D:/School/diseratie/SEMS/xmc4800_evaluation_kit/optiga-trust-m/optiga/comms/ifx_i2c\ifx_i2c_data_link_layer.c **** #define DL_FCTR_FTYPE_MASK              (0x80)
  58:D:/School/diseratie/SEMS/xmc4800_evaluation_kit/optiga-trust-m/optiga/comms/ifx_i2c\ifx_i2c_data_link_layer.c **** #define DL_FCTR_FTYPE_OFFSET            (7U)
  59:D:/School/diseratie/SEMS/xmc4800_evaluation_kit/optiga-trust-m/optiga/comms/ifx_i2c\ifx_i2c_data_link_layer.c **** #define DL_FCTR_VALUE_CONTROL_FRAME     (0x01)
  60:D:/School/diseratie/SEMS/xmc4800_evaluation_kit/optiga-trust-m/optiga/comms/ifx_i2c\ifx_i2c_data_link_layer.c **** 
  61:D:/School/diseratie/SEMS/xmc4800_evaluation_kit/optiga-trust-m/optiga/comms/ifx_i2c\ifx_i2c_data_link_layer.c **** #define DL_FCTR_SEQCTR_MASK             (0x60)
  62:D:/School/diseratie/SEMS/xmc4800_evaluation_kit/optiga-trust-m/optiga/comms/ifx_i2c\ifx_i2c_data_link_layer.c **** #define DL_FCTR_SEQCTR_OFFSET           (5U)
  63:D:/School/diseratie/SEMS/xmc4800_evaluation_kit/optiga-trust-m/optiga/comms/ifx_i2c\ifx_i2c_data_link_layer.c **** #define DL_FCTR_SEQCTR_VALUE_ACK        (0x00)
  64:D:/School/diseratie/SEMS/xmc4800_evaluation_kit/optiga-trust-m/optiga/comms/ifx_i2c\ifx_i2c_data_link_layer.c **** #define DL_FCTR_SEQCTR_VALUE_NACK       (0x01)
  65:D:/School/diseratie/SEMS/xmc4800_evaluation_kit/optiga-trust-m/optiga/comms/ifx_i2c\ifx_i2c_data_link_layer.c **** #define DL_FCTR_SEQCTR_VALUE_RESYNC     (0x02)
  66:D:/School/diseratie/SEMS/xmc4800_evaluation_kit/optiga-trust-m/optiga/comms/ifx_i2c\ifx_i2c_data_link_layer.c **** #define DL_FCTR_SEQCTR_VALUE_RFU        (0x03)
  67:D:/School/diseratie/SEMS/xmc4800_evaluation_kit/optiga-trust-m/optiga/comms/ifx_i2c\ifx_i2c_data_link_layer.c **** 
  68:D:/School/diseratie/SEMS/xmc4800_evaluation_kit/optiga-trust-m/optiga/comms/ifx_i2c\ifx_i2c_data_link_layer.c **** #define DL_FCTR_FRNR_MASK               (0x0C)
  69:D:/School/diseratie/SEMS/xmc4800_evaluation_kit/optiga-trust-m/optiga/comms/ifx_i2c\ifx_i2c_data_link_layer.c **** #define DL_FCTR_FRNR_OFFSET             (2U)
  70:D:/School/diseratie/SEMS/xmc4800_evaluation_kit/optiga-trust-m/optiga/comms/ifx_i2c\ifx_i2c_data_link_layer.c **** 
  71:D:/School/diseratie/SEMS/xmc4800_evaluation_kit/optiga-trust-m/optiga/comms/ifx_i2c\ifx_i2c_data_link_layer.c **** #define DL_FCTR_ACKNR_MASK              (0x03)
  72:D:/School/diseratie/SEMS/xmc4800_evaluation_kit/optiga-trust-m/optiga/comms/ifx_i2c\ifx_i2c_data_link_layer.c **** #define DL_FCTR_ACKNR_OFFSET            (0U)
  73:D:/School/diseratie/SEMS/xmc4800_evaluation_kit/optiga-trust-m/optiga/comms/ifx_i2c\ifx_i2c_data_link_layer.c **** 
  74:D:/School/diseratie/SEMS/xmc4800_evaluation_kit/optiga-trust-m/optiga/comms/ifx_i2c\ifx_i2c_data_link_layer.c **** // Data Link Layer frame counter max value
  75:D:/School/diseratie/SEMS/xmc4800_evaluation_kit/optiga-trust-m/optiga/comms/ifx_i2c\ifx_i2c_data_link_layer.c **** #define DL_MAX_FRAME_NUM                (0x03)
  76:D:/School/diseratie/SEMS/xmc4800_evaluation_kit/optiga-trust-m/optiga/comms/ifx_i2c\ifx_i2c_data_link_layer.c **** 
  77:D:/School/diseratie/SEMS/xmc4800_evaluation_kit/optiga-trust-m/optiga/comms/ifx_i2c\ifx_i2c_data_link_layer.c **** // Data link layer length
  78:D:/School/diseratie/SEMS/xmc4800_evaluation_kit/optiga-trust-m/optiga/comms/ifx_i2c\ifx_i2c_data_link_layer.c **** #define DL_CONTROL_FRAME_LENGTH         (5U)
  79:D:/School/diseratie/SEMS/xmc4800_evaluation_kit/optiga-trust-m/optiga/comms/ifx_i2c\ifx_i2c_data_link_layer.c **** 
  80:D:/School/diseratie/SEMS/xmc4800_evaluation_kit/optiga-trust-m/optiga/comms/ifx_i2c\ifx_i2c_data_link_layer.c **** // Seconds to milliseconds
  81:D:/School/diseratie/SEMS/xmc4800_evaluation_kit/optiga-trust-m/optiga/comms/ifx_i2c\ifx_i2c_data_link_layer.c **** #define DL_SEC_TO_MSECS                 (1000U)
  82:D:/School/diseratie/SEMS/xmc4800_evaluation_kit/optiga-trust-m/optiga/comms/ifx_i2c\ifx_i2c_data_link_layer.c **** 
  83:D:/School/diseratie/SEMS/xmc4800_evaluation_kit/optiga-trust-m/optiga/comms/ifx_i2c\ifx_i2c_data_link_layer.c **** #if defined (OPTIGA_LIB_ENABLE_LOGGING) && defined (OPTIGA_LIB_ENABLE_COMMS_LOGGING)
  84:D:/School/diseratie/SEMS/xmc4800_evaluation_kit/optiga-trust-m/optiga/comms/ifx_i2c\ifx_i2c_data_link_layer.c **** 
  85:D:/School/diseratie/SEMS/xmc4800_evaluation_kit/optiga-trust-m/optiga/comms/ifx_i2c\ifx_i2c_data_link_layer.c **** // Logs the message provided from OPTIGA Comms layer
  86:D:/School/diseratie/SEMS/xmc4800_evaluation_kit/optiga-trust-m/optiga/comms/ifx_i2c\ifx_i2c_data_link_layer.c **** #define OPTIGA_COMMS_LOG_MESSAGE(msg) \
  87:D:/School/diseratie/SEMS/xmc4800_evaluation_kit/optiga-trust-m/optiga/comms/ifx_i2c\ifx_i2c_data_link_layer.c **** {\
  88:D:/School/diseratie/SEMS/xmc4800_evaluation_kit/optiga-trust-m/optiga/comms/ifx_i2c\ifx_i2c_data_link_layer.c ****     optiga_lib_print_message(msg,OPTIGA_COMMUNICATION_LAYER,OPTIGA_COMMUNICATION_LAYER_COLOR);\
  89:D:/School/diseratie/SEMS/xmc4800_evaluation_kit/optiga-trust-m/optiga/comms/ifx_i2c\ifx_i2c_data_link_layer.c **** }
  90:D:/School/diseratie/SEMS/xmc4800_evaluation_kit/optiga-trust-m/optiga/comms/ifx_i2c\ifx_i2c_data_link_layer.c **** 
  91:D:/School/diseratie/SEMS/xmc4800_evaluation_kit/optiga-trust-m/optiga/comms/ifx_i2c\ifx_i2c_data_link_layer.c **** // Logs the status info provided from OPTIGA Comms layer
  92:D:/School/diseratie/SEMS/xmc4800_evaluation_kit/optiga-trust-m/optiga/comms/ifx_i2c\ifx_i2c_data_link_layer.c **** //lint --e{750} suppress "The unused OPTIGA_COMMS_LOG_STATUS macro is kept for future enhancements"
  93:D:/School/diseratie/SEMS/xmc4800_evaluation_kit/optiga-trust-m/optiga/comms/ifx_i2c\ifx_i2c_data_link_layer.c **** #define OPTIGA_COMMS_LOG_STATUS(return_value)                                 \
  94:D:/School/diseratie/SEMS/xmc4800_evaluation_kit/optiga-trust-m/optiga/comms/ifx_i2c\ifx_i2c_data_link_layer.c **** {                                                       \
  95:D:/School/diseratie/SEMS/xmc4800_evaluation_kit/optiga-trust-m/optiga/comms/ifx_i2c\ifx_i2c_data_link_layer.c ****     if (OPTIGA_LIB_SUCCESS != return_value)                                 \
  96:D:/School/diseratie/SEMS/xmc4800_evaluation_kit/optiga-trust-m/optiga/comms/ifx_i2c\ifx_i2c_data_link_layer.c ****     {                                                     \
  97:D:/School/diseratie/SEMS/xmc4800_evaluation_kit/optiga-trust-m/optiga/comms/ifx_i2c\ifx_i2c_data_link_layer.c ****         optiga_lib_print_status(OPTIGA_COMMUNICATION_LAYER,OPTIGA_ERROR_COLOR,return_value);       
  98:D:/School/diseratie/SEMS/xmc4800_evaluation_kit/optiga-trust-m/optiga/comms/ifx_i2c\ifx_i2c_data_link_layer.c ****     }                                                     \
  99:D:/School/diseratie/SEMS/xmc4800_evaluation_kit/optiga-trust-m/optiga/comms/ifx_i2c\ifx_i2c_data_link_layer.c ****     else                                                  \
 100:D:/School/diseratie/SEMS/xmc4800_evaluation_kit/optiga-trust-m/optiga/comms/ifx_i2c\ifx_i2c_data_link_layer.c ****     {                                                     \
 101:D:/School/diseratie/SEMS/xmc4800_evaluation_kit/optiga-trust-m/optiga/comms/ifx_i2c\ifx_i2c_data_link_layer.c ****         optiga_lib_print_status(OPTIGA_COMMUNICATION_LAYER,OPTIGA_COMMUNICATION_LAYER_COLOR,return_
 102:D:/School/diseratie/SEMS/xmc4800_evaluation_kit/optiga-trust-m/optiga/comms/ifx_i2c\ifx_i2c_data_link_layer.c ****     }                                                     \
 103:D:/School/diseratie/SEMS/xmc4800_evaluation_kit/optiga-trust-m/optiga/comms/ifx_i2c\ifx_i2c_data_link_layer.c **** }
 104:D:/School/diseratie/SEMS/xmc4800_evaluation_kit/optiga-trust-m/optiga/comms/ifx_i2c\ifx_i2c_data_link_layer.c **** 
 105:D:/School/diseratie/SEMS/xmc4800_evaluation_kit/optiga-trust-m/optiga/comms/ifx_i2c\ifx_i2c_data_link_layer.c **** #ifdef OPTIGA_COMMS_SHIELDED_CONNECTION
 106:D:/School/diseratie/SEMS/xmc4800_evaluation_kit/optiga-trust-m/optiga/comms/ifx_i2c\ifx_i2c_data_link_layer.c **** 
 107:D:/School/diseratie/SEMS/xmc4800_evaluation_kit/optiga-trust-m/optiga/comms/ifx_i2c\ifx_i2c_data_link_layer.c **** // Logs the transmitted data to OPTIGA from IFXI2C layer in hexadecimal format
 108:D:/School/diseratie/SEMS/xmc4800_evaluation_kit/optiga-trust-m/optiga/comms/ifx_i2c\ifx_i2c_data_link_layer.c **** #define OPTIGA_IFXI2C_LOG_TRANSMIT_HEX_DATA(array,array_len,p_ifx_i2c_ctx)              \
 109:D:/School/diseratie/SEMS/xmc4800_evaluation_kit/optiga-trust-m/optiga/comms/ifx_i2c\ifx_i2c_data_link_layer.c **** {                                                 \
 110:D:/School/diseratie/SEMS/xmc4800_evaluation_kit/optiga-trust-m/optiga/comms/ifx_i2c\ifx_i2c_data_link_layer.c ****   if (0 != frame_len)                                       \
 111:D:/School/diseratie/SEMS/xmc4800_evaluation_kit/optiga-trust-m/optiga/comms/ifx_i2c\ifx_i2c_data_link_layer.c ****   {                                               \
 112:D:/School/diseratie/SEMS/xmc4800_evaluation_kit/optiga-trust-m/optiga/comms/ifx_i2c\ifx_i2c_data_link_layer.c ****     if (((((ifx_i2c_context_t * )p_ifx_i2c_ctx)->protection_level & 0x0F) == 0x01) ||       \
 113:D:/School/diseratie/SEMS/xmc4800_evaluation_kit/optiga-trust-m/optiga/comms/ifx_i2c\ifx_i2c_data_link_layer.c ****       ((((ifx_i2c_context_t * )p_ifx_i2c_ctx)->protection_level & 0x0F) == 0x03))       \
 114:D:/School/diseratie/SEMS/xmc4800_evaluation_kit/optiga-trust-m/optiga/comms/ifx_i2c\ifx_i2c_data_link_layer.c ****       {                                             \
 115:D:/School/diseratie/SEMS/xmc4800_evaluation_kit/optiga-trust-m/optiga/comms/ifx_i2c\ifx_i2c_data_link_layer.c ****         optiga_lib_print_array_hex_format(array,array_len,OPTIGA_PROTECTED_DATA_COLOR);  \
 116:D:/School/diseratie/SEMS/xmc4800_evaluation_kit/optiga-trust-m/optiga/comms/ifx_i2c\ifx_i2c_data_link_layer.c ****       }                                             \
 117:D:/School/diseratie/SEMS/xmc4800_evaluation_kit/optiga-trust-m/optiga/comms/ifx_i2c\ifx_i2c_data_link_layer.c ****       else                                          \
 118:D:/School/diseratie/SEMS/xmc4800_evaluation_kit/optiga-trust-m/optiga/comms/ifx_i2c\ifx_i2c_data_link_layer.c ****       {                                             \
 119:D:/School/diseratie/SEMS/xmc4800_evaluation_kit/optiga-trust-m/optiga/comms/ifx_i2c\ifx_i2c_data_link_layer.c ****         optiga_lib_print_array_hex_format(array,array_len,OPTIGA_UNPROTECTED_DATA_COLOR);\
 120:D:/School/diseratie/SEMS/xmc4800_evaluation_kit/optiga-trust-m/optiga/comms/ifx_i2c\ifx_i2c_data_link_layer.c ****       }                                             \
 121:D:/School/diseratie/SEMS/xmc4800_evaluation_kit/optiga-trust-m/optiga/comms/ifx_i2c\ifx_i2c_data_link_layer.c ****   }                                               \
 122:D:/School/diseratie/SEMS/xmc4800_evaluation_kit/optiga-trust-m/optiga/comms/ifx_i2c\ifx_i2c_data_link_layer.c **** }
 123:D:/School/diseratie/SEMS/xmc4800_evaluation_kit/optiga-trust-m/optiga/comms/ifx_i2c\ifx_i2c_data_link_layer.c **** 
 124:D:/School/diseratie/SEMS/xmc4800_evaluation_kit/optiga-trust-m/optiga/comms/ifx_i2c\ifx_i2c_data_link_layer.c **** // Logs the received data from OPTIGA in hexadecimal format
 125:D:/School/diseratie/SEMS/xmc4800_evaluation_kit/optiga-trust-m/optiga/comms/ifx_i2c\ifx_i2c_data_link_layer.c **** #define OPTIGA_IFXI2C_LOG_RECEIVE_HEX_DATA(array,array_len,p_ifx_i2c_ctx) \
 126:D:/School/diseratie/SEMS/xmc4800_evaluation_kit/optiga-trust-m/optiga/comms/ifx_i2c\ifx_i2c_data_link_layer.c **** {\
 127:D:/School/diseratie/SEMS/xmc4800_evaluation_kit/optiga-trust-m/optiga/comms/ifx_i2c\ifx_i2c_data_link_layer.c ****     if (((((ifx_i2c_context_t * )p_ifx_i2c_ctx)->protection_level & 0x0F) == 0x02) || \
 128:D:/School/diseratie/SEMS/xmc4800_evaluation_kit/optiga-trust-m/optiga/comms/ifx_i2c\ifx_i2c_data_link_layer.c ****         ((((ifx_i2c_context_t * )p_ifx_i2c_ctx)->protection_level & 0x0F) == 0x03)) \
 129:D:/School/diseratie/SEMS/xmc4800_evaluation_kit/optiga-trust-m/optiga/comms/ifx_i2c\ifx_i2c_data_link_layer.c ****         { \
 130:D:/School/diseratie/SEMS/xmc4800_evaluation_kit/optiga-trust-m/optiga/comms/ifx_i2c\ifx_i2c_data_link_layer.c ****             optiga_lib_print_array_hex_format(array,array_len,OPTIGA_PROTECTED_DATA_COLOR); \
 131:D:/School/diseratie/SEMS/xmc4800_evaluation_kit/optiga-trust-m/optiga/comms/ifx_i2c\ifx_i2c_data_link_layer.c ****         } \
 132:D:/School/diseratie/SEMS/xmc4800_evaluation_kit/optiga-trust-m/optiga/comms/ifx_i2c\ifx_i2c_data_link_layer.c ****         else \
 133:D:/School/diseratie/SEMS/xmc4800_evaluation_kit/optiga-trust-m/optiga/comms/ifx_i2c\ifx_i2c_data_link_layer.c ****         { \
 134:D:/School/diseratie/SEMS/xmc4800_evaluation_kit/optiga-trust-m/optiga/comms/ifx_i2c\ifx_i2c_data_link_layer.c ****             optiga_lib_print_array_hex_format(array,array_len,OPTIGA_UNPROTECTED_DATA_COLOR); \
 135:D:/School/diseratie/SEMS/xmc4800_evaluation_kit/optiga-trust-m/optiga/comms/ifx_i2c\ifx_i2c_data_link_layer.c ****         } \
 136:D:/School/diseratie/SEMS/xmc4800_evaluation_kit/optiga-trust-m/optiga/comms/ifx_i2c\ifx_i2c_data_link_layer.c **** }
 137:D:/School/diseratie/SEMS/xmc4800_evaluation_kit/optiga-trust-m/optiga/comms/ifx_i2c\ifx_i2c_data_link_layer.c **** #else
 138:D:/School/diseratie/SEMS/xmc4800_evaluation_kit/optiga-trust-m/optiga/comms/ifx_i2c\ifx_i2c_data_link_layer.c **** 
 139:D:/School/diseratie/SEMS/xmc4800_evaluation_kit/optiga-trust-m/optiga/comms/ifx_i2c\ifx_i2c_data_link_layer.c **** // Logs the transmitted data to OPTIGA from IFXI2C layer in hexadecimal format
 140:D:/School/diseratie/SEMS/xmc4800_evaluation_kit/optiga-trust-m/optiga/comms/ifx_i2c\ifx_i2c_data_link_layer.c **** #define OPTIGA_IFXI2C_LOG_TRANSMIT_HEX_DATA(array,array_len,p_ifx_i2c_ctx) \
 141:D:/School/diseratie/SEMS/xmc4800_evaluation_kit/optiga-trust-m/optiga/comms/ifx_i2c\ifx_i2c_data_link_layer.c **** {\
 142:D:/School/diseratie/SEMS/xmc4800_evaluation_kit/optiga-trust-m/optiga/comms/ifx_i2c\ifx_i2c_data_link_layer.c ****     OPTIGA_COMMS_LOG_MESSAGE("");\
 143:D:/School/diseratie/SEMS/xmc4800_evaluation_kit/optiga-trust-m/optiga/comms/ifx_i2c\ifx_i2c_data_link_layer.c ****     optiga_lib_print_array_hex_format(array,array_len,OPTIGA_UNPROTECTED_DATA_COLOR);\
 144:D:/School/diseratie/SEMS/xmc4800_evaluation_kit/optiga-trust-m/optiga/comms/ifx_i2c\ifx_i2c_data_link_layer.c **** }
 145:D:/School/diseratie/SEMS/xmc4800_evaluation_kit/optiga-trust-m/optiga/comms/ifx_i2c\ifx_i2c_data_link_layer.c **** 
 146:D:/School/diseratie/SEMS/xmc4800_evaluation_kit/optiga-trust-m/optiga/comms/ifx_i2c\ifx_i2c_data_link_layer.c **** // Logs the received data from OPTIGA in hexadecimal format
 147:D:/School/diseratie/SEMS/xmc4800_evaluation_kit/optiga-trust-m/optiga/comms/ifx_i2c\ifx_i2c_data_link_layer.c **** #define OPTIGA_IFXI2C_LOG_RECEIVE_HEX_DATA(array,array_len,p_ifx_i2c_ctx) \
 148:D:/School/diseratie/SEMS/xmc4800_evaluation_kit/optiga-trust-m/optiga/comms/ifx_i2c\ifx_i2c_data_link_layer.c **** {\
 149:D:/School/diseratie/SEMS/xmc4800_evaluation_kit/optiga-trust-m/optiga/comms/ifx_i2c\ifx_i2c_data_link_layer.c ****     OPTIGA_COMMS_LOG_MESSAGE("");\
 150:D:/School/diseratie/SEMS/xmc4800_evaluation_kit/optiga-trust-m/optiga/comms/ifx_i2c\ifx_i2c_data_link_layer.c ****     optiga_lib_print_array_hex_format(array,array_len,OPTIGA_UNPROTECTED_DATA_COLOR);\
 151:D:/School/diseratie/SEMS/xmc4800_evaluation_kit/optiga-trust-m/optiga/comms/ifx_i2c\ifx_i2c_data_link_layer.c **** }
 152:D:/School/diseratie/SEMS/xmc4800_evaluation_kit/optiga-trust-m/optiga/comms/ifx_i2c\ifx_i2c_data_link_layer.c **** 
 153:D:/School/diseratie/SEMS/xmc4800_evaluation_kit/optiga-trust-m/optiga/comms/ifx_i2c\ifx_i2c_data_link_layer.c **** #endif
 154:D:/School/diseratie/SEMS/xmc4800_evaluation_kit/optiga-trust-m/optiga/comms/ifx_i2c\ifx_i2c_data_link_layer.c **** 
 155:D:/School/diseratie/SEMS/xmc4800_evaluation_kit/optiga-trust-m/optiga/comms/ifx_i2c\ifx_i2c_data_link_layer.c **** #else
 156:D:/School/diseratie/SEMS/xmc4800_evaluation_kit/optiga-trust-m/optiga/comms/ifx_i2c\ifx_i2c_data_link_layer.c **** 
 157:D:/School/diseratie/SEMS/xmc4800_evaluation_kit/optiga-trust-m/optiga/comms/ifx_i2c\ifx_i2c_data_link_layer.c **** #define OPTIGA_IFXI2C_LOG_TRANSMIT_HEX_DATA(array,array_len,p_ifx_i2c_ctx) {}
 158:D:/School/diseratie/SEMS/xmc4800_evaluation_kit/optiga-trust-m/optiga/comms/ifx_i2c\ifx_i2c_data_link_layer.c **** #define OPTIGA_IFXI2C_LOG_RECEIVE_HEX_DATA(array,array_len,p_ifx_i2c_ctx) {}
 159:D:/School/diseratie/SEMS/xmc4800_evaluation_kit/optiga-trust-m/optiga/comms/ifx_i2c\ifx_i2c_data_link_layer.c **** #define OPTIGA_COMMS_LOG_MESSAGE(msg) {}
 160:D:/School/diseratie/SEMS/xmc4800_evaluation_kit/optiga-trust-m/optiga/comms/ifx_i2c\ifx_i2c_data_link_layer.c **** //lint --e{750} suppress "The unused OPTIGA_COMMS_LOG_STATUS macro is kept for future enhancements"
 161:D:/School/diseratie/SEMS/xmc4800_evaluation_kit/optiga-trust-m/optiga/comms/ifx_i2c\ifx_i2c_data_link_layer.c **** #define OPTIGA_COMMS_LOG_STATUS(return_value) {}
 162:D:/School/diseratie/SEMS/xmc4800_evaluation_kit/optiga-trust-m/optiga/comms/ifx_i2c\ifx_i2c_data_link_layer.c **** #endif
 163:D:/School/diseratie/SEMS/xmc4800_evaluation_kit/optiga-trust-m/optiga/comms/ifx_i2c\ifx_i2c_data_link_layer.c **** 
 164:D:/School/diseratie/SEMS/xmc4800_evaluation_kit/optiga-trust-m/optiga/comms/ifx_i2c\ifx_i2c_data_link_layer.c **** // Setup debug log statements
 165:D:/School/diseratie/SEMS/xmc4800_evaluation_kit/optiga-trust-m/optiga/comms/ifx_i2c\ifx_i2c_data_link_layer.c **** #if IFX_I2C_LOG_DL == 1
 166:D:/School/diseratie/SEMS/xmc4800_evaluation_kit/optiga-trust-m/optiga/comms/ifx_i2c\ifx_i2c_data_link_layer.c **** #define LOG_DL IFX_I2C_LOG
 167:D:/School/diseratie/SEMS/xmc4800_evaluation_kit/optiga-trust-m/optiga/comms/ifx_i2c\ifx_i2c_data_link_layer.c **** #else
 168:D:/School/diseratie/SEMS/xmc4800_evaluation_kit/optiga-trust-m/optiga/comms/ifx_i2c\ifx_i2c_data_link_layer.c **** #define LOG_DL(...) //printf(__VA_ARGS__)
 169:D:/School/diseratie/SEMS/xmc4800_evaluation_kit/optiga-trust-m/optiga/comms/ifx_i2c\ifx_i2c_data_link_layer.c **** #endif
 170:D:/School/diseratie/SEMS/xmc4800_evaluation_kit/optiga-trust-m/optiga/comms/ifx_i2c\ifx_i2c_data_link_layer.c **** 
 171:D:/School/diseratie/SEMS/xmc4800_evaluation_kit/optiga-trust-m/optiga/comms/ifx_i2c\ifx_i2c_data_link_layer.c **** /// Helper function to calculate CRC of a byte
 172:D:/School/diseratie/SEMS/xmc4800_evaluation_kit/optiga-trust-m/optiga/comms/ifx_i2c\ifx_i2c_data_link_layer.c **** _STATIC_H uint16_t ifx_i2c_dl_calc_crc_byte(uint16_t seed,
 173:D:/School/diseratie/SEMS/xmc4800_evaluation_kit/optiga-trust-m/optiga/comms/ifx_i2c\ifx_i2c_data_link_layer.c ****                                                        uint8_t byte);
 174:D:/School/diseratie/SEMS/xmc4800_evaluation_kit/optiga-trust-m/optiga/comms/ifx_i2c\ifx_i2c_data_link_layer.c **** /// Helper function to calculate CRC of a frame
 175:D:/School/diseratie/SEMS/xmc4800_evaluation_kit/optiga-trust-m/optiga/comms/ifx_i2c\ifx_i2c_data_link_layer.c **** _STATIC_H uint16_t ifx_i2c_dl_calc_crc(const uint8_t * p_data,
 176:D:/School/diseratie/SEMS/xmc4800_evaluation_kit/optiga-trust-m/optiga/comms/ifx_i2c\ifx_i2c_data_link_layer.c ****                                                   uint16_t data_len);
 177:D:/School/diseratie/SEMS/xmc4800_evaluation_kit/optiga-trust-m/optiga/comms/ifx_i2c\ifx_i2c_data_link_layer.c **** /// Internal function to send frame
 178:D:/School/diseratie/SEMS/xmc4800_evaluation_kit/optiga-trust-m/optiga/comms/ifx_i2c\ifx_i2c_data_link_layer.c **** _STATIC_H optiga_lib_status_t ifx_i2c_dl_send_frame_internal(ifx_i2c_context_t * p_ctx,
 179:D:/School/diseratie/SEMS/xmc4800_evaluation_kit/optiga-trust-m/optiga/comms/ifx_i2c\ifx_i2c_data_link_layer.c ****                                                              uint16_t frame_len,
 180:D:/School/diseratie/SEMS/xmc4800_evaluation_kit/optiga-trust-m/optiga/comms/ifx_i2c\ifx_i2c_data_link_layer.c ****                                                              uint8_t seqctr_value,
 181:D:/School/diseratie/SEMS/xmc4800_evaluation_kit/optiga-trust-m/optiga/comms/ifx_i2c\ifx_i2c_data_link_layer.c ****                                                              uint8_t resend);
 182:D:/School/diseratie/SEMS/xmc4800_evaluation_kit/optiga-trust-m/optiga/comms/ifx_i2c\ifx_i2c_data_link_layer.c **** /// Helper function to send resync
 183:D:/School/diseratie/SEMS/xmc4800_evaluation_kit/optiga-trust-m/optiga/comms/ifx_i2c\ifx_i2c_data_link_layer.c **** _STATIC_H optiga_lib_status_t ifx_i2c_dl_resync(ifx_i2c_context_t * p_ctx);
 184:D:/School/diseratie/SEMS/xmc4800_evaluation_kit/optiga-trust-m/optiga/comms/ifx_i2c\ifx_i2c_data_link_layer.c **** /// Helper function to resend frame
 185:D:/School/diseratie/SEMS/xmc4800_evaluation_kit/optiga-trust-m/optiga/comms/ifx_i2c\ifx_i2c_data_link_layer.c **** _STATIC_H void ifx_i2c_dl_resend_frame(ifx_i2c_context_t * p_ctx,
 186:D:/School/diseratie/SEMS/xmc4800_evaluation_kit/optiga-trust-m/optiga/comms/ifx_i2c\ifx_i2c_data_link_layer.c ****                                        uint8_t seqctr_value);
 187:D:/School/diseratie/SEMS/xmc4800_evaluation_kit/optiga-trust-m/optiga/comms/ifx_i2c\ifx_i2c_data_link_layer.c **** /// Data Link Layer state machine
 188:D:/School/diseratie/SEMS/xmc4800_evaluation_kit/optiga-trust-m/optiga/comms/ifx_i2c\ifx_i2c_data_link_layer.c **** _STATIC_H void ifx_i2c_pl_event_handler(ifx_i2c_context_t * p_ctx,
 189:D:/School/diseratie/SEMS/xmc4800_evaluation_kit/optiga-trust-m/optiga/comms/ifx_i2c\ifx_i2c_data_link_layer.c ****                                         optiga_lib_status_t event,
 190:D:/School/diseratie/SEMS/xmc4800_evaluation_kit/optiga-trust-m/optiga/comms/ifx_i2c\ifx_i2c_data_link_layer.c ****                                         const uint8_t * p_data,
 191:D:/School/diseratie/SEMS/xmc4800_evaluation_kit/optiga-trust-m/optiga/comms/ifx_i2c\ifx_i2c_data_link_layer.c ****                                         uint16_t data_len);
 192:D:/School/diseratie/SEMS/xmc4800_evaluation_kit/optiga-trust-m/optiga/comms/ifx_i2c\ifx_i2c_data_link_layer.c **** 
 193:D:/School/diseratie/SEMS/xmc4800_evaluation_kit/optiga-trust-m/optiga/comms/ifx_i2c\ifx_i2c_data_link_layer.c **** /// @endcond
 194:D:/School/diseratie/SEMS/xmc4800_evaluation_kit/optiga-trust-m/optiga/comms/ifx_i2c\ifx_i2c_data_link_layer.c **** 
 195:D:/School/diseratie/SEMS/xmc4800_evaluation_kit/optiga-trust-m/optiga/comms/ifx_i2c\ifx_i2c_data_link_layer.c **** optiga_lib_status_t ifx_i2c_dl_init(ifx_i2c_context_t * p_ctx, ifx_i2c_event_handler_t handler)
 196:D:/School/diseratie/SEMS/xmc4800_evaluation_kit/optiga-trust-m/optiga/comms/ifx_i2c\ifx_i2c_data_link_layer.c **** {
 197:D:/School/diseratie/SEMS/xmc4800_evaluation_kit/optiga-trust-m/optiga/comms/ifx_i2c\ifx_i2c_data_link_layer.c ****     LOG_DL("[IFX-DL]: Init\n");
 198:D:/School/diseratie/SEMS/xmc4800_evaluation_kit/optiga-trust-m/optiga/comms/ifx_i2c\ifx_i2c_data_link_layer.c **** 
 199:D:/School/diseratie/SEMS/xmc4800_evaluation_kit/optiga-trust-m/optiga/comms/ifx_i2c\ifx_i2c_data_link_layer.c ****     p_ctx->dl.state = DL_STATE_UNINIT;
 200:D:/School/diseratie/SEMS/xmc4800_evaluation_kit/optiga-trust-m/optiga/comms/ifx_i2c\ifx_i2c_data_link_layer.c ****     // Initialize Physical Layer (and register event handler)
 201:D:/School/diseratie/SEMS/xmc4800_evaluation_kit/optiga-trust-m/optiga/comms/ifx_i2c\ifx_i2c_data_link_layer.c ****     if (IFX_I2C_STACK_SUCCESS != ifx_i2c_pl_init(p_ctx, ifx_i2c_pl_event_handler))
 202:D:/School/diseratie/SEMS/xmc4800_evaluation_kit/optiga-trust-m/optiga/comms/ifx_i2c\ifx_i2c_data_link_layer.c ****     {
 203:D:/School/diseratie/SEMS/xmc4800_evaluation_kit/optiga-trust-m/optiga/comms/ifx_i2c\ifx_i2c_data_link_layer.c ****         return (IFX_I2C_STACK_ERROR);
 204:D:/School/diseratie/SEMS/xmc4800_evaluation_kit/optiga-trust-m/optiga/comms/ifx_i2c\ifx_i2c_data_link_layer.c ****     }
 205:D:/School/diseratie/SEMS/xmc4800_evaluation_kit/optiga-trust-m/optiga/comms/ifx_i2c\ifx_i2c_data_link_layer.c **** 
 206:D:/School/diseratie/SEMS/xmc4800_evaluation_kit/optiga-trust-m/optiga/comms/ifx_i2c\ifx_i2c_data_link_layer.c ****     // Initialize internal variables
 207:D:/School/diseratie/SEMS/xmc4800_evaluation_kit/optiga-trust-m/optiga/comms/ifx_i2c\ifx_i2c_data_link_layer.c ****     p_ctx->dl.upper_layer_event_handler = handler;
 208:D:/School/diseratie/SEMS/xmc4800_evaluation_kit/optiga-trust-m/optiga/comms/ifx_i2c\ifx_i2c_data_link_layer.c ****     p_ctx->dl.state = DL_STATE_IDLE;
 209:D:/School/diseratie/SEMS/xmc4800_evaluation_kit/optiga-trust-m/optiga/comms/ifx_i2c\ifx_i2c_data_link_layer.c ****     p_ctx->dl.tx_seq_nr = DL_MAX_FRAME_NUM;
 210:D:/School/diseratie/SEMS/xmc4800_evaluation_kit/optiga-trust-m/optiga/comms/ifx_i2c\ifx_i2c_data_link_layer.c ****     p_ctx->dl.rx_seq_nr = DL_MAX_FRAME_NUM;
 211:D:/School/diseratie/SEMS/xmc4800_evaluation_kit/optiga-trust-m/optiga/comms/ifx_i2c\ifx_i2c_data_link_layer.c ****     p_ctx->dl.resynced = 0;
 212:D:/School/diseratie/SEMS/xmc4800_evaluation_kit/optiga-trust-m/optiga/comms/ifx_i2c\ifx_i2c_data_link_layer.c ****     p_ctx->dl.error = 0;
 213:D:/School/diseratie/SEMS/xmc4800_evaluation_kit/optiga-trust-m/optiga/comms/ifx_i2c\ifx_i2c_data_link_layer.c ****     p_ctx->dl.p_tx_frame_buffer = p_ctx->tx_frame_buffer;
 214:D:/School/diseratie/SEMS/xmc4800_evaluation_kit/optiga-trust-m/optiga/comms/ifx_i2c\ifx_i2c_data_link_layer.c ****     p_ctx->dl.p_rx_frame_buffer = p_ctx->rx_frame_buffer;
 215:D:/School/diseratie/SEMS/xmc4800_evaluation_kit/optiga-trust-m/optiga/comms/ifx_i2c\ifx_i2c_data_link_layer.c **** 
 216:D:/School/diseratie/SEMS/xmc4800_evaluation_kit/optiga-trust-m/optiga/comms/ifx_i2c\ifx_i2c_data_link_layer.c ****     return IFX_I2C_STACK_SUCCESS;
 217:D:/School/diseratie/SEMS/xmc4800_evaluation_kit/optiga-trust-m/optiga/comms/ifx_i2c\ifx_i2c_data_link_layer.c **** }
 218:D:/School/diseratie/SEMS/xmc4800_evaluation_kit/optiga-trust-m/optiga/comms/ifx_i2c\ifx_i2c_data_link_layer.c **** 
 219:D:/School/diseratie/SEMS/xmc4800_evaluation_kit/optiga-trust-m/optiga/comms/ifx_i2c\ifx_i2c_data_link_layer.c **** optiga_lib_status_t ifx_i2c_dl_send_frame(ifx_i2c_context_t * p_ctx, uint16_t frame_len)
 220:D:/School/diseratie/SEMS/xmc4800_evaluation_kit/optiga-trust-m/optiga/comms/ifx_i2c\ifx_i2c_data_link_layer.c **** {
 221:D:/School/diseratie/SEMS/xmc4800_evaluation_kit/optiga-trust-m/optiga/comms/ifx_i2c\ifx_i2c_data_link_layer.c ****     LOG_DL("[IFX-DL]: Start TX Frame\n");
 222:D:/School/diseratie/SEMS/xmc4800_evaluation_kit/optiga-trust-m/optiga/comms/ifx_i2c\ifx_i2c_data_link_layer.c ****     // State must be idle and payload available
 223:D:/School/diseratie/SEMS/xmc4800_evaluation_kit/optiga-trust-m/optiga/comms/ifx_i2c\ifx_i2c_data_link_layer.c ****     if (p_ctx->dl.state != DL_STATE_IDLE || (0 == frame_len))
 224:D:/School/diseratie/SEMS/xmc4800_evaluation_kit/optiga-trust-m/optiga/comms/ifx_i2c\ifx_i2c_data_link_layer.c ****     {
 225:D:/School/diseratie/SEMS/xmc4800_evaluation_kit/optiga-trust-m/optiga/comms/ifx_i2c\ifx_i2c_data_link_layer.c ****         return (IFX_I2C_STACK_ERROR);
 226:D:/School/diseratie/SEMS/xmc4800_evaluation_kit/optiga-trust-m/optiga/comms/ifx_i2c\ifx_i2c_data_link_layer.c ****     }
 227:D:/School/diseratie/SEMS/xmc4800_evaluation_kit/optiga-trust-m/optiga/comms/ifx_i2c\ifx_i2c_data_link_layer.c **** 
 228:D:/School/diseratie/SEMS/xmc4800_evaluation_kit/optiga-trust-m/optiga/comms/ifx_i2c\ifx_i2c_data_link_layer.c ****     p_ctx->dl.state = DL_STATE_TX;
 229:D:/School/diseratie/SEMS/xmc4800_evaluation_kit/optiga-trust-m/optiga/comms/ifx_i2c\ifx_i2c_data_link_layer.c ****     p_ctx->dl.retransmit_counter = 0;
 230:D:/School/diseratie/SEMS/xmc4800_evaluation_kit/optiga-trust-m/optiga/comms/ifx_i2c\ifx_i2c_data_link_layer.c ****     p_ctx->dl.action_rx_only = 0;
 231:D:/School/diseratie/SEMS/xmc4800_evaluation_kit/optiga-trust-m/optiga/comms/ifx_i2c\ifx_i2c_data_link_layer.c ****     p_ctx->dl.tx_buffer_size = frame_len;
 232:D:/School/diseratie/SEMS/xmc4800_evaluation_kit/optiga-trust-m/optiga/comms/ifx_i2c\ifx_i2c_data_link_layer.c ****     p_ctx->dl.data_poll_timeout = PL_TRANS_TIMEOUT_MS;
 233:D:/School/diseratie/SEMS/xmc4800_evaluation_kit/optiga-trust-m/optiga/comms/ifx_i2c\ifx_i2c_data_link_layer.c **** 
 234:D:/School/diseratie/SEMS/xmc4800_evaluation_kit/optiga-trust-m/optiga/comms/ifx_i2c\ifx_i2c_data_link_layer.c ****     return (ifx_i2c_dl_send_frame_internal(p_ctx, frame_len, DL_FCTR_SEQCTR_VALUE_ACK, 0));
 235:D:/School/diseratie/SEMS/xmc4800_evaluation_kit/optiga-trust-m/optiga/comms/ifx_i2c\ifx_i2c_data_link_layer.c **** }
 236:D:/School/diseratie/SEMS/xmc4800_evaluation_kit/optiga-trust-m/optiga/comms/ifx_i2c\ifx_i2c_data_link_layer.c **** 
 237:D:/School/diseratie/SEMS/xmc4800_evaluation_kit/optiga-trust-m/optiga/comms/ifx_i2c\ifx_i2c_data_link_layer.c **** optiga_lib_status_t ifx_i2c_dl_receive_frame(ifx_i2c_context_t * p_ctx)
 238:D:/School/diseratie/SEMS/xmc4800_evaluation_kit/optiga-trust-m/optiga/comms/ifx_i2c\ifx_i2c_data_link_layer.c **** {
 239:D:/School/diseratie/SEMS/xmc4800_evaluation_kit/optiga-trust-m/optiga/comms/ifx_i2c\ifx_i2c_data_link_layer.c ****     LOG_DL("[IFX-DL]: Start RX Frame\n");
 240:D:/School/diseratie/SEMS/xmc4800_evaluation_kit/optiga-trust-m/optiga/comms/ifx_i2c\ifx_i2c_data_link_layer.c **** 
 241:D:/School/diseratie/SEMS/xmc4800_evaluation_kit/optiga-trust-m/optiga/comms/ifx_i2c\ifx_i2c_data_link_layer.c ****     if (DL_STATE_IDLE != p_ctx->dl.state)
 242:D:/School/diseratie/SEMS/xmc4800_evaluation_kit/optiga-trust-m/optiga/comms/ifx_i2c\ifx_i2c_data_link_layer.c ****     {
 243:D:/School/diseratie/SEMS/xmc4800_evaluation_kit/optiga-trust-m/optiga/comms/ifx_i2c\ifx_i2c_data_link_layer.c ****         return (IFX_I2C_STACK_ERROR);
 244:D:/School/diseratie/SEMS/xmc4800_evaluation_kit/optiga-trust-m/optiga/comms/ifx_i2c\ifx_i2c_data_link_layer.c ****     }
 245:D:/School/diseratie/SEMS/xmc4800_evaluation_kit/optiga-trust-m/optiga/comms/ifx_i2c\ifx_i2c_data_link_layer.c **** 
 246:D:/School/diseratie/SEMS/xmc4800_evaluation_kit/optiga-trust-m/optiga/comms/ifx_i2c\ifx_i2c_data_link_layer.c ****     // Set internal state
 247:D:/School/diseratie/SEMS/xmc4800_evaluation_kit/optiga-trust-m/optiga/comms/ifx_i2c\ifx_i2c_data_link_layer.c ****     p_ctx->dl.state = DL_STATE_RX;
 248:D:/School/diseratie/SEMS/xmc4800_evaluation_kit/optiga-trust-m/optiga/comms/ifx_i2c\ifx_i2c_data_link_layer.c ****     p_ctx->dl.retransmit_counter = 0;
 249:D:/School/diseratie/SEMS/xmc4800_evaluation_kit/optiga-trust-m/optiga/comms/ifx_i2c\ifx_i2c_data_link_layer.c ****     p_ctx->dl.action_rx_only = 1;
 250:D:/School/diseratie/SEMS/xmc4800_evaluation_kit/optiga-trust-m/optiga/comms/ifx_i2c\ifx_i2c_data_link_layer.c ****     p_ctx->dl.frame_start_time = pal_os_timer_get_time_in_milliseconds();
 251:D:/School/diseratie/SEMS/xmc4800_evaluation_kit/optiga-trust-m/optiga/comms/ifx_i2c\ifx_i2c_data_link_layer.c ****     p_ctx->dl.data_poll_timeout = TL_MAX_EXIT_TIMEOUT * DL_SEC_TO_MSECS;
 252:D:/School/diseratie/SEMS/xmc4800_evaluation_kit/optiga-trust-m/optiga/comms/ifx_i2c\ifx_i2c_data_link_layer.c **** 
 253:D:/School/diseratie/SEMS/xmc4800_evaluation_kit/optiga-trust-m/optiga/comms/ifx_i2c\ifx_i2c_data_link_layer.c ****     return (ifx_i2c_pl_receive_frame(p_ctx));
 254:D:/School/diseratie/SEMS/xmc4800_evaluation_kit/optiga-trust-m/optiga/comms/ifx_i2c\ifx_i2c_data_link_layer.c **** }
 255:D:/School/diseratie/SEMS/xmc4800_evaluation_kit/optiga-trust-m/optiga/comms/ifx_i2c\ifx_i2c_data_link_layer.c **** 
 256:D:/School/diseratie/SEMS/xmc4800_evaluation_kit/optiga-trust-m/optiga/comms/ifx_i2c\ifx_i2c_data_link_layer.c **** _STATIC_H uint16_t ifx_i2c_dl_calc_crc_byte(uint16_t seed, uint8_t byte)
 257:D:/School/diseratie/SEMS/xmc4800_evaluation_kit/optiga-trust-m/optiga/comms/ifx_i2c\ifx_i2c_data_link_layer.c **** {
 258:D:/School/diseratie/SEMS/xmc4800_evaluation_kit/optiga-trust-m/optiga/comms/ifx_i2c\ifx_i2c_data_link_layer.c ****     uint16_t h1;
 259:D:/School/diseratie/SEMS/xmc4800_evaluation_kit/optiga-trust-m/optiga/comms/ifx_i2c\ifx_i2c_data_link_layer.c ****     uint16_t h2;
 260:D:/School/diseratie/SEMS/xmc4800_evaluation_kit/optiga-trust-m/optiga/comms/ifx_i2c\ifx_i2c_data_link_layer.c ****     uint16_t h3;
 261:D:/School/diseratie/SEMS/xmc4800_evaluation_kit/optiga-trust-m/optiga/comms/ifx_i2c\ifx_i2c_data_link_layer.c ****     uint16_t h4;
 262:D:/School/diseratie/SEMS/xmc4800_evaluation_kit/optiga-trust-m/optiga/comms/ifx_i2c\ifx_i2c_data_link_layer.c **** 
 263:D:/School/diseratie/SEMS/xmc4800_evaluation_kit/optiga-trust-m/optiga/comms/ifx_i2c\ifx_i2c_data_link_layer.c ****     h1 = (seed ^ byte) & 0xFF;
 264:D:/School/diseratie/SEMS/xmc4800_evaluation_kit/optiga-trust-m/optiga/comms/ifx_i2c\ifx_i2c_data_link_layer.c ****     h2 = h1 & 0x0F;
 265:D:/School/diseratie/SEMS/xmc4800_evaluation_kit/optiga-trust-m/optiga/comms/ifx_i2c\ifx_i2c_data_link_layer.c ****     h3 = ((uint16_t)(h2 << 4)) ^ h1;
 266:D:/School/diseratie/SEMS/xmc4800_evaluation_kit/optiga-trust-m/optiga/comms/ifx_i2c\ifx_i2c_data_link_layer.c ****     h4 = h3 >> 4;
 267:D:/School/diseratie/SEMS/xmc4800_evaluation_kit/optiga-trust-m/optiga/comms/ifx_i2c\ifx_i2c_data_link_layer.c **** 
 268:D:/School/diseratie/SEMS/xmc4800_evaluation_kit/optiga-trust-m/optiga/comms/ifx_i2c\ifx_i2c_data_link_layer.c ****     return ((uint16_t)((((uint16_t)((((uint16_t)(h3 << 1)) ^ h4) << 4)) ^ h2) << 3)) ^ h4 ^ (seed >
 269:D:/School/diseratie/SEMS/xmc4800_evaluation_kit/optiga-trust-m/optiga/comms/ifx_i2c\ifx_i2c_data_link_layer.c **** }
 270:D:/School/diseratie/SEMS/xmc4800_evaluation_kit/optiga-trust-m/optiga/comms/ifx_i2c\ifx_i2c_data_link_layer.c **** 
 271:D:/School/diseratie/SEMS/xmc4800_evaluation_kit/optiga-trust-m/optiga/comms/ifx_i2c\ifx_i2c_data_link_layer.c **** _STATIC_H uint16_t ifx_i2c_dl_calc_crc(const uint8_t * p_data, uint16_t data_len)
 272:D:/School/diseratie/SEMS/xmc4800_evaluation_kit/optiga-trust-m/optiga/comms/ifx_i2c\ifx_i2c_data_link_layer.c **** {
 273:D:/School/diseratie/SEMS/xmc4800_evaluation_kit/optiga-trust-m/optiga/comms/ifx_i2c\ifx_i2c_data_link_layer.c ****     uint16_t i;
 274:D:/School/diseratie/SEMS/xmc4800_evaluation_kit/optiga-trust-m/optiga/comms/ifx_i2c\ifx_i2c_data_link_layer.c ****     uint16_t crc = 0;
 275:D:/School/diseratie/SEMS/xmc4800_evaluation_kit/optiga-trust-m/optiga/comms/ifx_i2c\ifx_i2c_data_link_layer.c **** 
 276:D:/School/diseratie/SEMS/xmc4800_evaluation_kit/optiga-trust-m/optiga/comms/ifx_i2c\ifx_i2c_data_link_layer.c ****     for (i = 0; i < data_len; i++)
 277:D:/School/diseratie/SEMS/xmc4800_evaluation_kit/optiga-trust-m/optiga/comms/ifx_i2c\ifx_i2c_data_link_layer.c ****     {
 278:D:/School/diseratie/SEMS/xmc4800_evaluation_kit/optiga-trust-m/optiga/comms/ifx_i2c\ifx_i2c_data_link_layer.c ****         crc = ifx_i2c_dl_calc_crc_byte(crc, p_data[i]);
 279:D:/School/diseratie/SEMS/xmc4800_evaluation_kit/optiga-trust-m/optiga/comms/ifx_i2c\ifx_i2c_data_link_layer.c ****     }
 280:D:/School/diseratie/SEMS/xmc4800_evaluation_kit/optiga-trust-m/optiga/comms/ifx_i2c\ifx_i2c_data_link_layer.c **** 
 281:D:/School/diseratie/SEMS/xmc4800_evaluation_kit/optiga-trust-m/optiga/comms/ifx_i2c\ifx_i2c_data_link_layer.c ****     return (crc);
 282:D:/School/diseratie/SEMS/xmc4800_evaluation_kit/optiga-trust-m/optiga/comms/ifx_i2c\ifx_i2c_data_link_layer.c **** }
 283:D:/School/diseratie/SEMS/xmc4800_evaluation_kit/optiga-trust-m/optiga/comms/ifx_i2c\ifx_i2c_data_link_layer.c **** 
 284:D:/School/diseratie/SEMS/xmc4800_evaluation_kit/optiga-trust-m/optiga/comms/ifx_i2c\ifx_i2c_data_link_layer.c **** _STATIC_H optiga_lib_status_t ifx_i2c_dl_send_frame_internal(ifx_i2c_context_t * p_ctx,
 285:D:/School/diseratie/SEMS/xmc4800_evaluation_kit/optiga-trust-m/optiga/comms/ifx_i2c\ifx_i2c_data_link_layer.c ****                                                              uint16_t frame_len,
 286:D:/School/diseratie/SEMS/xmc4800_evaluation_kit/optiga-trust-m/optiga/comms/ifx_i2c\ifx_i2c_data_link_layer.c ****                                                              uint8_t seqctr_value,
 287:D:/School/diseratie/SEMS/xmc4800_evaluation_kit/optiga-trust-m/optiga/comms/ifx_i2c\ifx_i2c_data_link_layer.c ****                                                              uint8_t resend)
 288:D:/School/diseratie/SEMS/xmc4800_evaluation_kit/optiga-trust-m/optiga/comms/ifx_i2c\ifx_i2c_data_link_layer.c **** {
 289:D:/School/diseratie/SEMS/xmc4800_evaluation_kit/optiga-trust-m/optiga/comms/ifx_i2c\ifx_i2c_data_link_layer.c ****     uint16_t crc;
 290:D:/School/diseratie/SEMS/xmc4800_evaluation_kit/optiga-trust-m/optiga/comms/ifx_i2c\ifx_i2c_data_link_layer.c ****     uint16_t ack_nr = p_ctx->dl.rx_seq_nr;
 291:D:/School/diseratie/SEMS/xmc4800_evaluation_kit/optiga-trust-m/optiga/comms/ifx_i2c\ifx_i2c_data_link_layer.c ****     uint8_t * p_buffer;
 292:D:/School/diseratie/SEMS/xmc4800_evaluation_kit/optiga-trust-m/optiga/comms/ifx_i2c\ifx_i2c_data_link_layer.c **** 
 293:D:/School/diseratie/SEMS/xmc4800_evaluation_kit/optiga-trust-m/optiga/comms/ifx_i2c\ifx_i2c_data_link_layer.c ****     LOG_DL("[IFX-DL]: TX Frame len %d\n", frame_len);
 294:D:/School/diseratie/SEMS/xmc4800_evaluation_kit/optiga-trust-m/optiga/comms/ifx_i2c\ifx_i2c_data_link_layer.c ****     // In case of sending a NACK the next frame is referenced
 295:D:/School/diseratie/SEMS/xmc4800_evaluation_kit/optiga-trust-m/optiga/comms/ifx_i2c\ifx_i2c_data_link_layer.c ****     if (DL_FCTR_SEQCTR_VALUE_NACK == seqctr_value)
 296:D:/School/diseratie/SEMS/xmc4800_evaluation_kit/optiga-trust-m/optiga/comms/ifx_i2c\ifx_i2c_data_link_layer.c ****     {
 297:D:/School/diseratie/SEMS/xmc4800_evaluation_kit/optiga-trust-m/optiga/comms/ifx_i2c\ifx_i2c_data_link_layer.c ****         ack_nr = (p_ctx->dl.rx_seq_nr + 1) & DL_MAX_FRAME_NUM;
 298:D:/School/diseratie/SEMS/xmc4800_evaluation_kit/optiga-trust-m/optiga/comms/ifx_i2c\ifx_i2c_data_link_layer.c ****     }
 299:D:/School/diseratie/SEMS/xmc4800_evaluation_kit/optiga-trust-m/optiga/comms/ifx_i2c\ifx_i2c_data_link_layer.c ****     p_buffer = p_ctx->dl.p_tx_frame_buffer;
 300:D:/School/diseratie/SEMS/xmc4800_evaluation_kit/optiga-trust-m/optiga/comms/ifx_i2c\ifx_i2c_data_link_layer.c ****     if (DL_FCTR_SEQCTR_VALUE_RESYNC == seqctr_value)
 301:D:/School/diseratie/SEMS/xmc4800_evaluation_kit/optiga-trust-m/optiga/comms/ifx_i2c\ifx_i2c_data_link_layer.c ****     {
 302:D:/School/diseratie/SEMS/xmc4800_evaluation_kit/optiga-trust-m/optiga/comms/ifx_i2c\ifx_i2c_data_link_layer.c ****         ack_nr = 0;
 303:D:/School/diseratie/SEMS/xmc4800_evaluation_kit/optiga-trust-m/optiga/comms/ifx_i2c\ifx_i2c_data_link_layer.c ****         // Use rx buffer to send resync
 304:D:/School/diseratie/SEMS/xmc4800_evaluation_kit/optiga-trust-m/optiga/comms/ifx_i2c\ifx_i2c_data_link_layer.c ****         p_buffer = p_ctx->dl.p_rx_frame_buffer;
 305:D:/School/diseratie/SEMS/xmc4800_evaluation_kit/optiga-trust-m/optiga/comms/ifx_i2c\ifx_i2c_data_link_layer.c ****     }
 306:D:/School/diseratie/SEMS/xmc4800_evaluation_kit/optiga-trust-m/optiga/comms/ifx_i2c\ifx_i2c_data_link_layer.c ****     // Use tx buffer when discarding a frame and send nakc for later received frame
 307:D:/School/diseratie/SEMS/xmc4800_evaluation_kit/optiga-trust-m/optiga/comms/ifx_i2c\ifx_i2c_data_link_layer.c ****     if ((DL_FCTR_SEQCTR_VALUE_ACK == seqctr_value) && (DL_STATE_DISCARD == p_ctx->dl.state))
 308:D:/School/diseratie/SEMS/xmc4800_evaluation_kit/optiga-trust-m/optiga/comms/ifx_i2c\ifx_i2c_data_link_layer.c ****     {
 309:D:/School/diseratie/SEMS/xmc4800_evaluation_kit/optiga-trust-m/optiga/comms/ifx_i2c\ifx_i2c_data_link_layer.c ****         p_buffer = p_ctx->dl.p_rx_frame_buffer;
 310:D:/School/diseratie/SEMS/xmc4800_evaluation_kit/optiga-trust-m/optiga/comms/ifx_i2c\ifx_i2c_data_link_layer.c ****     }
 311:D:/School/diseratie/SEMS/xmc4800_evaluation_kit/optiga-trust-m/optiga/comms/ifx_i2c\ifx_i2c_data_link_layer.c **** 
 312:D:/School/diseratie/SEMS/xmc4800_evaluation_kit/optiga-trust-m/optiga/comms/ifx_i2c\ifx_i2c_data_link_layer.c ****     // Set sequence control value (ACK or NACK) and referenced frame number
 313:D:/School/diseratie/SEMS/xmc4800_evaluation_kit/optiga-trust-m/optiga/comms/ifx_i2c\ifx_i2c_data_link_layer.c ****     //lint --e{835} suppress "DL_FCTR_ACKNR_OFFSET macro is defined as 0x00 and is kept for future 
 314:D:/School/diseratie/SEMS/xmc4800_evaluation_kit/optiga-trust-m/optiga/comms/ifx_i2c\ifx_i2c_data_link_layer.c ****     p_buffer[0] = (uint8_t)(ack_nr << DL_FCTR_ACKNR_OFFSET);
 315:D:/School/diseratie/SEMS/xmc4800_evaluation_kit/optiga-trust-m/optiga/comms/ifx_i2c\ifx_i2c_data_link_layer.c ****     p_buffer[0] |= (uint8_t)(seqctr_value << DL_FCTR_SEQCTR_OFFSET);
 316:D:/School/diseratie/SEMS/xmc4800_evaluation_kit/optiga-trust-m/optiga/comms/ifx_i2c\ifx_i2c_data_link_layer.c **** 
 317:D:/School/diseratie/SEMS/xmc4800_evaluation_kit/optiga-trust-m/optiga/comms/ifx_i2c\ifx_i2c_data_link_layer.c ****     if (0 != frame_len) // Data frame
 318:D:/School/diseratie/SEMS/xmc4800_evaluation_kit/optiga-trust-m/optiga/comms/ifx_i2c\ifx_i2c_data_link_layer.c ****     {
 319:D:/School/diseratie/SEMS/xmc4800_evaluation_kit/optiga-trust-m/optiga/comms/ifx_i2c\ifx_i2c_data_link_layer.c ****         // Increment and set frame transmit sequence number
 320:D:/School/diseratie/SEMS/xmc4800_evaluation_kit/optiga-trust-m/optiga/comms/ifx_i2c\ifx_i2c_data_link_layer.c ****         if ((0 == resend) || (0 != p_ctx->dl.resynced))
 321:D:/School/diseratie/SEMS/xmc4800_evaluation_kit/optiga-trust-m/optiga/comms/ifx_i2c\ifx_i2c_data_link_layer.c ****         {
 322:D:/School/diseratie/SEMS/xmc4800_evaluation_kit/optiga-trust-m/optiga/comms/ifx_i2c\ifx_i2c_data_link_layer.c ****             p_ctx->dl.tx_seq_nr = (p_ctx->dl.tx_seq_nr + 1) & DL_MAX_FRAME_NUM;
 323:D:/School/diseratie/SEMS/xmc4800_evaluation_kit/optiga-trust-m/optiga/comms/ifx_i2c\ifx_i2c_data_link_layer.c ****         }
 324:D:/School/diseratie/SEMS/xmc4800_evaluation_kit/optiga-trust-m/optiga/comms/ifx_i2c\ifx_i2c_data_link_layer.c ****         p_buffer[0] |= (uint8_t)(p_ctx->dl.tx_seq_nr << DL_FCTR_FRNR_OFFSET);
 325:D:/School/diseratie/SEMS/xmc4800_evaluation_kit/optiga-trust-m/optiga/comms/ifx_i2c\ifx_i2c_data_link_layer.c ****         // Reset resync received
 326:D:/School/diseratie/SEMS/xmc4800_evaluation_kit/optiga-trust-m/optiga/comms/ifx_i2c\ifx_i2c_data_link_layer.c ****         p_ctx->dl.resynced = 0;
 327:D:/School/diseratie/SEMS/xmc4800_evaluation_kit/optiga-trust-m/optiga/comms/ifx_i2c\ifx_i2c_data_link_layer.c ****         OPTIGA_COMMS_LOG_MESSAGE(">>>>");
 328:D:/School/diseratie/SEMS/xmc4800_evaluation_kit/optiga-trust-m/optiga/comms/ifx_i2c\ifx_i2c_data_link_layer.c ****     }
 329:D:/School/diseratie/SEMS/xmc4800_evaluation_kit/optiga-trust-m/optiga/comms/ifx_i2c\ifx_i2c_data_link_layer.c ****     else // Control frame
 330:D:/School/diseratie/SEMS/xmc4800_evaluation_kit/optiga-trust-m/optiga/comms/ifx_i2c\ifx_i2c_data_link_layer.c ****     {
 331:D:/School/diseratie/SEMS/xmc4800_evaluation_kit/optiga-trust-m/optiga/comms/ifx_i2c\ifx_i2c_data_link_layer.c ****         p_buffer[0] |= DL_FCTR_FTYPE_MASK;
 332:D:/School/diseratie/SEMS/xmc4800_evaluation_kit/optiga-trust-m/optiga/comms/ifx_i2c\ifx_i2c_data_link_layer.c ****     }
 333:D:/School/diseratie/SEMS/xmc4800_evaluation_kit/optiga-trust-m/optiga/comms/ifx_i2c\ifx_i2c_data_link_layer.c **** 
 334:D:/School/diseratie/SEMS/xmc4800_evaluation_kit/optiga-trust-m/optiga/comms/ifx_i2c\ifx_i2c_data_link_layer.c ****     // Set frame length
 335:D:/School/diseratie/SEMS/xmc4800_evaluation_kit/optiga-trust-m/optiga/comms/ifx_i2c\ifx_i2c_data_link_layer.c ****     p_buffer[1] = (uint8_t)(frame_len >> 8);
 336:D:/School/diseratie/SEMS/xmc4800_evaluation_kit/optiga-trust-m/optiga/comms/ifx_i2c\ifx_i2c_data_link_layer.c ****     p_buffer[2] = (uint8_t)frame_len;
 337:D:/School/diseratie/SEMS/xmc4800_evaluation_kit/optiga-trust-m/optiga/comms/ifx_i2c\ifx_i2c_data_link_layer.c **** 
 338:D:/School/diseratie/SEMS/xmc4800_evaluation_kit/optiga-trust-m/optiga/comms/ifx_i2c\ifx_i2c_data_link_layer.c ****     // Calculate frame CRC
 339:D:/School/diseratie/SEMS/xmc4800_evaluation_kit/optiga-trust-m/optiga/comms/ifx_i2c\ifx_i2c_data_link_layer.c ****     crc = ifx_i2c_dl_calc_crc(p_buffer, 3 + frame_len);
 340:D:/School/diseratie/SEMS/xmc4800_evaluation_kit/optiga-trust-m/optiga/comms/ifx_i2c\ifx_i2c_data_link_layer.c ****     p_buffer[3 + frame_len] = (uint8_t) (crc >> 8);
 341:D:/School/diseratie/SEMS/xmc4800_evaluation_kit/optiga-trust-m/optiga/comms/ifx_i2c\ifx_i2c_data_link_layer.c ****     p_buffer[4 + frame_len] = (uint8_t)crc;
 342:D:/School/diseratie/SEMS/xmc4800_evaluation_kit/optiga-trust-m/optiga/comms/ifx_i2c\ifx_i2c_data_link_layer.c **** 
 343:D:/School/diseratie/SEMS/xmc4800_evaluation_kit/optiga-trust-m/optiga/comms/ifx_i2c\ifx_i2c_data_link_layer.c ****     // Transmit frame
 344:D:/School/diseratie/SEMS/xmc4800_evaluation_kit/optiga-trust-m/optiga/comms/ifx_i2c\ifx_i2c_data_link_layer.c ****     OPTIGA_IFXI2C_LOG_TRANSMIT_HEX_DATA(p_buffer,DL_HEADER_SIZE + frame_len,p_ctx)
 345:D:/School/diseratie/SEMS/xmc4800_evaluation_kit/optiga-trust-m/optiga/comms/ifx_i2c\ifx_i2c_data_link_layer.c ****     return (ifx_i2c_pl_send_frame(p_ctx, p_buffer, DL_HEADER_SIZE + frame_len));
 346:D:/School/diseratie/SEMS/xmc4800_evaluation_kit/optiga-trust-m/optiga/comms/ifx_i2c\ifx_i2c_data_link_layer.c **** }
 347:D:/School/diseratie/SEMS/xmc4800_evaluation_kit/optiga-trust-m/optiga/comms/ifx_i2c\ifx_i2c_data_link_layer.c **** 
 348:D:/School/diseratie/SEMS/xmc4800_evaluation_kit/optiga-trust-m/optiga/comms/ifx_i2c\ifx_i2c_data_link_layer.c **** _STATIC_H optiga_lib_status_t ifx_i2c_dl_resync(ifx_i2c_context_t * p_ctx)
 349:D:/School/diseratie/SEMS/xmc4800_evaluation_kit/optiga-trust-m/optiga/comms/ifx_i2c\ifx_i2c_data_link_layer.c **** {
 350:D:/School/diseratie/SEMS/xmc4800_evaluation_kit/optiga-trust-m/optiga/comms/ifx_i2c\ifx_i2c_data_link_layer.c ****     optiga_lib_status_t api_status;
 351:D:/School/diseratie/SEMS/xmc4800_evaluation_kit/optiga-trust-m/optiga/comms/ifx_i2c\ifx_i2c_data_link_layer.c ****     // Reset tx and rx counters
 352:D:/School/diseratie/SEMS/xmc4800_evaluation_kit/optiga-trust-m/optiga/comms/ifx_i2c\ifx_i2c_data_link_layer.c ****     p_ctx->dl.tx_seq_nr = DL_MAX_FRAME_NUM;
 353:D:/School/diseratie/SEMS/xmc4800_evaluation_kit/optiga-trust-m/optiga/comms/ifx_i2c\ifx_i2c_data_link_layer.c ****     p_ctx->dl.rx_seq_nr = DL_MAX_FRAME_NUM;
 354:D:/School/diseratie/SEMS/xmc4800_evaluation_kit/optiga-trust-m/optiga/comms/ifx_i2c\ifx_i2c_data_link_layer.c ****     p_ctx->dl.resynced = 1;
 355:D:/School/diseratie/SEMS/xmc4800_evaluation_kit/optiga-trust-m/optiga/comms/ifx_i2c\ifx_i2c_data_link_layer.c ****     LOG_DL("[IFX-DL]: Send Re-Sync Frame\n");
 356:D:/School/diseratie/SEMS/xmc4800_evaluation_kit/optiga-trust-m/optiga/comms/ifx_i2c\ifx_i2c_data_link_layer.c ****     p_ctx->dl.state = DL_STATE_RESEND;
 357:D:/School/diseratie/SEMS/xmc4800_evaluation_kit/optiga-trust-m/optiga/comms/ifx_i2c\ifx_i2c_data_link_layer.c ****     api_status = ifx_i2c_dl_send_frame_internal(p_ctx, 0, DL_FCTR_SEQCTR_VALUE_RESYNC, 0);
 358:D:/School/diseratie/SEMS/xmc4800_evaluation_kit/optiga-trust-m/optiga/comms/ifx_i2c\ifx_i2c_data_link_layer.c ****     return (api_status);
 359:D:/School/diseratie/SEMS/xmc4800_evaluation_kit/optiga-trust-m/optiga/comms/ifx_i2c\ifx_i2c_data_link_layer.c **** }
 360:D:/School/diseratie/SEMS/xmc4800_evaluation_kit/optiga-trust-m/optiga/comms/ifx_i2c\ifx_i2c_data_link_layer.c **** 
 361:D:/School/diseratie/SEMS/xmc4800_evaluation_kit/optiga-trust-m/optiga/comms/ifx_i2c\ifx_i2c_data_link_layer.c **** _STATIC_H void ifx_i2c_dl_resend_frame(ifx_i2c_context_t * p_ctx, uint8_t seqctr_value)
 362:D:/School/diseratie/SEMS/xmc4800_evaluation_kit/optiga-trust-m/optiga/comms/ifx_i2c\ifx_i2c_data_link_layer.c **** {
 363:D:/School/diseratie/SEMS/xmc4800_evaluation_kit/optiga-trust-m/optiga/comms/ifx_i2c\ifx_i2c_data_link_layer.c ****     optiga_lib_status_t status;
 364:D:/School/diseratie/SEMS/xmc4800_evaluation_kit/optiga-trust-m/optiga/comms/ifx_i2c\ifx_i2c_data_link_layer.c ****     // If exit timeout not violated
 365:D:/School/diseratie/SEMS/xmc4800_evaluation_kit/optiga-trust-m/optiga/comms/ifx_i2c\ifx_i2c_data_link_layer.c ****     uint32_t current_time_stamp = pal_os_timer_get_time_in_milliseconds();
 366:D:/School/diseratie/SEMS/xmc4800_evaluation_kit/optiga-trust-m/optiga/comms/ifx_i2c\ifx_i2c_data_link_layer.c ****     uint32_t time_stamp_diff = current_time_stamp - p_ctx->tl.api_start_time;
 367:D:/School/diseratie/SEMS/xmc4800_evaluation_kit/optiga-trust-m/optiga/comms/ifx_i2c\ifx_i2c_data_link_layer.c **** 
 368:D:/School/diseratie/SEMS/xmc4800_evaluation_kit/optiga-trust-m/optiga/comms/ifx_i2c\ifx_i2c_data_link_layer.c ****     if (p_ctx->tl.api_start_time > current_time_stamp)
 369:D:/School/diseratie/SEMS/xmc4800_evaluation_kit/optiga-trust-m/optiga/comms/ifx_i2c\ifx_i2c_data_link_layer.c ****     {
 370:D:/School/diseratie/SEMS/xmc4800_evaluation_kit/optiga-trust-m/optiga/comms/ifx_i2c\ifx_i2c_data_link_layer.c ****         time_stamp_diff = (0xFFFFFFFF + (current_time_stamp - p_ctx->tl.api_start_time)) + 0x01;
 371:D:/School/diseratie/SEMS/xmc4800_evaluation_kit/optiga-trust-m/optiga/comms/ifx_i2c\ifx_i2c_data_link_layer.c ****     }
 372:D:/School/diseratie/SEMS/xmc4800_evaluation_kit/optiga-trust-m/optiga/comms/ifx_i2c\ifx_i2c_data_link_layer.c ****     if (time_stamp_diff < (TL_MAX_EXIT_TIMEOUT * DL_SEC_TO_MSECS))
 373:D:/School/diseratie/SEMS/xmc4800_evaluation_kit/optiga-trust-m/optiga/comms/ifx_i2c\ifx_i2c_data_link_layer.c ****     {
 374:D:/School/diseratie/SEMS/xmc4800_evaluation_kit/optiga-trust-m/optiga/comms/ifx_i2c\ifx_i2c_data_link_layer.c ****         if (DL_TRANS_REPEAT == p_ctx->dl.retransmit_counter)
 375:D:/School/diseratie/SEMS/xmc4800_evaluation_kit/optiga-trust-m/optiga/comms/ifx_i2c\ifx_i2c_data_link_layer.c ****         {
 376:D:/School/diseratie/SEMS/xmc4800_evaluation_kit/optiga-trust-m/optiga/comms/ifx_i2c\ifx_i2c_data_link_layer.c ****             LOG_DL("[IFX-DL]: Re-Sync counters\n");
 377:D:/School/diseratie/SEMS/xmc4800_evaluation_kit/optiga-trust-m/optiga/comms/ifx_i2c\ifx_i2c_data_link_layer.c ****             p_ctx->dl.retransmit_counter = 0;
 378:D:/School/diseratie/SEMS/xmc4800_evaluation_kit/optiga-trust-m/optiga/comms/ifx_i2c\ifx_i2c_data_link_layer.c ****             status = ifx_i2c_dl_resync(p_ctx);
 379:D:/School/diseratie/SEMS/xmc4800_evaluation_kit/optiga-trust-m/optiga/comms/ifx_i2c\ifx_i2c_data_link_layer.c ****         }
 380:D:/School/diseratie/SEMS/xmc4800_evaluation_kit/optiga-trust-m/optiga/comms/ifx_i2c\ifx_i2c_data_link_layer.c ****         else
 381:D:/School/diseratie/SEMS/xmc4800_evaluation_kit/optiga-trust-m/optiga/comms/ifx_i2c\ifx_i2c_data_link_layer.c ****         {
 382:D:/School/diseratie/SEMS/xmc4800_evaluation_kit/optiga-trust-m/optiga/comms/ifx_i2c\ifx_i2c_data_link_layer.c ****             LOG_DL("[IFX-DL]: Re-TX Frame\n");
 383:D:/School/diseratie/SEMS/xmc4800_evaluation_kit/optiga-trust-m/optiga/comms/ifx_i2c\ifx_i2c_data_link_layer.c ****             p_ctx->dl.retransmit_counter++;
 384:D:/School/diseratie/SEMS/xmc4800_evaluation_kit/optiga-trust-m/optiga/comms/ifx_i2c\ifx_i2c_data_link_layer.c ****             p_ctx->dl.state = DL_STATE_TX;
 385:D:/School/diseratie/SEMS/xmc4800_evaluation_kit/optiga-trust-m/optiga/comms/ifx_i2c\ifx_i2c_data_link_layer.c ****             status = ifx_i2c_dl_send_frame_internal(p_ctx, p_ctx->dl.tx_buffer_size, seqctr_value, 
 386:D:/School/diseratie/SEMS/xmc4800_evaluation_kit/optiga-trust-m/optiga/comms/ifx_i2c\ifx_i2c_data_link_layer.c ****         }
 387:D:/School/diseratie/SEMS/xmc4800_evaluation_kit/optiga-trust-m/optiga/comms/ifx_i2c\ifx_i2c_data_link_layer.c ****         // Handle error in above case by sending NACK
 388:D:/School/diseratie/SEMS/xmc4800_evaluation_kit/optiga-trust-m/optiga/comms/ifx_i2c\ifx_i2c_data_link_layer.c ****         if (IFX_I2C_STACK_SUCCESS != status)
 389:D:/School/diseratie/SEMS/xmc4800_evaluation_kit/optiga-trust-m/optiga/comms/ifx_i2c\ifx_i2c_data_link_layer.c ****         {
 390:D:/School/diseratie/SEMS/xmc4800_evaluation_kit/optiga-trust-m/optiga/comms/ifx_i2c\ifx_i2c_data_link_layer.c ****             p_ctx->dl.state  = DL_STATE_NACK;
 391:D:/School/diseratie/SEMS/xmc4800_evaluation_kit/optiga-trust-m/optiga/comms/ifx_i2c\ifx_i2c_data_link_layer.c ****         }
 392:D:/School/diseratie/SEMS/xmc4800_evaluation_kit/optiga-trust-m/optiga/comms/ifx_i2c\ifx_i2c_data_link_layer.c ****     }
 393:D:/School/diseratie/SEMS/xmc4800_evaluation_kit/optiga-trust-m/optiga/comms/ifx_i2c\ifx_i2c_data_link_layer.c ****     else
 394:D:/School/diseratie/SEMS/xmc4800_evaluation_kit/optiga-trust-m/optiga/comms/ifx_i2c\ifx_i2c_data_link_layer.c ****     {
 395:D:/School/diseratie/SEMS/xmc4800_evaluation_kit/optiga-trust-m/optiga/comms/ifx_i2c\ifx_i2c_data_link_layer.c ****         p_ctx->dl.state = DL_STATE_ERROR;
 396:D:/School/diseratie/SEMS/xmc4800_evaluation_kit/optiga-trust-m/optiga/comms/ifx_i2c\ifx_i2c_data_link_layer.c ****     }
 397:D:/School/diseratie/SEMS/xmc4800_evaluation_kit/optiga-trust-m/optiga/comms/ifx_i2c\ifx_i2c_data_link_layer.c **** }
 398:D:/School/diseratie/SEMS/xmc4800_evaluation_kit/optiga-trust-m/optiga/comms/ifx_i2c\ifx_i2c_data_link_layer.c **** 
 399:D:/School/diseratie/SEMS/xmc4800_evaluation_kit/optiga-trust-m/optiga/comms/ifx_i2c\ifx_i2c_data_link_layer.c **** _STATIC_H void ifx_i2c_pl_event_handler(ifx_i2c_context_t * p_ctx,
 400:D:/School/diseratie/SEMS/xmc4800_evaluation_kit/optiga-trust-m/optiga/comms/ifx_i2c\ifx_i2c_data_link_layer.c ****                                         optiga_lib_status_t event,
 401:D:/School/diseratie/SEMS/xmc4800_evaluation_kit/optiga-trust-m/optiga/comms/ifx_i2c\ifx_i2c_data_link_layer.c ****                                         const uint8_t * p_data,
 402:D:/School/diseratie/SEMS/xmc4800_evaluation_kit/optiga-trust-m/optiga/comms/ifx_i2c\ifx_i2c_data_link_layer.c ****                                         uint16_t data_len)
 403:D:/School/diseratie/SEMS/xmc4800_evaluation_kit/optiga-trust-m/optiga/comms/ifx_i2c\ifx_i2c_data_link_layer.c **** {
  27              	 .loc 1 403 0
  28              	 .cfi_startproc
  29              	 
  30              	 
  31              	.LVL0:
  32 0000 2DE9F04F 	 push {r4,r5,r6,r7,r8,r9,r10,fp,lr}
  33              	.LCFI0:
  34              	 .cfi_def_cfa_offset 36
  35              	 .cfi_offset 4,-36
  36              	 .cfi_offset 5,-32
  37              	 .cfi_offset 6,-28
  38              	 .cfi_offset 7,-24
  39              	 .cfi_offset 8,-20
  40              	 .cfi_offset 9,-16
  41              	 .cfi_offset 10,-12
  42              	 .cfi_offset 11,-8
  43              	 .cfi_offset 14,-4
  44 0004 87B0     	 sub sp,sp,#28
  45              	.LCFI1:
  46              	 .cfi_def_cfa_offset 64
 404:D:/School/diseratie/SEMS/xmc4800_evaluation_kit/optiga-trust-m/optiga/comms/ifx_i2c\ifx_i2c_data_link_layer.c ****     uint8_t fctr = 0;
 405:D:/School/diseratie/SEMS/xmc4800_evaluation_kit/optiga-trust-m/optiga/comms/ifx_i2c\ifx_i2c_data_link_layer.c ****     uint8_t fr_nr = 0;
 406:D:/School/diseratie/SEMS/xmc4800_evaluation_kit/optiga-trust-m/optiga/comms/ifx_i2c\ifx_i2c_data_link_layer.c ****     uint8_t ack_nr = 0;
 407:D:/School/diseratie/SEMS/xmc4800_evaluation_kit/optiga-trust-m/optiga/comms/ifx_i2c\ifx_i2c_data_link_layer.c ****     uint8_t seqctr = 0;
 408:D:/School/diseratie/SEMS/xmc4800_evaluation_kit/optiga-trust-m/optiga/comms/ifx_i2c\ifx_i2c_data_link_layer.c ****     uint8_t current_event;
 409:D:/School/diseratie/SEMS/xmc4800_evaluation_kit/optiga-trust-m/optiga/comms/ifx_i2c\ifx_i2c_data_link_layer.c ****     uint8_t ftype = 0;
 410:D:/School/diseratie/SEMS/xmc4800_evaluation_kit/optiga-trust-m/optiga/comms/ifx_i2c\ifx_i2c_data_link_layer.c ****     uint8_t continue_state_machine = TRUE;
 411:D:/School/diseratie/SEMS/xmc4800_evaluation_kit/optiga-trust-m/optiga/comms/ifx_i2c\ifx_i2c_data_link_layer.c ****     uint16_t packet_len = 0;
 412:D:/School/diseratie/SEMS/xmc4800_evaluation_kit/optiga-trust-m/optiga/comms/ifx_i2c\ifx_i2c_data_link_layer.c ****     uint16_t crc_received = 0;
 413:D:/School/diseratie/SEMS/xmc4800_evaluation_kit/optiga-trust-m/optiga/comms/ifx_i2c\ifx_i2c_data_link_layer.c ****     uint16_t crc_calculated = 0;
  47              	 .loc 1 413 0
  48 0006 0024     	 movs r4,#0
  49 0008 A3F1030A 	 sub r10,r3,#3
 403:D:/School/diseratie/SEMS/xmc4800_evaluation_kit/optiga-trust-m/optiga/comms/ifx_i2c\ifx_i2c_data_link_layer.c ****     uint8_t fctr = 0;
  50              	 .loc 1 403 0
  51 000c 9B46     	 mov fp,r3
  52 000e 90F86030 	 ldrb r3,[r0,#96]
  53              	.LVL1:
 412:D:/School/diseratie/SEMS/xmc4800_evaluation_kit/optiga-trust-m/optiga/comms/ifx_i2c\ifx_i2c_data_link_layer.c ****     uint16_t crc_calculated = 0;
  54              	 .loc 1 412 0
  55 0012 0094     	 str r4,[sp]
 403:D:/School/diseratie/SEMS/xmc4800_evaluation_kit/optiga-trust-m/optiga/comms/ifx_i2c\ifx_i2c_data_link_layer.c ****     uint8_t fctr = 0;
  56              	 .loc 1 403 0
  57 0014 0546     	 mov r5,r0
  58 0016 9046     	 mov r8,r2
  59 0018 8946     	 mov r9,r1
  60 001a 12FA8AFA 	 uxtah r10,r2,r10
 411:D:/School/diseratie/SEMS/xmc4800_evaluation_kit/optiga-trust-m/optiga/comms/ifx_i2c\ifx_i2c_data_link_layer.c ****     uint16_t crc_received = 0;
  61              	 .loc 1 411 0
  62 001e 0294     	 str r4,[sp,#8]
 407:D:/School/diseratie/SEMS/xmc4800_evaluation_kit/optiga-trust-m/optiga/comms/ifx_i2c\ifx_i2c_data_link_layer.c ****     uint8_t current_event;
  63              	 .loc 1 407 0
  64 0020 0194     	 str r4,[sp,#4]
 406:D:/School/diseratie/SEMS/xmc4800_evaluation_kit/optiga-trust-m/optiga/comms/ifx_i2c\ifx_i2c_data_link_layer.c ****     uint8_t seqctr = 0;
  65              	 .loc 1 406 0
  66 0022 0494     	 str r4,[sp,#16]
 405:D:/School/diseratie/SEMS/xmc4800_evaluation_kit/optiga-trust-m/optiga/comms/ifx_i2c\ifx_i2c_data_link_layer.c ****     uint8_t ack_nr = 0;
  67              	 .loc 1 405 0
  68 0024 0394     	 str r4,[sp,#12]
  69              	.LVL2:
  70              	.L52:
 414:D:/School/diseratie/SEMS/xmc4800_evaluation_kit/optiga-trust-m/optiga/comms/ifx_i2c\ifx_i2c_data_link_layer.c ****     LOG_DL("[IFX-DL]: #Enter DL Handler\n");
 415:D:/School/diseratie/SEMS/xmc4800_evaluation_kit/optiga-trust-m/optiga/comms/ifx_i2c\ifx_i2c_data_link_layer.c ****     do
 416:D:/School/diseratie/SEMS/xmc4800_evaluation_kit/optiga-trust-m/optiga/comms/ifx_i2c\ifx_i2c_data_link_layer.c ****     {
 417:D:/School/diseratie/SEMS/xmc4800_evaluation_kit/optiga-trust-m/optiga/comms/ifx_i2c\ifx_i2c_data_link_layer.c ****         if ((IFX_I2C_FATAL_ERROR == event) && (DL_STATE_IDLE != p_ctx->dl.state))
  71              	 .loc 1 417 0
  72 0026 B9F5837F 	 cmp r9,#262
  73 002a 21D0     	 beq .L76
  74              	.L2:
 418:D:/School/diseratie/SEMS/xmc4800_evaluation_kit/optiga-trust-m/optiga/comms/ifx_i2c\ifx_i2c_data_link_layer.c ****         {    // Exit in case of fatal error
 419:D:/School/diseratie/SEMS/xmc4800_evaluation_kit/optiga-trust-m/optiga/comms/ifx_i2c\ifx_i2c_data_link_layer.c ****             LOG_DL("[IFX-DL]: Fatal error received\n");
 420:D:/School/diseratie/SEMS/xmc4800_evaluation_kit/optiga-trust-m/optiga/comms/ifx_i2c\ifx_i2c_data_link_layer.c ****             p_ctx->dl.state = DL_STATE_ERROR;
 421:D:/School/diseratie/SEMS/xmc4800_evaluation_kit/optiga-trust-m/optiga/comms/ifx_i2c\ifx_i2c_data_link_layer.c ****         }
 422:D:/School/diseratie/SEMS/xmc4800_evaluation_kit/optiga-trust-m/optiga/comms/ifx_i2c\ifx_i2c_data_link_layer.c ****         switch (p_ctx->dl.state)
  75              	 .loc 1 422 0
  76 002c 013B     	 subs r3,r3,#1
  77 002e 0A2B     	 cmp r3,#10
  78 0030 00F24A81 	 bhi .L5
  79 0034 DFE813F0 	 tbh [pc,r3,lsl#1]
  80              	.L7:
  81 0038 5401     	 .2byte (.L6-.L7)/2
  82 003a 3601     	 .2byte (.L8-.L7)/2
  83 003c F400     	 .2byte (.L9-.L7)/2
  84 003e DB00     	 .2byte (.L10-.L7)/2
  85 0040 9B00     	 .2byte (.L11-.L7)/2
  86 0042 5C00     	 .2byte (.L12-.L7)/2
  87 0044 4801     	 .2byte (.L5-.L7)/2
  88 0046 2200     	 .2byte (.L4-.L7)/2
  89 0048 5300     	 .2byte (.L13-.L7)/2
  90 004a 4B00     	 .2byte (.L14-.L7)/2
  91 004c 0B00     	 .2byte (.L15-.L7)/2
  92              	 .p2align 1
  93              	.L15:
 423:D:/School/diseratie/SEMS/xmc4800_evaluation_kit/optiga-trust-m/optiga/comms/ifx_i2c\ifx_i2c_data_link_layer.c ****         {
 424:D:/School/diseratie/SEMS/xmc4800_evaluation_kit/optiga-trust-m/optiga/comms/ifx_i2c\ifx_i2c_data_link_layer.c ****             case DL_STATE_IDLE:
 425:D:/School/diseratie/SEMS/xmc4800_evaluation_kit/optiga-trust-m/optiga/comms/ifx_i2c\ifx_i2c_data_link_layer.c ****             {
 426:D:/School/diseratie/SEMS/xmc4800_evaluation_kit/optiga-trust-m/optiga/comms/ifx_i2c\ifx_i2c_data_link_layer.c ****                 current_event = (event != IFX_I2C_STACK_SUCCESS) ? IFX_I2C_DL_EVENT_ERROR : IFX_I2C
 427:D:/School/diseratie/SEMS/xmc4800_evaluation_kit/optiga-trust-m/optiga/comms/ifx_i2c\ifx_i2c_data_link_layer.c ****                 continue_state_machine = FALSE;
 428:D:/School/diseratie/SEMS/xmc4800_evaluation_kit/optiga-trust-m/optiga/comms/ifx_i2c\ifx_i2c_data_link_layer.c ****                 p_ctx->dl.upper_layer_event_handler(p_ctx,current_event, 0, 0);
 429:D:/School/diseratie/SEMS/xmc4800_evaluation_kit/optiga-trust-m/optiga/comms/ifx_i2c\ifx_i2c_data_link_layer.c ****             }
 430:D:/School/diseratie/SEMS/xmc4800_evaluation_kit/optiga-trust-m/optiga/comms/ifx_i2c\ifx_i2c_data_link_layer.c ****             break;
 431:D:/School/diseratie/SEMS/xmc4800_evaluation_kit/optiga-trust-m/optiga/comms/ifx_i2c\ifx_i2c_data_link_layer.c ****             case DL_STATE_TX:
 432:D:/School/diseratie/SEMS/xmc4800_evaluation_kit/optiga-trust-m/optiga/comms/ifx_i2c\ifx_i2c_data_link_layer.c ****             {
 433:D:/School/diseratie/SEMS/xmc4800_evaluation_kit/optiga-trust-m/optiga/comms/ifx_i2c\ifx_i2c_data_link_layer.c ****                 // If writing a frame failed retry sending
 434:D:/School/diseratie/SEMS/xmc4800_evaluation_kit/optiga-trust-m/optiga/comms/ifx_i2c\ifx_i2c_data_link_layer.c ****                 if (IFX_I2C_STACK_ERROR == event)
 435:D:/School/diseratie/SEMS/xmc4800_evaluation_kit/optiga-trust-m/optiga/comms/ifx_i2c\ifx_i2c_data_link_layer.c ****                 {
 436:D:/School/diseratie/SEMS/xmc4800_evaluation_kit/optiga-trust-m/optiga/comms/ifx_i2c\ifx_i2c_data_link_layer.c ****                     p_ctx->dl.state = DL_STATE_RESEND;
 437:D:/School/diseratie/SEMS/xmc4800_evaluation_kit/optiga-trust-m/optiga/comms/ifx_i2c\ifx_i2c_data_link_layer.c ****                     break;
 438:D:/School/diseratie/SEMS/xmc4800_evaluation_kit/optiga-trust-m/optiga/comms/ifx_i2c\ifx_i2c_data_link_layer.c ****                 }
 439:D:/School/diseratie/SEMS/xmc4800_evaluation_kit/optiga-trust-m/optiga/comms/ifx_i2c\ifx_i2c_data_link_layer.c ****                 LOG_DL("[IFX-DL]: Frame Sent\n");
 440:D:/School/diseratie/SEMS/xmc4800_evaluation_kit/optiga-trust-m/optiga/comms/ifx_i2c\ifx_i2c_data_link_layer.c ****                 // Transmission successful, start receiving frame
 441:D:/School/diseratie/SEMS/xmc4800_evaluation_kit/optiga-trust-m/optiga/comms/ifx_i2c\ifx_i2c_data_link_layer.c ****                 p_ctx->dl.frame_start_time = pal_os_timer_get_time_in_milliseconds();
 442:D:/School/diseratie/SEMS/xmc4800_evaluation_kit/optiga-trust-m/optiga/comms/ifx_i2c\ifx_i2c_data_link_layer.c ****                 p_ctx->dl.state = DL_STATE_RX;
 443:D:/School/diseratie/SEMS/xmc4800_evaluation_kit/optiga-trust-m/optiga/comms/ifx_i2c\ifx_i2c_data_link_layer.c ****                 if (0 != ifx_i2c_pl_receive_frame(p_ctx))
 444:D:/School/diseratie/SEMS/xmc4800_evaluation_kit/optiga-trust-m/optiga/comms/ifx_i2c\ifx_i2c_data_link_layer.c ****                 {
 445:D:/School/diseratie/SEMS/xmc4800_evaluation_kit/optiga-trust-m/optiga/comms/ifx_i2c\ifx_i2c_data_link_layer.c ****                     p_ctx->dl.state  = DL_STATE_NACK;
 446:D:/School/diseratie/SEMS/xmc4800_evaluation_kit/optiga-trust-m/optiga/comms/ifx_i2c\ifx_i2c_data_link_layer.c ****                 }
 447:D:/School/diseratie/SEMS/xmc4800_evaluation_kit/optiga-trust-m/optiga/comms/ifx_i2c\ifx_i2c_data_link_layer.c ****                 else
 448:D:/School/diseratie/SEMS/xmc4800_evaluation_kit/optiga-trust-m/optiga/comms/ifx_i2c\ifx_i2c_data_link_layer.c ****                 {
 449:D:/School/diseratie/SEMS/xmc4800_evaluation_kit/optiga-trust-m/optiga/comms/ifx_i2c\ifx_i2c_data_link_layer.c ****                     continue_state_machine = FALSE;
 450:D:/School/diseratie/SEMS/xmc4800_evaluation_kit/optiga-trust-m/optiga/comms/ifx_i2c\ifx_i2c_data_link_layer.c ****                 }
 451:D:/School/diseratie/SEMS/xmc4800_evaluation_kit/optiga-trust-m/optiga/comms/ifx_i2c\ifx_i2c_data_link_layer.c ****             }
 452:D:/School/diseratie/SEMS/xmc4800_evaluation_kit/optiga-trust-m/optiga/comms/ifx_i2c\ifx_i2c_data_link_layer.c ****             break;
 453:D:/School/diseratie/SEMS/xmc4800_evaluation_kit/optiga-trust-m/optiga/comms/ifx_i2c\ifx_i2c_data_link_layer.c ****             case DL_STATE_RX:
 454:D:/School/diseratie/SEMS/xmc4800_evaluation_kit/optiga-trust-m/optiga/comms/ifx_i2c\ifx_i2c_data_link_layer.c ****             {
 455:D:/School/diseratie/SEMS/xmc4800_evaluation_kit/optiga-trust-m/optiga/comms/ifx_i2c\ifx_i2c_data_link_layer.c ****                 if (IFX_I2C_STACK_ERROR == event)
 456:D:/School/diseratie/SEMS/xmc4800_evaluation_kit/optiga-trust-m/optiga/comms/ifx_i2c\ifx_i2c_data_link_layer.c ****                 {    // If no frame was received retry sending
 457:D:/School/diseratie/SEMS/xmc4800_evaluation_kit/optiga-trust-m/optiga/comms/ifx_i2c\ifx_i2c_data_link_layer.c ****                     p_ctx->dl.state = DL_STATE_RESEND;
 458:D:/School/diseratie/SEMS/xmc4800_evaluation_kit/optiga-trust-m/optiga/comms/ifx_i2c\ifx_i2c_data_link_layer.c ****                     break;
 459:D:/School/diseratie/SEMS/xmc4800_evaluation_kit/optiga-trust-m/optiga/comms/ifx_i2c\ifx_i2c_data_link_layer.c ****                 }
 460:D:/School/diseratie/SEMS/xmc4800_evaluation_kit/optiga-trust-m/optiga/comms/ifx_i2c\ifx_i2c_data_link_layer.c ****                 // Received frame from device, start analyzing
 461:D:/School/diseratie/SEMS/xmc4800_evaluation_kit/optiga-trust-m/optiga/comms/ifx_i2c\ifx_i2c_data_link_layer.c ****                 LOG_DL("[IFX-DL]: Received Frame of length %d\n",data_len);
 462:D:/School/diseratie/SEMS/xmc4800_evaluation_kit/optiga-trust-m/optiga/comms/ifx_i2c\ifx_i2c_data_link_layer.c **** 
 463:D:/School/diseratie/SEMS/xmc4800_evaluation_kit/optiga-trust-m/optiga/comms/ifx_i2c\ifx_i2c_data_link_layer.c ****                 if (data_len < DL_HEADER_SIZE)
 464:D:/School/diseratie/SEMS/xmc4800_evaluation_kit/optiga-trust-m/optiga/comms/ifx_i2c\ifx_i2c_data_link_layer.c ****                 {    // Received length is less than minimum size
 465:D:/School/diseratie/SEMS/xmc4800_evaluation_kit/optiga-trust-m/optiga/comms/ifx_i2c\ifx_i2c_data_link_layer.c ****                     LOG_DL("[IFX-DL]: received data_len < DL_HEADER_SIZE\n");
 466:D:/School/diseratie/SEMS/xmc4800_evaluation_kit/optiga-trust-m/optiga/comms/ifx_i2c\ifx_i2c_data_link_layer.c ****                     p_ctx->dl.state  = DL_STATE_NACK;
 467:D:/School/diseratie/SEMS/xmc4800_evaluation_kit/optiga-trust-m/optiga/comms/ifx_i2c\ifx_i2c_data_link_layer.c ****                     break;
 468:D:/School/diseratie/SEMS/xmc4800_evaluation_kit/optiga-trust-m/optiga/comms/ifx_i2c\ifx_i2c_data_link_layer.c ****                 }
 469:D:/School/diseratie/SEMS/xmc4800_evaluation_kit/optiga-trust-m/optiga/comms/ifx_i2c\ifx_i2c_data_link_layer.c ****                 // Check transmit frame sequence number
 470:D:/School/diseratie/SEMS/xmc4800_evaluation_kit/optiga-trust-m/optiga/comms/ifx_i2c\ifx_i2c_data_link_layer.c ****                 fctr = p_data[0];
 471:D:/School/diseratie/SEMS/xmc4800_evaluation_kit/optiga-trust-m/optiga/comms/ifx_i2c\ifx_i2c_data_link_layer.c ****                 ftype = (fctr & DL_FCTR_FTYPE_MASK) >> DL_FCTR_FTYPE_OFFSET;
 472:D:/School/diseratie/SEMS/xmc4800_evaluation_kit/optiga-trust-m/optiga/comms/ifx_i2c\ifx_i2c_data_link_layer.c ****                 seqctr = (fctr & DL_FCTR_SEQCTR_MASK) >> DL_FCTR_SEQCTR_OFFSET;
 473:D:/School/diseratie/SEMS/xmc4800_evaluation_kit/optiga-trust-m/optiga/comms/ifx_i2c\ifx_i2c_data_link_layer.c ****                 //lint --e{835} suppress "DL_FCTR_ACKNR_OFFSET is defined as 0x00 and is kept for f
 474:D:/School/diseratie/SEMS/xmc4800_evaluation_kit/optiga-trust-m/optiga/comms/ifx_i2c\ifx_i2c_data_link_layer.c ****                 ack_nr = (fctr & DL_FCTR_ACKNR_MASK) >> DL_FCTR_ACKNR_OFFSET;
 475:D:/School/diseratie/SEMS/xmc4800_evaluation_kit/optiga-trust-m/optiga/comms/ifx_i2c\ifx_i2c_data_link_layer.c ****                 fr_nr = (fctr & DL_FCTR_FRNR_MASK) >> DL_FCTR_FRNR_OFFSET;
 476:D:/School/diseratie/SEMS/xmc4800_evaluation_kit/optiga-trust-m/optiga/comms/ifx_i2c\ifx_i2c_data_link_layer.c ****                 packet_len = (p_data[1] << 8) | p_data[2];
 477:D:/School/diseratie/SEMS/xmc4800_evaluation_kit/optiga-trust-m/optiga/comms/ifx_i2c\ifx_i2c_data_link_layer.c **** 
 478:D:/School/diseratie/SEMS/xmc4800_evaluation_kit/optiga-trust-m/optiga/comms/ifx_i2c\ifx_i2c_data_link_layer.c ****                 // Check frame CRC value
 479:D:/School/diseratie/SEMS/xmc4800_evaluation_kit/optiga-trust-m/optiga/comms/ifx_i2c\ifx_i2c_data_link_layer.c ****                 crc_received = (p_data[data_len - 2] << 8) | p_data[data_len - 1];
 480:D:/School/diseratie/SEMS/xmc4800_evaluation_kit/optiga-trust-m/optiga/comms/ifx_i2c\ifx_i2c_data_link_layer.c ****                 crc_calculated = ifx_i2c_dl_calc_crc(p_data, data_len - 2);
 481:D:/School/diseratie/SEMS/xmc4800_evaluation_kit/optiga-trust-m/optiga/comms/ifx_i2c\ifx_i2c_data_link_layer.c ****                 p_ctx->dl.state = (ftype == DL_FCTR_VALUE_CONTROL_FRAME) ? DL_STATE_RX_CF : DL_STAT
 482:D:/School/diseratie/SEMS/xmc4800_evaluation_kit/optiga-trust-m/optiga/comms/ifx_i2c\ifx_i2c_data_link_layer.c ****             }
 483:D:/School/diseratie/SEMS/xmc4800_evaluation_kit/optiga-trust-m/optiga/comms/ifx_i2c\ifx_i2c_data_link_layer.c ****             break;
 484:D:/School/diseratie/SEMS/xmc4800_evaluation_kit/optiga-trust-m/optiga/comms/ifx_i2c\ifx_i2c_data_link_layer.c ****             case DL_STATE_RX_DF:
 485:D:/School/diseratie/SEMS/xmc4800_evaluation_kit/optiga-trust-m/optiga/comms/ifx_i2c\ifx_i2c_data_link_layer.c ****             {
 486:D:/School/diseratie/SEMS/xmc4800_evaluation_kit/optiga-trust-m/optiga/comms/ifx_i2c\ifx_i2c_data_link_layer.c ****                 LOG_DL("[IFX-DL]: Data Frame Received\n");
 487:D:/School/diseratie/SEMS/xmc4800_evaluation_kit/optiga-trust-m/optiga/comms/ifx_i2c\ifx_i2c_data_link_layer.c ****                 if ((crc_received != crc_calculated) || (0 == packet_len) ||
 488:D:/School/diseratie/SEMS/xmc4800_evaluation_kit/optiga-trust-m/optiga/comms/ifx_i2c\ifx_i2c_data_link_layer.c ****                     (data_len != (DL_HEADER_SIZE + packet_len)) || (DL_FCTR_SEQCTR_VALUE_RFU == seq
 489:D:/School/diseratie/SEMS/xmc4800_evaluation_kit/optiga-trust-m/optiga/comms/ifx_i2c\ifx_i2c_data_link_layer.c ****                     (DL_FCTR_SEQCTR_VALUE_RESYNC == seqctr))
 490:D:/School/diseratie/SEMS/xmc4800_evaluation_kit/optiga-trust-m/optiga/comms/ifx_i2c\ifx_i2c_data_link_layer.c ****                 {
 491:D:/School/diseratie/SEMS/xmc4800_evaluation_kit/optiga-trust-m/optiga/comms/ifx_i2c\ifx_i2c_data_link_layer.c ****                     // CRC,Length of data frame is 0/ SEQCTR has RFU/Re-sync in Data frame
 492:D:/School/diseratie/SEMS/xmc4800_evaluation_kit/optiga-trust-m/optiga/comms/ifx_i2c\ifx_i2c_data_link_layer.c ****                     LOG_DL("[IFX-DL]: NACK for CRC error,Data frame length is not correct,RFU in SE
 493:D:/School/diseratie/SEMS/xmc4800_evaluation_kit/optiga-trust-m/optiga/comms/ifx_i2c\ifx_i2c_data_link_layer.c ****                     p_ctx->dl.state  = DL_STATE_NACK;
 494:D:/School/diseratie/SEMS/xmc4800_evaluation_kit/optiga-trust-m/optiga/comms/ifx_i2c\ifx_i2c_data_link_layer.c ****                     break;
 495:D:/School/diseratie/SEMS/xmc4800_evaluation_kit/optiga-trust-m/optiga/comms/ifx_i2c\ifx_i2c_data_link_layer.c ****                 }
 496:D:/School/diseratie/SEMS/xmc4800_evaluation_kit/optiga-trust-m/optiga/comms/ifx_i2c\ifx_i2c_data_link_layer.c ****                 if (fr_nr != ((p_ctx->dl.rx_seq_nr + 1) & DL_MAX_FRAME_NUM))
 497:D:/School/diseratie/SEMS/xmc4800_evaluation_kit/optiga-trust-m/optiga/comms/ifx_i2c\ifx_i2c_data_link_layer.c ****                 {
 498:D:/School/diseratie/SEMS/xmc4800_evaluation_kit/optiga-trust-m/optiga/comms/ifx_i2c\ifx_i2c_data_link_layer.c ****                     LOG_DL("[IFX-DL]: Data frame number not expected\n");
 499:D:/School/diseratie/SEMS/xmc4800_evaluation_kit/optiga-trust-m/optiga/comms/ifx_i2c\ifx_i2c_data_link_layer.c ****                     p_ctx->dl.state  = DL_STATE_DISCARD;
 500:D:/School/diseratie/SEMS/xmc4800_evaluation_kit/optiga-trust-m/optiga/comms/ifx_i2c\ifx_i2c_data_link_layer.c ****                     continue_state_machine = FALSE;
 501:D:/School/diseratie/SEMS/xmc4800_evaluation_kit/optiga-trust-m/optiga/comms/ifx_i2c\ifx_i2c_data_link_layer.c ****                     //lint --e{534} suppress "Error handling is not required so return value is not
 502:D:/School/diseratie/SEMS/xmc4800_evaluation_kit/optiga-trust-m/optiga/comms/ifx_i2c\ifx_i2c_data_link_layer.c ****                     ifx_i2c_dl_send_frame_internal(p_ctx, 0, DL_FCTR_SEQCTR_VALUE_ACK, 0);
 503:D:/School/diseratie/SEMS/xmc4800_evaluation_kit/optiga-trust-m/optiga/comms/ifx_i2c\ifx_i2c_data_link_layer.c ****                     break;
 504:D:/School/diseratie/SEMS/xmc4800_evaluation_kit/optiga-trust-m/optiga/comms/ifx_i2c\ifx_i2c_data_link_layer.c ****                 }
 505:D:/School/diseratie/SEMS/xmc4800_evaluation_kit/optiga-trust-m/optiga/comms/ifx_i2c\ifx_i2c_data_link_layer.c ****                 if (ack_nr != p_ctx->dl.tx_seq_nr)
 506:D:/School/diseratie/SEMS/xmc4800_evaluation_kit/optiga-trust-m/optiga/comms/ifx_i2c\ifx_i2c_data_link_layer.c ****                 {
 507:D:/School/diseratie/SEMS/xmc4800_evaluation_kit/optiga-trust-m/optiga/comms/ifx_i2c\ifx_i2c_data_link_layer.c ****                     // ack number error
 508:D:/School/diseratie/SEMS/xmc4800_evaluation_kit/optiga-trust-m/optiga/comms/ifx_i2c\ifx_i2c_data_link_layer.c ****                     LOG_DL("[IFX-DL]: Error in ack number\n");
 509:D:/School/diseratie/SEMS/xmc4800_evaluation_kit/optiga-trust-m/optiga/comms/ifx_i2c\ifx_i2c_data_link_layer.c ****                     //lint --e{534} suppress "Error handling is not required so return value is not
 510:D:/School/diseratie/SEMS/xmc4800_evaluation_kit/optiga-trust-m/optiga/comms/ifx_i2c\ifx_i2c_data_link_layer.c ****                     p_ctx->dl.state = DL_STATE_DISCARD;
 511:D:/School/diseratie/SEMS/xmc4800_evaluation_kit/optiga-trust-m/optiga/comms/ifx_i2c\ifx_i2c_data_link_layer.c ****                     break;
 512:D:/School/diseratie/SEMS/xmc4800_evaluation_kit/optiga-trust-m/optiga/comms/ifx_i2c\ifx_i2c_data_link_layer.c ****                 }
 513:D:/School/diseratie/SEMS/xmc4800_evaluation_kit/optiga-trust-m/optiga/comms/ifx_i2c\ifx_i2c_data_link_layer.c ****                 if (DL_FCTR_SEQCTR_VALUE_NACK == seqctr)
 514:D:/School/diseratie/SEMS/xmc4800_evaluation_kit/optiga-trust-m/optiga/comms/ifx_i2c\ifx_i2c_data_link_layer.c ****                 {
 515:D:/School/diseratie/SEMS/xmc4800_evaluation_kit/optiga-trust-m/optiga/comms/ifx_i2c\ifx_i2c_data_link_layer.c ****                     // NACK for transmitted frame
 516:D:/School/diseratie/SEMS/xmc4800_evaluation_kit/optiga-trust-m/optiga/comms/ifx_i2c\ifx_i2c_data_link_layer.c ****                     LOG_DL("[IFX-DL]: NACK received in data frame\n");
 517:D:/School/diseratie/SEMS/xmc4800_evaluation_kit/optiga-trust-m/optiga/comms/ifx_i2c\ifx_i2c_data_link_layer.c ****                     p_ctx->dl.state = DL_STATE_RESEND;
 518:D:/School/diseratie/SEMS/xmc4800_evaluation_kit/optiga-trust-m/optiga/comms/ifx_i2c\ifx_i2c_data_link_layer.c ****                     break;
 519:D:/School/diseratie/SEMS/xmc4800_evaluation_kit/optiga-trust-m/optiga/comms/ifx_i2c\ifx_i2c_data_link_layer.c ****                 }
 520:D:/School/diseratie/SEMS/xmc4800_evaluation_kit/optiga-trust-m/optiga/comms/ifx_i2c\ifx_i2c_data_link_layer.c ****                 p_ctx->dl.rx_seq_nr = (p_ctx->dl.rx_seq_nr + 1) & DL_MAX_FRAME_NUM;
 521:D:/School/diseratie/SEMS/xmc4800_evaluation_kit/optiga-trust-m/optiga/comms/ifx_i2c\ifx_i2c_data_link_layer.c ****                 memcpy(p_ctx->dl.p_rx_frame_buffer, p_data, data_len);
 522:D:/School/diseratie/SEMS/xmc4800_evaluation_kit/optiga-trust-m/optiga/comms/ifx_i2c\ifx_i2c_data_link_layer.c ****                 p_ctx->dl.rx_buffer_size = data_len;
 523:D:/School/diseratie/SEMS/xmc4800_evaluation_kit/optiga-trust-m/optiga/comms/ifx_i2c\ifx_i2c_data_link_layer.c **** 
 524:D:/School/diseratie/SEMS/xmc4800_evaluation_kit/optiga-trust-m/optiga/comms/ifx_i2c\ifx_i2c_data_link_layer.c ****                 // Send control frame to acknowledge reception of this data frame
 525:D:/School/diseratie/SEMS/xmc4800_evaluation_kit/optiga-trust-m/optiga/comms/ifx_i2c\ifx_i2c_data_link_layer.c ****                 LOG_DL("[IFX-DL]: Read Data Frame -> Send ACK\n");
 526:D:/School/diseratie/SEMS/xmc4800_evaluation_kit/optiga-trust-m/optiga/comms/ifx_i2c\ifx_i2c_data_link_layer.c ****                 p_ctx->dl.retransmit_counter = 0;
 527:D:/School/diseratie/SEMS/xmc4800_evaluation_kit/optiga-trust-m/optiga/comms/ifx_i2c\ifx_i2c_data_link_layer.c ****                 p_ctx->dl.state = DL_STATE_ACK;
 528:D:/School/diseratie/SEMS/xmc4800_evaluation_kit/optiga-trust-m/optiga/comms/ifx_i2c\ifx_i2c_data_link_layer.c ****                 continue_state_machine = FALSE;
 529:D:/School/diseratie/SEMS/xmc4800_evaluation_kit/optiga-trust-m/optiga/comms/ifx_i2c\ifx_i2c_data_link_layer.c **** 
 530:D:/School/diseratie/SEMS/xmc4800_evaluation_kit/optiga-trust-m/optiga/comms/ifx_i2c\ifx_i2c_data_link_layer.c ****                 OPTIGA_COMMS_LOG_MESSAGE("<<<<");\
 531:D:/School/diseratie/SEMS/xmc4800_evaluation_kit/optiga-trust-m/optiga/comms/ifx_i2c\ifx_i2c_data_link_layer.c ****                 OPTIGA_IFXI2C_LOG_RECEIVE_HEX_DATA(p_data,data_len,p_ctx);
 532:D:/School/diseratie/SEMS/xmc4800_evaluation_kit/optiga-trust-m/optiga/comms/ifx_i2c\ifx_i2c_data_link_layer.c ****                 //lint --e{534} suppress "Error handling is not required so return value is not che
 533:D:/School/diseratie/SEMS/xmc4800_evaluation_kit/optiga-trust-m/optiga/comms/ifx_i2c\ifx_i2c_data_link_layer.c ****                 ifx_i2c_dl_send_frame_internal(p_ctx, 0, DL_FCTR_SEQCTR_VALUE_ACK, 0);
 534:D:/School/diseratie/SEMS/xmc4800_evaluation_kit/optiga-trust-m/optiga/comms/ifx_i2c\ifx_i2c_data_link_layer.c ****             }
 535:D:/School/diseratie/SEMS/xmc4800_evaluation_kit/optiga-trust-m/optiga/comms/ifx_i2c\ifx_i2c_data_link_layer.c ****             break;
 536:D:/School/diseratie/SEMS/xmc4800_evaluation_kit/optiga-trust-m/optiga/comms/ifx_i2c\ifx_i2c_data_link_layer.c ****             case DL_STATE_RX_CF:
 537:D:/School/diseratie/SEMS/xmc4800_evaluation_kit/optiga-trust-m/optiga/comms/ifx_i2c\ifx_i2c_data_link_layer.c ****             {
 538:D:/School/diseratie/SEMS/xmc4800_evaluation_kit/optiga-trust-m/optiga/comms/ifx_i2c\ifx_i2c_data_link_layer.c ****                 LOG_DL("[IFX-DL]: Control Frame Received\n");
 539:D:/School/diseratie/SEMS/xmc4800_evaluation_kit/optiga-trust-m/optiga/comms/ifx_i2c\ifx_i2c_data_link_layer.c ****                 // Except Re-Sync, Discard Control frame when in receiver mode
 540:D:/School/diseratie/SEMS/xmc4800_evaluation_kit/optiga-trust-m/optiga/comms/ifx_i2c\ifx_i2c_data_link_layer.c ****                 // Discard Re-Sync in transmission mode
 541:D:/School/diseratie/SEMS/xmc4800_evaluation_kit/optiga-trust-m/optiga/comms/ifx_i2c\ifx_i2c_data_link_layer.c ****                 //lint --e{514} suppress "Refer the above comment for the explaination of this chec
 542:D:/School/diseratie/SEMS/xmc4800_evaluation_kit/optiga-trust-m/optiga/comms/ifx_i2c\ifx_i2c_data_link_layer.c ****                 if ((p_ctx->dl.action_rx_only) ^ (DL_FCTR_SEQCTR_VALUE_RESYNC == seqctr))
  94              	 .loc 1 542 0
  95 004e 019A     	 ldr r2,[sp,#4]
  96 0050 95F86330 	 ldrb r3,[r5,#99]
  97 0054 A2F10202 	 sub r2,#2
  98 0058 B2FA82F2 	 clz r2,r2
  99 005c 5209     	 lsrs r2,r2,#5
 100 005e 9342     	 cmp r3,r2
 101 0060 00F0D281 	 beq .L29
 543:D:/School/diseratie/SEMS/xmc4800_evaluation_kit/optiga-trust-m/optiga/comms/ifx_i2c\ifx_i2c_data_link_layer.c ****                 {
 544:D:/School/diseratie/SEMS/xmc4800_evaluation_kit/optiga-trust-m/optiga/comms/ifx_i2c\ifx_i2c_data_link_layer.c ****                     //If control frame already received for data frame, ignore any received control
 545:D:/School/diseratie/SEMS/xmc4800_evaluation_kit/optiga-trust-m/optiga/comms/ifx_i2c\ifx_i2c_data_link_layer.c ****                     LOG_DL("[IFX-DL]: CF in receiver mode,Discard\n");
 546:D:/School/diseratie/SEMS/xmc4800_evaluation_kit/optiga-trust-m/optiga/comms/ifx_i2c\ifx_i2c_data_link_layer.c ****                     p_ctx->dl.state = DL_STATE_DISCARD;
 102              	 .loc 1 546 0
 103 0064 0923     	 movs r3,#9
 417:D:/School/diseratie/SEMS/xmc4800_evaluation_kit/optiga-trust-m/optiga/comms/ifx_i2c\ifx_i2c_data_link_layer.c ****         {    // Exit in case of fatal error
 104              	 .loc 1 417 0
 105 0066 B9F5837F 	 cmp r9,#262
 106              	 .loc 1 546 0
 107 006a 85F86030 	 strb r3,[r5,#96]
 417:D:/School/diseratie/SEMS/xmc4800_evaluation_kit/optiga-trust-m/optiga/comms/ifx_i2c\ifx_i2c_data_link_layer.c ****         {    // Exit in case of fatal error
 108              	 .loc 1 417 0
 109 006e DDD1     	 bne .L2
 110              	.L76:
 417:D:/School/diseratie/SEMS/xmc4800_evaluation_kit/optiga-trust-m/optiga/comms/ifx_i2c\ifx_i2c_data_link_layer.c ****         {    // Exit in case of fatal error
 111              	 .loc 1 417 0 is_stmt 0 discriminator 1
 112 0070 012B     	 cmp r3,#1
 113 0072 00F04081 	 beq .L53
 420:D:/School/diseratie/SEMS/xmc4800_evaluation_kit/optiga-trust-m/optiga/comms/ifx_i2c\ifx_i2c_data_link_layer.c ****         }
 114              	 .loc 1 420 0 is_stmt 1
 115 0076 0823     	 movs r3,#8
 116 0078 85F86030 	 strb r3,[r5,#96]
 117              	.L4:
 547:D:/School/diseratie/SEMS/xmc4800_evaluation_kit/optiga-trust-m/optiga/comms/ifx_i2c\ifx_i2c_data_link_layer.c ****                     break;
 548:D:/School/diseratie/SEMS/xmc4800_evaluation_kit/optiga-trust-m/optiga/comms/ifx_i2c\ifx_i2c_data_link_layer.c ****                 }
 549:D:/School/diseratie/SEMS/xmc4800_evaluation_kit/optiga-trust-m/optiga/comms/ifx_i2c\ifx_i2c_data_link_layer.c ****                 if (crc_received != crc_calculated)
 550:D:/School/diseratie/SEMS/xmc4800_evaluation_kit/optiga-trust-m/optiga/comms/ifx_i2c\ifx_i2c_data_link_layer.c ****                 {
 551:D:/School/diseratie/SEMS/xmc4800_evaluation_kit/optiga-trust-m/optiga/comms/ifx_i2c\ifx_i2c_data_link_layer.c ****                     // Re-Transmit frame in case of CF CRC error
 552:D:/School/diseratie/SEMS/xmc4800_evaluation_kit/optiga-trust-m/optiga/comms/ifx_i2c\ifx_i2c_data_link_layer.c ****                     LOG_DL("[IFX-DL]: Retransmit frame for CF CRC error\n");
 553:D:/School/diseratie/SEMS/xmc4800_evaluation_kit/optiga-trust-m/optiga/comms/ifx_i2c\ifx_i2c_data_link_layer.c ****                     p_ctx->dl.state = DL_STATE_RESEND;
 554:D:/School/diseratie/SEMS/xmc4800_evaluation_kit/optiga-trust-m/optiga/comms/ifx_i2c\ifx_i2c_data_link_layer.c ****                     break;
 555:D:/School/diseratie/SEMS/xmc4800_evaluation_kit/optiga-trust-m/optiga/comms/ifx_i2c\ifx_i2c_data_link_layer.c ****                 }
 556:D:/School/diseratie/SEMS/xmc4800_evaluation_kit/optiga-trust-m/optiga/comms/ifx_i2c\ifx_i2c_data_link_layer.c ****                 if ((data_len > DL_CONTROL_FRAME_LENGTH) || (0 != packet_len))
 557:D:/School/diseratie/SEMS/xmc4800_evaluation_kit/optiga-trust-m/optiga/comms/ifx_i2c\ifx_i2c_data_link_layer.c ****                 {
 558:D:/School/diseratie/SEMS/xmc4800_evaluation_kit/optiga-trust-m/optiga/comms/ifx_i2c\ifx_i2c_data_link_layer.c ****                     // Control frame is more than 5/Control frame with non-zero FRNR/packet len is 
 559:D:/School/diseratie/SEMS/xmc4800_evaluation_kit/optiga-trust-m/optiga/comms/ifx_i2c\ifx_i2c_data_link_layer.c ****                     LOG_DL("[IFX-DL]: Errors in control frame\n");
 560:D:/School/diseratie/SEMS/xmc4800_evaluation_kit/optiga-trust-m/optiga/comms/ifx_i2c\ifx_i2c_data_link_layer.c ****                     p_ctx->dl.state = DL_STATE_DISCARD;
 561:D:/School/diseratie/SEMS/xmc4800_evaluation_kit/optiga-trust-m/optiga/comms/ifx_i2c\ifx_i2c_data_link_layer.c ****                     break;
 562:D:/School/diseratie/SEMS/xmc4800_evaluation_kit/optiga-trust-m/optiga/comms/ifx_i2c\ifx_i2c_data_link_layer.c ****                 }
 563:D:/School/diseratie/SEMS/xmc4800_evaluation_kit/optiga-trust-m/optiga/comms/ifx_i2c\ifx_i2c_data_link_layer.c ****                 if (DL_FCTR_SEQCTR_VALUE_RESYNC == seqctr)
 564:D:/School/diseratie/SEMS/xmc4800_evaluation_kit/optiga-trust-m/optiga/comms/ifx_i2c\ifx_i2c_data_link_layer.c ****                 {    // Re-sync received
 565:D:/School/diseratie/SEMS/xmc4800_evaluation_kit/optiga-trust-m/optiga/comms/ifx_i2c\ifx_i2c_data_link_layer.c ****                     LOG_DL("[IFX-DL]: Re-Sync received\n");
 566:D:/School/diseratie/SEMS/xmc4800_evaluation_kit/optiga-trust-m/optiga/comms/ifx_i2c\ifx_i2c_data_link_layer.c ****                     p_ctx->dl.state = DL_STATE_DISCARD;
 567:D:/School/diseratie/SEMS/xmc4800_evaluation_kit/optiga-trust-m/optiga/comms/ifx_i2c\ifx_i2c_data_link_layer.c ****                     p_ctx->dl.resynced = 1;
 568:D:/School/diseratie/SEMS/xmc4800_evaluation_kit/optiga-trust-m/optiga/comms/ifx_i2c\ifx_i2c_data_link_layer.c ****                     p_ctx->dl.tx_seq_nr = DL_MAX_FRAME_NUM;
 569:D:/School/diseratie/SEMS/xmc4800_evaluation_kit/optiga-trust-m/optiga/comms/ifx_i2c\ifx_i2c_data_link_layer.c ****                     p_ctx->dl.rx_seq_nr = DL_MAX_FRAME_NUM;
 570:D:/School/diseratie/SEMS/xmc4800_evaluation_kit/optiga-trust-m/optiga/comms/ifx_i2c\ifx_i2c_data_link_layer.c ****                     break;
 571:D:/School/diseratie/SEMS/xmc4800_evaluation_kit/optiga-trust-m/optiga/comms/ifx_i2c\ifx_i2c_data_link_layer.c ****                 }
 572:D:/School/diseratie/SEMS/xmc4800_evaluation_kit/optiga-trust-m/optiga/comms/ifx_i2c\ifx_i2c_data_link_layer.c ****                 if ((0 != fr_nr) || (DL_FCTR_SEQCTR_VALUE_RFU == seqctr) || (ack_nr != p_ctx->dl.tx
 573:D:/School/diseratie/SEMS/xmc4800_evaluation_kit/optiga-trust-m/optiga/comms/ifx_i2c\ifx_i2c_data_link_layer.c ****                 {
 574:D:/School/diseratie/SEMS/xmc4800_evaluation_kit/optiga-trust-m/optiga/comms/ifx_i2c\ifx_i2c_data_link_layer.c ****                     // Control frame with non-zero FRNR/ ACK not received/ ack number != tx number
 575:D:/School/diseratie/SEMS/xmc4800_evaluation_kit/optiga-trust-m/optiga/comms/ifx_i2c\ifx_i2c_data_link_layer.c ****                     LOG_DL("[IFX-DL]: Errors in control frame\n");
 576:D:/School/diseratie/SEMS/xmc4800_evaluation_kit/optiga-trust-m/optiga/comms/ifx_i2c\ifx_i2c_data_link_layer.c ****                     p_ctx->dl.state = DL_STATE_DISCARD;
 577:D:/School/diseratie/SEMS/xmc4800_evaluation_kit/optiga-trust-m/optiga/comms/ifx_i2c\ifx_i2c_data_link_layer.c ****                     break;
 578:D:/School/diseratie/SEMS/xmc4800_evaluation_kit/optiga-trust-m/optiga/comms/ifx_i2c\ifx_i2c_data_link_layer.c ****                 }
 579:D:/School/diseratie/SEMS/xmc4800_evaluation_kit/optiga-trust-m/optiga/comms/ifx_i2c\ifx_i2c_data_link_layer.c ****                 if (DL_FCTR_SEQCTR_VALUE_NACK == seqctr)
 580:D:/School/diseratie/SEMS/xmc4800_evaluation_kit/optiga-trust-m/optiga/comms/ifx_i2c\ifx_i2c_data_link_layer.c ****                 {
 581:D:/School/diseratie/SEMS/xmc4800_evaluation_kit/optiga-trust-m/optiga/comms/ifx_i2c\ifx_i2c_data_link_layer.c ****                     // NACK for transmitted frame
 582:D:/School/diseratie/SEMS/xmc4800_evaluation_kit/optiga-trust-m/optiga/comms/ifx_i2c\ifx_i2c_data_link_layer.c ****                     LOG_DL("[IFX-DL]: NACK received\n");
 583:D:/School/diseratie/SEMS/xmc4800_evaluation_kit/optiga-trust-m/optiga/comms/ifx_i2c\ifx_i2c_data_link_layer.c ****                     p_ctx->dl.state = DL_STATE_RESEND;
 584:D:/School/diseratie/SEMS/xmc4800_evaluation_kit/optiga-trust-m/optiga/comms/ifx_i2c\ifx_i2c_data_link_layer.c ****                     break;
 585:D:/School/diseratie/SEMS/xmc4800_evaluation_kit/optiga-trust-m/optiga/comms/ifx_i2c\ifx_i2c_data_link_layer.c ****                 }
 586:D:/School/diseratie/SEMS/xmc4800_evaluation_kit/optiga-trust-m/optiga/comms/ifx_i2c\ifx_i2c_data_link_layer.c **** 
 587:D:/School/diseratie/SEMS/xmc4800_evaluation_kit/optiga-trust-m/optiga/comms/ifx_i2c\ifx_i2c_data_link_layer.c ****                 LOG_DL("[IFX-DL]: ACK received\n");
 588:D:/School/diseratie/SEMS/xmc4800_evaluation_kit/optiga-trust-m/optiga/comms/ifx_i2c\ifx_i2c_data_link_layer.c ****                 // Report frame reception to upper layer and go in idle state
 589:D:/School/diseratie/SEMS/xmc4800_evaluation_kit/optiga-trust-m/optiga/comms/ifx_i2c\ifx_i2c_data_link_layer.c ****                 p_ctx->dl.state = DL_STATE_IDLE;
 590:D:/School/diseratie/SEMS/xmc4800_evaluation_kit/optiga-trust-m/optiga/comms/ifx_i2c\ifx_i2c_data_link_layer.c ****                 continue_state_machine = FALSE;
 591:D:/School/diseratie/SEMS/xmc4800_evaluation_kit/optiga-trust-m/optiga/comms/ifx_i2c\ifx_i2c_data_link_layer.c ****                 p_ctx->dl.upper_layer_event_handler(p_ctx, IFX_I2C_DL_EVENT_TX_SUCCESS, 0, 0);
 592:D:/School/diseratie/SEMS/xmc4800_evaluation_kit/optiga-trust-m/optiga/comms/ifx_i2c\ifx_i2c_data_link_layer.c ****             }
 593:D:/School/diseratie/SEMS/xmc4800_evaluation_kit/optiga-trust-m/optiga/comms/ifx_i2c\ifx_i2c_data_link_layer.c ****             break;
 594:D:/School/diseratie/SEMS/xmc4800_evaluation_kit/optiga-trust-m/optiga/comms/ifx_i2c\ifx_i2c_data_link_layer.c ****             case DL_STATE_DISCARD:
 595:D:/School/diseratie/SEMS/xmc4800_evaluation_kit/optiga-trust-m/optiga/comms/ifx_i2c\ifx_i2c_data_link_layer.c ****             {
 596:D:/School/diseratie/SEMS/xmc4800_evaluation_kit/optiga-trust-m/optiga/comms/ifx_i2c\ifx_i2c_data_link_layer.c ****                 LOG_DL("[IFX-DL]: Discard frame\n");
 597:D:/School/diseratie/SEMS/xmc4800_evaluation_kit/optiga-trust-m/optiga/comms/ifx_i2c\ifx_i2c_data_link_layer.c ****                 p_ctx->dl.state = DL_STATE_RX;
 598:D:/School/diseratie/SEMS/xmc4800_evaluation_kit/optiga-trust-m/optiga/comms/ifx_i2c\ifx_i2c_data_link_layer.c ****                 continue_state_machine = FALSE;
 599:D:/School/diseratie/SEMS/xmc4800_evaluation_kit/optiga-trust-m/optiga/comms/ifx_i2c\ifx_i2c_data_link_layer.c ****                 //lint --e{534} suppress "Error handling is not required so return value is not che
 600:D:/School/diseratie/SEMS/xmc4800_evaluation_kit/optiga-trust-m/optiga/comms/ifx_i2c\ifx_i2c_data_link_layer.c ****                 ifx_i2c_pl_receive_frame(p_ctx);
 601:D:/School/diseratie/SEMS/xmc4800_evaluation_kit/optiga-trust-m/optiga/comms/ifx_i2c\ifx_i2c_data_link_layer.c ****             }
 602:D:/School/diseratie/SEMS/xmc4800_evaluation_kit/optiga-trust-m/optiga/comms/ifx_i2c\ifx_i2c_data_link_layer.c ****             break;
 603:D:/School/diseratie/SEMS/xmc4800_evaluation_kit/optiga-trust-m/optiga/comms/ifx_i2c\ifx_i2c_data_link_layer.c ****             case DL_STATE_ACK:
 604:D:/School/diseratie/SEMS/xmc4800_evaluation_kit/optiga-trust-m/optiga/comms/ifx_i2c\ifx_i2c_data_link_layer.c ****             {
 605:D:/School/diseratie/SEMS/xmc4800_evaluation_kit/optiga-trust-m/optiga/comms/ifx_i2c\ifx_i2c_data_link_layer.c ****                 LOG_DL("[IFX-DL]: ACK sent\n");
 606:D:/School/diseratie/SEMS/xmc4800_evaluation_kit/optiga-trust-m/optiga/comms/ifx_i2c\ifx_i2c_data_link_layer.c ****                 if (IFX_I2C_STACK_ERROR == event)
 607:D:/School/diseratie/SEMS/xmc4800_evaluation_kit/optiga-trust-m/optiga/comms/ifx_i2c\ifx_i2c_data_link_layer.c ****                 {
 608:D:/School/diseratie/SEMS/xmc4800_evaluation_kit/optiga-trust-m/optiga/comms/ifx_i2c\ifx_i2c_data_link_layer.c ****                     // If writing the ACK frame failed, Re-Send
 609:D:/School/diseratie/SEMS/xmc4800_evaluation_kit/optiga-trust-m/optiga/comms/ifx_i2c\ifx_i2c_data_link_layer.c ****                     LOG_DL("[IFX-DL]: Physical Layer error -> Resend ACK\n");
 610:D:/School/diseratie/SEMS/xmc4800_evaluation_kit/optiga-trust-m/optiga/comms/ifx_i2c\ifx_i2c_data_link_layer.c ****                     p_ctx->dl.state = DL_STATE_RESEND;
 611:D:/School/diseratie/SEMS/xmc4800_evaluation_kit/optiga-trust-m/optiga/comms/ifx_i2c\ifx_i2c_data_link_layer.c ****                     break;
 612:D:/School/diseratie/SEMS/xmc4800_evaluation_kit/optiga-trust-m/optiga/comms/ifx_i2c\ifx_i2c_data_link_layer.c ****                 }
 613:D:/School/diseratie/SEMS/xmc4800_evaluation_kit/optiga-trust-m/optiga/comms/ifx_i2c\ifx_i2c_data_link_layer.c ****                 // Control frame successful transmitted
 614:D:/School/diseratie/SEMS/xmc4800_evaluation_kit/optiga-trust-m/optiga/comms/ifx_i2c\ifx_i2c_data_link_layer.c ****                 p_ctx->dl.state = DL_STATE_IDLE;
 615:D:/School/diseratie/SEMS/xmc4800_evaluation_kit/optiga-trust-m/optiga/comms/ifx_i2c\ifx_i2c_data_link_layer.c ****                 continue_state_machine = FALSE;
 616:D:/School/diseratie/SEMS/xmc4800_evaluation_kit/optiga-trust-m/optiga/comms/ifx_i2c\ifx_i2c_data_link_layer.c ****                 if (0 != p_ctx->dl.action_rx_only)
 617:D:/School/diseratie/SEMS/xmc4800_evaluation_kit/optiga-trust-m/optiga/comms/ifx_i2c\ifx_i2c_data_link_layer.c ****                 {
 618:D:/School/diseratie/SEMS/xmc4800_evaluation_kit/optiga-trust-m/optiga/comms/ifx_i2c\ifx_i2c_data_link_layer.c ****                     p_ctx->dl.upper_layer_event_handler(p_ctx,
 619:D:/School/diseratie/SEMS/xmc4800_evaluation_kit/optiga-trust-m/optiga/comms/ifx_i2c\ifx_i2c_data_link_layer.c ****                                                         IFX_I2C_DL_EVENT_RX_SUCCESS,
 620:D:/School/diseratie/SEMS/xmc4800_evaluation_kit/optiga-trust-m/optiga/comms/ifx_i2c\ifx_i2c_data_link_layer.c ****                                                         p_ctx->dl.p_rx_frame_buffer + 3,
 621:D:/School/diseratie/SEMS/xmc4800_evaluation_kit/optiga-trust-m/optiga/comms/ifx_i2c\ifx_i2c_data_link_layer.c ****                                                         p_ctx->dl.rx_buffer_size - DL_HEADER_SIZE);
 622:D:/School/diseratie/SEMS/xmc4800_evaluation_kit/optiga-trust-m/optiga/comms/ifx_i2c\ifx_i2c_data_link_layer.c ****                 }
 623:D:/School/diseratie/SEMS/xmc4800_evaluation_kit/optiga-trust-m/optiga/comms/ifx_i2c\ifx_i2c_data_link_layer.c ****                 else
 624:D:/School/diseratie/SEMS/xmc4800_evaluation_kit/optiga-trust-m/optiga/comms/ifx_i2c\ifx_i2c_data_link_layer.c ****                 {
 625:D:/School/diseratie/SEMS/xmc4800_evaluation_kit/optiga-trust-m/optiga/comms/ifx_i2c\ifx_i2c_data_link_layer.c ****                     p_ctx->dl.upper_layer_event_handler(p_ctx,
 626:D:/School/diseratie/SEMS/xmc4800_evaluation_kit/optiga-trust-m/optiga/comms/ifx_i2c\ifx_i2c_data_link_layer.c ****                                                         IFX_I2C_DL_EVENT_TX_SUCCESS | IFX_I2C_DL_EV
 627:D:/School/diseratie/SEMS/xmc4800_evaluation_kit/optiga-trust-m/optiga/comms/ifx_i2c\ifx_i2c_data_link_layer.c ****                                                         p_ctx->dl.p_rx_frame_buffer + 3,
 628:D:/School/diseratie/SEMS/xmc4800_evaluation_kit/optiga-trust-m/optiga/comms/ifx_i2c\ifx_i2c_data_link_layer.c ****                                                         p_ctx->dl.rx_buffer_size - DL_HEADER_SIZE);
 629:D:/School/diseratie/SEMS/xmc4800_evaluation_kit/optiga-trust-m/optiga/comms/ifx_i2c\ifx_i2c_data_link_layer.c ****                 }
 630:D:/School/diseratie/SEMS/xmc4800_evaluation_kit/optiga-trust-m/optiga/comms/ifx_i2c\ifx_i2c_data_link_layer.c ****             }
 631:D:/School/diseratie/SEMS/xmc4800_evaluation_kit/optiga-trust-m/optiga/comms/ifx_i2c\ifx_i2c_data_link_layer.c ****             break;
 632:D:/School/diseratie/SEMS/xmc4800_evaluation_kit/optiga-trust-m/optiga/comms/ifx_i2c\ifx_i2c_data_link_layer.c ****             case DL_STATE_NACK:
 633:D:/School/diseratie/SEMS/xmc4800_evaluation_kit/optiga-trust-m/optiga/comms/ifx_i2c\ifx_i2c_data_link_layer.c ****             {
 634:D:/School/diseratie/SEMS/xmc4800_evaluation_kit/optiga-trust-m/optiga/comms/ifx_i2c\ifx_i2c_data_link_layer.c ****                 // Sending NACK
 635:D:/School/diseratie/SEMS/xmc4800_evaluation_kit/optiga-trust-m/optiga/comms/ifx_i2c\ifx_i2c_data_link_layer.c ****                 LOG_DL("[IFX-DL]: Sending NACK\n");
 636:D:/School/diseratie/SEMS/xmc4800_evaluation_kit/optiga-trust-m/optiga/comms/ifx_i2c\ifx_i2c_data_link_layer.c ****                 p_ctx->dl.state = DL_STATE_TX;
 637:D:/School/diseratie/SEMS/xmc4800_evaluation_kit/optiga-trust-m/optiga/comms/ifx_i2c\ifx_i2c_data_link_layer.c ****                 continue_state_machine = FALSE;
 638:D:/School/diseratie/SEMS/xmc4800_evaluation_kit/optiga-trust-m/optiga/comms/ifx_i2c\ifx_i2c_data_link_layer.c ****                 //lint --e{534} suppress "Error handling is not required so return value is not che
 639:D:/School/diseratie/SEMS/xmc4800_evaluation_kit/optiga-trust-m/optiga/comms/ifx_i2c\ifx_i2c_data_link_layer.c ****                 ifx_i2c_dl_send_frame_internal(p_ctx, 0, DL_FCTR_SEQCTR_VALUE_NACK, 0);
 640:D:/School/diseratie/SEMS/xmc4800_evaluation_kit/optiga-trust-m/optiga/comms/ifx_i2c\ifx_i2c_data_link_layer.c ****             }
 641:D:/School/diseratie/SEMS/xmc4800_evaluation_kit/optiga-trust-m/optiga/comms/ifx_i2c\ifx_i2c_data_link_layer.c ****             break;
 642:D:/School/diseratie/SEMS/xmc4800_evaluation_kit/optiga-trust-m/optiga/comms/ifx_i2c\ifx_i2c_data_link_layer.c ****             case DL_STATE_RESEND:
 643:D:/School/diseratie/SEMS/xmc4800_evaluation_kit/optiga-trust-m/optiga/comms/ifx_i2c\ifx_i2c_data_link_layer.c ****             {
 644:D:/School/diseratie/SEMS/xmc4800_evaluation_kit/optiga-trust-m/optiga/comms/ifx_i2c\ifx_i2c_data_link_layer.c ****                 //Resend frame
 645:D:/School/diseratie/SEMS/xmc4800_evaluation_kit/optiga-trust-m/optiga/comms/ifx_i2c\ifx_i2c_data_link_layer.c ****                 ifx_i2c_dl_resend_frame(p_ctx, DL_FCTR_SEQCTR_VALUE_ACK);
 646:D:/School/diseratie/SEMS/xmc4800_evaluation_kit/optiga-trust-m/optiga/comms/ifx_i2c\ifx_i2c_data_link_layer.c ****                 if (DL_STATE_ERROR != p_ctx->dl.state)
 647:D:/School/diseratie/SEMS/xmc4800_evaluation_kit/optiga-trust-m/optiga/comms/ifx_i2c\ifx_i2c_data_link_layer.c ****                 {
 648:D:/School/diseratie/SEMS/xmc4800_evaluation_kit/optiga-trust-m/optiga/comms/ifx_i2c\ifx_i2c_data_link_layer.c ****                     continue_state_machine = FALSE;
 649:D:/School/diseratie/SEMS/xmc4800_evaluation_kit/optiga-trust-m/optiga/comms/ifx_i2c\ifx_i2c_data_link_layer.c ****                 }
 650:D:/School/diseratie/SEMS/xmc4800_evaluation_kit/optiga-trust-m/optiga/comms/ifx_i2c\ifx_i2c_data_link_layer.c ****             }
 651:D:/School/diseratie/SEMS/xmc4800_evaluation_kit/optiga-trust-m/optiga/comms/ifx_i2c\ifx_i2c_data_link_layer.c ****             break;
 652:D:/School/diseratie/SEMS/xmc4800_evaluation_kit/optiga-trust-m/optiga/comms/ifx_i2c\ifx_i2c_data_link_layer.c ****             case DL_STATE_ERROR:
 653:D:/School/diseratie/SEMS/xmc4800_evaluation_kit/optiga-trust-m/optiga/comms/ifx_i2c\ifx_i2c_data_link_layer.c ****             {
 654:D:/School/diseratie/SEMS/xmc4800_evaluation_kit/optiga-trust-m/optiga/comms/ifx_i2c\ifx_i2c_data_link_layer.c ****                 if (0 == p_ctx->dl.resynced)
 118              	 .loc 1 654 0
 119 007c 95F86630 	 ldrb r3,[r5,#102]
 120 0080 002B     	 cmp r3,#0
 121 0082 40F03A81 	 bne .L50
 655:D:/School/diseratie/SEMS/xmc4800_evaluation_kit/optiga-trust-m/optiga/comms/ifx_i2c\ifx_i2c_data_link_layer.c ****                 {
 656:D:/School/diseratie/SEMS/xmc4800_evaluation_kit/optiga-trust-m/optiga/comms/ifx_i2c\ifx_i2c_data_link_layer.c ****                     p_ctx->dl.error = 1;
 122              	 .loc 1 656 0
 123 0086 0123     	 movs r3,#1
 124 0088 85F86530 	 strb r3,[r5,#101]
 125              	.L51:
 126              	.LVL3:
 127              	.LBB56:
 128              	.LBB57:
 129              	.LBB58:
 130              	.LBB59:
 304:D:/School/diseratie/SEMS/xmc4800_evaluation_kit/optiga-trust-m/optiga/comms/ifx_i2c\ifx_i2c_data_link_layer.c ****     }
 131              	 .loc 1 304 0
 132 008c 696F     	 ldr r1,[r5,#116]
 133              	.LBE59:
 134              	.LBE58:
 352:D:/School/diseratie/SEMS/xmc4800_evaluation_kit/optiga-trust-m/optiga/comms/ifx_i2c\ifx_i2c_data_link_layer.c ****     p_ctx->dl.rx_seq_nr = DL_MAX_FRAME_NUM;
 135              	 .loc 1 352 0
 136 008e 0323     	 movs r3,#3
 137              	.LBB63:
 138              	.LBB60:
 335:D:/School/diseratie/SEMS/xmc4800_evaluation_kit/optiga-trust-m/optiga/comms/ifx_i2c\ifx_i2c_data_link_layer.c ****     p_buffer[2] = (uint8_t)frame_len;
 139              	 .loc 1 335 0
 140 0090 0024     	 movs r4,#0
 141              	.LVL4:
 142              	.LBE60:
 143              	.LBE63:
 354:D:/School/diseratie/SEMS/xmc4800_evaluation_kit/optiga-trust-m/optiga/comms/ifx_i2c\ifx_i2c_data_link_layer.c ****     LOG_DL("[IFX-DL]: Send Re-Sync Frame\n");
 144              	 .loc 1 354 0
 145 0092 4FF0010E 	 mov lr,#1
 356:D:/School/diseratie/SEMS/xmc4800_evaluation_kit/optiga-trust-m/optiga/comms/ifx_i2c\ifx_i2c_data_link_layer.c ****     api_status = ifx_i2c_dl_send_frame_internal(p_ctx, 0, DL_FCTR_SEQCTR_VALUE_RESYNC, 0);
 146              	 .loc 1 356 0
 147 0096 0522     	 movs r2,#5
 148              	.LBB64:
 149              	.LBB61:
 341:D:/School/diseratie/SEMS/xmc4800_evaluation_kit/optiga-trust-m/optiga/comms/ifx_i2c\ifx_i2c_data_link_layer.c **** 
 150              	 .loc 1 341 0
 151 0098 9A20     	 movs r0,#154
 331:D:/School/diseratie/SEMS/xmc4800_evaluation_kit/optiga-trust-m/optiga/comms/ifx_i2c\ifx_i2c_data_link_layer.c ****     }
 152              	 .loc 1 331 0
 153 009a C027     	 movs r7,#192
 340:D:/School/diseratie/SEMS/xmc4800_evaluation_kit/optiga-trust-m/optiga/comms/ifx_i2c\ifx_i2c_data_link_layer.c ****     p_buffer[4 + frame_len] = (uint8_t)crc;
 154              	 .loc 1 340 0
 155 009c 0A26     	 movs r6,#10
 156              	.LBE61:
 157              	.LBE64:
 352:D:/School/diseratie/SEMS/xmc4800_evaluation_kit/optiga-trust-m/optiga/comms/ifx_i2c\ifx_i2c_data_link_layer.c ****     p_ctx->dl.rx_seq_nr = DL_MAX_FRAME_NUM;
 158              	 .loc 1 352 0
 159 009e 85F86130 	 strb r3,[r5,#97]
 353:D:/School/diseratie/SEMS/xmc4800_evaluation_kit/optiga-trust-m/optiga/comms/ifx_i2c\ifx_i2c_data_link_layer.c ****     p_ctx->dl.resynced = 1;
 160              	 .loc 1 353 0
 161 00a2 85F86230 	 strb r3,[r5,#98]
 354:D:/School/diseratie/SEMS/xmc4800_evaluation_kit/optiga-trust-m/optiga/comms/ifx_i2c\ifx_i2c_data_link_layer.c ****     LOG_DL("[IFX-DL]: Send Re-Sync Frame\n");
 162              	 .loc 1 354 0
 163 00a6 85F866E0 	 strb lr,[r5,#102]
 356:D:/School/diseratie/SEMS/xmc4800_evaluation_kit/optiga-trust-m/optiga/comms/ifx_i2c\ifx_i2c_data_link_layer.c ****     api_status = ifx_i2c_dl_send_frame_internal(p_ctx, 0, DL_FCTR_SEQCTR_VALUE_RESYNC, 0);
 164              	 .loc 1 356 0
 165 00aa 85F86020 	 strb r2,[r5,#96]
 166              	.LVL5:
 167              	.LBB65:
 168              	.LBB62:
 341:D:/School/diseratie/SEMS/xmc4800_evaluation_kit/optiga-trust-m/optiga/comms/ifx_i2c\ifx_i2c_data_link_layer.c **** 
 169              	 .loc 1 341 0
 170 00ae 0871     	 strb r0,[r1,#4]
 331:D:/School/diseratie/SEMS/xmc4800_evaluation_kit/optiga-trust-m/optiga/comms/ifx_i2c\ifx_i2c_data_link_layer.c ****     }
 171              	 .loc 1 331 0
 172 00b0 0F70     	 strb r7,[r1]
 340:D:/School/diseratie/SEMS/xmc4800_evaluation_kit/optiga-trust-m/optiga/comms/ifx_i2c\ifx_i2c_data_link_layer.c ****     p_buffer[4 + frame_len] = (uint8_t)crc;
 173              	 .loc 1 340 0
 174 00b2 CE70     	 strb r6,[r1,#3]
 335:D:/School/diseratie/SEMS/xmc4800_evaluation_kit/optiga-trust-m/optiga/comms/ifx_i2c\ifx_i2c_data_link_layer.c ****     p_buffer[2] = (uint8_t)frame_len;
 175              	 .loc 1 335 0
 176 00b4 4C70     	 strb r4,[r1,#1]
 336:D:/School/diseratie/SEMS/xmc4800_evaluation_kit/optiga-trust-m/optiga/comms/ifx_i2c\ifx_i2c_data_link_layer.c **** 
 177              	 .loc 1 336 0
 178 00b6 8C70     	 strb r4,[r1,#2]
 179              	.LVL6:
 345:D:/School/diseratie/SEMS/xmc4800_evaluation_kit/optiga-trust-m/optiga/comms/ifx_i2c\ifx_i2c_data_link_layer.c **** }
 180              	 .loc 1 345 0
 181 00b8 2846     	 mov r0,r5
 182 00ba FFF7FEFF 	 bl ifx_i2c_pl_send_frame
 183              	.LVL7:
 184              	.LBE62:
 185              	.LBE65:
 186              	.LBE57:
 187              	.LBE56:
 657:D:/School/diseratie/SEMS/xmc4800_evaluation_kit/optiga-trust-m/optiga/comms/ifx_i2c\ifx_i2c_data_link_layer.c ****                 }
 658:D:/School/diseratie/SEMS/xmc4800_evaluation_kit/optiga-trust-m/optiga/comms/ifx_i2c\ifx_i2c_data_link_layer.c ****                 if (0 == p_ctx->dl.error)
 659:D:/School/diseratie/SEMS/xmc4800_evaluation_kit/optiga-trust-m/optiga/comms/ifx_i2c\ifx_i2c_data_link_layer.c ****                 {
 660:D:/School/diseratie/SEMS/xmc4800_evaluation_kit/optiga-trust-m/optiga/comms/ifx_i2c\ifx_i2c_data_link_layer.c ****                     LOG_DL("[IFX-DL]: Exit error after fatal error\n");
 661:D:/School/diseratie/SEMS/xmc4800_evaluation_kit/optiga-trust-m/optiga/comms/ifx_i2c\ifx_i2c_data_link_layer.c ****                     //After sending resync, inform upper layer
 662:D:/School/diseratie/SEMS/xmc4800_evaluation_kit/optiga-trust-m/optiga/comms/ifx_i2c\ifx_i2c_data_link_layer.c ****                     p_ctx->dl.state = DL_STATE_IDLE;
 663:D:/School/diseratie/SEMS/xmc4800_evaluation_kit/optiga-trust-m/optiga/comms/ifx_i2c\ifx_i2c_data_link_layer.c ****                     p_ctx->dl.upper_layer_event_handler(p_ctx, IFX_I2C_DL_EVENT_ERROR, 0, 0);
 664:D:/School/diseratie/SEMS/xmc4800_evaluation_kit/optiga-trust-m/optiga/comms/ifx_i2c\ifx_i2c_data_link_layer.c ****                 }
 665:D:/School/diseratie/SEMS/xmc4800_evaluation_kit/optiga-trust-m/optiga/comms/ifx_i2c\ifx_i2c_data_link_layer.c ****                 else
 666:D:/School/diseratie/SEMS/xmc4800_evaluation_kit/optiga-trust-m/optiga/comms/ifx_i2c\ifx_i2c_data_link_layer.c ****                 {
 667:D:/School/diseratie/SEMS/xmc4800_evaluation_kit/optiga-trust-m/optiga/comms/ifx_i2c\ifx_i2c_data_link_layer.c ****                     LOG_DL("[IFX-DL]: Sending re-sync after fatal error\n");
 668:D:/School/diseratie/SEMS/xmc4800_evaluation_kit/optiga-trust-m/optiga/comms/ifx_i2c\ifx_i2c_data_link_layer.c ****                     // Send re-sync to slave on error
 669:D:/School/diseratie/SEMS/xmc4800_evaluation_kit/optiga-trust-m/optiga/comms/ifx_i2c\ifx_i2c_data_link_layer.c ****                     //lint --e{534} suppress "As this is last step, no effect of checking return co
 670:D:/School/diseratie/SEMS/xmc4800_evaluation_kit/optiga-trust-m/optiga/comms/ifx_i2c\ifx_i2c_data_link_layer.c ****                     ifx_i2c_dl_resync(p_ctx);
 671:D:/School/diseratie/SEMS/xmc4800_evaluation_kit/optiga-trust-m/optiga/comms/ifx_i2c\ifx_i2c_data_link_layer.c ****                     p_ctx->dl.state = DL_STATE_ERROR;
 188              	 .loc 1 671 0
 189 00be 0823     	 movs r3,#8
 672:D:/School/diseratie/SEMS/xmc4800_evaluation_kit/optiga-trust-m/optiga/comms/ifx_i2c\ifx_i2c_data_link_layer.c ****                     p_ctx->dl.error = 0;
 190              	 .loc 1 672 0
 191 00c0 85F86540 	 strb r4,[r5,#101]
 671:D:/School/diseratie/SEMS/xmc4800_evaluation_kit/optiga-trust-m/optiga/comms/ifx_i2c\ifx_i2c_data_link_layer.c ****                     p_ctx->dl.error = 0;
 192              	 .loc 1 671 0
 193 00c4 85F86030 	 strb r3,[r5,#96]
 194              	.LVL8:
 195              	.L1:
 673:D:/School/diseratie/SEMS/xmc4800_evaluation_kit/optiga-trust-m/optiga/comms/ifx_i2c\ifx_i2c_data_link_layer.c ****                 }
 674:D:/School/diseratie/SEMS/xmc4800_evaluation_kit/optiga-trust-m/optiga/comms/ifx_i2c\ifx_i2c_data_link_layer.c ****                 continue_state_machine = FALSE;
 675:D:/School/diseratie/SEMS/xmc4800_evaluation_kit/optiga-trust-m/optiga/comms/ifx_i2c\ifx_i2c_data_link_layer.c ****             }
 676:D:/School/diseratie/SEMS/xmc4800_evaluation_kit/optiga-trust-m/optiga/comms/ifx_i2c\ifx_i2c_data_link_layer.c ****             break;
 677:D:/School/diseratie/SEMS/xmc4800_evaluation_kit/optiga-trust-m/optiga/comms/ifx_i2c\ifx_i2c_data_link_layer.c ****             default:
 678:D:/School/diseratie/SEMS/xmc4800_evaluation_kit/optiga-trust-m/optiga/comms/ifx_i2c\ifx_i2c_data_link_layer.c ****                 LOG_DL("[IFX-DL]: Default condition occurred. Exiting with error\n");
 679:D:/School/diseratie/SEMS/xmc4800_evaluation_kit/optiga-trust-m/optiga/comms/ifx_i2c\ifx_i2c_data_link_layer.c ****                 p_ctx->dl.state = DL_STATE_IDLE;
 680:D:/School/diseratie/SEMS/xmc4800_evaluation_kit/optiga-trust-m/optiga/comms/ifx_i2c\ifx_i2c_data_link_layer.c ****                 p_ctx->dl.upper_layer_event_handler(p_ctx, IFX_I2C_DL_EVENT_ERROR, 0, 0);
 681:D:/School/diseratie/SEMS/xmc4800_evaluation_kit/optiga-trust-m/optiga/comms/ifx_i2c\ifx_i2c_data_link_layer.c ****                 continue_state_machine = FALSE;
 682:D:/School/diseratie/SEMS/xmc4800_evaluation_kit/optiga-trust-m/optiga/comms/ifx_i2c\ifx_i2c_data_link_layer.c ****                 break;
 683:D:/School/diseratie/SEMS/xmc4800_evaluation_kit/optiga-trust-m/optiga/comms/ifx_i2c\ifx_i2c_data_link_layer.c ****         }
 684:D:/School/diseratie/SEMS/xmc4800_evaluation_kit/optiga-trust-m/optiga/comms/ifx_i2c\ifx_i2c_data_link_layer.c ****     } while (TRUE == continue_state_machine);
 685:D:/School/diseratie/SEMS/xmc4800_evaluation_kit/optiga-trust-m/optiga/comms/ifx_i2c\ifx_i2c_data_link_layer.c ****     LOG_DL("[IFX-DL]: #Exiting DL Handler\n");
 686:D:/School/diseratie/SEMS/xmc4800_evaluation_kit/optiga-trust-m/optiga/comms/ifx_i2c\ifx_i2c_data_link_layer.c **** }
 196              	 .loc 1 686 0
 197 00c8 07B0     	 add sp,sp,#28
 198              	.LCFI2:
 199              	 .cfi_remember_state
 200              	 .cfi_def_cfa_offset 36
 201              	.LVL9:
 202              	 
 203 00ca BDE8F08F 	 pop {r4,r5,r6,r7,r8,r9,r10,fp,pc}
 204              	.LVL10:
 205              	.L14:
 206              	.LCFI3:
 207              	 .cfi_restore_state
 487:D:/School/diseratie/SEMS/xmc4800_evaluation_kit/optiga-trust-m/optiga/comms/ifx_i2c\ifx_i2c_data_link_layer.c ****                     (data_len != (DL_HEADER_SIZE + packet_len)) || (DL_FCTR_SEQCTR_VALUE_RFU == seq
 208              	 .loc 1 487 0
 209 00ce 009B     	 ldr r3,[sp]
 210 00d0 A342     	 cmp r3,r4
 211 00d2 00F03481 	 beq .L77
 212              	.L24:
 493:D:/School/diseratie/SEMS/xmc4800_evaluation_kit/optiga-trust-m/optiga/comms/ifx_i2c\ifx_i2c_data_link_layer.c ****                     break;
 213              	 .loc 1 493 0
 214 00d6 0623     	 movs r3,#6
 215 00d8 85F86030 	 strb r3,[r5,#96]
 494:D:/School/diseratie/SEMS/xmc4800_evaluation_kit/optiga-trust-m/optiga/comms/ifx_i2c\ifx_i2c_data_link_layer.c ****                 }
 216              	 .loc 1 494 0
 217 00dc A3E7     	 b .L52
 218              	.L13:
 597:D:/School/diseratie/SEMS/xmc4800_evaluation_kit/optiga-trust-m/optiga/comms/ifx_i2c\ifx_i2c_data_link_layer.c ****                 continue_state_machine = FALSE;
 219              	 .loc 1 597 0
 220 00de 0323     	 movs r3,#3
 600:D:/School/diseratie/SEMS/xmc4800_evaluation_kit/optiga-trust-m/optiga/comms/ifx_i2c\ifx_i2c_data_link_layer.c ****             }
 221              	 .loc 1 600 0
 222 00e0 2846     	 mov r0,r5
 597:D:/School/diseratie/SEMS/xmc4800_evaluation_kit/optiga-trust-m/optiga/comms/ifx_i2c\ifx_i2c_data_link_layer.c ****                 continue_state_machine = FALSE;
 223              	 .loc 1 597 0
 224 00e2 85F86030 	 strb r3,[r5,#96]
 225              	.LVL11:
 226              	 .loc 1 686 0
 227 00e6 07B0     	 add sp,sp,#28
 228              	.LCFI4:
 229              	 .cfi_remember_state
 230              	 .cfi_def_cfa_offset 36
 231              	.LVL12:
 232              	 
 233 00e8 BDE8F04F 	 pop {r4,r5,r6,r7,r8,r9,r10,fp,lr}
 234              	.LCFI5:
 235              	 .cfi_restore 14
 236              	 .cfi_restore 11
 237              	 .cfi_restore 10
 238              	 .cfi_restore 9
 239              	 .cfi_restore 8
 240              	 .cfi_restore 7
 241              	 .cfi_restore 6
 242              	 .cfi_restore 5
 243              	 .cfi_restore 4
 244              	 .cfi_def_cfa_offset 0
 245              	.LVL13:
 600:D:/School/diseratie/SEMS/xmc4800_evaluation_kit/optiga-trust-m/optiga/comms/ifx_i2c\ifx_i2c_data_link_layer.c ****             }
 246              	 .loc 1 600 0
 247 00ec FFF7FEBF 	 b ifx_i2c_pl_receive_frame
 248              	.LVL14:
 249              	.L12:
 250              	.LCFI6:
 251              	 .cfi_restore_state
 252              	.LBB66:
 253              	.LBB67:
 290:D:/School/diseratie/SEMS/xmc4800_evaluation_kit/optiga-trust-m/optiga/comms/ifx_i2c\ifx_i2c_data_link_layer.c ****     uint8_t * p_buffer;
 254              	 .loc 1 290 0
 255 00f0 95F86230 	 ldrb r3,[r5,#98]
 299:D:/School/diseratie/SEMS/xmc4800_evaluation_kit/optiga-trust-m/optiga/comms/ifx_i2c\ifx_i2c_data_link_layer.c ****     if (DL_FCTR_SEQCTR_VALUE_RESYNC == seqctr_value)
 256              	 .loc 1 299 0
 257 00f4 296F     	 ldr r1,[r5,#112]
 297:D:/School/diseratie/SEMS/xmc4800_evaluation_kit/optiga-trust-m/optiga/comms/ifx_i2c\ifx_i2c_data_link_layer.c ****     }
 258              	 .loc 1 297 0
 259 00f6 0133     	 adds r3,r3,#1
 314:D:/School/diseratie/SEMS/xmc4800_evaluation_kit/optiga-trust-m/optiga/comms/ifx_i2c\ifx_i2c_data_link_layer.c ****     p_buffer[0] |= (uint8_t)(seqctr_value << DL_FCTR_SEQCTR_OFFSET);
 260              	 .loc 1 314 0
 261 00f8 03F00303 	 and r3,r3,#3
 331:D:/School/diseratie/SEMS/xmc4800_evaluation_kit/optiga-trust-m/optiga/comms/ifx_i2c\ifx_i2c_data_link_layer.c ****     }
 262              	 .loc 1 331 0
 263 00fc 43F0A004 	 orr r4,r3,#160
 264              	.LVL15:
 265              	.LBB68:
 266              	.LBB69:
 267              	.LBB70:
 268              	.LBB71:
 264:D:/School/diseratie/SEMS/xmc4800_evaluation_kit/optiga-trust-m/optiga/comms/ifx_i2c\ifx_i2c_data_link_layer.c ****     h3 = ((uint16_t)(h2 << 4)) ^ h1;
 269              	 .loc 1 264 0
 270 0100 9BB2     	 uxth r3,r3
 265:D:/School/diseratie/SEMS/xmc4800_evaluation_kit/optiga-trust-m/optiga/comms/ifx_i2c\ifx_i2c_data_link_layer.c ****     h4 = h3 >> 4;
 271              	 .loc 1 265 0
 272 0102 84EA0310 	 eor r0,r4,r3,lsl#4
 266:D:/School/diseratie/SEMS/xmc4800_evaluation_kit/optiga-trust-m/optiga/comms/ifx_i2c\ifx_i2c_data_link_layer.c **** 
 273              	 .loc 1 266 0
 274 0106 0209     	 lsrs r2,r0,#4
 268:D:/School/diseratie/SEMS/xmc4800_evaluation_kit/optiga-trust-m/optiga/comms/ifx_i2c\ifx_i2c_data_link_layer.c **** }
 275              	 .loc 1 268 0
 276 0108 82EA4000 	 eor r0,r2,r0,lsl#1
 277 010c 43EA0013 	 orr r3,r3,r0,lsl#4
 278 0110 82EAC303 	 eor r3,r2,r3,lsl#3
 264:D:/School/diseratie/SEMS/xmc4800_evaluation_kit/optiga-trust-m/optiga/comms/ifx_i2c\ifx_i2c_data_link_layer.c ****     h3 = ((uint16_t)(h2 << 4)) ^ h1;
 279              	 .loc 1 264 0
 280 0114 03F00B06 	 and r6,r3,#11
 263:D:/School/diseratie/SEMS/xmc4800_evaluation_kit/optiga-trust-m/optiga/comms/ifx_i2c\ifx_i2c_data_link_layer.c ****     h2 = h1 & 0x0F;
 281              	 .loc 1 263 0
 282 0118 D8B2     	 uxtb r0,r3
 265:D:/School/diseratie/SEMS/xmc4800_evaluation_kit/optiga-trust-m/optiga/comms/ifx_i2c\ifx_i2c_data_link_layer.c ****     h4 = h3 >> 4;
 283              	 .loc 1 265 0
 284 011a 80EA0610 	 eor r0,r0,r6,lsl#4
 266:D:/School/diseratie/SEMS/xmc4800_evaluation_kit/optiga-trust-m/optiga/comms/ifx_i2c\ifx_i2c_data_link_layer.c **** 
 285              	 .loc 1 266 0
 286 011e 0209     	 lsrs r2,r0,#4
 268:D:/School/diseratie/SEMS/xmc4800_evaluation_kit/optiga-trust-m/optiga/comms/ifx_i2c\ifx_i2c_data_link_layer.c **** }
 287              	 .loc 1 268 0
 288 0120 82EA4000 	 eor r0,r2,r0,lsl#1
 289 0124 46EA0010 	 orr r0,r6,r0,lsl#4
 290 0128 82EA1322 	 eor r2,r2,r3,lsr#8
 291 012c 82EAC003 	 eor r3,r2,r0,lsl#3
 264:D:/School/diseratie/SEMS/xmc4800_evaluation_kit/optiga-trust-m/optiga/comms/ifx_i2c\ifx_i2c_data_link_layer.c ****     h3 = ((uint16_t)(h2 << 4)) ^ h1;
 292              	 .loc 1 264 0
 293 0130 03F00F06 	 and r6,r3,#15
 263:D:/School/diseratie/SEMS/xmc4800_evaluation_kit/optiga-trust-m/optiga/comms/ifx_i2c\ifx_i2c_data_link_layer.c ****     h2 = h1 & 0x0F;
 294              	 .loc 1 263 0
 295 0134 D8B2     	 uxtb r0,r3
 265:D:/School/diseratie/SEMS/xmc4800_evaluation_kit/optiga-trust-m/optiga/comms/ifx_i2c\ifx_i2c_data_link_layer.c ****     h4 = h3 >> 4;
 296              	 .loc 1 265 0
 297 0136 80EA0610 	 eor r0,r0,r6,lsl#4
 266:D:/School/diseratie/SEMS/xmc4800_evaluation_kit/optiga-trust-m/optiga/comms/ifx_i2c\ifx_i2c_data_link_layer.c **** 
 298              	 .loc 1 266 0
 299 013a 0209     	 lsrs r2,r0,#4
 268:D:/School/diseratie/SEMS/xmc4800_evaluation_kit/optiga-trust-m/optiga/comms/ifx_i2c\ifx_i2c_data_link_layer.c **** }
 300              	 .loc 1 268 0
 301 013c 82EA4000 	 eor r0,r2,r0,lsl#1
 302 0140 46EA0010 	 orr r0,r6,r0,lsl#4
 303 0144 82EA1323 	 eor r3,r2,r3,lsr#8
 304 0148 83EAC003 	 eor r3,r3,r0,lsl#3
 305              	.LBE71:
 306              	.LBE70:
 307              	.LBE69:
 308              	.LBE68:
 309              	.LBE67:
 310              	.LBE66:
 636:D:/School/diseratie/SEMS/xmc4800_evaluation_kit/optiga-trust-m/optiga/comms/ifx_i2c\ifx_i2c_data_link_layer.c ****                 continue_state_machine = FALSE;
 311              	 .loc 1 636 0
 312 014c 0220     	 movs r0,#2
 313              	.L74:
 314              	.LBB74:
 315              	.LBB72:
 335:D:/School/diseratie/SEMS/xmc4800_evaluation_kit/optiga-trust-m/optiga/comms/ifx_i2c\ifx_i2c_data_link_layer.c ****     p_buffer[2] = (uint8_t)frame_len;
 316              	 .loc 1 335 0
 317 014e 0022     	 movs r2,#0
 340:D:/School/diseratie/SEMS/xmc4800_evaluation_kit/optiga-trust-m/optiga/comms/ifx_i2c\ifx_i2c_data_link_layer.c ****     p_buffer[4 + frame_len] = (uint8_t)crc;
 318              	 .loc 1 340 0
 319 0150 1E0A     	 lsrs r6,r3,#8
 320              	.LBE72:
 321              	.LBE74:
 636:D:/School/diseratie/SEMS/xmc4800_evaluation_kit/optiga-trust-m/optiga/comms/ifx_i2c\ifx_i2c_data_link_layer.c ****                 continue_state_machine = FALSE;
 322              	 .loc 1 636 0
 323 0152 85F86000 	 strb r0,[r5,#96]
 324              	.LVL16:
 325              	.LBB75:
 326              	.LBB73:
 345:D:/School/diseratie/SEMS/xmc4800_evaluation_kit/optiga-trust-m/optiga/comms/ifx_i2c\ifx_i2c_data_link_layer.c **** }
 327              	 .loc 1 345 0
 328 0156 2846     	 mov r0,r5
 331:D:/School/diseratie/SEMS/xmc4800_evaluation_kit/optiga-trust-m/optiga/comms/ifx_i2c\ifx_i2c_data_link_layer.c ****     }
 329              	 .loc 1 331 0
 330 0158 0C70     	 strb r4,[r1]
 341:D:/School/diseratie/SEMS/xmc4800_evaluation_kit/optiga-trust-m/optiga/comms/ifx_i2c\ifx_i2c_data_link_layer.c **** 
 331              	 .loc 1 341 0
 332 015a 0B71     	 strb r3,[r1,#4]
 340:D:/School/diseratie/SEMS/xmc4800_evaluation_kit/optiga-trust-m/optiga/comms/ifx_i2c\ifx_i2c_data_link_layer.c ****     p_buffer[4 + frame_len] = (uint8_t)crc;
 333              	 .loc 1 340 0
 334 015c CE70     	 strb r6,[r1,#3]
 335:D:/School/diseratie/SEMS/xmc4800_evaluation_kit/optiga-trust-m/optiga/comms/ifx_i2c\ifx_i2c_data_link_layer.c ****     p_buffer[2] = (uint8_t)frame_len;
 335              	 .loc 1 335 0
 336 015e 4A70     	 strb r2,[r1,#1]
 336:D:/School/diseratie/SEMS/xmc4800_evaluation_kit/optiga-trust-m/optiga/comms/ifx_i2c\ifx_i2c_data_link_layer.c **** 
 337              	 .loc 1 336 0
 338 0160 8A70     	 strb r2,[r1,#2]
 339              	.LVL17:
 340              	.L72:
 341              	.LBE73:
 342              	.LBE75:
 343              	.LBB76:
 344              	.LBB77:
 345:D:/School/diseratie/SEMS/xmc4800_evaluation_kit/optiga-trust-m/optiga/comms/ifx_i2c\ifx_i2c_data_link_layer.c **** }
 345              	 .loc 1 345 0
 346 0162 0522     	 movs r2,#5
 347              	.LBE77:
 348              	.LBE76:
 349              	 .loc 1 686 0
 350 0164 07B0     	 add sp,sp,#28
 351              	.LCFI7:
 352              	 .cfi_remember_state
 353              	 .cfi_def_cfa_offset 36
 354              	.LVL18:
 355              	 
 356 0166 BDE8F04F 	 pop {r4,r5,r6,r7,r8,r9,r10,fp,lr}
 357              	.LCFI8:
 358              	 .cfi_restore 14
 359              	 .cfi_restore 11
 360              	 .cfi_restore 10
 361              	 .cfi_restore 9
 362              	 .cfi_restore 8
 363              	 .cfi_restore 7
 364              	 .cfi_restore 6
 365              	 .cfi_restore 5
 366              	 .cfi_restore 4
 367              	 .cfi_def_cfa_offset 0
 368              	.LVL19:
 369              	.LBB87:
 370              	.LBB82:
 345:D:/School/diseratie/SEMS/xmc4800_evaluation_kit/optiga-trust-m/optiga/comms/ifx_i2c\ifx_i2c_data_link_layer.c **** }
 371              	 .loc 1 345 0
 372 016a FFF7FEBF 	 b ifx_i2c_pl_send_frame
 373              	.LVL20:
 374              	.L11:
 375              	.LCFI9:
 376              	 .cfi_restore_state
 377              	.LBE82:
 378              	.LBE87:
 379              	.LBB88:
 380              	.LBB89:
 365:D:/School/diseratie/SEMS/xmc4800_evaluation_kit/optiga-trust-m/optiga/comms/ifx_i2c\ifx_i2c_data_link_layer.c ****     uint32_t time_stamp_diff = current_time_stamp - p_ctx->tl.api_start_time;
 381              	 .loc 1 365 0
 382 016e FFF7FEFF 	 bl pal_os_timer_get_time_in_milliseconds
 383              	.LVL21:
 366:D:/School/diseratie/SEMS/xmc4800_evaluation_kit/optiga-trust-m/optiga/comms/ifx_i2c\ifx_i2c_data_link_layer.c **** 
 384              	 .loc 1 366 0
 385 0172 EB6C     	 ldr r3,[r5,#76]
 372:D:/School/diseratie/SEMS/xmc4800_evaluation_kit/optiga-trust-m/optiga/comms/ifx_i2c\ifx_i2c_data_link_layer.c ****     {
 386              	 .loc 1 372 0
 387 0174 D04A     	 ldr r2,.L83
 366:D:/School/diseratie/SEMS/xmc4800_evaluation_kit/optiga-trust-m/optiga/comms/ifx_i2c\ifx_i2c_data_link_layer.c **** 
 388              	 .loc 1 366 0
 389 0176 C01A     	 subs r0,r0,r3
 390              	.LVL22:
 372:D:/School/diseratie/SEMS/xmc4800_evaluation_kit/optiga-trust-m/optiga/comms/ifx_i2c\ifx_i2c_data_link_layer.c ****     {
 391              	 .loc 1 372 0
 392 0178 9042     	 cmp r0,r2
 393 017a 00F2CE80 	 bhi .L39
 374:D:/School/diseratie/SEMS/xmc4800_evaluation_kit/optiga-trust-m/optiga/comms/ifx_i2c\ifx_i2c_data_link_layer.c ****         {
 394              	 .loc 1 374 0
 395 017e 95F86430 	 ldrb r3,[r5,#100]
 396 0182 032B     	 cmp r3,#3
 397 0184 00F07781 	 beq .L78
 385:D:/School/diseratie/SEMS/xmc4800_evaluation_kit/optiga-trust-m/optiga/comms/ifx_i2c\ifx_i2c_data_link_layer.c ****         }
 398              	 .loc 1 385 0
 399 0188 B5F86C20 	 ldrh r2,[r5,#108]
 400              	.LBB90:
 401              	.LBB91:
 299:D:/School/diseratie/SEMS/xmc4800_evaluation_kit/optiga-trust-m/optiga/comms/ifx_i2c\ifx_i2c_data_link_layer.c ****     if (DL_FCTR_SEQCTR_VALUE_RESYNC == seqctr_value)
 402              	 .loc 1 299 0
 403 018c 296F     	 ldr r1,[r5,#112]
 404              	.LBE91:
 405              	.LBE90:
 385:D:/School/diseratie/SEMS/xmc4800_evaluation_kit/optiga-trust-m/optiga/comms/ifx_i2c\ifx_i2c_data_link_layer.c ****         }
 406              	 .loc 1 385 0
 407 018e 0592     	 str r2,[sp,#20]
 408              	.LVL23:
 383:D:/School/diseratie/SEMS/xmc4800_evaluation_kit/optiga-trust-m/optiga/comms/ifx_i2c\ifx_i2c_data_link_layer.c ****             p_ctx->dl.state = DL_STATE_TX;
 409              	 .loc 1 383 0
 410 0190 0133     	 adds r3,r3,#1
 411 0192 85F86430 	 strb r3,[r5,#100]
 385:D:/School/diseratie/SEMS/xmc4800_evaluation_kit/optiga-trust-m/optiga/comms/ifx_i2c\ifx_i2c_data_link_layer.c ****         }
 412              	 .loc 1 385 0
 413 0196 1046     	 mov r0,r2
 414              	.LVL24:
 384:D:/School/diseratie/SEMS/xmc4800_evaluation_kit/optiga-trust-m/optiga/comms/ifx_i2c\ifx_i2c_data_link_layer.c ****             status = ifx_i2c_dl_send_frame_internal(p_ctx, p_ctx->dl.tx_buffer_size, seqctr_value, 
 415              	 .loc 1 384 0
 416 0198 0223     	 movs r3,#2
 417              	.LBB105:
 418              	.LBB102:
 290:D:/School/diseratie/SEMS/xmc4800_evaluation_kit/optiga-trust-m/optiga/comms/ifx_i2c\ifx_i2c_data_link_layer.c ****     uint8_t * p_buffer;
 419              	 .loc 1 290 0
 420 019a 95F86220 	 ldrb r2,[r5,#98]
 421              	.LVL25:
 422              	.LBE102:
 423              	.LBE105:
 384:D:/School/diseratie/SEMS/xmc4800_evaluation_kit/optiga-trust-m/optiga/comms/ifx_i2c\ifx_i2c_data_link_layer.c ****             status = ifx_i2c_dl_send_frame_internal(p_ctx, p_ctx->dl.tx_buffer_size, seqctr_value, 
 424              	 .loc 1 384 0
 425 019e 85F86030 	 strb r3,[r5,#96]
 426              	.LBB106:
 427              	.LBB103:
 314:D:/School/diseratie/SEMS/xmc4800_evaluation_kit/optiga-trust-m/optiga/comms/ifx_i2c\ifx_i2c_data_link_layer.c ****     p_buffer[0] |= (uint8_t)(seqctr_value << DL_FCTR_SEQCTR_OFFSET);
 428              	 .loc 1 314 0
 429 01a2 0A70     	 strb r2,[r1]
 317:D:/School/diseratie/SEMS/xmc4800_evaluation_kit/optiga-trust-m/optiga/comms/ifx_i2c\ifx_i2c_data_link_layer.c ****     {
 430              	 .loc 1 317 0
 431 01a4 0028     	 cmp r0,#0
 432 01a6 00F03681 	 beq .L42
 320:D:/School/diseratie/SEMS/xmc4800_evaluation_kit/optiga-trust-m/optiga/comms/ifx_i2c\ifx_i2c_data_link_layer.c ****         {
 433              	 .loc 1 320 0
 434 01aa 95F86630 	 ldrb r3,[r5,#102]
 435 01ae 002B     	 cmp r3,#0
 436 01b0 00F0A181 	 beq .L79
 322:D:/School/diseratie/SEMS/xmc4800_evaluation_kit/optiga-trust-m/optiga/comms/ifx_i2c\ifx_i2c_data_link_layer.c ****         }
 437              	 .loc 1 322 0
 438 01b4 95F86130 	 ldrb r3,[r5,#97]
 439 01b8 0133     	 adds r3,r3,#1
 440 01ba 03F00303 	 and r3,r3,#3
 441 01be 85F86130 	 strb r3,[r5,#97]
 442 01c2 0A78     	 ldrb r2,[r1]
 443              	.LVL26:
 444              	.L44:
 339:D:/School/diseratie/SEMS/xmc4800_evaluation_kit/optiga-trust-m/optiga/comms/ifx_i2c\ifx_i2c_data_link_layer.c ****     p_buffer[3 + frame_len] = (uint8_t) (crc >> 8);
 445              	 .loc 1 339 0
 446 01c4 059E     	 ldr r6,[sp,#20]
 447 01c6 06F1030C 	 add ip,r6,#3
 324:D:/School/diseratie/SEMS/xmc4800_evaluation_kit/optiga-trust-m/optiga/comms/ifx_i2c\ifx_i2c_data_link_layer.c ****         // Reset resync received
 448              	 .loc 1 324 0
 449 01ca 42EA8302 	 orr r2,r2,r3,lsl#2
 326:D:/School/diseratie/SEMS/xmc4800_evaluation_kit/optiga-trust-m/optiga/comms/ifx_i2c\ifx_i2c_data_link_layer.c ****         OPTIGA_COMMS_LOG_MESSAGE(">>>>");
 450              	 .loc 1 326 0
 451 01ce 0020     	 movs r0,#0
 452              	.LVL27:
 335:D:/School/diseratie/SEMS/xmc4800_evaluation_kit/optiga-trust-m/optiga/comms/ifx_i2c\ifx_i2c_data_link_layer.c ****     p_buffer[2] = (uint8_t)frame_len;
 453              	 .loc 1 335 0
 454 01d0 330A     	 lsrs r3,r6,#8
 339:D:/School/diseratie/SEMS/xmc4800_evaluation_kit/optiga-trust-m/optiga/comms/ifx_i2c\ifx_i2c_data_link_layer.c ****     p_buffer[3 + frame_len] = (uint8_t) (crc >> 8);
 455              	 .loc 1 339 0
 456 01d2 1FFA8CFC 	 uxth ip,ip
 457              	.LVL28:
 324:D:/School/diseratie/SEMS/xmc4800_evaluation_kit/optiga-trust-m/optiga/comms/ifx_i2c\ifx_i2c_data_link_layer.c ****         // Reset resync received
 458              	 .loc 1 324 0
 459 01d6 0A70     	 strb r2,[r1]
 326:D:/School/diseratie/SEMS/xmc4800_evaluation_kit/optiga-trust-m/optiga/comms/ifx_i2c\ifx_i2c_data_link_layer.c ****         OPTIGA_COMMS_LOG_MESSAGE(">>>>");
 460              	 .loc 1 326 0
 461 01d8 85F86600 	 strb r0,[r5,#102]
 336:D:/School/diseratie/SEMS/xmc4800_evaluation_kit/optiga-trust-m/optiga/comms/ifx_i2c\ifx_i2c_data_link_layer.c **** 
 462              	 .loc 1 336 0
 463 01dc 8E70     	 strb r6,[r1,#2]
 335:D:/School/diseratie/SEMS/xmc4800_evaluation_kit/optiga-trust-m/optiga/comms/ifx_i2c\ifx_i2c_data_link_layer.c ****     p_buffer[2] = (uint8_t)frame_len;
 464              	 .loc 1 335 0
 465 01de 4B70     	 strb r3,[r1,#1]
 466              	.LBB92:
 467              	.LBB93:
 276:D:/School/diseratie/SEMS/xmc4800_evaluation_kit/optiga-trust-m/optiga/comms/ifx_i2c\ifx_i2c_data_link_layer.c ****     {
 468              	 .loc 1 276 0
 469 01e0 BCF1000F 	 cmp ip,#0
 470 01e4 40F01F81 	 bne .L45
 471 01e8 6046     	 mov r0,ip
 472 01ea 6646     	 mov r6,ip
 473 01ec 35E1     	 b .L46
 474              	.LVL29:
 475              	.L10:
 476              	.LBE93:
 477              	.LBE92:
 478              	.LBE103:
 479              	.LBE106:
 480              	.LBE89:
 481              	.LBE88:
 606:D:/School/diseratie/SEMS/xmc4800_evaluation_kit/optiga-trust-m/optiga/comms/ifx_i2c\ifx_i2c_data_link_layer.c ****                 {
 482              	 .loc 1 606 0
 483 01ee B9F5817F 	 cmp r9,#258
 484 01f2 7CD0     	 beq .L69
 616:D:/School/diseratie/SEMS/xmc4800_evaluation_kit/optiga-trust-m/optiga/comms/ifx_i2c\ifx_i2c_data_link_layer.c ****                 {
 485              	 .loc 1 616 0
 486 01f4 95F86330 	 ldrb r3,[r5,#99]
 614:D:/School/diseratie/SEMS/xmc4800_evaluation_kit/optiga-trust-m/optiga/comms/ifx_i2c\ifx_i2c_data_link_layer.c ****                 continue_state_machine = FALSE;
 487              	 .loc 1 614 0
 488 01f8 0122     	 movs r2,#1
 489 01fa 85F86020 	 strb r2,[r5,#96]
 490              	.LVL30:
 616:D:/School/diseratie/SEMS/xmc4800_evaluation_kit/optiga-trust-m/optiga/comms/ifx_i2c\ifx_i2c_data_link_layer.c ****                 {
 491              	 .loc 1 616 0
 492 01fe 002B     	 cmp r3,#0
 493 0200 00F08F80 	 beq .L38
 618:D:/School/diseratie/SEMS/xmc4800_evaluation_kit/optiga-trust-m/optiga/comms/ifx_i2c\ifx_i2c_data_link_layer.c ****                                                         IFX_I2C_DL_EVENT_RX_SUCCESS,
 494              	 .loc 1 618 0
 495 0204 B5F86E30 	 ldrh r3,[r5,#110]
 496 0208 6A6F     	 ldr r2,[r5,#116]
 497 020a EC6F     	 ldr r4,[r5,#124]
 498              	.LVL31:
 499 020c 053B     	 subs r3,r3,#5
 500 020e 9BB2     	 uxth r3,r3
 501 0210 0332     	 adds r2,r2,#3
 502 0212 2846     	 mov r0,r5
 503 0214 0421     	 movs r1,#4
 680:D:/School/diseratie/SEMS/xmc4800_evaluation_kit/optiga-trust-m/optiga/comms/ifx_i2c\ifx_i2c_data_link_layer.c ****                 continue_state_machine = FALSE;
 504              	 .loc 1 680 0
 505 0216 A446     	 mov ip,r4
 506              	 .loc 1 686 0
 507 0218 07B0     	 add sp,sp,#28
 508              	.LCFI10:
 509              	 .cfi_remember_state
 510              	 .cfi_def_cfa_offset 36
 511              	.LVL32:
 512              	 
 513 021a BDE8F04F 	 pop {r4,r5,r6,r7,r8,r9,r10,fp,lr}
 514              	.LCFI11:
 515              	 .cfi_restore 4
 516              	 .cfi_restore 5
 517              	 .cfi_restore 6
 518              	 .cfi_restore 7
 519              	 .cfi_restore 8
 520              	 .cfi_restore 9
 521              	 .cfi_restore 10
 522              	 .cfi_restore 11
 523              	 .cfi_restore 14
 524              	 .cfi_def_cfa_offset 0
 525              	.LVL33:
 680:D:/School/diseratie/SEMS/xmc4800_evaluation_kit/optiga-trust-m/optiga/comms/ifx_i2c\ifx_i2c_data_link_layer.c ****                 continue_state_machine = FALSE;
 526              	 .loc 1 680 0
 527 021e 6047     	 bx ip
 528              	.LVL34:
 529              	.L9:
 530              	.LCFI12:
 531              	 .cfi_restore_state
 455:D:/School/diseratie/SEMS/xmc4800_evaluation_kit/optiga-trust-m/optiga/comms/ifx_i2c\ifx_i2c_data_link_layer.c ****                 {    // If no frame was received retry sending
 532              	 .loc 1 455 0
 533 0220 B9F5817F 	 cmp r9,#258
 534 0224 63D0     	 beq .L69
 463:D:/School/diseratie/SEMS/xmc4800_evaluation_kit/optiga-trust-m/optiga/comms/ifx_i2c\ifx_i2c_data_link_layer.c ****                 {    // Received length is less than minimum size
 535              	 .loc 1 463 0
 536 0226 BBF1040F 	 cmp fp,#4
 537 022a 7FF654AF 	 bls .L24
 479:D:/School/diseratie/SEMS/xmc4800_evaluation_kit/optiga-trust-m/optiga/comms/ifx_i2c\ifx_i2c_data_link_layer.c ****                 crc_calculated = ifx_i2c_dl_calc_crc(p_data, data_len - 2);
 538              	 .loc 1 479 0
 539 022e 08EB0B02 	 add r2,r8,fp
 470:D:/School/diseratie/SEMS/xmc4800_evaluation_kit/optiga-trust-m/optiga/comms/ifx_i2c\ifx_i2c_data_link_layer.c ****                 ftype = (fctr & DL_FCTR_FTYPE_MASK) >> DL_FCTR_FTYPE_OFFSET;
 540              	 .loc 1 470 0
 541 0232 98F80030 	 ldrb r3,[r8]
 542              	.LVL35:
 479:D:/School/diseratie/SEMS/xmc4800_evaluation_kit/optiga-trust-m/optiga/comms/ifx_i2c\ifx_i2c_data_link_layer.c ****                 crc_calculated = ifx_i2c_dl_calc_crc(p_data, data_len - 2);
 543              	 .loc 1 479 0
 544 0236 12F8024C 	 ldrb r4,[r2,#-2]
 545              	.LVL36:
 546 023a 12F8010C 	 ldrb r0,[r2,#-1]
 476:D:/School/diseratie/SEMS/xmc4800_evaluation_kit/optiga-trust-m/optiga/comms/ifx_i2c\ifx_i2c_data_link_layer.c **** 
 547              	 .loc 1 476 0
 548 023e 98F80110 	 ldrb r1,[r8,#1]
 549 0242 98F80220 	 ldrb r2,[r8,#2]
 479:D:/School/diseratie/SEMS/xmc4800_evaluation_kit/optiga-trust-m/optiga/comms/ifx_i2c\ifx_i2c_data_link_layer.c ****                 crc_calculated = ifx_i2c_dl_calc_crc(p_data, data_len - 2);
 550              	 .loc 1 479 0
 551 0246 40EA0420 	 orr r0,r0,r4,lsl#8
 472:D:/School/diseratie/SEMS/xmc4800_evaluation_kit/optiga-trust-m/optiga/comms/ifx_i2c\ifx_i2c_data_link_layer.c ****                 //lint --e{835} suppress "DL_FCTR_ACKNR_OFFSET is defined as 0x00 and is kept for f
 552              	 .loc 1 472 0
 553 024a C3F34114 	 ubfx r4,r3,#5,#2
 479:D:/School/diseratie/SEMS/xmc4800_evaluation_kit/optiga-trust-m/optiga/comms/ifx_i2c\ifx_i2c_data_link_layer.c ****                 crc_calculated = ifx_i2c_dl_calc_crc(p_data, data_len - 2);
 554              	 .loc 1 479 0
 555 024e 0090     	 str r0,[sp]
 472:D:/School/diseratie/SEMS/xmc4800_evaluation_kit/optiga-trust-m/optiga/comms/ifx_i2c\ifx_i2c_data_link_layer.c ****                 //lint --e{835} suppress "DL_FCTR_ACKNR_OFFSET is defined as 0x00 and is kept for f
 556              	 .loc 1 472 0
 557 0250 0194     	 str r4,[sp,#4]
 471:D:/School/diseratie/SEMS/xmc4800_evaluation_kit/optiga-trust-m/optiga/comms/ifx_i2c\ifx_i2c_data_link_layer.c ****                 seqctr = (fctr & DL_FCTR_SEQCTR_MASK) >> DL_FCTR_SEQCTR_OFFSET;
 558              	 .loc 1 471 0
 559 0252 D809     	 lsrs r0,r3,#7
 560              	.LVL37:
 474:D:/School/diseratie/SEMS/xmc4800_evaluation_kit/optiga-trust-m/optiga/comms/ifx_i2c\ifx_i2c_data_link_layer.c ****                 fr_nr = (fctr & DL_FCTR_FRNR_MASK) >> DL_FCTR_FRNR_OFFSET;
 561              	 .loc 1 474 0
 562 0254 03F00304 	 and r4,r3,#3
 475:D:/School/diseratie/SEMS/xmc4800_evaluation_kit/optiga-trust-m/optiga/comms/ifx_i2c\ifx_i2c_data_link_layer.c ****                 packet_len = (p_data[1] << 8) | p_data[2];
 563              	 .loc 1 475 0
 564 0258 C3F38103 	 ubfx r3,r3,#2,#2
 565              	.LVL38:
 566 025c 0393     	 str r3,[sp,#12]
 476:D:/School/diseratie/SEMS/xmc4800_evaluation_kit/optiga-trust-m/optiga/comms/ifx_i2c\ifx_i2c_data_link_layer.c **** 
 567              	 .loc 1 476 0
 568 025e 42EA0123 	 orr r3,r2,r1,lsl#8
 474:D:/School/diseratie/SEMS/xmc4800_evaluation_kit/optiga-trust-m/optiga/comms/ifx_i2c\ifx_i2c_data_link_layer.c ****                 fr_nr = (fctr & DL_FCTR_FRNR_MASK) >> DL_FCTR_FRNR_OFFSET;
 569              	 .loc 1 474 0
 570 0262 0494     	 str r4,[sp,#16]
 476:D:/School/diseratie/SEMS/xmc4800_evaluation_kit/optiga-trust-m/optiga/comms/ifx_i2c\ifx_i2c_data_link_layer.c **** 
 571              	 .loc 1 476 0
 572 0264 0293     	 str r3,[sp,#8]
 573              	.LVL39:
 574 0266 08F1FF31 	 add r1,r8,#-1
 575              	.LBB122:
 576              	.LBB123:
 274:D:/School/diseratie/SEMS/xmc4800_evaluation_kit/optiga-trust-m/optiga/comms/ifx_i2c\ifx_i2c_data_link_layer.c **** 
 577              	 .loc 1 274 0
 578 026a 0024     	 movs r4,#0
 579              	.LVL40:
 580              	.L22:
 581              	.LBB124:
 582              	.LBB125:
 263:D:/School/diseratie/SEMS/xmc4800_evaluation_kit/optiga-trust-m/optiga/comms/ifx_i2c\ifx_i2c_data_link_layer.c ****     h2 = h1 & 0x0F;
 583              	 .loc 1 263 0
 584 026c 11F8013F 	 ldrb r3,[r1,#1]!
 585              	.LVL41:
 586 0270 6340     	 eors r3,r3,r4
 587 0272 9BB2     	 uxth r3,r3
 588              	.LVL42:
 264:D:/School/diseratie/SEMS/xmc4800_evaluation_kit/optiga-trust-m/optiga/comms/ifx_i2c\ifx_i2c_data_link_layer.c ****     h3 = ((uint16_t)(h2 << 4)) ^ h1;
 589              	 .loc 1 264 0
 590 0274 03F00F06 	 and r6,r3,#15
 591              	.LVL43:
 263:D:/School/diseratie/SEMS/xmc4800_evaluation_kit/optiga-trust-m/optiga/comms/ifx_i2c\ifx_i2c_data_link_layer.c ****     h2 = h1 & 0x0F;
 592              	 .loc 1 263 0
 593 0278 DBB2     	 uxtb r3,r3
 594              	.LVL44:
 265:D:/School/diseratie/SEMS/xmc4800_evaluation_kit/optiga-trust-m/optiga/comms/ifx_i2c\ifx_i2c_data_link_layer.c ****     h4 = h3 >> 4;
 595              	 .loc 1 265 0
 596 027a 83EA0613 	 eor r3,r3,r6,lsl#4
 597              	.LVL45:
 266:D:/School/diseratie/SEMS/xmc4800_evaluation_kit/optiga-trust-m/optiga/comms/ifx_i2c\ifx_i2c_data_link_layer.c **** 
 598              	 .loc 1 266 0
 599 027e 1A09     	 lsrs r2,r3,#4
 600              	.LVL46:
 268:D:/School/diseratie/SEMS/xmc4800_evaluation_kit/optiga-trust-m/optiga/comms/ifx_i2c\ifx_i2c_data_link_layer.c **** }
 601              	 .loc 1 268 0
 602 0280 82EA4303 	 eor r3,r2,r3,lsl#1
 603              	.LVL47:
 604 0284 82EA1424 	 eor r4,r2,r4,lsr#8
 605              	.LVL48:
 606 0288 46EA0313 	 orr r3,r6,r3,lsl#4
 607 028c A4B2     	 uxth r4,r4
 608              	.LBE125:
 609              	.LBE124:
 276:D:/School/diseratie/SEMS/xmc4800_evaluation_kit/optiga-trust-m/optiga/comms/ifx_i2c\ifx_i2c_data_link_layer.c ****     {
 610              	 .loc 1 276 0
 611 028e 5145     	 cmp r1,r10
 612              	.LBB127:
 613              	.LBB126:
 268:D:/School/diseratie/SEMS/xmc4800_evaluation_kit/optiga-trust-m/optiga/comms/ifx_i2c\ifx_i2c_data_link_layer.c **** }
 614              	 .loc 1 268 0
 615 0290 84EAC304 	 eor r4,r4,r3,lsl#3
 616              	.LVL49:
 617              	.LBE126:
 618              	.LBE127:
 276:D:/School/diseratie/SEMS/xmc4800_evaluation_kit/optiga-trust-m/optiga/comms/ifx_i2c\ifx_i2c_data_link_layer.c ****     {
 619              	 .loc 1 276 0
 620 0294 EAD1     	 bne .L22
 621              	.LBE123:
 622              	.LBE122:
 481:D:/School/diseratie/SEMS/xmc4800_evaluation_kit/optiga-trust-m/optiga/comms/ifx_i2c\ifx_i2c_data_link_layer.c ****             }
 623              	 .loc 1 481 0
 624 0296 0128     	 cmp r0,#1
 625 0298 0CBF     	 ite eq
 626 029a 0B23     	 moveq r3,#11
 627 029c 0A23     	 movne r3,#10
 628 029e 85F86030 	 strb r3,[r5,#96]
 629              	.LVL50:
 483:D:/School/diseratie/SEMS/xmc4800_evaluation_kit/optiga-trust-m/optiga/comms/ifx_i2c\ifx_i2c_data_link_layer.c ****             case DL_STATE_RX_DF:
 630              	 .loc 1 483 0
 631 02a2 C0E6     	 b .L52
 632              	.LVL51:
 633              	.L8:
 434:D:/School/diseratie/SEMS/xmc4800_evaluation_kit/optiga-trust-m/optiga/comms/ifx_i2c\ifx_i2c_data_link_layer.c ****                 {
 634              	 .loc 1 434 0
 635 02a4 B9F5817F 	 cmp r9,#258
 436:D:/School/diseratie/SEMS/xmc4800_evaluation_kit/optiga-trust-m/optiga/comms/ifx_i2c\ifx_i2c_data_link_layer.c ****                     break;
 636              	 .loc 1 436 0
 637 02a8 4FF00503 	 mov r3,#5
 434:D:/School/diseratie/SEMS/xmc4800_evaluation_kit/optiga-trust-m/optiga/comms/ifx_i2c\ifx_i2c_data_link_layer.c ****                 {
 638              	 .loc 1 434 0
 639 02ac 20D0     	 beq .L70
 441:D:/School/diseratie/SEMS/xmc4800_evaluation_kit/optiga-trust-m/optiga/comms/ifx_i2c\ifx_i2c_data_link_layer.c ****                 p_ctx->dl.state = DL_STATE_RX;
 640              	 .loc 1 441 0
 641 02ae FFF7FEFF 	 bl pal_os_timer_get_time_in_milliseconds
 642              	.LVL52:
 442:D:/School/diseratie/SEMS/xmc4800_evaluation_kit/optiga-trust-m/optiga/comms/ifx_i2c\ifx_i2c_data_link_layer.c ****                 if (0 != ifx_i2c_pl_receive_frame(p_ctx))
 643              	 .loc 1 442 0
 644 02b2 0323     	 movs r3,#3
 441:D:/School/diseratie/SEMS/xmc4800_evaluation_kit/optiga-trust-m/optiga/comms/ifx_i2c\ifx_i2c_data_link_layer.c ****                 p_ctx->dl.state = DL_STATE_RX;
 645              	 .loc 1 441 0
 646 02b4 A867     	 str r0,[r5,#120]
 442:D:/School/diseratie/SEMS/xmc4800_evaluation_kit/optiga-trust-m/optiga/comms/ifx_i2c\ifx_i2c_data_link_layer.c ****                 if (0 != ifx_i2c_pl_receive_frame(p_ctx))
 647              	 .loc 1 442 0
 648 02b6 85F86030 	 strb r3,[r5,#96]
 443:D:/School/diseratie/SEMS/xmc4800_evaluation_kit/optiga-trust-m/optiga/comms/ifx_i2c\ifx_i2c_data_link_layer.c ****                 {
 649              	 .loc 1 443 0
 650 02ba 2846     	 mov r0,r5
 651 02bc FFF7FEFF 	 bl ifx_i2c_pl_receive_frame
 652              	.LVL53:
 653 02c0 0028     	 cmp r0,#0
 654 02c2 7FF408AF 	 bne .L24
 655 02c6 FFE6     	 b .L1
 656              	.L5:
 679:D:/School/diseratie/SEMS/xmc4800_evaluation_kit/optiga-trust-m/optiga/comms/ifx_i2c\ifx_i2c_data_link_layer.c ****                 p_ctx->dl.upper_layer_event_handler(p_ctx, IFX_I2C_DL_EVENT_ERROR, 0, 0);
 657              	 .loc 1 679 0
 658 02c8 0121     	 movs r1,#1
 680:D:/School/diseratie/SEMS/xmc4800_evaluation_kit/optiga-trust-m/optiga/comms/ifx_i2c\ifx_i2c_data_link_layer.c ****                 continue_state_machine = FALSE;
 659              	 .loc 1 680 0
 660 02ca 0022     	 movs r2,#0
 679:D:/School/diseratie/SEMS/xmc4800_evaluation_kit/optiga-trust-m/optiga/comms/ifx_i2c\ifx_i2c_data_link_layer.c ****                 p_ctx->dl.upper_layer_event_handler(p_ctx, IFX_I2C_DL_EVENT_ERROR, 0, 0);
 661              	 .loc 1 679 0
 662 02cc 85F86010 	 strb r1,[r5,#96]
 663              	.LVL54:
 664              	.L71:
 680:D:/School/diseratie/SEMS/xmc4800_evaluation_kit/optiga-trust-m/optiga/comms/ifx_i2c\ifx_i2c_data_link_layer.c ****                 continue_state_machine = FALSE;
 665              	 .loc 1 680 0
 666 02d0 EC6F     	 ldr r4,[r5,#124]
 667              	.LVL55:
 668 02d2 1346     	 mov r3,r2
 669 02d4 2846     	 mov r0,r5
 670              	.LVL56:
 671              	.L73:
 672 02d6 A446     	 mov ip,r4
 673              	 .loc 1 686 0
 674 02d8 07B0     	 add sp,sp,#28
 675              	.LCFI13:
 676              	 .cfi_remember_state
 677              	 .cfi_def_cfa_offset 36
 678              	.LVL57:
 679              	 
 680 02da BDE8F04F 	 pop {r4,r5,r6,r7,r8,r9,r10,fp,lr}
 681              	.LCFI14:
 682              	 .cfi_restore 14
 683              	 .cfi_restore 11
 684              	 .cfi_restore 10
 685              	 .cfi_restore 9
 686              	 .cfi_restore 8
 687              	 .cfi_restore 7
 688              	 .cfi_restore 6
 689              	 .cfi_restore 5
 690              	 .cfi_restore 4
 691              	 .cfi_def_cfa_offset 0
 692              	.LVL58:
 680:D:/School/diseratie/SEMS/xmc4800_evaluation_kit/optiga-trust-m/optiga/comms/ifx_i2c\ifx_i2c_data_link_layer.c ****                 continue_state_machine = FALSE;
 693              	 .loc 1 680 0
 694 02de 6047     	 bx ip
 695              	.LVL59:
 696              	.L6:
 697              	.LCFI15:
 698              	 .cfi_restore_state
 426:D:/School/diseratie/SEMS/xmc4800_evaluation_kit/optiga-trust-m/optiga/comms/ifx_i2c\ifx_i2c_data_link_layer.c ****                 continue_state_machine = FALSE;
 699              	 .loc 1 426 0
 700 02e0 B9F1000F 	 cmp r9,#0
 701 02e4 14BF     	 ite ne
 702 02e6 0121     	 movne r1,#1
 703 02e8 0221     	 moveq r1,#2
 704              	.L3:
 705              	.LVL60:
 428:D:/School/diseratie/SEMS/xmc4800_evaluation_kit/optiga-trust-m/optiga/comms/ifx_i2c\ifx_i2c_data_link_layer.c ****             }
 706              	 .loc 1 428 0 discriminator 4
 707 02ea 0022     	 movs r2,#0
 708 02ec F0E7     	 b .L71
 709              	.LVL61:
 710              	.L69:
 610:D:/School/diseratie/SEMS/xmc4800_evaluation_kit/optiga-trust-m/optiga/comms/ifx_i2c\ifx_i2c_data_link_layer.c ****                     break;
 711              	 .loc 1 610 0
 712 02ee 0523     	 movs r3,#5
 713              	.L70:
 714 02f0 85F86030 	 strb r3,[r5,#96]
 611:D:/School/diseratie/SEMS/xmc4800_evaluation_kit/optiga-trust-m/optiga/comms/ifx_i2c\ifx_i2c_data_link_layer.c ****                 }
 715              	 .loc 1 611 0
 716 02f4 9AE6     	 b .L2
 717              	.L53:
 718 02f6 1946     	 mov r1,r3
 719 02f8 F7E7     	 b .L3
 720              	.L50:
 658:D:/School/diseratie/SEMS/xmc4800_evaluation_kit/optiga-trust-m/optiga/comms/ifx_i2c\ifx_i2c_data_link_layer.c ****                 {
 721              	 .loc 1 658 0
 722 02fa 95F86520 	 ldrb r2,[r5,#101]
 723 02fe 002A     	 cmp r2,#0
 724 0300 7FF4C4AE 	 bne .L51
 663:D:/School/diseratie/SEMS/xmc4800_evaluation_kit/optiga-trust-m/optiga/comms/ifx_i2c\ifx_i2c_data_link_layer.c ****                 }
 725              	 .loc 1 663 0
 726 0304 EC6F     	 ldr r4,[r5,#124]
 727              	.LVL62:
 662:D:/School/diseratie/SEMS/xmc4800_evaluation_kit/optiga-trust-m/optiga/comms/ifx_i2c\ifx_i2c_data_link_layer.c ****                     p_ctx->dl.upper_layer_event_handler(p_ctx, IFX_I2C_DL_EVENT_ERROR, 0, 0);
 728              	 .loc 1 662 0
 729 0306 0121     	 movs r1,#1
 663:D:/School/diseratie/SEMS/xmc4800_evaluation_kit/optiga-trust-m/optiga/comms/ifx_i2c\ifx_i2c_data_link_layer.c ****                 }
 730              	 .loc 1 663 0
 731 0308 2846     	 mov r0,r5
 732 030a 1346     	 mov r3,r2
 680:D:/School/diseratie/SEMS/xmc4800_evaluation_kit/optiga-trust-m/optiga/comms/ifx_i2c\ifx_i2c_data_link_layer.c ****                 continue_state_machine = FALSE;
 733              	 .loc 1 680 0
 734 030c A446     	 mov ip,r4
 662:D:/School/diseratie/SEMS/xmc4800_evaluation_kit/optiga-trust-m/optiga/comms/ifx_i2c\ifx_i2c_data_link_layer.c ****                     p_ctx->dl.upper_layer_event_handler(p_ctx, IFX_I2C_DL_EVENT_ERROR, 0, 0);
 735              	 .loc 1 662 0
 736 030e 85F86010 	 strb r1,[r5,#96]
 737              	 .loc 1 686 0
 738 0312 07B0     	 add sp,sp,#28
 739              	.LCFI16:
 740              	 .cfi_remember_state
 741              	 .cfi_def_cfa_offset 36
 742              	.LVL63:
 743              	 
 744 0314 BDE8F04F 	 pop {r4,r5,r6,r7,r8,r9,r10,fp,lr}
 745              	.LCFI17:
 746              	 .cfi_restore 4
 747              	 .cfi_restore 5
 748              	 .cfi_restore 6
 749              	 .cfi_restore 7
 750              	 .cfi_restore 8
 751              	 .cfi_restore 9
 752              	 .cfi_restore 10
 753              	 .cfi_restore 11
 754              	 .cfi_restore 14
 755              	 .cfi_def_cfa_offset 0
 756              	.LVL64:
 680:D:/School/diseratie/SEMS/xmc4800_evaluation_kit/optiga-trust-m/optiga/comms/ifx_i2c\ifx_i2c_data_link_layer.c ****                 continue_state_machine = FALSE;
 757              	 .loc 1 680 0
 758 0318 6047     	 bx ip
 759              	.LVL65:
 760              	.L39:
 761              	.LCFI18:
 762              	 .cfi_restore_state
 763              	.LBB128:
 764              	.LBB120:
 395:D:/School/diseratie/SEMS/xmc4800_evaluation_kit/optiga-trust-m/optiga/comms/ifx_i2c\ifx_i2c_data_link_layer.c ****     }
 765              	 .loc 1 395 0
 766 031a 0823     	 movs r3,#8
 767 031c 85F86030 	 strb r3,[r5,#96]
 768 0320 81E6     	 b .L52
 769              	.LVL66:
 770              	.L38:
 771              	.LBE120:
 772              	.LBE128:
 625:D:/School/diseratie/SEMS/xmc4800_evaluation_kit/optiga-trust-m/optiga/comms/ifx_i2c\ifx_i2c_data_link_layer.c ****                                                         IFX_I2C_DL_EVENT_TX_SUCCESS | IFX_I2C_DL_EV
 773              	 .loc 1 625 0
 774 0322 B5F86E30 	 ldrh r3,[r5,#110]
 775 0326 6A6F     	 ldr r2,[r5,#116]
 776 0328 EC6F     	 ldr r4,[r5,#124]
 777              	.LVL67:
 778 032a 053B     	 subs r3,r3,#5
 779 032c 9BB2     	 uxth r3,r3
 780 032e 0332     	 adds r2,r2,#3
 781 0330 2846     	 mov r0,r5
 782 0332 0621     	 movs r1,#6
 680:D:/School/diseratie/SEMS/xmc4800_evaluation_kit/optiga-trust-m/optiga/comms/ifx_i2c\ifx_i2c_data_link_layer.c ****                 continue_state_machine = FALSE;
 783              	 .loc 1 680 0
 784 0334 A446     	 mov ip,r4
 785              	 .loc 1 686 0
 786 0336 07B0     	 add sp,sp,#28
 787              	.LCFI19:
 788              	 .cfi_remember_state
 789              	 .cfi_def_cfa_offset 36
 790              	.LVL68:
 791              	 
 792 0338 BDE8F04F 	 pop {r4,r5,r6,r7,r8,r9,r10,fp,lr}
 793              	.LCFI20:
 794              	 .cfi_restore 4
 795              	 .cfi_restore 5
 796              	 .cfi_restore 6
 797              	 .cfi_restore 7
 798              	 .cfi_restore 8
 799              	 .cfi_restore 9
 800              	 .cfi_restore 10
 801              	 .cfi_restore 11
 802              	 .cfi_restore 14
 803              	 .cfi_def_cfa_offset 0
 804              	.LVL69:
 680:D:/School/diseratie/SEMS/xmc4800_evaluation_kit/optiga-trust-m/optiga/comms/ifx_i2c\ifx_i2c_data_link_layer.c ****                 continue_state_machine = FALSE;
 805              	 .loc 1 680 0
 806 033c 6047     	 bx ip
 807              	.LVL70:
 808              	.L77:
 809              	.LCFI21:
 810              	 .cfi_restore_state
 487:D:/School/diseratie/SEMS/xmc4800_evaluation_kit/optiga-trust-m/optiga/comms/ifx_i2c\ifx_i2c_data_link_layer.c ****                     (data_len != (DL_HEADER_SIZE + packet_len)) || (DL_FCTR_SEQCTR_VALUE_RFU == seq
 811              	 .loc 1 487 0 discriminator 1
 812 033e 029B     	 ldr r3,[sp,#8]
 813 0340 002B     	 cmp r3,#0
 814 0342 3FF4C8AE 	 beq .L24
 488:D:/School/diseratie/SEMS/xmc4800_evaluation_kit/optiga-trust-m/optiga/comms/ifx_i2c\ifx_i2c_data_link_layer.c ****                     (DL_FCTR_SEQCTR_VALUE_RESYNC == seqctr))
 815              	 .loc 1 488 0 discriminator 2
 816 0346 0533     	 adds r3,r3,#5
 487:D:/School/diseratie/SEMS/xmc4800_evaluation_kit/optiga-trust-m/optiga/comms/ifx_i2c\ifx_i2c_data_link_layer.c ****                     (data_len != (DL_HEADER_SIZE + packet_len)) || (DL_FCTR_SEQCTR_VALUE_RFU == seq
 817              	 .loc 1 487 0 discriminator 2
 818 0348 9B45     	 cmp fp,r3
 819 034a 7FF4C4AE 	 bne .L24
 488:D:/School/diseratie/SEMS/xmc4800_evaluation_kit/optiga-trust-m/optiga/comms/ifx_i2c\ifx_i2c_data_link_layer.c ****                     (DL_FCTR_SEQCTR_VALUE_RESYNC == seqctr))
 820              	 .loc 1 488 0 discriminator 1
 821 034e 019B     	 ldr r3,[sp,#4]
 822 0350 023B     	 subs r3,r3,#2
 823 0352 012B     	 cmp r3,#1
 824 0354 7FF6BFAE 	 bls .L24
 496:D:/School/diseratie/SEMS/xmc4800_evaluation_kit/optiga-trust-m/optiga/comms/ifx_i2c\ifx_i2c_data_link_layer.c ****                 {
 825              	 .loc 1 496 0
 826 0358 95F86230 	 ldrb r3,[r5,#98]
 827 035c 0399     	 ldr r1,[sp,#12]
 828 035e 5A1C     	 adds r2,r3,#1
 829 0360 02F00302 	 and r2,r2,#3
 830 0364 9142     	 cmp r1,r2
 831 0366 40F0D880 	 bne .L80
 505:D:/School/diseratie/SEMS/xmc4800_evaluation_kit/optiga-trust-m/optiga/comms/ifx_i2c\ifx_i2c_data_link_layer.c ****                 {
 832              	 .loc 1 505 0
 833 036a 95F86130 	 ldrb r3,[r5,#97]
 834 036e 049A     	 ldr r2,[sp,#16]
 835 0370 9342     	 cmp r3,r2
 836 0372 40F0BB80 	 bne .L34
 513:D:/School/diseratie/SEMS/xmc4800_evaluation_kit/optiga-trust-m/optiga/comms/ifx_i2c\ifx_i2c_data_link_layer.c ****                 {
 837              	 .loc 1 513 0
 838 0376 019B     	 ldr r3,[sp,#4]
 839 0378 012B     	 cmp r3,#1
 840 037a 00F0B280 	 beq .L68
 520:D:/School/diseratie/SEMS/xmc4800_evaluation_kit/optiga-trust-m/optiga/comms/ifx_i2c\ifx_i2c_data_link_layer.c ****                 memcpy(p_ctx->dl.p_rx_frame_buffer, p_data, data_len);
 841              	 .loc 1 520 0
 842 037e 9DF80C30 	 ldrb r3,[sp,#12]
 843 0382 85F86230 	 strb r3,[r5,#98]
 521:D:/School/diseratie/SEMS/xmc4800_evaluation_kit/optiga-trust-m/optiga/comms/ifx_i2c\ifx_i2c_data_link_layer.c ****                 p_ctx->dl.rx_buffer_size = data_len;
 844              	 .loc 1 521 0
 845 0386 4146     	 mov r1,r8
 846 0388 5A46     	 mov r2,fp
 847 038a 686F     	 ldr r0,[r5,#116]
 848 038c FFF7FEFF 	 bl memcpy
 849              	.LVL71:
 850              	.LBB129:
 851              	.LBB83:
 290:D:/School/diseratie/SEMS/xmc4800_evaluation_kit/optiga-trust-m/optiga/comms/ifx_i2c\ifx_i2c_data_link_layer.c ****     uint8_t * p_buffer;
 852              	 .loc 1 290 0
 853 0390 95F86230 	 ldrb r3,[r5,#98]
 299:D:/School/diseratie/SEMS/xmc4800_evaluation_kit/optiga-trust-m/optiga/comms/ifx_i2c\ifx_i2c_data_link_layer.c ****     if (DL_FCTR_SEQCTR_VALUE_RESYNC == seqctr_value)
 854              	 .loc 1 299 0
 855 0394 296F     	 ldr r1,[r5,#112]
 856              	.LBE83:
 857              	.LBE129:
 522:D:/School/diseratie/SEMS/xmc4800_evaluation_kit/optiga-trust-m/optiga/comms/ifx_i2c\ifx_i2c_data_link_layer.c **** 
 858              	 .loc 1 522 0
 859 0396 A5F86EB0 	 strh fp,[r5,#110]
 860              	.LBB130:
 861              	.LBB84:
 331:D:/School/diseratie/SEMS/xmc4800_evaluation_kit/optiga-trust-m/optiga/comms/ifx_i2c\ifx_i2c_data_link_layer.c ****     }
 862              	 .loc 1 331 0
 863 039a 43F08004 	 orr r4,r3,#128
 864              	.LVL72:
 865              	.LBB78:
 866              	.LBB79:
 867              	.LBB80:
 868              	.LBB81:
 264:D:/School/diseratie/SEMS/xmc4800_evaluation_kit/optiga-trust-m/optiga/comms/ifx_i2c\ifx_i2c_data_link_layer.c ****     h3 = ((uint16_t)(h2 << 4)) ^ h1;
 869              	 .loc 1 264 0
 870 039e 03F00F03 	 and r3,r3,#15
 265:D:/School/diseratie/SEMS/xmc4800_evaluation_kit/optiga-trust-m/optiga/comms/ifx_i2c\ifx_i2c_data_link_layer.c ****     h4 = h3 >> 4;
 871              	 .loc 1 265 0
 872 03a2 84EA0310 	 eor r0,r4,r3,lsl#4
 266:D:/School/diseratie/SEMS/xmc4800_evaluation_kit/optiga-trust-m/optiga/comms/ifx_i2c\ifx_i2c_data_link_layer.c **** 
 873              	 .loc 1 266 0
 874 03a6 0209     	 lsrs r2,r0,#4
 268:D:/School/diseratie/SEMS/xmc4800_evaluation_kit/optiga-trust-m/optiga/comms/ifx_i2c\ifx_i2c_data_link_layer.c **** }
 875              	 .loc 1 268 0
 876 03a8 82EA4000 	 eor r0,r2,r0,lsl#1
 877 03ac 43EA0013 	 orr r3,r3,r0,lsl#4
 878 03b0 82EAC303 	 eor r3,r2,r3,lsl#3
 264:D:/School/diseratie/SEMS/xmc4800_evaluation_kit/optiga-trust-m/optiga/comms/ifx_i2c\ifx_i2c_data_link_layer.c ****     h3 = ((uint16_t)(h2 << 4)) ^ h1;
 879              	 .loc 1 264 0
 880 03b4 03F00F06 	 and r6,r3,#15
 263:D:/School/diseratie/SEMS/xmc4800_evaluation_kit/optiga-trust-m/optiga/comms/ifx_i2c\ifx_i2c_data_link_layer.c ****     h2 = h1 & 0x0F;
 881              	 .loc 1 263 0
 882 03b8 D8B2     	 uxtb r0,r3
 265:D:/School/diseratie/SEMS/xmc4800_evaluation_kit/optiga-trust-m/optiga/comms/ifx_i2c\ifx_i2c_data_link_layer.c ****     h4 = h3 >> 4;
 883              	 .loc 1 265 0
 884 03ba 80EA0610 	 eor r0,r0,r6,lsl#4
 266:D:/School/diseratie/SEMS/xmc4800_evaluation_kit/optiga-trust-m/optiga/comms/ifx_i2c\ifx_i2c_data_link_layer.c **** 
 885              	 .loc 1 266 0
 886 03be 0209     	 lsrs r2,r0,#4
 268:D:/School/diseratie/SEMS/xmc4800_evaluation_kit/optiga-trust-m/optiga/comms/ifx_i2c\ifx_i2c_data_link_layer.c **** }
 887              	 .loc 1 268 0
 888 03c0 82EA4000 	 eor r0,r2,r0,lsl#1
 889 03c4 46EA0010 	 orr r0,r6,r0,lsl#4
 890 03c8 82EA1322 	 eor r2,r2,r3,lsr#8
 891 03cc 82EAC003 	 eor r3,r2,r0,lsl#3
 264:D:/School/diseratie/SEMS/xmc4800_evaluation_kit/optiga-trust-m/optiga/comms/ifx_i2c\ifx_i2c_data_link_layer.c ****     h3 = ((uint16_t)(h2 << 4)) ^ h1;
 892              	 .loc 1 264 0
 893 03d0 03F00F06 	 and r6,r3,#15
 263:D:/School/diseratie/SEMS/xmc4800_evaluation_kit/optiga-trust-m/optiga/comms/ifx_i2c\ifx_i2c_data_link_layer.c ****     h2 = h1 & 0x0F;
 894              	 .loc 1 263 0
 895 03d4 D8B2     	 uxtb r0,r3
 265:D:/School/diseratie/SEMS/xmc4800_evaluation_kit/optiga-trust-m/optiga/comms/ifx_i2c\ifx_i2c_data_link_layer.c ****     h4 = h3 >> 4;
 896              	 .loc 1 265 0
 897 03d6 80EA0610 	 eor r0,r0,r6,lsl#4
 266:D:/School/diseratie/SEMS/xmc4800_evaluation_kit/optiga-trust-m/optiga/comms/ifx_i2c\ifx_i2c_data_link_layer.c **** 
 898              	 .loc 1 266 0
 899 03da 0209     	 lsrs r2,r0,#4
 268:D:/School/diseratie/SEMS/xmc4800_evaluation_kit/optiga-trust-m/optiga/comms/ifx_i2c\ifx_i2c_data_link_layer.c **** }
 900              	 .loc 1 268 0
 901 03dc 82EA4000 	 eor r0,r2,r0,lsl#1
 902 03e0 46EA0010 	 orr r0,r6,r0,lsl#4
 903 03e4 82EA1323 	 eor r3,r2,r3,lsr#8
 904 03e8 83EAC003 	 eor r3,r3,r0,lsl#3
 905              	.LBE81:
 906              	.LBE80:
 907              	.LBE79:
 908              	.LBE78:
 909              	.LBE84:
 910              	.LBE130:
 526:D:/School/diseratie/SEMS/xmc4800_evaluation_kit/optiga-trust-m/optiga/comms/ifx_i2c\ifx_i2c_data_link_layer.c ****                 p_ctx->dl.state = DL_STATE_ACK;
 911              	 .loc 1 526 0
 912 03ec 0022     	 movs r2,#0
 527:D:/School/diseratie/SEMS/xmc4800_evaluation_kit/optiga-trust-m/optiga/comms/ifx_i2c\ifx_i2c_data_link_layer.c ****                 continue_state_machine = FALSE;
 913              	 .loc 1 527 0
 914 03ee 0420     	 movs r0,#4
 915              	.LBB131:
 916              	.LBB85:
 340:D:/School/diseratie/SEMS/xmc4800_evaluation_kit/optiga-trust-m/optiga/comms/ifx_i2c\ifx_i2c_data_link_layer.c ****     p_buffer[4 + frame_len] = (uint8_t)crc;
 917              	 .loc 1 340 0
 918 03f0 1E0A     	 lsrs r6,r3,#8
 919              	.LBE85:
 920              	.LBE131:
 527:D:/School/diseratie/SEMS/xmc4800_evaluation_kit/optiga-trust-m/optiga/comms/ifx_i2c\ifx_i2c_data_link_layer.c ****                 continue_state_machine = FALSE;
 921              	 .loc 1 527 0
 922 03f2 85F86000 	 strb r0,[r5,#96]
 923              	.LVL73:
 526:D:/School/diseratie/SEMS/xmc4800_evaluation_kit/optiga-trust-m/optiga/comms/ifx_i2c\ifx_i2c_data_link_layer.c ****                 p_ctx->dl.state = DL_STATE_ACK;
 924              	 .loc 1 526 0
 925 03f6 85F86420 	 strb r2,[r5,#100]
 926              	.LBB132:
 927              	.LBB86:
 345:D:/School/diseratie/SEMS/xmc4800_evaluation_kit/optiga-trust-m/optiga/comms/ifx_i2c\ifx_i2c_data_link_layer.c **** }
 928              	 .loc 1 345 0
 929 03fa 2846     	 mov r0,r5
 331:D:/School/diseratie/SEMS/xmc4800_evaluation_kit/optiga-trust-m/optiga/comms/ifx_i2c\ifx_i2c_data_link_layer.c ****     }
 930              	 .loc 1 331 0
 931 03fc 0C70     	 strb r4,[r1]
 932              	.LVL74:
 335:D:/School/diseratie/SEMS/xmc4800_evaluation_kit/optiga-trust-m/optiga/comms/ifx_i2c\ifx_i2c_data_link_layer.c ****     p_buffer[2] = (uint8_t)frame_len;
 933              	 .loc 1 335 0
 934 03fe 4A70     	 strb r2,[r1,#1]
 336:D:/School/diseratie/SEMS/xmc4800_evaluation_kit/optiga-trust-m/optiga/comms/ifx_i2c\ifx_i2c_data_link_layer.c **** 
 935              	 .loc 1 336 0
 936 0400 8A70     	 strb r2,[r1,#2]
 937              	.LVL75:
 341:D:/School/diseratie/SEMS/xmc4800_evaluation_kit/optiga-trust-m/optiga/comms/ifx_i2c\ifx_i2c_data_link_layer.c **** 
 938              	 .loc 1 341 0
 939 0402 0B71     	 strb r3,[r1,#4]
 340:D:/School/diseratie/SEMS/xmc4800_evaluation_kit/optiga-trust-m/optiga/comms/ifx_i2c\ifx_i2c_data_link_layer.c ****     p_buffer[4 + frame_len] = (uint8_t)crc;
 940              	 .loc 1 340 0
 941 0404 CE70     	 strb r6,[r1,#3]
 942 0406 ACE6     	 b .L72
 943              	.LVL76:
 944              	.L29:
 945              	.LBE86:
 946              	.LBE132:
 549:D:/School/diseratie/SEMS/xmc4800_evaluation_kit/optiga-trust-m/optiga/comms/ifx_i2c\ifx_i2c_data_link_layer.c ****                 {
 947              	 .loc 1 549 0
 948 0408 009A     	 ldr r2,[sp]
 949 040a A242     	 cmp r2,r4
 950 040c 56D0     	 beq .L30
 553:D:/School/diseratie/SEMS/xmc4800_evaluation_kit/optiga-trust-m/optiga/comms/ifx_i2c\ifx_i2c_data_link_layer.c ****                     break;
 951              	 .loc 1 553 0
 952 040e 0523     	 movs r3,#5
 953 0410 85F86030 	 strb r3,[r5,#96]
 554:D:/School/diseratie/SEMS/xmc4800_evaluation_kit/optiga-trust-m/optiga/comms/ifx_i2c\ifx_i2c_data_link_layer.c ****                 }
 954              	 .loc 1 554 0
 955 0414 07E6     	 b .L52
 956              	.LVL77:
 957              	.L42:
 958              	.LBB133:
 959              	.LBB121:
 960              	.LBB107:
 961              	.LBB104:
 331:D:/School/diseratie/SEMS/xmc4800_evaluation_kit/optiga-trust-m/optiga/comms/ifx_i2c\ifx_i2c_data_link_layer.c ****     }
 962              	 .loc 1 331 0
 963 0416 62F07F02 	 orn r2,r2,#127
 964              	.LVL78:
 965 041a 0A70     	 strb r2,[r1]
 966              	.LVL79:
 335:D:/School/diseratie/SEMS/xmc4800_evaluation_kit/optiga-trust-m/optiga/comms/ifx_i2c\ifx_i2c_data_link_layer.c ****     p_buffer[2] = (uint8_t)frame_len;
 967              	 .loc 1 335 0
 968 041c 059A     	 ldr r2,[sp,#20]
 969 041e 4A70     	 strb r2,[r1,#1]
 336:D:/School/diseratie/SEMS/xmc4800_evaluation_kit/optiga-trust-m/optiga/comms/ifx_i2c\ifx_i2c_data_link_layer.c **** 
 970              	 .loc 1 336 0
 971 0420 8A70     	 strb r2,[r1,#2]
 972              	.LVL80:
 339:D:/School/diseratie/SEMS/xmc4800_evaluation_kit/optiga-trust-m/optiga/comms/ifx_i2c\ifx_i2c_data_link_layer.c ****     p_buffer[3 + frame_len] = (uint8_t) (crc >> 8);
 973              	 .loc 1 339 0
 974 0422 4FF0030C 	 mov ip,#3
 975              	.LVL81:
 976              	.L45:
 977 0426 8E46     	 mov lr,r1
 978 0428 0020     	 movs r0,#0
 979              	.LVL82:
 980              	.L47:
 981              	.LBB101:
 982              	.LBB100:
 278:D:/School/diseratie/SEMS/xmc4800_evaluation_kit/optiga-trust-m/optiga/comms/ifx_i2c\ifx_i2c_data_link_layer.c ****     }
 983              	 .loc 1 278 0
 984 042a 1EF8013B 	 ldrb r3,[lr],#1
 985              	.LVL83:
 986              	.LBB94:
 987              	.LBB95:
 263:D:/School/diseratie/SEMS/xmc4800_evaluation_kit/optiga-trust-m/optiga/comms/ifx_i2c\ifx_i2c_data_link_layer.c ****     h2 = h1 & 0x0F;
 988              	 .loc 1 263 0
 989 042e 4340     	 eors r3,r3,r0
 990              	.LVL84:
 264:D:/School/diseratie/SEMS/xmc4800_evaluation_kit/optiga-trust-m/optiga/comms/ifx_i2c\ifx_i2c_data_link_layer.c ****     h3 = ((uint16_t)(h2 << 4)) ^ h1;
 991              	 .loc 1 264 0
 992 0430 03F00F06 	 and r6,r3,#15
 993              	.LVL85:
 263:D:/School/diseratie/SEMS/xmc4800_evaluation_kit/optiga-trust-m/optiga/comms/ifx_i2c\ifx_i2c_data_link_layer.c ****     h2 = h1 & 0x0F;
 994              	 .loc 1 263 0
 995 0434 DBB2     	 uxtb r3,r3
 996              	.LVL86:
 265:D:/School/diseratie/SEMS/xmc4800_evaluation_kit/optiga-trust-m/optiga/comms/ifx_i2c\ifx_i2c_data_link_layer.c ****     h4 = h3 >> 4;
 997              	 .loc 1 265 0
 998 0436 83EA0613 	 eor r3,r3,r6,lsl#4
 999              	.LVL87:
 266:D:/School/diseratie/SEMS/xmc4800_evaluation_kit/optiga-trust-m/optiga/comms/ifx_i2c\ifx_i2c_data_link_layer.c **** 
 1000              	 .loc 1 266 0
 1001 043a 1A09     	 lsrs r2,r3,#4
 1002              	.LVL88:
 1003 043c C1EB0E07 	 rsb r7,r1,lr
 268:D:/School/diseratie/SEMS/xmc4800_evaluation_kit/optiga-trust-m/optiga/comms/ifx_i2c\ifx_i2c_data_link_layer.c **** }
 1004              	 .loc 1 268 0
 1005 0440 82EA4303 	 eor r3,r2,r3,lsl#1
 1006              	.LVL89:
 1007              	.LBE95:
 1008              	.LBE94:
 276:D:/School/diseratie/SEMS/xmc4800_evaluation_kit/optiga-trust-m/optiga/comms/ifx_i2c\ifx_i2c_data_link_layer.c ****     {
 1009              	 .loc 1 276 0
 1010 0444 BFB2     	 uxth r7,r7
 1011              	.LBB98:
 1012              	.LBB96:
 268:D:/School/diseratie/SEMS/xmc4800_evaluation_kit/optiga-trust-m/optiga/comms/ifx_i2c\ifx_i2c_data_link_layer.c **** }
 1013              	 .loc 1 268 0
 1014 0446 46EA0313 	 orr r3,r6,r3,lsl#4
 1015 044a 82EA1020 	 eor r0,r2,r0,lsr#8
 1016              	.LVL90:
 1017              	.LBE96:
 1018              	.LBE98:
 276:D:/School/diseratie/SEMS/xmc4800_evaluation_kit/optiga-trust-m/optiga/comms/ifx_i2c\ifx_i2c_data_link_layer.c ****     {
 1019              	 .loc 1 276 0
 1020 044e BC45     	 cmp ip,r7
 1021              	.LBB99:
 1022              	.LBB97:
 268:D:/School/diseratie/SEMS/xmc4800_evaluation_kit/optiga-trust-m/optiga/comms/ifx_i2c\ifx_i2c_data_link_layer.c **** }
 1023              	 .loc 1 268 0
 1024 0450 80EAC300 	 eor r0,r0,r3,lsl#3
 1025              	.LVL91:
 1026              	.LBE97:
 1027              	.LBE99:
 276:D:/School/diseratie/SEMS/xmc4800_evaluation_kit/optiga-trust-m/optiga/comms/ifx_i2c\ifx_i2c_data_link_layer.c ****     {
 1028              	 .loc 1 276 0
 1029 0454 E9D8     	 bhi .L47
 1030 0456 060A     	 lsrs r6,r0,#8
 1031              	.LVL92:
 1032 0458 C0B2     	 uxtb r0,r0
 1033              	.LVL93:
 1034              	.L46:
 1035              	.LBE100:
 1036              	.LBE101:
 340:D:/School/diseratie/SEMS/xmc4800_evaluation_kit/optiga-trust-m/optiga/comms/ifx_i2c\ifx_i2c_data_link_layer.c ****     p_buffer[4 + frame_len] = (uint8_t)crc;
 1037              	 .loc 1 340 0
 1038 045a 059A     	 ldr r2,[sp,#20]
 1039 045c 8B18     	 adds r3,r1,r2
 345:D:/School/diseratie/SEMS/xmc4800_evaluation_kit/optiga-trust-m/optiga/comms/ifx_i2c\ifx_i2c_data_link_layer.c **** }
 1040              	 .loc 1 345 0
 1041 045e 0532     	 adds r2,r2,#5
 341:D:/School/diseratie/SEMS/xmc4800_evaluation_kit/optiga-trust-m/optiga/comms/ifx_i2c\ifx_i2c_data_link_layer.c **** 
 1042              	 .loc 1 341 0
 1043 0460 1871     	 strb r0,[r3,#4]
 340:D:/School/diseratie/SEMS/xmc4800_evaluation_kit/optiga-trust-m/optiga/comms/ifx_i2c\ifx_i2c_data_link_layer.c ****     p_buffer[4 + frame_len] = (uint8_t)crc;
 1044              	 .loc 1 340 0
 1045 0462 DE70     	 strb r6,[r3,#3]
 345:D:/School/diseratie/SEMS/xmc4800_evaluation_kit/optiga-trust-m/optiga/comms/ifx_i2c\ifx_i2c_data_link_layer.c **** }
 1046              	 .loc 1 345 0
 1047 0464 92B2     	 uxth r2,r2
 1048 0466 2846     	 mov r0,r5
 1049 0468 FFF7FEFF 	 bl ifx_i2c_pl_send_frame
 1050              	.LVL94:
 1051              	.LBE104:
 1052              	.LBE107:
 388:D:/School/diseratie/SEMS/xmc4800_evaluation_kit/optiga-trust-m/optiga/comms/ifx_i2c\ifx_i2c_data_link_layer.c ****         {
 1053              	 .loc 1 388 0
 1054 046c F0B1     	 cbz r0,.L48
 1055              	.LVL95:
 1056              	.L81:
 390:D:/School/diseratie/SEMS/xmc4800_evaluation_kit/optiga-trust-m/optiga/comms/ifx_i2c\ifx_i2c_data_link_layer.c ****         }
 1057              	 .loc 1 390 0
 1058 046e 0623     	 movs r3,#6
 1059 0470 85F86030 	 strb r3,[r5,#96]
 1060 0474 28E6     	 b .L1
 1061              	.LVL96:
 1062              	.L78:
 1063              	.LBB108:
 1064              	.LBB109:
 1065              	.LBB110:
 1066              	.LBB111:
 304:D:/School/diseratie/SEMS/xmc4800_evaluation_kit/optiga-trust-m/optiga/comms/ifx_i2c\ifx_i2c_data_link_layer.c ****     }
 1067              	 .loc 1 304 0
 1068 0476 696F     	 ldr r1,[r5,#116]
 1069              	.LBE111:
 1070              	.LBE110:
 352:D:/School/diseratie/SEMS/xmc4800_evaluation_kit/optiga-trust-m/optiga/comms/ifx_i2c\ifx_i2c_data_link_layer.c ****     p_ctx->dl.rx_seq_nr = DL_MAX_FRAME_NUM;
 1071              	 .loc 1 352 0
 1072 0478 85F86130 	 strb r3,[r5,#97]
 353:D:/School/diseratie/SEMS/xmc4800_evaluation_kit/optiga-trust-m/optiga/comms/ifx_i2c\ifx_i2c_data_link_layer.c ****     p_ctx->dl.resynced = 1;
 1073              	 .loc 1 353 0
 1074 047c 85F86230 	 strb r3,[r5,#98]
 1075              	.LBE109:
 1076              	.LBE108:
 377:D:/School/diseratie/SEMS/xmc4800_evaluation_kit/optiga-trust-m/optiga/comms/ifx_i2c\ifx_i2c_data_link_layer.c ****             status = ifx_i2c_dl_resync(p_ctx);
 1077              	 .loc 1 377 0
 1078 0480 0020     	 movs r0,#0
 1079              	.LVL97:
 1080              	.LBB118:
 1081              	.LBB116:
 1082              	.LBB114:
 1083              	.LBB112:
 331:D:/School/diseratie/SEMS/xmc4800_evaluation_kit/optiga-trust-m/optiga/comms/ifx_i2c\ifx_i2c_data_link_layer.c ****     }
 1084              	 .loc 1 331 0
 1085 0482 C023     	 movs r3,#192
 1086              	.LBE112:
 1087              	.LBE114:
 354:D:/School/diseratie/SEMS/xmc4800_evaluation_kit/optiga-trust-m/optiga/comms/ifx_i2c\ifx_i2c_data_link_layer.c ****     LOG_DL("[IFX-DL]: Send Re-Sync Frame\n");
 1088              	 .loc 1 354 0
 1089 0484 0126     	 movs r6,#1
 356:D:/School/diseratie/SEMS/xmc4800_evaluation_kit/optiga-trust-m/optiga/comms/ifx_i2c\ifx_i2c_data_link_layer.c ****     api_status = ifx_i2c_dl_send_frame_internal(p_ctx, 0, DL_FCTR_SEQCTR_VALUE_RESYNC, 0);
 1090              	 .loc 1 356 0
 1091 0486 0522     	 movs r2,#5
 1092              	.LBE116:
 1093              	.LBE118:
 377:D:/School/diseratie/SEMS/xmc4800_evaluation_kit/optiga-trust-m/optiga/comms/ifx_i2c\ifx_i2c_data_link_layer.c ****             status = ifx_i2c_dl_resync(p_ctx);
 1094              	 .loc 1 377 0
 1095 0488 85F86400 	 strb r0,[r5,#100]
 1096              	.LVL98:
 1097              	.LBB119:
 1098              	.LBB117:
 354:D:/School/diseratie/SEMS/xmc4800_evaluation_kit/optiga-trust-m/optiga/comms/ifx_i2c\ifx_i2c_data_link_layer.c ****     LOG_DL("[IFX-DL]: Send Re-Sync Frame\n");
 1099              	 .loc 1 354 0
 1100 048c 85F86660 	 strb r6,[r5,#102]
 356:D:/School/diseratie/SEMS/xmc4800_evaluation_kit/optiga-trust-m/optiga/comms/ifx_i2c\ifx_i2c_data_link_layer.c ****     api_status = ifx_i2c_dl_send_frame_internal(p_ctx, 0, DL_FCTR_SEQCTR_VALUE_RESYNC, 0);
 1101              	 .loc 1 356 0
 1102 0490 85F86020 	 strb r2,[r5,#96]
 1103              	.LVL99:
 1104              	.LBB115:
 1105              	.LBB113:
 335:D:/School/diseratie/SEMS/xmc4800_evaluation_kit/optiga-trust-m/optiga/comms/ifx_i2c\ifx_i2c_data_link_layer.c ****     p_buffer[2] = (uint8_t)frame_len;
 1106              	 .loc 1 335 0
 1107 0494 4870     	 strb r0,[r1,#1]
 336:D:/School/diseratie/SEMS/xmc4800_evaluation_kit/optiga-trust-m/optiga/comms/ifx_i2c\ifx_i2c_data_link_layer.c **** 
 1108              	 .loc 1 336 0
 1109 0496 8870     	 strb r0,[r1,#2]
 1110              	.LVL100:
 331:D:/School/diseratie/SEMS/xmc4800_evaluation_kit/optiga-trust-m/optiga/comms/ifx_i2c\ifx_i2c_data_link_layer.c ****     }
 1111              	 .loc 1 331 0
 1112 0498 0B70     	 strb r3,[r1]
 340:D:/School/diseratie/SEMS/xmc4800_evaluation_kit/optiga-trust-m/optiga/comms/ifx_i2c\ifx_i2c_data_link_layer.c ****     p_buffer[4 + frame_len] = (uint8_t)crc;
 1113              	 .loc 1 340 0
 1114 049a 0A20     	 movs r0,#10
 341:D:/School/diseratie/SEMS/xmc4800_evaluation_kit/optiga-trust-m/optiga/comms/ifx_i2c\ifx_i2c_data_link_layer.c **** 
 1115              	 .loc 1 341 0
 1116 049c 9A23     	 movs r3,#154
 340:D:/School/diseratie/SEMS/xmc4800_evaluation_kit/optiga-trust-m/optiga/comms/ifx_i2c\ifx_i2c_data_link_layer.c ****     p_buffer[4 + frame_len] = (uint8_t)crc;
 1117              	 .loc 1 340 0
 1118 049e C870     	 strb r0,[r1,#3]
 341:D:/School/diseratie/SEMS/xmc4800_evaluation_kit/optiga-trust-m/optiga/comms/ifx_i2c\ifx_i2c_data_link_layer.c **** 
 1119              	 .loc 1 341 0
 1120 04a0 0B71     	 strb r3,[r1,#4]
 345:D:/School/diseratie/SEMS/xmc4800_evaluation_kit/optiga-trust-m/optiga/comms/ifx_i2c\ifx_i2c_data_link_layer.c **** }
 1121              	 .loc 1 345 0
 1122 04a2 2846     	 mov r0,r5
 1123 04a4 FFF7FEFF 	 bl ifx_i2c_pl_send_frame
 1124              	.LVL101:
 1125              	.LBE113:
 1126              	.LBE115:
 1127              	.LBE117:
 1128              	.LBE119:
 388:D:/School/diseratie/SEMS/xmc4800_evaluation_kit/optiga-trust-m/optiga/comms/ifx_i2c\ifx_i2c_data_link_layer.c ****         {
 1129              	 .loc 1 388 0
 1130 04a8 0028     	 cmp r0,#0
 1131 04aa E0D1     	 bne .L81
 1132              	.LVL102:
 1133              	.L48:
 1134              	.LBE121:
 1135              	.LBE133:
 646:D:/School/diseratie/SEMS/xmc4800_evaluation_kit/optiga-trust-m/optiga/comms/ifx_i2c\ifx_i2c_data_link_layer.c ****                 {
 1136              	 .loc 1 646 0
 1137 04ac 95F86030 	 ldrb r3,[r5,#96]
 1138 04b0 082B     	 cmp r3,#8
 1139 04b2 7FF409AE 	 bne .L1
 1140 04b6 B6E5     	 b .L52
 1141              	.L84:
 1142              	 .align 2
 1143              	.L83:
 1144 04b8 1FBF0200 	 .word 179999
 1145              	.LVL103:
 1146              	.L30:
 556:D:/School/diseratie/SEMS/xmc4800_evaluation_kit/optiga-trust-m/optiga/comms/ifx_i2c\ifx_i2c_data_link_layer.c ****                 {
 1147              	 .loc 1 556 0
 1148 04bc BBF1050F 	 cmp fp,#5
 1149 04c0 14D8     	 bhi .L34
 556:D:/School/diseratie/SEMS/xmc4800_evaluation_kit/optiga-trust-m/optiga/comms/ifx_i2c\ifx_i2c_data_link_layer.c ****                 {
 1150              	 .loc 1 556 0 is_stmt 0 discriminator 1
 1151 04c2 029A     	 ldr r2,[sp,#8]
 1152 04c4 92B9     	 cbnz r2,.L34
 563:D:/School/diseratie/SEMS/xmc4800_evaluation_kit/optiga-trust-m/optiga/comms/ifx_i2c\ifx_i2c_data_link_layer.c ****                 {    // Re-sync received
 1153              	 .loc 1 563 0 is_stmt 1
 1154 04c6 CBB9     	 cbnz r3,.L82
 572:D:/School/diseratie/SEMS/xmc4800_evaluation_kit/optiga-trust-m/optiga/comms/ifx_i2c\ifx_i2c_data_link_layer.c ****                 {
 1155              	 .loc 1 572 0
 1156 04c8 039B     	 ldr r3,[sp,#12]
 1157 04ca 7BB9     	 cbnz r3,.L34
 572:D:/School/diseratie/SEMS/xmc4800_evaluation_kit/optiga-trust-m/optiga/comms/ifx_i2c\ifx_i2c_data_link_layer.c ****                 {
 1158              	 .loc 1 572 0 is_stmt 0 discriminator 1
 1159 04cc 019B     	 ldr r3,[sp,#4]
 1160 04ce 032B     	 cmp r3,#3
 1161 04d0 0CD0     	 beq .L34
 572:D:/School/diseratie/SEMS/xmc4800_evaluation_kit/optiga-trust-m/optiga/comms/ifx_i2c\ifx_i2c_data_link_layer.c ****                 {
 1162              	 .loc 1 572 0 discriminator 2
 1163 04d2 95F86130 	 ldrb r3,[r5,#97]
 1164 04d6 049A     	 ldr r2,[sp,#16]
 1165 04d8 9342     	 cmp r3,r2
 1166 04da 07D1     	 bne .L34
 579:D:/School/diseratie/SEMS/xmc4800_evaluation_kit/optiga-trust-m/optiga/comms/ifx_i2c\ifx_i2c_data_link_layer.c ****                 {
 1167              	 .loc 1 579 0 is_stmt 1
 1168 04dc 019B     	 ldr r3,[sp,#4]
 1169 04de 012B     	 cmp r3,#1
 1170 04e0 47D1     	 bne .L36
 1171              	.L68:
 583:D:/School/diseratie/SEMS/xmc4800_evaluation_kit/optiga-trust-m/optiga/comms/ifx_i2c\ifx_i2c_data_link_layer.c ****                     break;
 1172              	 .loc 1 583 0
 1173 04e2 0523     	 movs r3,#5
 1174 04e4 85F86030 	 strb r3,[r5,#96]
 584:D:/School/diseratie/SEMS/xmc4800_evaluation_kit/optiga-trust-m/optiga/comms/ifx_i2c\ifx_i2c_data_link_layer.c ****                 }
 1175              	 .loc 1 584 0
 1176 04e8 009C     	 ldr r4,[sp]
 1177              	.LVL104:
 1178 04ea 9CE5     	 b .L52
 1179              	.LVL105:
 1180              	.L34:
 576:D:/School/diseratie/SEMS/xmc4800_evaluation_kit/optiga-trust-m/optiga/comms/ifx_i2c\ifx_i2c_data_link_layer.c ****                     break;
 1181              	 .loc 1 576 0
 1182 04ec 0923     	 movs r3,#9
 1183 04ee 85F86030 	 strb r3,[r5,#96]
 577:D:/School/diseratie/SEMS/xmc4800_evaluation_kit/optiga-trust-m/optiga/comms/ifx_i2c\ifx_i2c_data_link_layer.c ****                 }
 1184              	 .loc 1 577 0
 1185 04f2 009C     	 ldr r4,[sp]
 1186              	.LVL106:
 1187 04f4 97E5     	 b .L52
 1188              	.LVL107:
 1189              	.L79:
 1190 04f6 95F86130 	 ldrb r3,[r5,#97]
 1191 04fa 63E6     	 b .L44
 1192              	.LVL108:
 1193              	.L82:
 568:D:/School/diseratie/SEMS/xmc4800_evaluation_kit/optiga-trust-m/optiga/comms/ifx_i2c\ifx_i2c_data_link_layer.c ****                     p_ctx->dl.rx_seq_nr = DL_MAX_FRAME_NUM;
 1194              	 .loc 1 568 0
 1195 04fc 0322     	 movs r2,#3
 566:D:/School/diseratie/SEMS/xmc4800_evaluation_kit/optiga-trust-m/optiga/comms/ifx_i2c\ifx_i2c_data_link_layer.c ****                     p_ctx->dl.resynced = 1;
 1196              	 .loc 1 566 0
 1197 04fe 0923     	 movs r3,#9
 567:D:/School/diseratie/SEMS/xmc4800_evaluation_kit/optiga-trust-m/optiga/comms/ifx_i2c\ifx_i2c_data_link_layer.c ****                     p_ctx->dl.tx_seq_nr = DL_MAX_FRAME_NUM;
 1198              	 .loc 1 567 0
 1199 0500 0121     	 movs r1,#1
 568:D:/School/diseratie/SEMS/xmc4800_evaluation_kit/optiga-trust-m/optiga/comms/ifx_i2c\ifx_i2c_data_link_layer.c ****                     p_ctx->dl.rx_seq_nr = DL_MAX_FRAME_NUM;
 1200              	 .loc 1 568 0
 1201 0502 85F86120 	 strb r2,[r5,#97]
 569:D:/School/diseratie/SEMS/xmc4800_evaluation_kit/optiga-trust-m/optiga/comms/ifx_i2c\ifx_i2c_data_link_layer.c ****                     break;
 1202              	 .loc 1 569 0
 1203 0506 85F86220 	 strb r2,[r5,#98]
 570:D:/School/diseratie/SEMS/xmc4800_evaluation_kit/optiga-trust-m/optiga/comms/ifx_i2c\ifx_i2c_data_link_layer.c ****                 }
 1204              	 .loc 1 570 0
 1205 050a 0222     	 movs r2,#2
 566:D:/School/diseratie/SEMS/xmc4800_evaluation_kit/optiga-trust-m/optiga/comms/ifx_i2c\ifx_i2c_data_link_layer.c ****                     p_ctx->dl.resynced = 1;
 1206              	 .loc 1 566 0
 1207 050c 85F86030 	 strb r3,[r5,#96]
 567:D:/School/diseratie/SEMS/xmc4800_evaluation_kit/optiga-trust-m/optiga/comms/ifx_i2c\ifx_i2c_data_link_layer.c ****                     p_ctx->dl.tx_seq_nr = DL_MAX_FRAME_NUM;
 1208              	 .loc 1 567 0
 1209 0510 85F86610 	 strb r1,[r5,#102]
 570:D:/School/diseratie/SEMS/xmc4800_evaluation_kit/optiga-trust-m/optiga/comms/ifx_i2c\ifx_i2c_data_link_layer.c ****                 }
 1210              	 .loc 1 570 0
 1211 0514 009C     	 ldr r4,[sp]
 1212              	.LVL109:
 1213 0516 0192     	 str r2,[sp,#4]
 1214 0518 85E5     	 b .L52
 1215              	.LVL110:
 1216              	.L80:
 1217              	.LBB134:
 1218              	.LBB135:
 331:D:/School/diseratie/SEMS/xmc4800_evaluation_kit/optiga-trust-m/optiga/comms/ifx_i2c\ifx_i2c_data_link_layer.c ****     }
 1219              	 .loc 1 331 0
 1220 051a 43F08004 	 orr r4,r3,#128
 1221              	.LVL111:
 1222              	.LBB136:
 1223              	.LBB137:
 1224              	.LBB138:
 1225              	.LBB139:
 264:D:/School/diseratie/SEMS/xmc4800_evaluation_kit/optiga-trust-m/optiga/comms/ifx_i2c\ifx_i2c_data_link_layer.c ****     h3 = ((uint16_t)(h2 << 4)) ^ h1;
 1226              	 .loc 1 264 0
 1227 051e 03F00F03 	 and r3,r3,#15
 265:D:/School/diseratie/SEMS/xmc4800_evaluation_kit/optiga-trust-m/optiga/comms/ifx_i2c\ifx_i2c_data_link_layer.c ****     h4 = h3 >> 4;
 1228              	 .loc 1 265 0
 1229 0522 84EA0311 	 eor r1,r4,r3,lsl#4
 266:D:/School/diseratie/SEMS/xmc4800_evaluation_kit/optiga-trust-m/optiga/comms/ifx_i2c\ifx_i2c_data_link_layer.c **** 
 1230              	 .loc 1 266 0
 1231 0526 0A09     	 lsrs r2,r1,#4
 268:D:/School/diseratie/SEMS/xmc4800_evaluation_kit/optiga-trust-m/optiga/comms/ifx_i2c\ifx_i2c_data_link_layer.c **** }
 1232              	 .loc 1 268 0
 1233 0528 82EA4101 	 eor r1,r2,r1,lsl#1
 1234 052c 43EA0113 	 orr r3,r3,r1,lsl#4
 1235 0530 82EAC303 	 eor r3,r2,r3,lsl#3
 264:D:/School/diseratie/SEMS/xmc4800_evaluation_kit/optiga-trust-m/optiga/comms/ifx_i2c\ifx_i2c_data_link_layer.c ****     h3 = ((uint16_t)(h2 << 4)) ^ h1;
 1236              	 .loc 1 264 0
 1237 0534 03F00F00 	 and r0,r3,#15
 263:D:/School/diseratie/SEMS/xmc4800_evaluation_kit/optiga-trust-m/optiga/comms/ifx_i2c\ifx_i2c_data_link_layer.c ****     h2 = h1 & 0x0F;
 1238              	 .loc 1 263 0
 1239 0538 D9B2     	 uxtb r1,r3
 265:D:/School/diseratie/SEMS/xmc4800_evaluation_kit/optiga-trust-m/optiga/comms/ifx_i2c\ifx_i2c_data_link_layer.c ****     h4 = h3 >> 4;
 1240              	 .loc 1 265 0
 1241 053a 81EA0011 	 eor r1,r1,r0,lsl#4
 266:D:/School/diseratie/SEMS/xmc4800_evaluation_kit/optiga-trust-m/optiga/comms/ifx_i2c\ifx_i2c_data_link_layer.c **** 
 1242              	 .loc 1 266 0
 1243 053e 0A09     	 lsrs r2,r1,#4
 268:D:/School/diseratie/SEMS/xmc4800_evaluation_kit/optiga-trust-m/optiga/comms/ifx_i2c\ifx_i2c_data_link_layer.c **** }
 1244              	 .loc 1 268 0
 1245 0540 82EA4101 	 eor r1,r2,r1,lsl#1
 1246 0544 40EA0111 	 orr r1,r0,r1,lsl#4
 1247 0548 82EA1322 	 eor r2,r2,r3,lsr#8
 1248 054c 82EAC103 	 eor r3,r2,r1,lsl#3
 264:D:/School/diseratie/SEMS/xmc4800_evaluation_kit/optiga-trust-m/optiga/comms/ifx_i2c\ifx_i2c_data_link_layer.c ****     h3 = ((uint16_t)(h2 << 4)) ^ h1;
 1249              	 .loc 1 264 0
 1250 0550 03F00F00 	 and r0,r3,#15
 263:D:/School/diseratie/SEMS/xmc4800_evaluation_kit/optiga-trust-m/optiga/comms/ifx_i2c\ifx_i2c_data_link_layer.c ****     h2 = h1 & 0x0F;
 1251              	 .loc 1 263 0
 1252 0554 D9B2     	 uxtb r1,r3
 265:D:/School/diseratie/SEMS/xmc4800_evaluation_kit/optiga-trust-m/optiga/comms/ifx_i2c\ifx_i2c_data_link_layer.c ****     h4 = h3 >> 4;
 1253              	 .loc 1 265 0
 1254 0556 81EA0011 	 eor r1,r1,r0,lsl#4
 266:D:/School/diseratie/SEMS/xmc4800_evaluation_kit/optiga-trust-m/optiga/comms/ifx_i2c\ifx_i2c_data_link_layer.c **** 
 1255              	 .loc 1 266 0
 1256 055a 0A09     	 lsrs r2,r1,#4
 268:D:/School/diseratie/SEMS/xmc4800_evaluation_kit/optiga-trust-m/optiga/comms/ifx_i2c\ifx_i2c_data_link_layer.c **** }
 1257              	 .loc 1 268 0
 1258 055c 82EA4101 	 eor r1,r2,r1,lsl#1
 1259 0560 40EA0110 	 orr r0,r0,r1,lsl#4
 1260 0564 82EA1323 	 eor r3,r2,r3,lsr#8
 1261 0568 83EAC003 	 eor r3,r3,r0,lsl#3
 1262              	.LBE139:
 1263              	.LBE138:
 1264              	.LBE137:
 1265              	.LBE136:
 309:D:/School/diseratie/SEMS/xmc4800_evaluation_kit/optiga-trust-m/optiga/comms/ifx_i2c\ifx_i2c_data_link_layer.c ****     }
 1266              	 .loc 1 309 0
 1267 056c 696F     	 ldr r1,[r5,#116]
 1268              	.LBE135:
 1269              	.LBE134:
 499:D:/School/diseratie/SEMS/xmc4800_evaluation_kit/optiga-trust-m/optiga/comms/ifx_i2c\ifx_i2c_data_link_layer.c ****                     continue_state_machine = FALSE;
 1270              	 .loc 1 499 0
 1271 056e 0920     	 movs r0,#9
 1272 0570 EDE5     	 b .L74
 1273              	.LVL112:
 1274              	.L36:
 591:D:/School/diseratie/SEMS/xmc4800_evaluation_kit/optiga-trust-m/optiga/comms/ifx_i2c\ifx_i2c_data_link_layer.c ****             }
 1275              	 .loc 1 591 0
 1276 0572 039A     	 ldr r2,[sp,#12]
 1277 0574 EC6F     	 ldr r4,[r5,#124]
 1278              	.LVL113:
 589:D:/School/diseratie/SEMS/xmc4800_evaluation_kit/optiga-trust-m/optiga/comms/ifx_i2c\ifx_i2c_data_link_layer.c ****                 continue_state_machine = FALSE;
 1279              	 .loc 1 589 0
 1280 0576 0123     	 movs r3,#1
 1281 0578 85F86030 	 strb r3,[r5,#96]
 1282              	.LVL114:
 591:D:/School/diseratie/SEMS/xmc4800_evaluation_kit/optiga-trust-m/optiga/comms/ifx_i2c\ifx_i2c_data_link_layer.c ****             }
 1283              	 .loc 1 591 0
 1284 057c 2846     	 mov r0,r5
 1285 057e 0221     	 movs r1,#2
 1286 0580 1346     	 mov r3,r2
 1287 0582 A8E6     	 b .L73
 1288              	 .cfi_endproc
 1289              	.LFE8:
 1291              	 .section .text.ifx_i2c_dl_init,"ax",%progbits
 1292              	 .align 2
 1293              	 .global ifx_i2c_dl_init
 1294              	 .thumb
 1295              	 .thumb_func
 1297              	ifx_i2c_dl_init:
 1298              	.LFB0:
 196:D:/School/diseratie/SEMS/xmc4800_evaluation_kit/optiga-trust-m/optiga/comms/ifx_i2c\ifx_i2c_data_link_layer.c ****     LOG_DL("[IFX-DL]: Init\n");
 1299              	 .loc 1 196 0
 1300              	 .cfi_startproc
 1301              	 
 1302              	 
 1303              	.LVL115:
 199:D:/School/diseratie/SEMS/xmc4800_evaluation_kit/optiga-trust-m/optiga/comms/ifx_i2c\ifx_i2c_data_link_layer.c ****     // Initialize Physical Layer (and register event handler)
 1304              	 .loc 1 199 0
 1305 0000 0023     	 movs r3,#0
 196:D:/School/diseratie/SEMS/xmc4800_evaluation_kit/optiga-trust-m/optiga/comms/ifx_i2c\ifx_i2c_data_link_layer.c ****     LOG_DL("[IFX-DL]: Init\n");
 1306              	 .loc 1 196 0
 1307 0002 70B5     	 push {r4,r5,r6,lr}
 1308              	.LCFI22:
 1309              	 .cfi_def_cfa_offset 16
 1310              	 .cfi_offset 4,-16
 1311              	 .cfi_offset 5,-12
 1312              	 .cfi_offset 6,-8
 1313              	 .cfi_offset 14,-4
 196:D:/School/diseratie/SEMS/xmc4800_evaluation_kit/optiga-trust-m/optiga/comms/ifx_i2c\ifx_i2c_data_link_layer.c ****     LOG_DL("[IFX-DL]: Init\n");
 1314              	 .loc 1 196 0
 1315 0004 0D46     	 mov r5,r1
 199:D:/School/diseratie/SEMS/xmc4800_evaluation_kit/optiga-trust-m/optiga/comms/ifx_i2c\ifx_i2c_data_link_layer.c ****     // Initialize Physical Layer (and register event handler)
 1316              	 .loc 1 199 0
 1317 0006 80F86030 	 strb r3,[r0,#96]
 201:D:/School/diseratie/SEMS/xmc4800_evaluation_kit/optiga-trust-m/optiga/comms/ifx_i2c\ifx_i2c_data_link_layer.c ****     {
 1318              	 .loc 1 201 0
 1319 000a 0E49     	 ldr r1,.L90
 1320              	.LVL116:
 196:D:/School/diseratie/SEMS/xmc4800_evaluation_kit/optiga-trust-m/optiga/comms/ifx_i2c\ifx_i2c_data_link_layer.c ****     LOG_DL("[IFX-DL]: Init\n");
 1321              	 .loc 1 196 0
 1322 000c 0446     	 mov r4,r0
 201:D:/School/diseratie/SEMS/xmc4800_evaluation_kit/optiga-trust-m/optiga/comms/ifx_i2c\ifx_i2c_data_link_layer.c ****     {
 1323              	 .loc 1 201 0
 1324 000e FFF7FEFF 	 bl ifx_i2c_pl_init
 1325              	.LVL117:
 1326 0012 10B1     	 cbz r0,.L89
 203:D:/School/diseratie/SEMS/xmc4800_evaluation_kit/optiga-trust-m/optiga/comms/ifx_i2c\ifx_i2c_data_link_layer.c ****     }
 1327              	 .loc 1 203 0
 1328 0014 4FF48170 	 mov r0,#258
 217:D:/School/diseratie/SEMS/xmc4800_evaluation_kit/optiga-trust-m/optiga/comms/ifx_i2c\ifx_i2c_data_link_layer.c **** 
 1329              	 .loc 1 217 0
 1330 0018 70BD     	 pop {r4,r5,r6,pc}
 1331              	.LVL118:
 1332              	.L89:
 209:D:/School/diseratie/SEMS/xmc4800_evaluation_kit/optiga-trust-m/optiga/comms/ifx_i2c\ifx_i2c_data_link_layer.c ****     p_ctx->dl.rx_seq_nr = DL_MAX_FRAME_NUM;
 1333              	 .loc 1 209 0
 1334 001a 0323     	 movs r3,#3
 208:D:/School/diseratie/SEMS/xmc4800_evaluation_kit/optiga-trust-m/optiga/comms/ifx_i2c\ifx_i2c_data_link_layer.c ****     p_ctx->dl.tx_seq_nr = DL_MAX_FRAME_NUM;
 1335              	 .loc 1 208 0
 1336 001c 0126     	 movs r6,#1
 213:D:/School/diseratie/SEMS/xmc4800_evaluation_kit/optiga-trust-m/optiga/comms/ifx_i2c\ifx_i2c_data_link_layer.c ****     p_ctx->dl.p_rx_frame_buffer = p_ctx->rx_frame_buffer;
 1337              	 .loc 1 213 0
 1338 001e 04F52971 	 add r1,r4,#676
 214:D:/School/diseratie/SEMS/xmc4800_evaluation_kit/optiga-trust-m/optiga/comms/ifx_i2c\ifx_i2c_data_link_layer.c **** 
 1339              	 .loc 1 214 0
 1340 0022 04F2BA32 	 addw r2,r4,#954
 211:D:/School/diseratie/SEMS/xmc4800_evaluation_kit/optiga-trust-m/optiga/comms/ifx_i2c\ifx_i2c_data_link_layer.c ****     p_ctx->dl.error = 0;
 1341              	 .loc 1 211 0
 1342 0026 84F86600 	 strb r0,[r4,#102]
 212:D:/School/diseratie/SEMS/xmc4800_evaluation_kit/optiga-trust-m/optiga/comms/ifx_i2c\ifx_i2c_data_link_layer.c ****     p_ctx->dl.p_tx_frame_buffer = p_ctx->tx_frame_buffer;
 1343              	 .loc 1 212 0
 1344 002a 84F86500 	 strb r0,[r4,#101]
 208:D:/School/diseratie/SEMS/xmc4800_evaluation_kit/optiga-trust-m/optiga/comms/ifx_i2c\ifx_i2c_data_link_layer.c ****     p_ctx->dl.tx_seq_nr = DL_MAX_FRAME_NUM;
 1345              	 .loc 1 208 0
 1346 002e 84F86060 	 strb r6,[r4,#96]
 209:D:/School/diseratie/SEMS/xmc4800_evaluation_kit/optiga-trust-m/optiga/comms/ifx_i2c\ifx_i2c_data_link_layer.c ****     p_ctx->dl.rx_seq_nr = DL_MAX_FRAME_NUM;
 1347              	 .loc 1 209 0
 1348 0032 84F86130 	 strb r3,[r4,#97]
 210:D:/School/diseratie/SEMS/xmc4800_evaluation_kit/optiga-trust-m/optiga/comms/ifx_i2c\ifx_i2c_data_link_layer.c ****     p_ctx->dl.resynced = 0;
 1349              	 .loc 1 210 0
 1350 0036 84F86230 	 strb r3,[r4,#98]
 207:D:/School/diseratie/SEMS/xmc4800_evaluation_kit/optiga-trust-m/optiga/comms/ifx_i2c\ifx_i2c_data_link_layer.c ****     p_ctx->dl.state = DL_STATE_IDLE;
 1351              	 .loc 1 207 0
 1352 003a E567     	 str r5,[r4,#124]
 213:D:/School/diseratie/SEMS/xmc4800_evaluation_kit/optiga-trust-m/optiga/comms/ifx_i2c\ifx_i2c_data_link_layer.c ****     p_ctx->dl.p_rx_frame_buffer = p_ctx->rx_frame_buffer;
 1353              	 .loc 1 213 0
 1354 003c 2167     	 str r1,[r4,#112]
 214:D:/School/diseratie/SEMS/xmc4800_evaluation_kit/optiga-trust-m/optiga/comms/ifx_i2c\ifx_i2c_data_link_layer.c **** 
 1355              	 .loc 1 214 0
 1356 003e 6267     	 str r2,[r4,#116]
 216:D:/School/diseratie/SEMS/xmc4800_evaluation_kit/optiga-trust-m/optiga/comms/ifx_i2c\ifx_i2c_data_link_layer.c **** }
 1357              	 .loc 1 216 0
 1358 0040 70BD     	 pop {r4,r5,r6,pc}
 1359              	.LVL119:
 1360              	.L91:
 1361 0042 00BF     	 .align 2
 1362              	.L90:
 1363 0044 00000000 	 .word ifx_i2c_pl_event_handler
 1364              	 .cfi_endproc
 1365              	.LFE0:
 1367              	 .section .text.ifx_i2c_dl_send_frame,"ax",%progbits
 1368              	 .align 2
 1369              	 .global ifx_i2c_dl_send_frame
 1370              	 .thumb
 1371              	 .thumb_func
 1373              	ifx_i2c_dl_send_frame:
 1374              	.LFB1:
 220:D:/School/diseratie/SEMS/xmc4800_evaluation_kit/optiga-trust-m/optiga/comms/ifx_i2c\ifx_i2c_data_link_layer.c ****     LOG_DL("[IFX-DL]: Start TX Frame\n");
 1375              	 .loc 1 220 0
 1376              	 .cfi_startproc
 1377              	 
 1378              	 
 1379              	.LVL120:
 223:D:/School/diseratie/SEMS/xmc4800_evaluation_kit/optiga-trust-m/optiga/comms/ifx_i2c\ifx_i2c_data_link_layer.c ****     {
 1380              	 .loc 1 223 0
 1381 0000 90F86030 	 ldrb r3,[r0,#96]
 1382 0004 012B     	 cmp r3,#1
 1383 0006 02D0     	 beq .L102
 1384              	.L93:
 235:D:/School/diseratie/SEMS/xmc4800_evaluation_kit/optiga-trust-m/optiga/comms/ifx_i2c\ifx_i2c_data_link_layer.c **** 
 1385              	 .loc 1 235 0
 1386 0008 4FF48170 	 mov r0,#258
 1387              	.LVL121:
 1388 000c 7047     	 bx lr
 1389              	.LVL122:
 1390              	.L102:
 223:D:/School/diseratie/SEMS/xmc4800_evaluation_kit/optiga-trust-m/optiga/comms/ifx_i2c\ifx_i2c_data_link_layer.c ****     {
 1391              	 .loc 1 223 0 discriminator 1
 1392 000e 0029     	 cmp r1,#0
 1393 0010 FAD0     	 beq .L93
 220:D:/School/diseratie/SEMS/xmc4800_evaluation_kit/optiga-trust-m/optiga/comms/ifx_i2c\ifx_i2c_data_link_layer.c ****     LOG_DL("[IFX-DL]: Start TX Frame\n");
 1394              	 .loc 1 220 0
 1395 0012 F0B5     	 push {r4,r5,r6,r7,lr}
 1396              	.LCFI23:
 1397              	 .cfi_def_cfa_offset 20
 1398              	 .cfi_offset 4,-20
 1399              	 .cfi_offset 5,-16
 1400              	 .cfi_offset 6,-12
 1401              	 .cfi_offset 7,-8
 1402              	 .cfi_offset 14,-4
 1403              	.LBB146:
 1404              	.LBB147:
 299:D:/School/diseratie/SEMS/xmc4800_evaluation_kit/optiga-trust-m/optiga/comms/ifx_i2c\ifx_i2c_data_link_layer.c ****     if (DL_FCTR_SEQCTR_VALUE_RESYNC == seqctr_value)
 1405              	 .loc 1 299 0
 1406 0014 056F     	 ldr r5,[r0,#112]
 290:D:/School/diseratie/SEMS/xmc4800_evaluation_kit/optiga-trust-m/optiga/comms/ifx_i2c\ifx_i2c_data_link_layer.c ****     uint8_t * p_buffer;
 1407              	 .loc 1 290 0
 1408 0016 90F86230 	 ldrb r3,[r0,#98]
 1409              	.LBE147:
 1410              	.LBE146:
 231:D:/School/diseratie/SEMS/xmc4800_evaluation_kit/optiga-trust-m/optiga/comms/ifx_i2c\ifx_i2c_data_link_layer.c ****     p_ctx->dl.data_poll_timeout = PL_TRANS_TIMEOUT_MS;
 1411              	 .loc 1 231 0
 1412 001a A0F86C10 	 strh r1,[r0,#108]
 229:D:/School/diseratie/SEMS/xmc4800_evaluation_kit/optiga-trust-m/optiga/comms/ifx_i2c\ifx_i2c_data_link_layer.c ****     p_ctx->dl.action_rx_only = 0;
 1413              	 .loc 1 229 0
 1414 001e 0022     	 movs r2,#0
 228:D:/School/diseratie/SEMS/xmc4800_evaluation_kit/optiga-trust-m/optiga/comms/ifx_i2c\ifx_i2c_data_link_layer.c ****     p_ctx->dl.retransmit_counter = 0;
 1415              	 .loc 1 228 0
 1416 0020 0226     	 movs r6,#2
 232:D:/School/diseratie/SEMS/xmc4800_evaluation_kit/optiga-trust-m/optiga/comms/ifx_i2c\ifx_i2c_data_link_layer.c **** 
 1417              	 .loc 1 232 0
 1418 0022 0A24     	 movs r4,#10
 1419 0024 8466     	 str r4,[r0,#104]
 1420              	.LVL123:
 228:D:/School/diseratie/SEMS/xmc4800_evaluation_kit/optiga-trust-m/optiga/comms/ifx_i2c\ifx_i2c_data_link_layer.c ****     p_ctx->dl.retransmit_counter = 0;
 1421              	 .loc 1 228 0
 1422 0026 80F86060 	 strb r6,[r0,#96]
 229:D:/School/diseratie/SEMS/xmc4800_evaluation_kit/optiga-trust-m/optiga/comms/ifx_i2c\ifx_i2c_data_link_layer.c ****     p_ctx->dl.action_rx_only = 0;
 1423              	 .loc 1 229 0
 1424 002a 80F86420 	 strb r2,[r0,#100]
 230:D:/School/diseratie/SEMS/xmc4800_evaluation_kit/optiga-trust-m/optiga/comms/ifx_i2c\ifx_i2c_data_link_layer.c ****     p_ctx->dl.tx_buffer_size = frame_len;
 1425              	 .loc 1 230 0
 1426 002e 80F86320 	 strb r2,[r0,#99]
 1427              	.LBB162:
 1428              	.LBB160:
 314:D:/School/diseratie/SEMS/xmc4800_evaluation_kit/optiga-trust-m/optiga/comms/ifx_i2c\ifx_i2c_data_link_layer.c ****     p_buffer[0] |= (uint8_t)(seqctr_value << DL_FCTR_SEQCTR_OFFSET);
 1429              	 .loc 1 314 0
 1430 0032 2B70     	 strb r3,[r5]
 1431              	.LVL124:
 322:D:/School/diseratie/SEMS/xmc4800_evaluation_kit/optiga-trust-m/optiga/comms/ifx_i2c\ifx_i2c_data_link_layer.c ****         }
 1432              	 .loc 1 322 0
 1433 0034 90F86130 	 ldrb r3,[r0,#97]
 1434              	.LVL125:
 1435 0038 0133     	 adds r3,r3,#1
 1436 003a 03F00303 	 and r3,r3,#3
 1437 003e 80F86130 	 strb r3,[r0,#97]
 1438              	.LVL126:
 324:D:/School/diseratie/SEMS/xmc4800_evaluation_kit/optiga-trust-m/optiga/comms/ifx_i2c\ifx_i2c_data_link_layer.c ****         // Reset resync received
 1439              	 .loc 1 324 0
 1440 0042 2E78     	 ldrb r6,[r5]
 1441 0044 46EA8303 	 orr r3,r6,r3,lsl#2
 1442              	.LBB148:
 1443              	.LBB149:
 276:D:/School/diseratie/SEMS/xmc4800_evaluation_kit/optiga-trust-m/optiga/comms/ifx_i2c\ifx_i2c_data_link_layer.c ****     {
 1444              	 .loc 1 276 0
 1445 0048 4FF6FD76 	 movw r6,#65533
 1446              	.LBE149:
 1447              	.LBE148:
 335:D:/School/diseratie/SEMS/xmc4800_evaluation_kit/optiga-trust-m/optiga/comms/ifx_i2c\ifx_i2c_data_link_layer.c ****     p_buffer[2] = (uint8_t)frame_len;
 1448              	 .loc 1 335 0
 1449 004c 0C0A     	 lsrs r4,r1,#8
 1450              	.LBB157:
 1451              	.LBB154:
 276:D:/School/diseratie/SEMS/xmc4800_evaluation_kit/optiga-trust-m/optiga/comms/ifx_i2c\ifx_i2c_data_link_layer.c ****     {
 1452              	 .loc 1 276 0
 1453 004e B142     	 cmp r1,r6
 1454              	.LBE154:
 1455              	.LBE157:
 324:D:/School/diseratie/SEMS/xmc4800_evaluation_kit/optiga-trust-m/optiga/comms/ifx_i2c\ifx_i2c_data_link_layer.c ****         // Reset resync received
 1456              	 .loc 1 324 0
 1457 0050 2B70     	 strb r3,[r5]
 326:D:/School/diseratie/SEMS/xmc4800_evaluation_kit/optiga-trust-m/optiga/comms/ifx_i2c\ifx_i2c_data_link_layer.c ****         OPTIGA_COMMS_LOG_MESSAGE(">>>>");
 1458              	 .loc 1 326 0
 1459 0052 80F86620 	 strb r2,[r0,#102]
 336:D:/School/diseratie/SEMS/xmc4800_evaluation_kit/optiga-trust-m/optiga/comms/ifx_i2c\ifx_i2c_data_link_layer.c **** 
 1460              	 .loc 1 336 0
 1461 0056 A970     	 strb r1,[r5,#2]
 1462              	.LVL127:
 335:D:/School/diseratie/SEMS/xmc4800_evaluation_kit/optiga-trust-m/optiga/comms/ifx_i2c\ifx_i2c_data_link_layer.c ****     p_buffer[2] = (uint8_t)frame_len;
 1463              	 .loc 1 335 0
 1464 0058 6C70     	 strb r4,[r5,#1]
 1465              	.LBB158:
 1466              	.LBB155:
 276:D:/School/diseratie/SEMS/xmc4800_evaluation_kit/optiga-trust-m/optiga/comms/ifx_i2c\ifx_i2c_data_link_layer.c ****     {
 1467              	 .loc 1 276 0
 1468 005a 27D0     	 beq .L98
 1469 005c 8F1C     	 adds r7,r1,#2
 1470 005e 9646     	 mov lr,r2
 1471 0060 15FA87F7 	 uxtah r7,r5,r7
 1472 0064 6E1E     	 subs r6,r5,#1
 1473              	.LVL128:
 1474              	.L95:
 1475              	.LBB150:
 1476              	.LBB151:
 263:D:/School/diseratie/SEMS/xmc4800_evaluation_kit/optiga-trust-m/optiga/comms/ifx_i2c\ifx_i2c_data_link_layer.c ****     h2 = h1 & 0x0F;
 1477              	 .loc 1 263 0
 1478 0066 16F8013F 	 ldrb r3,[r6,#1]!
 1479              	.LVL129:
 1480 006a 8EEA0303 	 eor r3,lr,r3
 1481              	.LVL130:
 264:D:/School/diseratie/SEMS/xmc4800_evaluation_kit/optiga-trust-m/optiga/comms/ifx_i2c\ifx_i2c_data_link_layer.c ****     h3 = ((uint16_t)(h2 << 4)) ^ h1;
 1482              	 .loc 1 264 0
 1483 006e 03F00F04 	 and r4,r3,#15
 1484              	.LVL131:
 263:D:/School/diseratie/SEMS/xmc4800_evaluation_kit/optiga-trust-m/optiga/comms/ifx_i2c\ifx_i2c_data_link_layer.c ****     h2 = h1 & 0x0F;
 1485              	 .loc 1 263 0
 1486 0072 DBB2     	 uxtb r3,r3
 1487              	.LVL132:
 265:D:/School/diseratie/SEMS/xmc4800_evaluation_kit/optiga-trust-m/optiga/comms/ifx_i2c\ifx_i2c_data_link_layer.c ****     h4 = h3 >> 4;
 1488              	 .loc 1 265 0
 1489 0074 83EA0413 	 eor r3,r3,r4,lsl#4
 1490              	.LVL133:
 266:D:/School/diseratie/SEMS/xmc4800_evaluation_kit/optiga-trust-m/optiga/comms/ifx_i2c\ifx_i2c_data_link_layer.c **** 
 1491              	 .loc 1 266 0
 1492 0078 1A09     	 lsrs r2,r3,#4
 1493              	.LVL134:
 268:D:/School/diseratie/SEMS/xmc4800_evaluation_kit/optiga-trust-m/optiga/comms/ifx_i2c\ifx_i2c_data_link_layer.c **** }
 1494              	 .loc 1 268 0
 1495 007a 82EA4303 	 eor r3,r2,r3,lsl#1
 1496              	.LVL135:
 1497 007e 44EA0313 	 orr r3,r4,r3,lsl#4
 1498 0082 82EA1E22 	 eor r2,r2,lr,lsr#8
 1499              	.LVL136:
 1500              	.LBE151:
 1501              	.LBE150:
 276:D:/School/diseratie/SEMS/xmc4800_evaluation_kit/optiga-trust-m/optiga/comms/ifx_i2c\ifx_i2c_data_link_layer.c ****     {
 1502              	 .loc 1 276 0
 1503 0086 BE42     	 cmp r6,r7
 1504              	.LBB153:
 1505              	.LBB152:
 268:D:/School/diseratie/SEMS/xmc4800_evaluation_kit/optiga-trust-m/optiga/comms/ifx_i2c\ifx_i2c_data_link_layer.c **** }
 1506              	 .loc 1 268 0
 1507 0088 82EAC30E 	 eor lr,r2,r3,lsl#3
 1508              	.LVL137:
 1509              	.LBE152:
 1510              	.LBE153:
 276:D:/School/diseratie/SEMS/xmc4800_evaluation_kit/optiga-trust-m/optiga/comms/ifx_i2c\ifx_i2c_data_link_layer.c ****     {
 1511              	 .loc 1 276 0
 1512 008c EBD1     	 bne .L95
 1513 008e 4FEA1E24 	 lsr r4,lr,#8
 1514              	.LVL138:
 1515 0092 5FFA8EFE 	 uxtb lr,lr
 1516              	.LVL139:
 1517              	.L94:
 1518              	.LBE155:
 1519              	.LBE158:
 340:D:/School/diseratie/SEMS/xmc4800_evaluation_kit/optiga-trust-m/optiga/comms/ifx_i2c\ifx_i2c_data_link_layer.c ****     p_buffer[4 + frame_len] = (uint8_t)crc;
 1520              	 .loc 1 340 0
 1521 0096 6B18     	 adds r3,r5,r1
 345:D:/School/diseratie/SEMS/xmc4800_evaluation_kit/optiga-trust-m/optiga/comms/ifx_i2c\ifx_i2c_data_link_layer.c **** }
 1522              	 .loc 1 345 0
 1523 0098 4A1D     	 adds r2,r1,#5
 340:D:/School/diseratie/SEMS/xmc4800_evaluation_kit/optiga-trust-m/optiga/comms/ifx_i2c\ifx_i2c_data_link_layer.c ****     p_buffer[4 + frame_len] = (uint8_t)crc;
 1524              	 .loc 1 340 0
 1525 009a DC70     	 strb r4,[r3,#3]
 341:D:/School/diseratie/SEMS/xmc4800_evaluation_kit/optiga-trust-m/optiga/comms/ifx_i2c\ifx_i2c_data_link_layer.c **** 
 1526              	 .loc 1 341 0
 1527 009c 83F804E0 	 strb lr,[r3,#4]
 345:D:/School/diseratie/SEMS/xmc4800_evaluation_kit/optiga-trust-m/optiga/comms/ifx_i2c\ifx_i2c_data_link_layer.c **** }
 1528              	 .loc 1 345 0
 1529 00a0 2946     	 mov r1,r5
 1530              	.LVL140:
 1531 00a2 92B2     	 uxth r2,r2
 1532              	.LBE160:
 1533              	.LBE162:
 235:D:/School/diseratie/SEMS/xmc4800_evaluation_kit/optiga-trust-m/optiga/comms/ifx_i2c\ifx_i2c_data_link_layer.c **** 
 1534              	 .loc 1 235 0
 1535 00a4 BDE8F040 	 pop {r4,r5,r6,r7,lr}
 1536              	.LCFI24:
 1537              	 .cfi_remember_state
 1538              	 .cfi_restore 14
 1539              	 .cfi_restore 7
 1540              	 .cfi_restore 6
 1541              	 .cfi_restore 5
 1542              	 .cfi_restore 4
 1543              	 .cfi_def_cfa_offset 0
 1544              	.LVL141:
 1545              	.LBB163:
 1546              	.LBB161:
 345:D:/School/diseratie/SEMS/xmc4800_evaluation_kit/optiga-trust-m/optiga/comms/ifx_i2c\ifx_i2c_data_link_layer.c **** }
 1547              	 .loc 1 345 0
 1548 00a8 FFF7FEBF 	 b ifx_i2c_pl_send_frame
 1549              	.LVL142:
 1550              	.L98:
 1551              	.LCFI25:
 1552              	 .cfi_restore_state
 1553              	.LBB159:
 1554              	.LBB156:
 276:D:/School/diseratie/SEMS/xmc4800_evaluation_kit/optiga-trust-m/optiga/comms/ifx_i2c\ifx_i2c_data_link_layer.c ****     {
 1555              	 .loc 1 276 0
 1556 00ac 9646     	 mov lr,r2
 1557 00ae 1446     	 mov r4,r2
 1558 00b0 F1E7     	 b .L94
 1559              	.LBE156:
 1560              	.LBE159:
 1561              	.LBE161:
 1562              	.LBE163:
 1563              	 .cfi_endproc
 1564              	.LFE1:
 1566 00b2 00BF     	 .section .text.ifx_i2c_dl_receive_frame,"ax",%progbits
 1567              	 .align 2
 1568              	 .global ifx_i2c_dl_receive_frame
 1569              	 .thumb
 1570              	 .thumb_func
 1572              	ifx_i2c_dl_receive_frame:
 1573              	.LFB2:
 238:D:/School/diseratie/SEMS/xmc4800_evaluation_kit/optiga-trust-m/optiga/comms/ifx_i2c\ifx_i2c_data_link_layer.c ****     LOG_DL("[IFX-DL]: Start RX Frame\n");
 1574              	 .loc 1 238 0
 1575              	 .cfi_startproc
 1576              	 
 1577              	 
 1578              	.LVL143:
 241:D:/School/diseratie/SEMS/xmc4800_evaluation_kit/optiga-trust-m/optiga/comms/ifx_i2c\ifx_i2c_data_link_layer.c ****     {
 1579              	 .loc 1 241 0
 1580 0000 90F86030 	 ldrb r3,[r0,#96]
 1581 0004 012B     	 cmp r3,#1
 1582 0006 02D0     	 beq .L106
 254:D:/School/diseratie/SEMS/xmc4800_evaluation_kit/optiga-trust-m/optiga/comms/ifx_i2c\ifx_i2c_data_link_layer.c **** 
 1583              	 .loc 1 254 0
 1584 0008 4FF48170 	 mov r0,#258
 1585              	.LVL144:
 1586 000c 7047     	 bx lr
 1587              	.LVL145:
 1588              	.L106:
 238:D:/School/diseratie/SEMS/xmc4800_evaluation_kit/optiga-trust-m/optiga/comms/ifx_i2c\ifx_i2c_data_link_layer.c ****     LOG_DL("[IFX-DL]: Start RX Frame\n");
 1589              	 .loc 1 238 0
 1590 000e 10B5     	 push {r4,lr}
 1591              	.LCFI26:
 1592              	 .cfi_def_cfa_offset 8
 1593              	 .cfi_offset 4,-8
 1594              	 .cfi_offset 14,-4
 247:D:/School/diseratie/SEMS/xmc4800_evaluation_kit/optiga-trust-m/optiga/comms/ifx_i2c\ifx_i2c_data_link_layer.c ****     p_ctx->dl.retransmit_counter = 0;
 1595              	 .loc 1 247 0
 1596 0010 0321     	 movs r1,#3
 248:D:/School/diseratie/SEMS/xmc4800_evaluation_kit/optiga-trust-m/optiga/comms/ifx_i2c\ifx_i2c_data_link_layer.c ****     p_ctx->dl.action_rx_only = 1;
 1597              	 .loc 1 248 0
 1598 0012 0022     	 movs r2,#0
 249:D:/School/diseratie/SEMS/xmc4800_evaluation_kit/optiga-trust-m/optiga/comms/ifx_i2c\ifx_i2c_data_link_layer.c ****     p_ctx->dl.frame_start_time = pal_os_timer_get_time_in_milliseconds();
 1599              	 .loc 1 249 0
 1600 0014 80F86330 	 strb r3,[r0,#99]
 247:D:/School/diseratie/SEMS/xmc4800_evaluation_kit/optiga-trust-m/optiga/comms/ifx_i2c\ifx_i2c_data_link_layer.c ****     p_ctx->dl.retransmit_counter = 0;
 1601              	 .loc 1 247 0
 1602 0018 80F86010 	 strb r1,[r0,#96]
 248:D:/School/diseratie/SEMS/xmc4800_evaluation_kit/optiga-trust-m/optiga/comms/ifx_i2c\ifx_i2c_data_link_layer.c ****     p_ctx->dl.action_rx_only = 1;
 1603              	 .loc 1 248 0
 1604 001c 80F86420 	 strb r2,[r0,#100]
 1605 0020 0446     	 mov r4,r0
 250:D:/School/diseratie/SEMS/xmc4800_evaluation_kit/optiga-trust-m/optiga/comms/ifx_i2c\ifx_i2c_data_link_layer.c ****     p_ctx->dl.data_poll_timeout = TL_MAX_EXIT_TIMEOUT * DL_SEC_TO_MSECS;
 1606              	 .loc 1 250 0
 1607 0022 FFF7FEFF 	 bl pal_os_timer_get_time_in_milliseconds
 1608              	.LVL146:
 251:D:/School/diseratie/SEMS/xmc4800_evaluation_kit/optiga-trust-m/optiga/comms/ifx_i2c\ifx_i2c_data_link_layer.c **** 
 1609              	 .loc 1 251 0
 1610 0026 044B     	 ldr r3,.L107
 250:D:/School/diseratie/SEMS/xmc4800_evaluation_kit/optiga-trust-m/optiga/comms/ifx_i2c\ifx_i2c_data_link_layer.c ****     p_ctx->dl.data_poll_timeout = TL_MAX_EXIT_TIMEOUT * DL_SEC_TO_MSECS;
 1611              	 .loc 1 250 0
 1612 0028 A067     	 str r0,[r4,#120]
 251:D:/School/diseratie/SEMS/xmc4800_evaluation_kit/optiga-trust-m/optiga/comms/ifx_i2c\ifx_i2c_data_link_layer.c **** 
 1613              	 .loc 1 251 0
 1614 002a A366     	 str r3,[r4,#104]
 253:D:/School/diseratie/SEMS/xmc4800_evaluation_kit/optiga-trust-m/optiga/comms/ifx_i2c\ifx_i2c_data_link_layer.c **** }
 1615              	 .loc 1 253 0
 1616 002c 2046     	 mov r0,r4
 254:D:/School/diseratie/SEMS/xmc4800_evaluation_kit/optiga-trust-m/optiga/comms/ifx_i2c\ifx_i2c_data_link_layer.c **** 
 1617              	 .loc 1 254 0
 1618 002e BDE81040 	 pop {r4,lr}
 1619              	.LCFI27:
 1620              	 .cfi_restore 14
 1621              	 .cfi_restore 4
 1622              	 .cfi_def_cfa_offset 0
 1623              	.LVL147:
 253:D:/School/diseratie/SEMS/xmc4800_evaluation_kit/optiga-trust-m/optiga/comms/ifx_i2c\ifx_i2c_data_link_layer.c **** }
 1624              	 .loc 1 253 0
 1625 0032 FFF7FEBF 	 b ifx_i2c_pl_receive_frame
 1626              	.LVL148:
 1627              	.L108:
 1628 0036 00BF     	 .align 2
 1629              	.L107:
 1630 0038 20BF0200 	 .word 180000
 1631              	 .cfi_endproc
 1632              	.LFE2:
 1634              	 .text
 1635              	.Letext0:
 1636              	 .file 2 "c:\\infineon\\tools\\dave ide\\4.5.0.202105191637\\eclipse\\arm-gcc-49\\arm-none-eabi\\include\\machine\\_default_types.h"
 1637              	 .file 3 "c:\\infineon\\tools\\dave ide\\4.5.0.202105191637\\eclipse\\arm-gcc-49\\arm-none-eabi\\include\\stdint.h"
 1638              	 .file 4 "D:/School/diseratie/SEMS/xmc4800_evaluation_kit/optiga-trust-m/optiga/include/optiga/common/optiga_lib_types.h"
 1639              	 .file 5 "D:/School/diseratie/SEMS/xmc4800_evaluation_kit/optiga-trust-m/optiga/include/optiga/pal/pal_i2c.h"
 1640              	 .file 6 "D:/School/diseratie/SEMS/xmc4800_evaluation_kit/optiga-trust-m/optiga/include/optiga/pal/pal_gpio.h"
 1641              	 .file 7 "D:/School/diseratie/SEMS/xmc4800_evaluation_kit/optiga-trust-m/optiga/include/optiga/ifx_i2c/ifx_i2c_config.h"
 1642              	 .file 8 "D:/School/diseratie/SEMS/xmc4800_evaluation_kit/optiga-trust-m/optiga/include/optiga/ifx_i2c/ifx_i2c_physical_layer.h"
 1643              	 .file 9 "D:/School/diseratie/SEMS/xmc4800_evaluation_kit/optiga-trust-m/optiga/include/optiga/pal/pal_os_timer.h"